ARM GAS  C:\Users\honet\AppData\Local\Temp\cck4WRYR.s 			page 1


   1              		.syntax unified
   2              		.cpu cortex-m3
   3              		.fpu softvfp
   4              		.eabi_attribute 20, 1
   5              		.eabi_attribute 21, 1
   6              		.eabi_attribute 23, 3
   7              		.eabi_attribute 24, 1
   8              		.eabi_attribute 25, 1
   9              		.eabi_attribute 26, 1
  10              		.eabi_attribute 30, 1
  11              		.eabi_attribute 34, 1
  12              		.eabi_attribute 18, 4
  13              		.thumb
  14              		.file	"DMASDSPI_1_api.c"
  15              		.text
  16              	.Ltext0:
  17              		.cfi_sections	.debug_frame
  18              		.section	.text.DMASDSPI_1_RX_ISR,"ax",%progbits
  19              		.align	2
  20              		.global	DMASDSPI_1_RX_ISR
  21              		.thumb
  22              		.thumb_func
  23              		.type	DMASDSPI_1_RX_ISR, %function
  24              	DMASDSPI_1_RX_ISR:
  25              	.LFB0:
  26              		.file 1 ".\\Generated_Source\\PSoC5\\DMASDSPI_1_api.c"
   1:.\Generated_Source\PSoC5/DMASDSPI_1_api.c **** /* ========================================
   2:.\Generated_Source\PSoC5/DMASDSPI_1_api.c ****  *
   3:.\Generated_Source\PSoC5/DMASDSPI_1_api.c ****  * Copyright YOUR COMPANY, THE YEAR
   4:.\Generated_Source\PSoC5/DMASDSPI_1_api.c ****  * All Rights Reserved
   5:.\Generated_Source\PSoC5/DMASDSPI_1_api.c ****  * UNPUBLISHED, LICENSED SOFTWARE.
   6:.\Generated_Source\PSoC5/DMASDSPI_1_api.c ****  *
   7:.\Generated_Source\PSoC5/DMASDSPI_1_api.c ****  * CONFIDENTIAL AND PROPRIETARY INFORMATION
   8:.\Generated_Source\PSoC5/DMASDSPI_1_api.c ****  * WHICH IS THE PROPERTY OF your company.
   9:.\Generated_Source\PSoC5/DMASDSPI_1_api.c ****  *
  10:.\Generated_Source\PSoC5/DMASDSPI_1_api.c ****  * ========================================
  11:.\Generated_Source\PSoC5/DMASDSPI_1_api.c **** */
  12:.\Generated_Source\PSoC5/DMASDSPI_1_api.c **** #include "DMASDSPI_1_api.h"
  13:.\Generated_Source\PSoC5/DMASDSPI_1_api.c **** #include "DMASDSPI_1_fatfs.h"
  14:.\Generated_Source\PSoC5/DMASDSPI_1_api.c **** 
  15:.\Generated_Source\PSoC5/DMASDSPI_1_api.c **** volatile unsigned char DMASDSPI_1_g_nTransferFlags = 0;
  16:.\Generated_Source\PSoC5/DMASDSPI_1_api.c **** volatile unsigned char DMASDSPI_1_g_nCtrlState = 0;
  17:.\Generated_Source\PSoC5/DMASDSPI_1_api.c **** 
  18:.\Generated_Source\PSoC5/DMASDSPI_1_api.c **** uint8_t DMASDSPI_1_bEnableDMA;
  19:.\Generated_Source\PSoC5/DMASDSPI_1_api.c ****     
  20:.\Generated_Source\PSoC5/DMASDSPI_1_api.c **** /* Variable declarations for NSDSPI_RX */
  21:.\Generated_Source\PSoC5/DMASDSPI_1_api.c **** /* Move these variable declarations to the top of the function */
  22:.\Generated_Source\PSoC5/DMASDSPI_1_api.c **** uint8_t DMASDSPI_1_RX_Chan;
  23:.\Generated_Source\PSoC5/DMASDSPI_1_api.c **** uint8_t DMASDSPI_1_RX_TD[1];
  24:.\Generated_Source\PSoC5/DMASDSPI_1_api.c **** /* Variable declarations for NSDSPI_TX */
  25:.\Generated_Source\PSoC5/DMASDSPI_1_api.c **** /* Move these variable declarations to the top of the function */
  26:.\Generated_Source\PSoC5/DMASDSPI_1_api.c **** uint8_t DMASDSPI_1_TX_Chan;
  27:.\Generated_Source\PSoC5/DMASDSPI_1_api.c **** uint8_t DMASDSPI_1_TX_TD[1];
  28:.\Generated_Source\PSoC5/DMASDSPI_1_api.c **** 
  29:.\Generated_Source\PSoC5/DMASDSPI_1_api.c **** 
  30:.\Generated_Source\PSoC5/DMASDSPI_1_api.c **** //Standard (non DMA receive) ISR
  31:.\Generated_Source\PSoC5/DMASDSPI_1_api.c **** void DMASDSPI_1_RX_ISR()
ARM GAS  C:\Users\honet\AppData\Local\Temp\cck4WRYR.s 			page 2


  32:.\Generated_Source\PSoC5/DMASDSPI_1_api.c **** {
  27              		.loc 1 32 0
  28              		.cfi_startproc
  29              		@ args = 0, pretend = 0, frame = 0
  30              		@ frame_needed = 0, uses_anonymous_args = 0
  31 0000 08B5     		push	{r3, lr}
  32              		.cfi_def_cfa_offset 8
  33              		.cfi_offset 3, -8
  34              		.cfi_offset 14, -4
  33:.\Generated_Source\PSoC5/DMASDSPI_1_api.c ****     DMASDSPI_1_g_nTransferFlags &= ~DMASDSPI_1_TRANSFER_WAIT_RXISR;
  35              		.loc 1 33 0
  36 0002 044A     		ldr	r2, .L3
  37 0004 1378     		ldrb	r3, [r2]	@ zero_extendqisi2
  38 0006 03F0FE03 		and	r3, r3, #254
  39 000a 1370     		strb	r3, [r2]
  34:.\Generated_Source\PSoC5/DMASDSPI_1_api.c ****     DMASDSPI_1_RX_ISR_Disable();
  40              		.loc 1 34 0
  41 000c FFF7FEFF 		bl	DMASDSPI_1_RX_ISR_Disable
  42              	.LVL0:
  43 0010 08BD     		pop	{r3, pc}
  44              	.L4:
  45 0012 00BF     		.align	2
  46              	.L3:
  47 0014 00000000 		.word	.LANCHOR0
  48              		.cfi_endproc
  49              	.LFE0:
  50              		.size	DMASDSPI_1_RX_ISR, .-DMASDSPI_1_RX_ISR
  51              		.section	.text.DMASDSPI_1_RX_DMA_ISR,"ax",%progbits
  52              		.align	2
  53              		.global	DMASDSPI_1_RX_DMA_ISR
  54              		.thumb
  55              		.thumb_func
  56              		.type	DMASDSPI_1_RX_DMA_ISR, %function
  57              	DMASDSPI_1_RX_DMA_ISR:
  58              	.LFB1:
  35:.\Generated_Source\PSoC5/DMASDSPI_1_api.c **** }
  36:.\Generated_Source\PSoC5/DMASDSPI_1_api.c **** 
  37:.\Generated_Source\PSoC5/DMASDSPI_1_api.c **** //DMA termination ISRs
  38:.\Generated_Source\PSoC5/DMASDSPI_1_api.c **** void DMASDSPI_1_RX_DMA_ISR()
  39:.\Generated_Source\PSoC5/DMASDSPI_1_api.c **** {   DMASDSPI_1_g_nTransferFlags &= ~DMASDSPI_1_TRANSFER_WAIT_RXDMAISR;}
  59              		.loc 1 39 0
  60              		.cfi_startproc
  61              		@ args = 0, pretend = 0, frame = 0
  62              		@ frame_needed = 0, uses_anonymous_args = 0
  63              		@ link register save eliminated.
  64              		.loc 1 39 0
  65 0000 024A     		ldr	r2, .L6
  66 0002 1378     		ldrb	r3, [r2]	@ zero_extendqisi2
  67 0004 03F0FD03 		and	r3, r3, #253
  68 0008 1370     		strb	r3, [r2]
  69 000a 7047     		bx	lr
  70              	.L7:
  71              		.align	2
  72              	.L6:
  73 000c 00000000 		.word	.LANCHOR0
  74              		.cfi_endproc
  75              	.LFE1:
ARM GAS  C:\Users\honet\AppData\Local\Temp\cck4WRYR.s 			page 3


  76              		.size	DMASDSPI_1_RX_DMA_ISR, .-DMASDSPI_1_RX_DMA_ISR
  77              		.section	.text.DMASDSPI_1_TX_DMA_ISR,"ax",%progbits
  78              		.align	2
  79              		.global	DMASDSPI_1_TX_DMA_ISR
  80              		.thumb
  81              		.thumb_func
  82              		.type	DMASDSPI_1_TX_DMA_ISR, %function
  83              	DMASDSPI_1_TX_DMA_ISR:
  84              	.LFB2:
  40:.\Generated_Source\PSoC5/DMASDSPI_1_api.c **** 
  41:.\Generated_Source\PSoC5/DMASDSPI_1_api.c **** void DMASDSPI_1_TX_DMA_ISR()
  42:.\Generated_Source\PSoC5/DMASDSPI_1_api.c **** {   DMASDSPI_1_g_nTransferFlags &= ~DMASDSPI_1_TRANSFER_WAIT_TXDMAISR;}
  85              		.loc 1 42 0
  86              		.cfi_startproc
  87              		@ args = 0, pretend = 0, frame = 0
  88              		@ frame_needed = 0, uses_anonymous_args = 0
  89              		@ link register save eliminated.
  90              		.loc 1 42 0
  91 0000 024A     		ldr	r2, .L9
  92 0002 1378     		ldrb	r3, [r2]	@ zero_extendqisi2
  93 0004 03F0FB03 		and	r3, r3, #251
  94 0008 1370     		strb	r3, [r2]
  95 000a 7047     		bx	lr
  96              	.L10:
  97              		.align	2
  98              	.L9:
  99 000c 00000000 		.word	.LANCHOR0
 100              		.cfi_endproc
 101              	.LFE2:
 102              		.size	DMASDSPI_1_TX_DMA_ISR, .-DMASDSPI_1_TX_DMA_ISR
 103              		.section	.text.DMASDSPI_1_Start,"ax",%progbits
 104              		.align	2
 105              		.global	DMASDSPI_1_Start
 106              		.thumb
 107              		.thumb_func
 108              		.type	DMASDSPI_1_Start, %function
 109              	DMASDSPI_1_Start:
 110              	.LFB3:
  43:.\Generated_Source\PSoC5/DMASDSPI_1_api.c **** 
  44:.\Generated_Source\PSoC5/DMASDSPI_1_api.c **** 
  45:.\Generated_Source\PSoC5/DMASDSPI_1_api.c **** void DMASDSPI_1_Start(DMASDSPI_1_VOIDFXN FnSelSlowCk, DMASDSPI_1_VOIDFXN FnSelFastCk, DMASDSPI_1_PR
  46:.\Generated_Source\PSoC5/DMASDSPI_1_api.c **** {
 111              		.loc 1 46 0
 112              		.cfi_startproc
 113              		@ args = 0, pretend = 0, frame = 0
 114              		@ frame_needed = 0, uses_anonymous_args = 0
 115              		@ link register save eliminated.
 116              	.LVL1:
 117 0000 7047     		bx	lr
 118              		.cfi_endproc
 119              	.LFE3:
 120              		.size	DMASDSPI_1_Start, .-DMASDSPI_1_Start
 121 0002 00BF     		.section	.text.DMASDSPI_1_StartInterface,"ax",%progbits
 122              		.align	2
 123              		.global	DMASDSPI_1_StartInterface
 124              		.thumb
 125              		.thumb_func
ARM GAS  C:\Users\honet\AppData\Local\Temp\cck4WRYR.s 			page 4


 126              		.type	DMASDSPI_1_StartInterface, %function
 127              	DMASDSPI_1_StartInterface:
 128              	.LFB4:
  47:.\Generated_Source\PSoC5/DMASDSPI_1_api.c **** /*
  48:.\Generated_Source\PSoC5/DMASDSPI_1_api.c ****     DMASDSPI_1_bEnableDMA = 0;
  49:.\Generated_Source\PSoC5/DMASDSPI_1_api.c ****     SPI_FUNCTIONS SpiFuncs;
  50:.\Generated_Source\PSoC5/DMASDSPI_1_api.c ****     SpiFuncs.SPSTART = DMASDSPI_1_StartInterface;
  51:.\Generated_Source\PSoC5/DMASDSPI_1_api.c ****     SpiFuncs.SPSTOP = DMASDSPI_1_Stop;
  52:.\Generated_Source\PSoC5/DMASDSPI_1_api.c ****     SpiFuncs.SPRXSTREAM = DMASDSPI_1_ReceiveData;
  53:.\Generated_Source\PSoC5/DMASDSPI_1_api.c ****     SpiFuncs.SPTXSTREAM = DMASDSPI_1_SendData;
  54:.\Generated_Source\PSoC5/DMASDSPI_1_api.c ****     SpiFuncs.SPEXCHANGE = DMASDSPI_1_SwapByte;
  55:.\Generated_Source\PSoC5/DMASDSPI_1_api.c ****     SpiFuncs.SPSELECTCARD = DMASDSPI_1_SelectCard;
  56:.\Generated_Source\PSoC5/DMASDSPI_1_api.c ****     SpiFuncs.SPDESELECTCARD = DMASDSPI_1_DeselectCard;
  57:.\Generated_Source\PSoC5/DMASDSPI_1_api.c ****     SpiFuncs.SPFASTCK = FnSelFastCk;
  58:.\Generated_Source\PSoC5/DMASDSPI_1_api.c ****     SpiFuncs.SPSLOWCK = FnSelSlowCk;
  59:.\Generated_Source\PSoC5/DMASDSPI_1_api.c **** 
  60:.\Generated_Source\PSoC5/DMASDSPI_1_api.c ****     SpiFuncs.PRINT = FnPrint;
  61:.\Generated_Source\PSoC5/DMASDSPI_1_api.c ****     disk_attach_spifuncs(&SpiFuncs);   
  62:.\Generated_Source\PSoC5/DMASDSPI_1_api.c **** */
  63:.\Generated_Source\PSoC5/DMASDSPI_1_api.c **** }
  64:.\Generated_Source\PSoC5/DMASDSPI_1_api.c **** 
  65:.\Generated_Source\PSoC5/DMASDSPI_1_api.c **** 
  66:.\Generated_Source\PSoC5/DMASDSPI_1_api.c **** //initialise component, attach ISRs, etc.
  67:.\Generated_Source\PSoC5/DMASDSPI_1_api.c **** void DMASDSPI_1_StartInterface(void)
  68:.\Generated_Source\PSoC5/DMASDSPI_1_api.c **** {  
 129              		.loc 1 68 0
 130              		.cfi_startproc
 131              		@ args = 0, pretend = 0, frame = 0
 132              		@ frame_needed = 0, uses_anonymous_args = 0
 133              		@ link register save eliminated.
 134 0000 7047     		bx	lr
 135              		.cfi_endproc
 136              	.LFE4:
 137              		.size	DMASDSPI_1_StartInterface, .-DMASDSPI_1_StartInterface
 138 0002 00BF     		.section	.text.DMASDSPI_1_Stop,"ax",%progbits
 139              		.align	2
 140              		.global	DMASDSPI_1_Stop
 141              		.thumb
 142              		.thumb_func
 143              		.type	DMASDSPI_1_Stop, %function
 144              	DMASDSPI_1_Stop:
 145              	.LFB5:
  69:.\Generated_Source\PSoC5/DMASDSPI_1_api.c **** /*
  70:.\Generated_Source\PSoC5/DMASDSPI_1_api.c ****     DMASDSPI_1_UDB_BIT_COUNTER_Start();
  71:.\Generated_Source\PSoC5/DMASDSPI_1_api.c ****     DMASDSPI_1_g_nTransferFlags = 0;
  72:.\Generated_Source\PSoC5/DMASDSPI_1_api.c ****     DMASDSPI_1_g_nCtrlState = 1;
  73:.\Generated_Source\PSoC5/DMASDSPI_1_api.c ****     DMASDSPI_1_CTRL_Write(0x05);      //reset pulse to make sure bulk receive isn't active
  74:.\Generated_Source\PSoC5/DMASDSPI_1_api.c ****     DMASDSPI_1_UDB_SPI_DPTH_F0_CLEAR;
  75:.\Generated_Source\PSoC5/DMASDSPI_1_api.c ****     DMASDSPI_1_UDB_SPI_DPTH_F1_CLEAR;     //clear FIFO buffers
  76:.\Generated_Source\PSoC5/DMASDSPI_1_api.c ****     DMASDSPI_1_RX_BYTE_COUNTER_Start();
  77:.\Generated_Source\PSoC5/DMASDSPI_1_api.c ****     
  78:.\Generated_Source\PSoC5/DMASDSPI_1_api.c ****     DMASDSPI_1_RX_ISR_StartEx(DMASDSPI_1_RX_ISR);
  79:.\Generated_Source\PSoC5/DMASDSPI_1_api.c ****     
  80:.\Generated_Source\PSoC5/DMASDSPI_1_api.c ****     DMASDSPI_1_UDB_SPI_DPTH_F0_CLEAR;
  81:.\Generated_Source\PSoC5/DMASDSPI_1_api.c ****     DMASDSPI_1_UDB_SPI_DPTH_F1_CLEAR;     //clear FIFO buffers
  82:.\Generated_Source\PSoC5/DMASDSPI_1_api.c **** 
  83:.\Generated_Source\PSoC5/DMASDSPI_1_api.c ****     DMASDSPI_1_SetDMAMode(1);
ARM GAS  C:\Users\honet\AppData\Local\Temp\cck4WRYR.s 			page 5


  84:.\Generated_Source\PSoC5/DMASDSPI_1_api.c **** */
  85:.\Generated_Source\PSoC5/DMASDSPI_1_api.c **** }
  86:.\Generated_Source\PSoC5/DMASDSPI_1_api.c **** 
  87:.\Generated_Source\PSoC5/DMASDSPI_1_api.c **** 
  88:.\Generated_Source\PSoC5/DMASDSPI_1_api.c **** 
  89:.\Generated_Source\PSoC5/DMASDSPI_1_api.c **** void DMASDSPI_1_Stop()
  90:.\Generated_Source\PSoC5/DMASDSPI_1_api.c **** {
 146              		.loc 1 90 0
 147              		.cfi_startproc
 148              		@ args = 0, pretend = 0, frame = 0
 149              		@ frame_needed = 0, uses_anonymous_args = 0
 150              		@ link register save eliminated.
 151 0000 7047     		bx	lr
 152              		.cfi_endproc
 153              	.LFE5:
 154              		.size	DMASDSPI_1_Stop, .-DMASDSPI_1_Stop
 155 0002 00BF     		.section	.text.DMASDSPI_1_SelectCard,"ax",%progbits
 156              		.align	2
 157              		.global	DMASDSPI_1_SelectCard
 158              		.thumb
 159              		.thumb_func
 160              		.type	DMASDSPI_1_SelectCard, %function
 161              	DMASDSPI_1_SelectCard:
 162              	.LFB6:
  91:.\Generated_Source\PSoC5/DMASDSPI_1_api.c **** /*
  92:.\Generated_Source\PSoC5/DMASDSPI_1_api.c ****     if(DMASDSPI_1_bEnableDMA)
  93:.\Generated_Source\PSoC5/DMASDSPI_1_api.c ****     {
  94:.\Generated_Source\PSoC5/DMASDSPI_1_api.c ****         DMASDSPI_1_RX_DMA_ISR_Stop();
  95:.\Generated_Source\PSoC5/DMASDSPI_1_api.c ****         DMASDSPI_1_TX_DMA_ISR_Stop();
  96:.\Generated_Source\PSoC5/DMASDSPI_1_api.c ****         DMASDSPI_1_RX_DmaRelease();
  97:.\Generated_Source\PSoC5/DMASDSPI_1_api.c ****         DMASDSPI_1_TX_DmaRelease();
  98:.\Generated_Source\PSoC5/DMASDSPI_1_api.c ****     }
  99:.\Generated_Source\PSoC5/DMASDSPI_1_api.c ****     DMASDSPI_1_DeselectCard();
 100:.\Generated_Source\PSoC5/DMASDSPI_1_api.c ****     DMASDSPI_1_RX_ISR_Stop();    
 101:.\Generated_Source\PSoC5/DMASDSPI_1_api.c ****     DMASDSPI_1_RX_BYTE_COUNTER_Stop();
 102:.\Generated_Source\PSoC5/DMASDSPI_1_api.c ****     DMASDSPI_1_UDB_BIT_COUNTER_Stop();
 103:.\Generated_Source\PSoC5/DMASDSPI_1_api.c **** */
 104:.\Generated_Source\PSoC5/DMASDSPI_1_api.c **** }
 105:.\Generated_Source\PSoC5/DMASDSPI_1_api.c **** 
 106:.\Generated_Source\PSoC5/DMASDSPI_1_api.c **** 
 107:.\Generated_Source\PSoC5/DMASDSPI_1_api.c **** void DMASDSPI_1_SelectCard()
 108:.\Generated_Source\PSoC5/DMASDSPI_1_api.c **** {
 163              		.loc 1 108 0
 164              		.cfi_startproc
 165              		@ args = 0, pretend = 0, frame = 0
 166              		@ frame_needed = 0, uses_anonymous_args = 0
 167              		@ link register save eliminated.
 168 0000 7047     		bx	lr
 169              		.cfi_endproc
 170              	.LFE6:
 171              		.size	DMASDSPI_1_SelectCard, .-DMASDSPI_1_SelectCard
 172 0002 00BF     		.section	.text.DMASDSPI_1_DeselectCard,"ax",%progbits
 173              		.align	2
 174              		.global	DMASDSPI_1_DeselectCard
 175              		.thumb
 176              		.thumb_func
 177              		.type	DMASDSPI_1_DeselectCard, %function
ARM GAS  C:\Users\honet\AppData\Local\Temp\cck4WRYR.s 			page 6


 178              	DMASDSPI_1_DeselectCard:
 179              	.LFB7:
 109:.\Generated_Source\PSoC5/DMASDSPI_1_api.c **** /*
 110:.\Generated_Source\PSoC5/DMASDSPI_1_api.c ****     DMASDSPI_1_g_nCtrlState &= ~0x01;
 111:.\Generated_Source\PSoC5/DMASDSPI_1_api.c ****     DMASDSPI_1_CTRL_Write(DMASDSPI_1_g_nCtrlState);
 112:.\Generated_Source\PSoC5/DMASDSPI_1_api.c **** */
 113:.\Generated_Source\PSoC5/DMASDSPI_1_api.c **** }
 114:.\Generated_Source\PSoC5/DMASDSPI_1_api.c **** 
 115:.\Generated_Source\PSoC5/DMASDSPI_1_api.c **** void DMASDSPI_1_DeselectCard()
 116:.\Generated_Source\PSoC5/DMASDSPI_1_api.c **** {
 180              		.loc 1 116 0
 181              		.cfi_startproc
 182              		@ args = 0, pretend = 0, frame = 0
 183              		@ frame_needed = 0, uses_anonymous_args = 0
 184              		@ link register save eliminated.
 185 0000 7047     		bx	lr
 186              		.cfi_endproc
 187              	.LFE7:
 188              		.size	DMASDSPI_1_DeselectCard, .-DMASDSPI_1_DeselectCard
 189 0002 00BF     		.section	.text.DMASDSPI_1_SendData,"ax",%progbits
 190              		.align	2
 191              		.global	DMASDSPI_1_SendData
 192              		.thumb
 193              		.thumb_func
 194              		.type	DMASDSPI_1_SendData, %function
 195              	DMASDSPI_1_SendData:
 196              	.LFB8:
 117:.\Generated_Source\PSoC5/DMASDSPI_1_api.c **** /*
 118:.\Generated_Source\PSoC5/DMASDSPI_1_api.c ****     DMASDSPI_1_g_nCtrlState |= 0x01;
 119:.\Generated_Source\PSoC5/DMASDSPI_1_api.c ****     DMASDSPI_1_CTRL_Write(DMASDSPI_1_g_nCtrlState);
 120:.\Generated_Source\PSoC5/DMASDSPI_1_api.c **** */
 121:.\Generated_Source\PSoC5/DMASDSPI_1_api.c **** }
 122:.\Generated_Source\PSoC5/DMASDSPI_1_api.c **** 
 123:.\Generated_Source\PSoC5/DMASDSPI_1_api.c **** //Send a block of data and discard received bytes.
 124:.\Generated_Source\PSoC5/DMASDSPI_1_api.c **** void DMASDSPI_1_SendData(unsigned char* pBuffer, unsigned int nLength)
 125:.\Generated_Source\PSoC5/DMASDSPI_1_api.c **** {
 197              		.loc 1 125 0
 198              		.cfi_startproc
 199              		@ args = 0, pretend = 0, frame = 0
 200              		@ frame_needed = 0, uses_anonymous_args = 0
 201              		@ link register save eliminated.
 202              	.LVL2:
 203 0000 7047     		bx	lr
 204              		.cfi_endproc
 205              	.LFE8:
 206              		.size	DMASDSPI_1_SendData, .-DMASDSPI_1_SendData
 207 0002 00BF     		.section	.text.DMASDSPI_1_ReceiveData,"ax",%progbits
 208              		.align	2
 209              		.global	DMASDSPI_1_ReceiveData
 210              		.thumb
 211              		.thumb_func
 212              		.type	DMASDSPI_1_ReceiveData, %function
 213              	DMASDSPI_1_ReceiveData:
 214              	.LFB9:
 126:.\Generated_Source\PSoC5/DMASDSPI_1_api.c **** /*
 127:.\Generated_Source\PSoC5/DMASDSPI_1_api.c ****     if((nLength > 4095)||(nLength < 1)){
 128:.\Generated_Source\PSoC5/DMASDSPI_1_api.c ****         return; //this never happens - filesys transfers max. 512 bytes at a time
ARM GAS  C:\Users\honet\AppData\Local\Temp\cck4WRYR.s 			page 7


 129:.\Generated_Source\PSoC5/DMASDSPI_1_api.c ****     }
 130:.\Generated_Source\PSoC5/DMASDSPI_1_api.c ****     
 131:.\Generated_Source\PSoC5/DMASDSPI_1_api.c ****     if(DMASDSPI_1_bEnableDMA)
 132:.\Generated_Source\PSoC5/DMASDSPI_1_api.c ****     {
 133:.\Generated_Source\PSoC5/DMASDSPI_1_api.c ****         //Fast (DMA) implementation...
 134:.\Generated_Source\PSoC5/DMASDSPI_1_api.c ****         
 135:.\Generated_Source\PSoC5/DMASDSPI_1_api.c ****         DMASDSPI_1_TX_TD[0] = CyDmaTdAllocate();
 136:.\Generated_Source\PSoC5/DMASDSPI_1_api.c ****         CyDmaTdSetConfiguration(DMASDSPI_1_TX_TD[0], nLength, CY_DMA_DISABLE_TD, DMASDSPI_1_TX__TD_
 137:.\Generated_Source\PSoC5/DMASDSPI_1_api.c ****         CyDmaTdSetAddress(DMASDSPI_1_TX_TD[0], LO16((uint32)pBuffer), LO16((uint32)DMASDSPI_1_UDB_S
 138:.\Generated_Source\PSoC5/DMASDSPI_1_api.c ****         CyDmaChSetInitialTd(DMASDSPI_1_TX_Chan, DMASDSPI_1_TX_TD[0]);
 139:.\Generated_Source\PSoC5/DMASDSPI_1_api.c ****     
 140:.\Generated_Source\PSoC5/DMASDSPI_1_api.c ****         CyDmaClearPendingDrq(DMASDSPI_1_TX_Chan);
 141:.\Generated_Source\PSoC5/DMASDSPI_1_api.c ****         DMASDSPI_1_g_nTransferFlags |= DMASDSPI_1_TRANSFER_WAIT_TXDMAISR;   //set flag
 142:.\Generated_Source\PSoC5/DMASDSPI_1_api.c ****         CyDmaChEnable(DMASDSPI_1_TX_Chan, 1);         //this will start the transfer
 143:.\Generated_Source\PSoC5/DMASDSPI_1_api.c ****         while(DMASDSPI_1_g_nTransferFlags & DMASDSPI_1_TRANSFER_WAIT_TXDMAISR); //wait for flag to 
 144:.\Generated_Source\PSoC5/DMASDSPI_1_api.c ****         
 145:.\Generated_Source\PSoC5/DMASDSPI_1_api.c ****         CyDmaChSetRequest(DMASDSPI_1_TX_Chan, CPU_TERM_CHAIN);
 146:.\Generated_Source\PSoC5/DMASDSPI_1_api.c ****         CyDmaTdFree(DMASDSPI_1_TX_TD[0]);                       //Free Transfer Descriptor    
 147:.\Generated_Source\PSoC5/DMASDSPI_1_api.c ****     
 148:.\Generated_Source\PSoC5/DMASDSPI_1_api.c ****         DMASDSPI_1_UDB_SPI_DPTH_F1_CLEAR;     //clear output FIFO buffer
 149:.\Generated_Source\PSoC5/DMASDSPI_1_api.c ****         DMASDSPI_1_RX_ISR_ClearPending(); //clear pending interrupt from RX_ISR (non-DMA)
 150:.\Generated_Source\PSoC5/DMASDSPI_1_api.c ****         return;
 151:.\Generated_Source\PSoC5/DMASDSPI_1_api.c ****     }else{
 152:.\Generated_Source\PSoC5/DMASDSPI_1_api.c ****         //Slow (non DMA) implementation...
 153:.\Generated_Source\PSoC5/DMASDSPI_1_api.c ****         unsigned int i;
 154:.\Generated_Source\PSoC5/DMASDSPI_1_api.c ****         for(i = 0; i < nLength; i++)
 155:.\Generated_Source\PSoC5/DMASDSPI_1_api.c ****             DMASDSPI_1_SwapByte(pBuffer[i]);
 156:.\Generated_Source\PSoC5/DMASDSPI_1_api.c ****     }
 157:.\Generated_Source\PSoC5/DMASDSPI_1_api.c **** */
 158:.\Generated_Source\PSoC5/DMASDSPI_1_api.c **** }
 159:.\Generated_Source\PSoC5/DMASDSPI_1_api.c **** 
 160:.\Generated_Source\PSoC5/DMASDSPI_1_api.c **** //Send a block of NULL data (default 0xFF) and place received bytes into buffer.
 161:.\Generated_Source\PSoC5/DMASDSPI_1_api.c **** void DMASDSPI_1_ReceiveData(unsigned char* pBuffer, unsigned int nLength)
 162:.\Generated_Source\PSoC5/DMASDSPI_1_api.c **** {   
 215              		.loc 1 162 0
 216              		.cfi_startproc
 217              		@ args = 0, pretend = 0, frame = 0
 218              		@ frame_needed = 0, uses_anonymous_args = 0
 219              		@ link register save eliminated.
 220              	.LVL3:
 221 0000 7047     		bx	lr
 222              		.cfi_endproc
 223              	.LFE9:
 224              		.size	DMASDSPI_1_ReceiveData, .-DMASDSPI_1_ReceiveData
 225 0002 00BF     		.section	.text.DMASDSPI_1_SwapByte,"ax",%progbits
 226              		.align	2
 227              		.global	DMASDSPI_1_SwapByte
 228              		.thumb
 229              		.thumb_func
 230              		.type	DMASDSPI_1_SwapByte, %function
 231              	DMASDSPI_1_SwapByte:
 232              	.LFB10:
 163:.\Generated_Source\PSoC5/DMASDSPI_1_api.c **** /*
 164:.\Generated_Source\PSoC5/DMASDSPI_1_api.c ****     if((nLength > 4095)||(nLength < 1)){
 165:.\Generated_Source\PSoC5/DMASDSPI_1_api.c ****         return; //this never happens - filesys transfers max. 512 bytes at a time
 166:.\Generated_Source\PSoC5/DMASDSPI_1_api.c ****     }
 167:.\Generated_Source\PSoC5/DMASDSPI_1_api.c ****     
ARM GAS  C:\Users\honet\AppData\Local\Temp\cck4WRYR.s 			page 8


 168:.\Generated_Source\PSoC5/DMASDSPI_1_api.c ****     if(DMASDSPI_1_bEnableDMA)
 169:.\Generated_Source\PSoC5/DMASDSPI_1_api.c ****     {
 170:.\Generated_Source\PSoC5/DMASDSPI_1_api.c ****         //DMA implementation...
 171:.\Generated_Source\PSoC5/DMASDSPI_1_api.c ****    
 172:.\Generated_Source\PSoC5/DMASDSPI_1_api.c ****         DMASDSPI_1_RX_BYTE_COUNTER_WriteCompare(nLength-1); //write byte counter
 173:.\Generated_Source\PSoC5/DMASDSPI_1_api.c ****         DMASDSPI_1_RX_TD[0] = CyDmaTdAllocate();          //allocate a TD
 174:.\Generated_Source\PSoC5/DMASDSPI_1_api.c ****        
 175:.\Generated_Source\PSoC5/DMASDSPI_1_api.c ****         //setup TD and attach to channel
 176:.\Generated_Source\PSoC5/DMASDSPI_1_api.c ****         CyDmaTdSetConfiguration(DMASDSPI_1_RX_TD[0], nLength, CY_DMA_DISABLE_TD, DMASDSPI_1_RX__TD_
 177:.\Generated_Source\PSoC5/DMASDSPI_1_api.c ****         CyDmaTdSetAddress(DMASDSPI_1_RX_TD[0], LO16((uint32)DMASDSPI_1_UDB_SPI_DPTH_F1_PTR), LO16((
 178:.\Generated_Source\PSoC5/DMASDSPI_1_api.c ****         CyDmaChSetInitialTd(DMASDSPI_1_RX_Chan, DMASDSPI_1_RX_TD[0]);
 179:.\Generated_Source\PSoC5/DMASDSPI_1_api.c ****         
 180:.\Generated_Source\PSoC5/DMASDSPI_1_api.c ****         CyDmaClearPendingDrq(DMASDSPI_1_RX_Chan);
 181:.\Generated_Source\PSoC5/DMASDSPI_1_api.c ****         CyDmaChEnable(DMASDSPI_1_RX_Chan, 1);
 182:.\Generated_Source\PSoC5/DMASDSPI_1_api.c ****     
 183:.\Generated_Source\PSoC5/DMASDSPI_1_api.c ****         DMASDSPI_1_g_nTransferFlags |= DMASDSPI_1_TRANSFER_WAIT_RXDMAISR;   //Set flag
 184:.\Generated_Source\PSoC5/DMASDSPI_1_api.c ****         
 185:.\Generated_Source\PSoC5/DMASDSPI_1_api.c ****         DMASDSPI_1_CTRL_Write(DMASDSPI_1_g_nCtrlState | 0x02);  //trigger transfer
 186:.\Generated_Source\PSoC5/DMASDSPI_1_api.c ****         
 187:.\Generated_Source\PSoC5/DMASDSPI_1_api.c ****         //wait until done.
 188:.\Generated_Source\PSoC5/DMASDSPI_1_api.c ****         while(DMASDSPI_1_g_nTransferFlags & DMASDSPI_1_TRANSFER_WAIT_RXDMAISR);
 189:.\Generated_Source\PSoC5/DMASDSPI_1_api.c ****         
 190:.\Generated_Source\PSoC5/DMASDSPI_1_api.c ****         CyDmaChSetRequest(DMASDSPI_1_RX_Chan, CPU_TERM_CHAIN);
 191:.\Generated_Source\PSoC5/DMASDSPI_1_api.c ****         CyDmaTdFree(DMASDSPI_1_RX_TD[0]);                       //Free Transfer Descriptor    
 192:.\Generated_Source\PSoC5/DMASDSPI_1_api.c ****         
 193:.\Generated_Source\PSoC5/DMASDSPI_1_api.c ****         DMASDSPI_1_RX_ISR_ClearPending(); //clear pending interrupt from RX_ISR (non-DMA)
 194:.\Generated_Source\PSoC5/DMASDSPI_1_api.c ****         return;
 195:.\Generated_Source\PSoC5/DMASDSPI_1_api.c ****     } else {
 196:.\Generated_Source\PSoC5/DMASDSPI_1_api.c ****         //Slow (non DMA) implementation...
 197:.\Generated_Source\PSoC5/DMASDSPI_1_api.c ****         unsigned int i;
 198:.\Generated_Source\PSoC5/DMASDSPI_1_api.c ****         for(i = 0; i < nLength; i++)
 199:.\Generated_Source\PSoC5/DMASDSPI_1_api.c ****             pBuffer[i] = DMASDSPI_1_SwapByte(0xFF);    
 200:.\Generated_Source\PSoC5/DMASDSPI_1_api.c ****     }
 201:.\Generated_Source\PSoC5/DMASDSPI_1_api.c **** */
 202:.\Generated_Source\PSoC5/DMASDSPI_1_api.c **** }
 203:.\Generated_Source\PSoC5/DMASDSPI_1_api.c **** 
 204:.\Generated_Source\PSoC5/DMASDSPI_1_api.c **** //Swap a single byte (send it, and receive RX byte)
 205:.\Generated_Source\PSoC5/DMASDSPI_1_api.c **** unsigned char DMASDSPI_1_SwapByte(unsigned char nByte)
 206:.\Generated_Source\PSoC5/DMASDSPI_1_api.c **** {
 233              		.loc 1 206 0
 234              		.cfi_startproc
 235              		@ args = 0, pretend = 0, frame = 0
 236              		@ frame_needed = 0, uses_anonymous_args = 0
 237              		@ link register save eliminated.
 238              	.LVL4:
 239              	.LVL5:
 207:.\Generated_Source\PSoC5/DMASDSPI_1_api.c **** /*
 208:.\Generated_Source\PSoC5/DMASDSPI_1_api.c ****     DMASDSPI_1_RX_ISR_Enable();   //will be disabled after being triggered
 209:.\Generated_Source\PSoC5/DMASDSPI_1_api.c ****     //Set waiting flag...
 210:.\Generated_Source\PSoC5/DMASDSPI_1_api.c ****     DMASDSPI_1_g_nTransferFlags |= DMASDSPI_1_TRANSFER_WAIT_RXISR;
 211:.\Generated_Source\PSoC5/DMASDSPI_1_api.c ****     //write byte to TX
 212:.\Generated_Source\PSoC5/DMASDSPI_1_api.c ****     CY_SET_REG8(DMASDSPI_1_UDB_SPI_DPTH_F0_PTR, nByte);
 213:.\Generated_Source\PSoC5/DMASDSPI_1_api.c ****     //wait for RX interrupt
 214:.\Generated_Source\PSoC5/DMASDSPI_1_api.c ****     while(DMASDSPI_1_g_nTransferFlags & DMASDSPI_1_TRANSFER_WAIT_RXISR);
 215:.\Generated_Source\PSoC5/DMASDSPI_1_api.c ****     //read byte from RX
 216:.\Generated_Source\PSoC5/DMASDSPI_1_api.c ****     unsigned char rv = CY_GET_REG8(DMASDSPI_1_UDB_SPI_DPTH_F1_PTR);
 217:.\Generated_Source\PSoC5/DMASDSPI_1_api.c ****     //return byte
ARM GAS  C:\Users\honet\AppData\Local\Temp\cck4WRYR.s 			page 9


 218:.\Generated_Source\PSoC5/DMASDSPI_1_api.c ****     return rv;
 219:.\Generated_Source\PSoC5/DMASDSPI_1_api.c **** */
 220:.\Generated_Source\PSoC5/DMASDSPI_1_api.c **** }
 240              		.loc 1 220 0
 241 0000 7047     		bx	lr
 242              		.cfi_endproc
 243              	.LFE10:
 244              		.size	DMASDSPI_1_SwapByte, .-DMASDSPI_1_SwapByte
 245 0002 00BF     		.section	.text.DMASDSPI_1_SetDMAMode,"ax",%progbits
 246              		.align	2
 247              		.global	DMASDSPI_1_SetDMAMode
 248              		.thumb
 249              		.thumb_func
 250              		.type	DMASDSPI_1_SetDMAMode, %function
 251              	DMASDSPI_1_SetDMAMode:
 252              	.LFB11:
 221:.\Generated_Source\PSoC5/DMASDSPI_1_api.c **** void DMASDSPI_1_SetDMAMode(unsigned char bEnableDMA)
 222:.\Generated_Source\PSoC5/DMASDSPI_1_api.c **** {
 253              		.loc 1 222 0
 254              		.cfi_startproc
 255              		@ args = 0, pretend = 0, frame = 0
 256              		@ frame_needed = 0, uses_anonymous_args = 0
 257              		@ link register save eliminated.
 258              	.LVL6:
 259 0000 7047     		bx	lr
 260              		.cfi_endproc
 261              	.LFE11:
 262              		.size	DMASDSPI_1_SetDMAMode, .-DMASDSPI_1_SetDMAMode
 263              		.comm	DMASDSPI_1_TX_TD,1,4
 264              		.comm	DMASDSPI_1_TX_Chan,1,1
 265              		.comm	DMASDSPI_1_RX_TD,1,4
 266              		.comm	DMASDSPI_1_RX_Chan,1,1
 267              		.comm	DMASDSPI_1_bEnableDMA,1,1
 268              		.global	DMASDSPI_1_g_nCtrlState
 269              		.global	DMASDSPI_1_g_nTransferFlags
 270 0002 00BF     		.bss
 271              		.set	.LANCHOR0,. + 0
 272              		.type	DMASDSPI_1_g_nTransferFlags, %object
 273              		.size	DMASDSPI_1_g_nTransferFlags, 1
 274              	DMASDSPI_1_g_nTransferFlags:
 275 0000 00       		.space	1
 276              		.type	DMASDSPI_1_g_nCtrlState, %object
 277              		.size	DMASDSPI_1_g_nCtrlState, 1
 278              	DMASDSPI_1_g_nCtrlState:
 279 0001 00       		.space	1
 280              		.text
 281              	.Letext0:
 282              		.file 2 ".\\Generated_Source\\PSoC5\\DMASDSPI_1_api.h"
 283              		.file 3 "c:\\program files (x86)\\cypress\\psoc creator\\3.3\\psoc creator\\import\\gnu\\arm\\4.9.
 284              		.file 4 "c:\\program files (x86)\\cypress\\psoc creator\\3.3\\psoc creator\\import\\gnu\\arm\\4.9.