ARM GAS  C:\Users\honet\AppData\Local\Temp\ccb11yRS.s 			page 1


   1              		.syntax unified
   2              		.cpu cortex-m3
   3              		.fpu softvfp
   4              		.eabi_attribute 20, 1
   5              		.eabi_attribute 21, 1
   6              		.eabi_attribute 23, 3
   7              		.eabi_attribute 24, 1
   8              		.eabi_attribute 25, 1
   9              		.eabi_attribute 26, 1
  10              		.eabi_attribute 30, 1
  11              		.eabi_attribute 34, 1
  12              		.eabi_attribute 18, 4
  13              		.thumb
  14              		.file	"DMASDSPI_1_SPIMaster.c"
  15              		.text
  16              	.Ltext0:
  17              		.cfi_sections	.debug_frame
  18              		.section	.text.DMASDSPI_1_SPIMaster_Enable,"ax",%progbits
  19              		.align	2
  20              		.global	DMASDSPI_1_SPIMaster_Enable
  21              		.thumb
  22              		.thumb_func
  23              		.type	DMASDSPI_1_SPIMaster_Enable, %function
  24              	DMASDSPI_1_SPIMaster_Enable:
  25              	.LFB1:
  26              		.file 1 ".\\Generated_Source\\PSoC5\\DMASDSPI_1_SPIMaster.c"
   1:.\Generated_Source\PSoC5/DMASDSPI_1_SPIMaster.c **** /*******************************************************************************
   2:.\Generated_Source\PSoC5/DMASDSPI_1_SPIMaster.c **** * File Name: DMASDSPI_1_SPIMaster.c
   3:.\Generated_Source\PSoC5/DMASDSPI_1_SPIMaster.c **** * Version 2.50
   4:.\Generated_Source\PSoC5/DMASDSPI_1_SPIMaster.c **** *
   5:.\Generated_Source\PSoC5/DMASDSPI_1_SPIMaster.c **** * Description:
   6:.\Generated_Source\PSoC5/DMASDSPI_1_SPIMaster.c **** *  This file provides all API functionality of the SPI Master component.
   7:.\Generated_Source\PSoC5/DMASDSPI_1_SPIMaster.c **** *
   8:.\Generated_Source\PSoC5/DMASDSPI_1_SPIMaster.c **** * Note:
   9:.\Generated_Source\PSoC5/DMASDSPI_1_SPIMaster.c **** *  None.
  10:.\Generated_Source\PSoC5/DMASDSPI_1_SPIMaster.c **** *
  11:.\Generated_Source\PSoC5/DMASDSPI_1_SPIMaster.c **** ********************************************************************************
  12:.\Generated_Source\PSoC5/DMASDSPI_1_SPIMaster.c **** * Copyright 2008-2015, Cypress Semiconductor Corporation.  All rights reserved.
  13:.\Generated_Source\PSoC5/DMASDSPI_1_SPIMaster.c **** * You may use this file only in accordance with the license, terms, conditions,
  14:.\Generated_Source\PSoC5/DMASDSPI_1_SPIMaster.c **** * disclaimers, and limitations in the end user license agreement accompanying
  15:.\Generated_Source\PSoC5/DMASDSPI_1_SPIMaster.c **** * the software package with which this file was provided.
  16:.\Generated_Source\PSoC5/DMASDSPI_1_SPIMaster.c **** *******************************************************************************/
  17:.\Generated_Source\PSoC5/DMASDSPI_1_SPIMaster.c **** 
  18:.\Generated_Source\PSoC5/DMASDSPI_1_SPIMaster.c **** #include "DMASDSPI_1_SPIMaster_PVT.h"
  19:.\Generated_Source\PSoC5/DMASDSPI_1_SPIMaster.c **** 
  20:.\Generated_Source\PSoC5/DMASDSPI_1_SPIMaster.c **** #if(DMASDSPI_1_SPIMaster_TX_SOFTWARE_BUF_ENABLED)
  21:.\Generated_Source\PSoC5/DMASDSPI_1_SPIMaster.c ****     volatile uint8 DMASDSPI_1_SPIMaster_txBuffer[DMASDSPI_1_SPIMaster_TX_BUFFER_SIZE];
  22:.\Generated_Source\PSoC5/DMASDSPI_1_SPIMaster.c ****     volatile uint8 DMASDSPI_1_SPIMaster_txBufferFull;
  23:.\Generated_Source\PSoC5/DMASDSPI_1_SPIMaster.c ****     volatile uint8 DMASDSPI_1_SPIMaster_txBufferRead;
  24:.\Generated_Source\PSoC5/DMASDSPI_1_SPIMaster.c ****     volatile uint8 DMASDSPI_1_SPIMaster_txBufferWrite;
  25:.\Generated_Source\PSoC5/DMASDSPI_1_SPIMaster.c **** #endif /* (DMASDSPI_1_SPIMaster_TX_SOFTWARE_BUF_ENABLED) */
  26:.\Generated_Source\PSoC5/DMASDSPI_1_SPIMaster.c **** 
  27:.\Generated_Source\PSoC5/DMASDSPI_1_SPIMaster.c **** #if(DMASDSPI_1_SPIMaster_RX_SOFTWARE_BUF_ENABLED)
  28:.\Generated_Source\PSoC5/DMASDSPI_1_SPIMaster.c ****     volatile uint8 DMASDSPI_1_SPIMaster_rxBuffer[DMASDSPI_1_SPIMaster_RX_BUFFER_SIZE];
  29:.\Generated_Source\PSoC5/DMASDSPI_1_SPIMaster.c ****     volatile uint8 DMASDSPI_1_SPIMaster_rxBufferFull;
  30:.\Generated_Source\PSoC5/DMASDSPI_1_SPIMaster.c ****     volatile uint8 DMASDSPI_1_SPIMaster_rxBufferRead;
  31:.\Generated_Source\PSoC5/DMASDSPI_1_SPIMaster.c ****     volatile uint8 DMASDSPI_1_SPIMaster_rxBufferWrite;
ARM GAS  C:\Users\honet\AppData\Local\Temp\ccb11yRS.s 			page 2


  32:.\Generated_Source\PSoC5/DMASDSPI_1_SPIMaster.c **** #endif /* (DMASDSPI_1_SPIMaster_RX_SOFTWARE_BUF_ENABLED) */
  33:.\Generated_Source\PSoC5/DMASDSPI_1_SPIMaster.c **** 
  34:.\Generated_Source\PSoC5/DMASDSPI_1_SPIMaster.c **** uint8 DMASDSPI_1_SPIMaster_initVar = 0u;
  35:.\Generated_Source\PSoC5/DMASDSPI_1_SPIMaster.c **** 
  36:.\Generated_Source\PSoC5/DMASDSPI_1_SPIMaster.c **** volatile uint8 DMASDSPI_1_SPIMaster_swStatusTx;
  37:.\Generated_Source\PSoC5/DMASDSPI_1_SPIMaster.c **** volatile uint8 DMASDSPI_1_SPIMaster_swStatusRx;
  38:.\Generated_Source\PSoC5/DMASDSPI_1_SPIMaster.c **** 
  39:.\Generated_Source\PSoC5/DMASDSPI_1_SPIMaster.c **** 
  40:.\Generated_Source\PSoC5/DMASDSPI_1_SPIMaster.c **** /*******************************************************************************
  41:.\Generated_Source\PSoC5/DMASDSPI_1_SPIMaster.c **** * Function Name: DMASDSPI_1_SPIMaster_Init
  42:.\Generated_Source\PSoC5/DMASDSPI_1_SPIMaster.c **** ********************************************************************************
  43:.\Generated_Source\PSoC5/DMASDSPI_1_SPIMaster.c **** *
  44:.\Generated_Source\PSoC5/DMASDSPI_1_SPIMaster.c **** * Summary:
  45:.\Generated_Source\PSoC5/DMASDSPI_1_SPIMaster.c **** *  Inits/Restores default SPIM configuration provided with customizer.
  46:.\Generated_Source\PSoC5/DMASDSPI_1_SPIMaster.c **** *
  47:.\Generated_Source\PSoC5/DMASDSPI_1_SPIMaster.c **** * Parameters:
  48:.\Generated_Source\PSoC5/DMASDSPI_1_SPIMaster.c **** *  None.
  49:.\Generated_Source\PSoC5/DMASDSPI_1_SPIMaster.c **** *
  50:.\Generated_Source\PSoC5/DMASDSPI_1_SPIMaster.c **** * Return:
  51:.\Generated_Source\PSoC5/DMASDSPI_1_SPIMaster.c **** *  None.
  52:.\Generated_Source\PSoC5/DMASDSPI_1_SPIMaster.c **** *
  53:.\Generated_Source\PSoC5/DMASDSPI_1_SPIMaster.c **** * Side Effects:
  54:.\Generated_Source\PSoC5/DMASDSPI_1_SPIMaster.c **** *  When this function is called it initializes all of the necessary parameters
  55:.\Generated_Source\PSoC5/DMASDSPI_1_SPIMaster.c **** *  for execution. i.e. setting the initial interrupt mask, configuring the
  56:.\Generated_Source\PSoC5/DMASDSPI_1_SPIMaster.c **** *  interrupt service routine, configuring the bit-counter parameters and
  57:.\Generated_Source\PSoC5/DMASDSPI_1_SPIMaster.c **** *  clearing the FIFO and Status Register.
  58:.\Generated_Source\PSoC5/DMASDSPI_1_SPIMaster.c **** *
  59:.\Generated_Source\PSoC5/DMASDSPI_1_SPIMaster.c **** * Reentrant:
  60:.\Generated_Source\PSoC5/DMASDSPI_1_SPIMaster.c **** *  No.
  61:.\Generated_Source\PSoC5/DMASDSPI_1_SPIMaster.c **** *
  62:.\Generated_Source\PSoC5/DMASDSPI_1_SPIMaster.c **** *******************************************************************************/
  63:.\Generated_Source\PSoC5/DMASDSPI_1_SPIMaster.c **** void DMASDSPI_1_SPIMaster_Init(void) 
  64:.\Generated_Source\PSoC5/DMASDSPI_1_SPIMaster.c **** {
  65:.\Generated_Source\PSoC5/DMASDSPI_1_SPIMaster.c ****     /* Initialize the Bit counter */
  66:.\Generated_Source\PSoC5/DMASDSPI_1_SPIMaster.c ****     DMASDSPI_1_SPIMaster_COUNTER_PERIOD_REG = DMASDSPI_1_SPIMaster_BITCTR_INIT;
  67:.\Generated_Source\PSoC5/DMASDSPI_1_SPIMaster.c **** 
  68:.\Generated_Source\PSoC5/DMASDSPI_1_SPIMaster.c ****     /* Init TX ISR  */
  69:.\Generated_Source\PSoC5/DMASDSPI_1_SPIMaster.c ****     #if(0u != DMASDSPI_1_SPIMaster_INTERNAL_TX_INT_ENABLED)
  70:.\Generated_Source\PSoC5/DMASDSPI_1_SPIMaster.c ****         CyIntDisable         (DMASDSPI_1_SPIMaster_TX_ISR_NUMBER);
  71:.\Generated_Source\PSoC5/DMASDSPI_1_SPIMaster.c ****         CyIntSetPriority     (DMASDSPI_1_SPIMaster_TX_ISR_NUMBER,  DMASDSPI_1_SPIMaster_TX_ISR_PRIO
  72:.\Generated_Source\PSoC5/DMASDSPI_1_SPIMaster.c ****         (void) CyIntSetVector(DMASDSPI_1_SPIMaster_TX_ISR_NUMBER, &DMASDSPI_1_SPIMaster_TX_ISR);
  73:.\Generated_Source\PSoC5/DMASDSPI_1_SPIMaster.c ****     #endif /* (0u != DMASDSPI_1_SPIMaster_INTERNAL_TX_INT_ENABLED) */
  74:.\Generated_Source\PSoC5/DMASDSPI_1_SPIMaster.c **** 
  75:.\Generated_Source\PSoC5/DMASDSPI_1_SPIMaster.c ****     /* Init RX ISR  */
  76:.\Generated_Source\PSoC5/DMASDSPI_1_SPIMaster.c ****     #if(0u != DMASDSPI_1_SPIMaster_INTERNAL_RX_INT_ENABLED)
  77:.\Generated_Source\PSoC5/DMASDSPI_1_SPIMaster.c ****         CyIntDisable         (DMASDSPI_1_SPIMaster_RX_ISR_NUMBER);
  78:.\Generated_Source\PSoC5/DMASDSPI_1_SPIMaster.c ****         CyIntSetPriority     (DMASDSPI_1_SPIMaster_RX_ISR_NUMBER,  DMASDSPI_1_SPIMaster_RX_ISR_PRIO
  79:.\Generated_Source\PSoC5/DMASDSPI_1_SPIMaster.c ****         (void) CyIntSetVector(DMASDSPI_1_SPIMaster_RX_ISR_NUMBER, &DMASDSPI_1_SPIMaster_RX_ISR);
  80:.\Generated_Source\PSoC5/DMASDSPI_1_SPIMaster.c ****     #endif /* (0u != DMASDSPI_1_SPIMaster_INTERNAL_RX_INT_ENABLED) */
  81:.\Generated_Source\PSoC5/DMASDSPI_1_SPIMaster.c **** 
  82:.\Generated_Source\PSoC5/DMASDSPI_1_SPIMaster.c ****     /* Clear any stray data from the RX and TX FIFO */
  83:.\Generated_Source\PSoC5/DMASDSPI_1_SPIMaster.c ****     DMASDSPI_1_SPIMaster_ClearFIFO();
  84:.\Generated_Source\PSoC5/DMASDSPI_1_SPIMaster.c **** 
  85:.\Generated_Source\PSoC5/DMASDSPI_1_SPIMaster.c ****     #if(DMASDSPI_1_SPIMaster_RX_SOFTWARE_BUF_ENABLED)
  86:.\Generated_Source\PSoC5/DMASDSPI_1_SPIMaster.c ****         DMASDSPI_1_SPIMaster_rxBufferFull  = 0u;
  87:.\Generated_Source\PSoC5/DMASDSPI_1_SPIMaster.c ****         DMASDSPI_1_SPIMaster_rxBufferRead  = 0u;
  88:.\Generated_Source\PSoC5/DMASDSPI_1_SPIMaster.c ****         DMASDSPI_1_SPIMaster_rxBufferWrite = 0u;
ARM GAS  C:\Users\honet\AppData\Local\Temp\ccb11yRS.s 			page 3


  89:.\Generated_Source\PSoC5/DMASDSPI_1_SPIMaster.c ****     #endif /* (DMASDSPI_1_SPIMaster_RX_SOFTWARE_BUF_ENABLED) */
  90:.\Generated_Source\PSoC5/DMASDSPI_1_SPIMaster.c **** 
  91:.\Generated_Source\PSoC5/DMASDSPI_1_SPIMaster.c ****     #if(DMASDSPI_1_SPIMaster_TX_SOFTWARE_BUF_ENABLED)
  92:.\Generated_Source\PSoC5/DMASDSPI_1_SPIMaster.c ****         DMASDSPI_1_SPIMaster_txBufferFull  = 0u;
  93:.\Generated_Source\PSoC5/DMASDSPI_1_SPIMaster.c ****         DMASDSPI_1_SPIMaster_txBufferRead  = 0u;
  94:.\Generated_Source\PSoC5/DMASDSPI_1_SPIMaster.c ****         DMASDSPI_1_SPIMaster_txBufferWrite = 0u;
  95:.\Generated_Source\PSoC5/DMASDSPI_1_SPIMaster.c ****     #endif /* (DMASDSPI_1_SPIMaster_TX_SOFTWARE_BUF_ENABLED) */
  96:.\Generated_Source\PSoC5/DMASDSPI_1_SPIMaster.c **** 
  97:.\Generated_Source\PSoC5/DMASDSPI_1_SPIMaster.c ****     (void) DMASDSPI_1_SPIMaster_ReadTxStatus(); /* Clear Tx status and swStatusTx */
  98:.\Generated_Source\PSoC5/DMASDSPI_1_SPIMaster.c ****     (void) DMASDSPI_1_SPIMaster_ReadRxStatus(); /* Clear Rx status and swStatusRx */
  99:.\Generated_Source\PSoC5/DMASDSPI_1_SPIMaster.c **** 
 100:.\Generated_Source\PSoC5/DMASDSPI_1_SPIMaster.c ****     /* Configure TX and RX interrupt mask */
 101:.\Generated_Source\PSoC5/DMASDSPI_1_SPIMaster.c ****     DMASDSPI_1_SPIMaster_TX_STATUS_MASK_REG = DMASDSPI_1_SPIMaster_TX_INIT_INTERRUPTS_MASK;
 102:.\Generated_Source\PSoC5/DMASDSPI_1_SPIMaster.c ****     DMASDSPI_1_SPIMaster_RX_STATUS_MASK_REG = DMASDSPI_1_SPIMaster_RX_INIT_INTERRUPTS_MASK;
 103:.\Generated_Source\PSoC5/DMASDSPI_1_SPIMaster.c **** }
 104:.\Generated_Source\PSoC5/DMASDSPI_1_SPIMaster.c **** 
 105:.\Generated_Source\PSoC5/DMASDSPI_1_SPIMaster.c **** 
 106:.\Generated_Source\PSoC5/DMASDSPI_1_SPIMaster.c **** /*******************************************************************************
 107:.\Generated_Source\PSoC5/DMASDSPI_1_SPIMaster.c **** * Function Name: DMASDSPI_1_SPIMaster_Enable
 108:.\Generated_Source\PSoC5/DMASDSPI_1_SPIMaster.c **** ********************************************************************************
 109:.\Generated_Source\PSoC5/DMASDSPI_1_SPIMaster.c **** *
 110:.\Generated_Source\PSoC5/DMASDSPI_1_SPIMaster.c **** * Summary:
 111:.\Generated_Source\PSoC5/DMASDSPI_1_SPIMaster.c **** *  Enable SPIM component.
 112:.\Generated_Source\PSoC5/DMASDSPI_1_SPIMaster.c **** *
 113:.\Generated_Source\PSoC5/DMASDSPI_1_SPIMaster.c **** * Parameters:
 114:.\Generated_Source\PSoC5/DMASDSPI_1_SPIMaster.c **** *  None.
 115:.\Generated_Source\PSoC5/DMASDSPI_1_SPIMaster.c **** *
 116:.\Generated_Source\PSoC5/DMASDSPI_1_SPIMaster.c **** * Return:
 117:.\Generated_Source\PSoC5/DMASDSPI_1_SPIMaster.c **** *  None.
 118:.\Generated_Source\PSoC5/DMASDSPI_1_SPIMaster.c **** *
 119:.\Generated_Source\PSoC5/DMASDSPI_1_SPIMaster.c **** *******************************************************************************/
 120:.\Generated_Source\PSoC5/DMASDSPI_1_SPIMaster.c **** void DMASDSPI_1_SPIMaster_Enable(void) 
 121:.\Generated_Source\PSoC5/DMASDSPI_1_SPIMaster.c **** {
  27              		.loc 1 121 0
  28              		.cfi_startproc
  29              		@ args = 0, pretend = 0, frame = 0
  30              		@ frame_needed = 0, uses_anonymous_args = 0
  31 0000 08B5     		push	{r3, lr}
  32              		.cfi_def_cfa_offset 8
  33              		.cfi_offset 3, -8
  34              		.cfi_offset 14, -4
 122:.\Generated_Source\PSoC5/DMASDSPI_1_SPIMaster.c ****     uint8 enableInterrupts;
 123:.\Generated_Source\PSoC5/DMASDSPI_1_SPIMaster.c **** 
 124:.\Generated_Source\PSoC5/DMASDSPI_1_SPIMaster.c ****     enableInterrupts = CyEnterCriticalSection();
  35              		.loc 1 124 0
  36 0002 FFF7FEFF 		bl	CyEnterCriticalSection
  37              	.LVL0:
 125:.\Generated_Source\PSoC5/DMASDSPI_1_SPIMaster.c ****     DMASDSPI_1_SPIMaster_COUNTER_CONTROL_REG |= DMASDSPI_1_SPIMaster_CNTR_ENABLE;
  38              		.loc 1 125 0
  39 0006 094A     		ldr	r2, .L3
  40 0008 1378     		ldrb	r3, [r2]	@ zero_extendqisi2
  41 000a 43F02003 		orr	r3, r3, #32
  42 000e 1370     		strb	r3, [r2]
 126:.\Generated_Source\PSoC5/DMASDSPI_1_SPIMaster.c ****     DMASDSPI_1_SPIMaster_TX_STATUS_ACTL_REG  |= DMASDSPI_1_SPIMaster_INT_ENABLE;
  43              		.loc 1 126 0
  44 0010 0232     		adds	r2, r2, #2
  45 0012 1378     		ldrb	r3, [r2]	@ zero_extendqisi2
ARM GAS  C:\Users\honet\AppData\Local\Temp\ccb11yRS.s 			page 4


  46 0014 43F01003 		orr	r3, r3, #16
  47 0018 1370     		strb	r3, [r2]
 127:.\Generated_Source\PSoC5/DMASDSPI_1_SPIMaster.c ****     DMASDSPI_1_SPIMaster_RX_STATUS_ACTL_REG  |= DMASDSPI_1_SPIMaster_INT_ENABLE;
  48              		.loc 1 127 0
  49 001a 013A     		subs	r2, r2, #1
  50 001c 1378     		ldrb	r3, [r2]	@ zero_extendqisi2
  51 001e 43F01003 		orr	r3, r3, #16
  52 0022 1370     		strb	r3, [r2]
 128:.\Generated_Source\PSoC5/DMASDSPI_1_SPIMaster.c ****     CyExitCriticalSection(enableInterrupts);
  53              		.loc 1 128 0
  54 0024 FFF7FEFF 		bl	CyExitCriticalSection
  55              	.LVL1:
  56 0028 08BD     		pop	{r3, pc}
  57              	.L4:
  58 002a 00BF     		.align	2
  59              	.L3:
  60 002c 91640040 		.word	1073767569
  61              		.cfi_endproc
  62              	.LFE1:
  63              		.size	DMASDSPI_1_SPIMaster_Enable, .-DMASDSPI_1_SPIMaster_Enable
  64              		.section	.text.DMASDSPI_1_SPIMaster_Stop,"ax",%progbits
  65              		.align	2
  66              		.global	DMASDSPI_1_SPIMaster_Stop
  67              		.thumb
  68              		.thumb_func
  69              		.type	DMASDSPI_1_SPIMaster_Stop, %function
  70              	DMASDSPI_1_SPIMaster_Stop:
  71              	.LFB3:
 129:.\Generated_Source\PSoC5/DMASDSPI_1_SPIMaster.c **** 
 130:.\Generated_Source\PSoC5/DMASDSPI_1_SPIMaster.c ****     #if(0u != DMASDSPI_1_SPIMaster_INTERNAL_CLOCK)
 131:.\Generated_Source\PSoC5/DMASDSPI_1_SPIMaster.c ****         DMASDSPI_1_SPIMaster_IntClock_Enable();
 132:.\Generated_Source\PSoC5/DMASDSPI_1_SPIMaster.c ****     #endif /* (0u != DMASDSPI_1_SPIMaster_INTERNAL_CLOCK) */
 133:.\Generated_Source\PSoC5/DMASDSPI_1_SPIMaster.c **** 
 134:.\Generated_Source\PSoC5/DMASDSPI_1_SPIMaster.c ****     DMASDSPI_1_SPIMaster_EnableTxInt();
 135:.\Generated_Source\PSoC5/DMASDSPI_1_SPIMaster.c ****     DMASDSPI_1_SPIMaster_EnableRxInt();
 136:.\Generated_Source\PSoC5/DMASDSPI_1_SPIMaster.c **** }
 137:.\Generated_Source\PSoC5/DMASDSPI_1_SPIMaster.c **** 
 138:.\Generated_Source\PSoC5/DMASDSPI_1_SPIMaster.c **** 
 139:.\Generated_Source\PSoC5/DMASDSPI_1_SPIMaster.c **** /*******************************************************************************
 140:.\Generated_Source\PSoC5/DMASDSPI_1_SPIMaster.c **** * Function Name: DMASDSPI_1_SPIMaster_Start
 141:.\Generated_Source\PSoC5/DMASDSPI_1_SPIMaster.c **** ********************************************************************************
 142:.\Generated_Source\PSoC5/DMASDSPI_1_SPIMaster.c **** *
 143:.\Generated_Source\PSoC5/DMASDSPI_1_SPIMaster.c **** * Summary:
 144:.\Generated_Source\PSoC5/DMASDSPI_1_SPIMaster.c **** *  Initialize and Enable the SPI Master component.
 145:.\Generated_Source\PSoC5/DMASDSPI_1_SPIMaster.c **** *
 146:.\Generated_Source\PSoC5/DMASDSPI_1_SPIMaster.c **** * Parameters:
 147:.\Generated_Source\PSoC5/DMASDSPI_1_SPIMaster.c **** *  None.
 148:.\Generated_Source\PSoC5/DMASDSPI_1_SPIMaster.c **** *
 149:.\Generated_Source\PSoC5/DMASDSPI_1_SPIMaster.c **** * Return:
 150:.\Generated_Source\PSoC5/DMASDSPI_1_SPIMaster.c **** *  None.
 151:.\Generated_Source\PSoC5/DMASDSPI_1_SPIMaster.c **** *
 152:.\Generated_Source\PSoC5/DMASDSPI_1_SPIMaster.c **** * Global variables:
 153:.\Generated_Source\PSoC5/DMASDSPI_1_SPIMaster.c **** *  DMASDSPI_1_SPIMaster_initVar - used to check initial configuration, modified on
 154:.\Generated_Source\PSoC5/DMASDSPI_1_SPIMaster.c **** *  first function call.
 155:.\Generated_Source\PSoC5/DMASDSPI_1_SPIMaster.c **** *
 156:.\Generated_Source\PSoC5/DMASDSPI_1_SPIMaster.c **** * Theory:
 157:.\Generated_Source\PSoC5/DMASDSPI_1_SPIMaster.c **** *  Enable the clock input to enable operation.
ARM GAS  C:\Users\honet\AppData\Local\Temp\ccb11yRS.s 			page 5


 158:.\Generated_Source\PSoC5/DMASDSPI_1_SPIMaster.c **** *
 159:.\Generated_Source\PSoC5/DMASDSPI_1_SPIMaster.c **** * Reentrant:
 160:.\Generated_Source\PSoC5/DMASDSPI_1_SPIMaster.c **** *  No.
 161:.\Generated_Source\PSoC5/DMASDSPI_1_SPIMaster.c **** *
 162:.\Generated_Source\PSoC5/DMASDSPI_1_SPIMaster.c **** *******************************************************************************/
 163:.\Generated_Source\PSoC5/DMASDSPI_1_SPIMaster.c **** void DMASDSPI_1_SPIMaster_Start(void) 
 164:.\Generated_Source\PSoC5/DMASDSPI_1_SPIMaster.c **** {
 165:.\Generated_Source\PSoC5/DMASDSPI_1_SPIMaster.c ****     if(0u == DMASDSPI_1_SPIMaster_initVar)
 166:.\Generated_Source\PSoC5/DMASDSPI_1_SPIMaster.c ****     {
 167:.\Generated_Source\PSoC5/DMASDSPI_1_SPIMaster.c ****         DMASDSPI_1_SPIMaster_Init();
 168:.\Generated_Source\PSoC5/DMASDSPI_1_SPIMaster.c ****         DMASDSPI_1_SPIMaster_initVar = 1u;
 169:.\Generated_Source\PSoC5/DMASDSPI_1_SPIMaster.c ****     }
 170:.\Generated_Source\PSoC5/DMASDSPI_1_SPIMaster.c **** 
 171:.\Generated_Source\PSoC5/DMASDSPI_1_SPIMaster.c ****     DMASDSPI_1_SPIMaster_Enable();
 172:.\Generated_Source\PSoC5/DMASDSPI_1_SPIMaster.c **** }
 173:.\Generated_Source\PSoC5/DMASDSPI_1_SPIMaster.c **** 
 174:.\Generated_Source\PSoC5/DMASDSPI_1_SPIMaster.c **** 
 175:.\Generated_Source\PSoC5/DMASDSPI_1_SPIMaster.c **** /*******************************************************************************
 176:.\Generated_Source\PSoC5/DMASDSPI_1_SPIMaster.c **** * Function Name: DMASDSPI_1_SPIMaster_Stop
 177:.\Generated_Source\PSoC5/DMASDSPI_1_SPIMaster.c **** ********************************************************************************
 178:.\Generated_Source\PSoC5/DMASDSPI_1_SPIMaster.c **** *
 179:.\Generated_Source\PSoC5/DMASDSPI_1_SPIMaster.c **** * Summary:
 180:.\Generated_Source\PSoC5/DMASDSPI_1_SPIMaster.c **** *  Disable the SPI Master component.
 181:.\Generated_Source\PSoC5/DMASDSPI_1_SPIMaster.c **** *
 182:.\Generated_Source\PSoC5/DMASDSPI_1_SPIMaster.c **** * Parameters:
 183:.\Generated_Source\PSoC5/DMASDSPI_1_SPIMaster.c **** *  None.
 184:.\Generated_Source\PSoC5/DMASDSPI_1_SPIMaster.c **** *
 185:.\Generated_Source\PSoC5/DMASDSPI_1_SPIMaster.c **** * Return:
 186:.\Generated_Source\PSoC5/DMASDSPI_1_SPIMaster.c **** *  None.
 187:.\Generated_Source\PSoC5/DMASDSPI_1_SPIMaster.c **** *
 188:.\Generated_Source\PSoC5/DMASDSPI_1_SPIMaster.c **** * Theory:
 189:.\Generated_Source\PSoC5/DMASDSPI_1_SPIMaster.c **** *  Disable the clock input to enable operation.
 190:.\Generated_Source\PSoC5/DMASDSPI_1_SPIMaster.c **** *
 191:.\Generated_Source\PSoC5/DMASDSPI_1_SPIMaster.c **** *******************************************************************************/
 192:.\Generated_Source\PSoC5/DMASDSPI_1_SPIMaster.c **** void DMASDSPI_1_SPIMaster_Stop(void) 
 193:.\Generated_Source\PSoC5/DMASDSPI_1_SPIMaster.c **** {
  72              		.loc 1 193 0
  73              		.cfi_startproc
  74              		@ args = 0, pretend = 0, frame = 0
  75              		@ frame_needed = 0, uses_anonymous_args = 0
  76 0000 08B5     		push	{r3, lr}
  77              		.cfi_def_cfa_offset 8
  78              		.cfi_offset 3, -8
  79              		.cfi_offset 14, -4
 194:.\Generated_Source\PSoC5/DMASDSPI_1_SPIMaster.c ****     uint8 enableInterrupts;
 195:.\Generated_Source\PSoC5/DMASDSPI_1_SPIMaster.c **** 
 196:.\Generated_Source\PSoC5/DMASDSPI_1_SPIMaster.c ****     enableInterrupts = CyEnterCriticalSection();
  80              		.loc 1 196 0
  81 0002 FFF7FEFF 		bl	CyEnterCriticalSection
  82              	.LVL2:
 197:.\Generated_Source\PSoC5/DMASDSPI_1_SPIMaster.c ****     DMASDSPI_1_SPIMaster_TX_STATUS_ACTL_REG &= ((uint8) ~DMASDSPI_1_SPIMaster_INT_ENABLE);
  83              		.loc 1 197 0
  84 0006 064A     		ldr	r2, .L7
  85 0008 1378     		ldrb	r3, [r2]	@ zero_extendqisi2
  86 000a 03F0EF03 		and	r3, r3, #239
  87 000e 1370     		strb	r3, [r2]
 198:.\Generated_Source\PSoC5/DMASDSPI_1_SPIMaster.c ****     DMASDSPI_1_SPIMaster_RX_STATUS_ACTL_REG &= ((uint8) ~DMASDSPI_1_SPIMaster_INT_ENABLE);
ARM GAS  C:\Users\honet\AppData\Local\Temp\ccb11yRS.s 			page 6


  88              		.loc 1 198 0
  89 0010 013A     		subs	r2, r2, #1
  90 0012 1378     		ldrb	r3, [r2]	@ zero_extendqisi2
  91 0014 03F0EF03 		and	r3, r3, #239
  92 0018 1370     		strb	r3, [r2]
 199:.\Generated_Source\PSoC5/DMASDSPI_1_SPIMaster.c ****     CyExitCriticalSection(enableInterrupts);
  93              		.loc 1 199 0
  94 001a FFF7FEFF 		bl	CyExitCriticalSection
  95              	.LVL3:
  96 001e 08BD     		pop	{r3, pc}
  97              	.L8:
  98              		.align	2
  99              	.L7:
 100 0020 93640040 		.word	1073767571
 101              		.cfi_endproc
 102              	.LFE3:
 103              		.size	DMASDSPI_1_SPIMaster_Stop, .-DMASDSPI_1_SPIMaster_Stop
 104              		.section	.text.DMASDSPI_1_SPIMaster_EnableTxInt,"ax",%progbits
 105              		.align	2
 106              		.global	DMASDSPI_1_SPIMaster_EnableTxInt
 107              		.thumb
 108              		.thumb_func
 109              		.type	DMASDSPI_1_SPIMaster_EnableTxInt, %function
 110              	DMASDSPI_1_SPIMaster_EnableTxInt:
 111              	.LFB4:
 200:.\Generated_Source\PSoC5/DMASDSPI_1_SPIMaster.c **** 
 201:.\Generated_Source\PSoC5/DMASDSPI_1_SPIMaster.c ****     #if(0u != DMASDSPI_1_SPIMaster_INTERNAL_CLOCK)
 202:.\Generated_Source\PSoC5/DMASDSPI_1_SPIMaster.c ****         DMASDSPI_1_SPIMaster_IntClock_Disable();
 203:.\Generated_Source\PSoC5/DMASDSPI_1_SPIMaster.c ****     #endif /* (0u != DMASDSPI_1_SPIMaster_INTERNAL_CLOCK) */
 204:.\Generated_Source\PSoC5/DMASDSPI_1_SPIMaster.c **** 
 205:.\Generated_Source\PSoC5/DMASDSPI_1_SPIMaster.c ****     DMASDSPI_1_SPIMaster_DisableTxInt();
 206:.\Generated_Source\PSoC5/DMASDSPI_1_SPIMaster.c ****     DMASDSPI_1_SPIMaster_DisableRxInt();
 207:.\Generated_Source\PSoC5/DMASDSPI_1_SPIMaster.c **** }
 208:.\Generated_Source\PSoC5/DMASDSPI_1_SPIMaster.c **** 
 209:.\Generated_Source\PSoC5/DMASDSPI_1_SPIMaster.c **** 
 210:.\Generated_Source\PSoC5/DMASDSPI_1_SPIMaster.c **** /*******************************************************************************
 211:.\Generated_Source\PSoC5/DMASDSPI_1_SPIMaster.c **** * Function Name: DMASDSPI_1_SPIMaster_EnableTxInt
 212:.\Generated_Source\PSoC5/DMASDSPI_1_SPIMaster.c **** ********************************************************************************
 213:.\Generated_Source\PSoC5/DMASDSPI_1_SPIMaster.c **** *
 214:.\Generated_Source\PSoC5/DMASDSPI_1_SPIMaster.c **** * Summary:
 215:.\Generated_Source\PSoC5/DMASDSPI_1_SPIMaster.c **** *  Enable internal Tx interrupt generation.
 216:.\Generated_Source\PSoC5/DMASDSPI_1_SPIMaster.c **** *
 217:.\Generated_Source\PSoC5/DMASDSPI_1_SPIMaster.c **** * Parameters:
 218:.\Generated_Source\PSoC5/DMASDSPI_1_SPIMaster.c **** *  None.
 219:.\Generated_Source\PSoC5/DMASDSPI_1_SPIMaster.c **** *
 220:.\Generated_Source\PSoC5/DMASDSPI_1_SPIMaster.c **** * Return:
 221:.\Generated_Source\PSoC5/DMASDSPI_1_SPIMaster.c **** *  None.
 222:.\Generated_Source\PSoC5/DMASDSPI_1_SPIMaster.c **** *
 223:.\Generated_Source\PSoC5/DMASDSPI_1_SPIMaster.c **** * Theory:
 224:.\Generated_Source\PSoC5/DMASDSPI_1_SPIMaster.c **** *  Enable the internal Tx interrupt output -or- the interrupt component itself.
 225:.\Generated_Source\PSoC5/DMASDSPI_1_SPIMaster.c **** *
 226:.\Generated_Source\PSoC5/DMASDSPI_1_SPIMaster.c **** *******************************************************************************/
 227:.\Generated_Source\PSoC5/DMASDSPI_1_SPIMaster.c **** void DMASDSPI_1_SPIMaster_EnableTxInt(void) 
 228:.\Generated_Source\PSoC5/DMASDSPI_1_SPIMaster.c **** {
 112              		.loc 1 228 0
 113              		.cfi_startproc
 114              		@ args = 0, pretend = 0, frame = 0
ARM GAS  C:\Users\honet\AppData\Local\Temp\ccb11yRS.s 			page 7


 115              		@ frame_needed = 0, uses_anonymous_args = 0
 116              		@ link register save eliminated.
 117 0000 7047     		bx	lr
 118              		.cfi_endproc
 119              	.LFE4:
 120              		.size	DMASDSPI_1_SPIMaster_EnableTxInt, .-DMASDSPI_1_SPIMaster_EnableTxInt
 121 0002 00BF     		.section	.text.DMASDSPI_1_SPIMaster_EnableRxInt,"ax",%progbits
 122              		.align	2
 123              		.global	DMASDSPI_1_SPIMaster_EnableRxInt
 124              		.thumb
 125              		.thumb_func
 126              		.type	DMASDSPI_1_SPIMaster_EnableRxInt, %function
 127              	DMASDSPI_1_SPIMaster_EnableRxInt:
 128              	.LFB5:
 229:.\Generated_Source\PSoC5/DMASDSPI_1_SPIMaster.c ****     #if(0u != DMASDSPI_1_SPIMaster_INTERNAL_TX_INT_ENABLED)
 230:.\Generated_Source\PSoC5/DMASDSPI_1_SPIMaster.c ****         CyIntEnable(DMASDSPI_1_SPIMaster_TX_ISR_NUMBER);
 231:.\Generated_Source\PSoC5/DMASDSPI_1_SPIMaster.c ****     #endif /* (0u != DMASDSPI_1_SPIMaster_INTERNAL_TX_INT_ENABLED) */
 232:.\Generated_Source\PSoC5/DMASDSPI_1_SPIMaster.c **** }
 233:.\Generated_Source\PSoC5/DMASDSPI_1_SPIMaster.c **** 
 234:.\Generated_Source\PSoC5/DMASDSPI_1_SPIMaster.c **** 
 235:.\Generated_Source\PSoC5/DMASDSPI_1_SPIMaster.c **** /*******************************************************************************
 236:.\Generated_Source\PSoC5/DMASDSPI_1_SPIMaster.c **** * Function Name: DMASDSPI_1_SPIMaster_EnableRxInt
 237:.\Generated_Source\PSoC5/DMASDSPI_1_SPIMaster.c **** ********************************************************************************
 238:.\Generated_Source\PSoC5/DMASDSPI_1_SPIMaster.c **** *
 239:.\Generated_Source\PSoC5/DMASDSPI_1_SPIMaster.c **** * Summary:
 240:.\Generated_Source\PSoC5/DMASDSPI_1_SPIMaster.c **** *  Enable internal Rx interrupt generation.
 241:.\Generated_Source\PSoC5/DMASDSPI_1_SPIMaster.c **** *
 242:.\Generated_Source\PSoC5/DMASDSPI_1_SPIMaster.c **** * Parameters:
 243:.\Generated_Source\PSoC5/DMASDSPI_1_SPIMaster.c **** *  None.
 244:.\Generated_Source\PSoC5/DMASDSPI_1_SPIMaster.c **** *
 245:.\Generated_Source\PSoC5/DMASDSPI_1_SPIMaster.c **** * Return:
 246:.\Generated_Source\PSoC5/DMASDSPI_1_SPIMaster.c **** *  None.
 247:.\Generated_Source\PSoC5/DMASDSPI_1_SPIMaster.c **** *
 248:.\Generated_Source\PSoC5/DMASDSPI_1_SPIMaster.c **** * Theory:
 249:.\Generated_Source\PSoC5/DMASDSPI_1_SPIMaster.c **** *  Enable the internal Rx interrupt output -or- the interrupt component itself.
 250:.\Generated_Source\PSoC5/DMASDSPI_1_SPIMaster.c **** *
 251:.\Generated_Source\PSoC5/DMASDSPI_1_SPIMaster.c **** *******************************************************************************/
 252:.\Generated_Source\PSoC5/DMASDSPI_1_SPIMaster.c **** void DMASDSPI_1_SPIMaster_EnableRxInt(void) 
 253:.\Generated_Source\PSoC5/DMASDSPI_1_SPIMaster.c **** {
 129              		.loc 1 253 0
 130              		.cfi_startproc
 131              		@ args = 0, pretend = 0, frame = 0
 132              		@ frame_needed = 0, uses_anonymous_args = 0
 133              		@ link register save eliminated.
 134 0000 7047     		bx	lr
 135              		.cfi_endproc
 136              	.LFE5:
 137              		.size	DMASDSPI_1_SPIMaster_EnableRxInt, .-DMASDSPI_1_SPIMaster_EnableRxInt
 138 0002 00BF     		.section	.text.DMASDSPI_1_SPIMaster_DisableTxInt,"ax",%progbits
 139              		.align	2
 140              		.global	DMASDSPI_1_SPIMaster_DisableTxInt
 141              		.thumb
 142              		.thumb_func
 143              		.type	DMASDSPI_1_SPIMaster_DisableTxInt, %function
 144              	DMASDSPI_1_SPIMaster_DisableTxInt:
 145              	.LFB6:
 254:.\Generated_Source\PSoC5/DMASDSPI_1_SPIMaster.c ****     #if(0u != DMASDSPI_1_SPIMaster_INTERNAL_RX_INT_ENABLED)
ARM GAS  C:\Users\honet\AppData\Local\Temp\ccb11yRS.s 			page 8


 255:.\Generated_Source\PSoC5/DMASDSPI_1_SPIMaster.c ****         CyIntEnable(DMASDSPI_1_SPIMaster_RX_ISR_NUMBER);
 256:.\Generated_Source\PSoC5/DMASDSPI_1_SPIMaster.c ****     #endif /* (0u != DMASDSPI_1_SPIMaster_INTERNAL_RX_INT_ENABLED) */
 257:.\Generated_Source\PSoC5/DMASDSPI_1_SPIMaster.c **** }
 258:.\Generated_Source\PSoC5/DMASDSPI_1_SPIMaster.c **** 
 259:.\Generated_Source\PSoC5/DMASDSPI_1_SPIMaster.c **** 
 260:.\Generated_Source\PSoC5/DMASDSPI_1_SPIMaster.c **** /*******************************************************************************
 261:.\Generated_Source\PSoC5/DMASDSPI_1_SPIMaster.c **** * Function Name: DMASDSPI_1_SPIMaster_DisableTxInt
 262:.\Generated_Source\PSoC5/DMASDSPI_1_SPIMaster.c **** ********************************************************************************
 263:.\Generated_Source\PSoC5/DMASDSPI_1_SPIMaster.c **** *
 264:.\Generated_Source\PSoC5/DMASDSPI_1_SPIMaster.c **** * Summary:
 265:.\Generated_Source\PSoC5/DMASDSPI_1_SPIMaster.c **** *  Disable internal Tx interrupt generation.
 266:.\Generated_Source\PSoC5/DMASDSPI_1_SPIMaster.c **** *
 267:.\Generated_Source\PSoC5/DMASDSPI_1_SPIMaster.c **** * Parameters:
 268:.\Generated_Source\PSoC5/DMASDSPI_1_SPIMaster.c **** *  None.
 269:.\Generated_Source\PSoC5/DMASDSPI_1_SPIMaster.c **** *
 270:.\Generated_Source\PSoC5/DMASDSPI_1_SPIMaster.c **** * Return:
 271:.\Generated_Source\PSoC5/DMASDSPI_1_SPIMaster.c **** *  None.
 272:.\Generated_Source\PSoC5/DMASDSPI_1_SPIMaster.c **** *
 273:.\Generated_Source\PSoC5/DMASDSPI_1_SPIMaster.c **** * Theory:
 274:.\Generated_Source\PSoC5/DMASDSPI_1_SPIMaster.c **** *  Disable the internal Tx interrupt output -or- the interrupt component itself.
 275:.\Generated_Source\PSoC5/DMASDSPI_1_SPIMaster.c **** *
 276:.\Generated_Source\PSoC5/DMASDSPI_1_SPIMaster.c **** *******************************************************************************/
 277:.\Generated_Source\PSoC5/DMASDSPI_1_SPIMaster.c **** void DMASDSPI_1_SPIMaster_DisableTxInt(void) 
 278:.\Generated_Source\PSoC5/DMASDSPI_1_SPIMaster.c **** {
 146              		.loc 1 278 0
 147              		.cfi_startproc
 148              		@ args = 0, pretend = 0, frame = 0
 149              		@ frame_needed = 0, uses_anonymous_args = 0
 150              		@ link register save eliminated.
 151 0000 7047     		bx	lr
 152              		.cfi_endproc
 153              	.LFE6:
 154              		.size	DMASDSPI_1_SPIMaster_DisableTxInt, .-DMASDSPI_1_SPIMaster_DisableTxInt
 155 0002 00BF     		.section	.text.DMASDSPI_1_SPIMaster_DisableRxInt,"ax",%progbits
 156              		.align	2
 157              		.global	DMASDSPI_1_SPIMaster_DisableRxInt
 158              		.thumb
 159              		.thumb_func
 160              		.type	DMASDSPI_1_SPIMaster_DisableRxInt, %function
 161              	DMASDSPI_1_SPIMaster_DisableRxInt:
 162              	.LFB7:
 279:.\Generated_Source\PSoC5/DMASDSPI_1_SPIMaster.c ****     #if(0u != DMASDSPI_1_SPIMaster_INTERNAL_TX_INT_ENABLED)
 280:.\Generated_Source\PSoC5/DMASDSPI_1_SPIMaster.c ****         CyIntDisable(DMASDSPI_1_SPIMaster_TX_ISR_NUMBER);
 281:.\Generated_Source\PSoC5/DMASDSPI_1_SPIMaster.c ****     #endif /* (0u != DMASDSPI_1_SPIMaster_INTERNAL_TX_INT_ENABLED) */
 282:.\Generated_Source\PSoC5/DMASDSPI_1_SPIMaster.c **** }
 283:.\Generated_Source\PSoC5/DMASDSPI_1_SPIMaster.c **** 
 284:.\Generated_Source\PSoC5/DMASDSPI_1_SPIMaster.c **** 
 285:.\Generated_Source\PSoC5/DMASDSPI_1_SPIMaster.c **** /*******************************************************************************
 286:.\Generated_Source\PSoC5/DMASDSPI_1_SPIMaster.c **** * Function Name: DMASDSPI_1_SPIMaster_DisableRxInt
 287:.\Generated_Source\PSoC5/DMASDSPI_1_SPIMaster.c **** ********************************************************************************
 288:.\Generated_Source\PSoC5/DMASDSPI_1_SPIMaster.c **** *
 289:.\Generated_Source\PSoC5/DMASDSPI_1_SPIMaster.c **** * Summary:
 290:.\Generated_Source\PSoC5/DMASDSPI_1_SPIMaster.c **** *  Disable internal Rx interrupt generation.
 291:.\Generated_Source\PSoC5/DMASDSPI_1_SPIMaster.c **** *
 292:.\Generated_Source\PSoC5/DMASDSPI_1_SPIMaster.c **** * Parameters:
 293:.\Generated_Source\PSoC5/DMASDSPI_1_SPIMaster.c **** *  None.
 294:.\Generated_Source\PSoC5/DMASDSPI_1_SPIMaster.c **** *
ARM GAS  C:\Users\honet\AppData\Local\Temp\ccb11yRS.s 			page 9


 295:.\Generated_Source\PSoC5/DMASDSPI_1_SPIMaster.c **** * Return:
 296:.\Generated_Source\PSoC5/DMASDSPI_1_SPIMaster.c **** *  None.
 297:.\Generated_Source\PSoC5/DMASDSPI_1_SPIMaster.c **** *
 298:.\Generated_Source\PSoC5/DMASDSPI_1_SPIMaster.c **** * Theory:
 299:.\Generated_Source\PSoC5/DMASDSPI_1_SPIMaster.c **** *  Disable the internal Rx interrupt output -or- the interrupt component itself.
 300:.\Generated_Source\PSoC5/DMASDSPI_1_SPIMaster.c **** *
 301:.\Generated_Source\PSoC5/DMASDSPI_1_SPIMaster.c **** *******************************************************************************/
 302:.\Generated_Source\PSoC5/DMASDSPI_1_SPIMaster.c **** void DMASDSPI_1_SPIMaster_DisableRxInt(void) 
 303:.\Generated_Source\PSoC5/DMASDSPI_1_SPIMaster.c **** {
 163              		.loc 1 303 0
 164              		.cfi_startproc
 165              		@ args = 0, pretend = 0, frame = 0
 166              		@ frame_needed = 0, uses_anonymous_args = 0
 167              		@ link register save eliminated.
 168 0000 7047     		bx	lr
 169              		.cfi_endproc
 170              	.LFE7:
 171              		.size	DMASDSPI_1_SPIMaster_DisableRxInt, .-DMASDSPI_1_SPIMaster_DisableRxInt
 172 0002 00BF     		.section	.text.DMASDSPI_1_SPIMaster_SetTxInterruptMode,"ax",%progbits
 173              		.align	2
 174              		.global	DMASDSPI_1_SPIMaster_SetTxInterruptMode
 175              		.thumb
 176              		.thumb_func
 177              		.type	DMASDSPI_1_SPIMaster_SetTxInterruptMode, %function
 178              	DMASDSPI_1_SPIMaster_SetTxInterruptMode:
 179              	.LFB8:
 304:.\Generated_Source\PSoC5/DMASDSPI_1_SPIMaster.c ****     #if(0u != DMASDSPI_1_SPIMaster_INTERNAL_RX_INT_ENABLED)
 305:.\Generated_Source\PSoC5/DMASDSPI_1_SPIMaster.c ****         CyIntDisable(DMASDSPI_1_SPIMaster_RX_ISR_NUMBER);
 306:.\Generated_Source\PSoC5/DMASDSPI_1_SPIMaster.c ****     #endif /* (0u != DMASDSPI_1_SPIMaster_INTERNAL_RX_INT_ENABLED) */
 307:.\Generated_Source\PSoC5/DMASDSPI_1_SPIMaster.c **** }
 308:.\Generated_Source\PSoC5/DMASDSPI_1_SPIMaster.c **** 
 309:.\Generated_Source\PSoC5/DMASDSPI_1_SPIMaster.c **** 
 310:.\Generated_Source\PSoC5/DMASDSPI_1_SPIMaster.c **** /*******************************************************************************
 311:.\Generated_Source\PSoC5/DMASDSPI_1_SPIMaster.c **** * Function Name: DMASDSPI_1_SPIMaster_SetTxInterruptMode
 312:.\Generated_Source\PSoC5/DMASDSPI_1_SPIMaster.c **** ********************************************************************************
 313:.\Generated_Source\PSoC5/DMASDSPI_1_SPIMaster.c **** *
 314:.\Generated_Source\PSoC5/DMASDSPI_1_SPIMaster.c **** * Summary:
 315:.\Generated_Source\PSoC5/DMASDSPI_1_SPIMaster.c **** *  Configure which status bits trigger an interrupt event.
 316:.\Generated_Source\PSoC5/DMASDSPI_1_SPIMaster.c **** *
 317:.\Generated_Source\PSoC5/DMASDSPI_1_SPIMaster.c **** * Parameters:
 318:.\Generated_Source\PSoC5/DMASDSPI_1_SPIMaster.c **** *  intSrc: An or'd combination of the desired status bit masks (defined in the
 319:.\Generated_Source\PSoC5/DMASDSPI_1_SPIMaster.c **** *  header file).
 320:.\Generated_Source\PSoC5/DMASDSPI_1_SPIMaster.c **** *
 321:.\Generated_Source\PSoC5/DMASDSPI_1_SPIMaster.c **** * Return:
 322:.\Generated_Source\PSoC5/DMASDSPI_1_SPIMaster.c **** *  None.
 323:.\Generated_Source\PSoC5/DMASDSPI_1_SPIMaster.c **** *
 324:.\Generated_Source\PSoC5/DMASDSPI_1_SPIMaster.c **** * Theory:
 325:.\Generated_Source\PSoC5/DMASDSPI_1_SPIMaster.c **** *  Enables the output of specific status bits to the interrupt controller.
 326:.\Generated_Source\PSoC5/DMASDSPI_1_SPIMaster.c **** *
 327:.\Generated_Source\PSoC5/DMASDSPI_1_SPIMaster.c **** *******************************************************************************/
 328:.\Generated_Source\PSoC5/DMASDSPI_1_SPIMaster.c **** void DMASDSPI_1_SPIMaster_SetTxInterruptMode(uint8 intSrc) 
 329:.\Generated_Source\PSoC5/DMASDSPI_1_SPIMaster.c **** {
 180              		.loc 1 329 0
 181              		.cfi_startproc
 182              		@ args = 0, pretend = 0, frame = 0
 183              		@ frame_needed = 0, uses_anonymous_args = 0
 184              		@ link register save eliminated.
ARM GAS  C:\Users\honet\AppData\Local\Temp\ccb11yRS.s 			page 10


 185              	.LVL4:
 330:.\Generated_Source\PSoC5/DMASDSPI_1_SPIMaster.c ****     DMASDSPI_1_SPIMaster_TX_STATUS_MASK_REG = intSrc;
 186              		.loc 1 330 0
 187 0000 014B     		ldr	r3, .L14
 188 0002 1870     		strb	r0, [r3]
 189 0004 7047     		bx	lr
 190              	.L15:
 191 0006 00BF     		.align	2
 192              	.L14:
 193 0008 83640040 		.word	1073767555
 194              		.cfi_endproc
 195              	.LFE8:
 196              		.size	DMASDSPI_1_SPIMaster_SetTxInterruptMode, .-DMASDSPI_1_SPIMaster_SetTxInterruptMode
 197              		.section	.text.DMASDSPI_1_SPIMaster_SetRxInterruptMode,"ax",%progbits
 198              		.align	2
 199              		.global	DMASDSPI_1_SPIMaster_SetRxInterruptMode
 200              		.thumb
 201              		.thumb_func
 202              		.type	DMASDSPI_1_SPIMaster_SetRxInterruptMode, %function
 203              	DMASDSPI_1_SPIMaster_SetRxInterruptMode:
 204              	.LFB9:
 331:.\Generated_Source\PSoC5/DMASDSPI_1_SPIMaster.c **** }
 332:.\Generated_Source\PSoC5/DMASDSPI_1_SPIMaster.c **** 
 333:.\Generated_Source\PSoC5/DMASDSPI_1_SPIMaster.c **** 
 334:.\Generated_Source\PSoC5/DMASDSPI_1_SPIMaster.c **** /*******************************************************************************
 335:.\Generated_Source\PSoC5/DMASDSPI_1_SPIMaster.c **** * Function Name: DMASDSPI_1_SPIMaster_SetRxInterruptMode
 336:.\Generated_Source\PSoC5/DMASDSPI_1_SPIMaster.c **** ********************************************************************************
 337:.\Generated_Source\PSoC5/DMASDSPI_1_SPIMaster.c **** *
 338:.\Generated_Source\PSoC5/DMASDSPI_1_SPIMaster.c **** * Summary:
 339:.\Generated_Source\PSoC5/DMASDSPI_1_SPIMaster.c **** *  Configure which status bits trigger an interrupt event.
 340:.\Generated_Source\PSoC5/DMASDSPI_1_SPIMaster.c **** *
 341:.\Generated_Source\PSoC5/DMASDSPI_1_SPIMaster.c **** * Parameters:
 342:.\Generated_Source\PSoC5/DMASDSPI_1_SPIMaster.c **** *  intSrc: An or'd combination of the desired status bit masks (defined in the
 343:.\Generated_Source\PSoC5/DMASDSPI_1_SPIMaster.c **** *  header file).
 344:.\Generated_Source\PSoC5/DMASDSPI_1_SPIMaster.c **** *
 345:.\Generated_Source\PSoC5/DMASDSPI_1_SPIMaster.c **** * Return:
 346:.\Generated_Source\PSoC5/DMASDSPI_1_SPIMaster.c **** *  None.
 347:.\Generated_Source\PSoC5/DMASDSPI_1_SPIMaster.c **** *
 348:.\Generated_Source\PSoC5/DMASDSPI_1_SPIMaster.c **** * Theory:
 349:.\Generated_Source\PSoC5/DMASDSPI_1_SPIMaster.c **** *  Enables the output of specific status bits to the interrupt controller.
 350:.\Generated_Source\PSoC5/DMASDSPI_1_SPIMaster.c **** *
 351:.\Generated_Source\PSoC5/DMASDSPI_1_SPIMaster.c **** *******************************************************************************/
 352:.\Generated_Source\PSoC5/DMASDSPI_1_SPIMaster.c **** void DMASDSPI_1_SPIMaster_SetRxInterruptMode(uint8 intSrc) 
 353:.\Generated_Source\PSoC5/DMASDSPI_1_SPIMaster.c **** {
 205              		.loc 1 353 0
 206              		.cfi_startproc
 207              		@ args = 0, pretend = 0, frame = 0
 208              		@ frame_needed = 0, uses_anonymous_args = 0
 209              		@ link register save eliminated.
 210              	.LVL5:
 354:.\Generated_Source\PSoC5/DMASDSPI_1_SPIMaster.c ****     DMASDSPI_1_SPIMaster_RX_STATUS_MASK_REG  = intSrc;
 211              		.loc 1 354 0
 212 0000 014B     		ldr	r3, .L17
 213 0002 1870     		strb	r0, [r3]
 214 0004 7047     		bx	lr
 215              	.L18:
 216 0006 00BF     		.align	2
ARM GAS  C:\Users\honet\AppData\Local\Temp\ccb11yRS.s 			page 11


 217              	.L17:
 218 0008 82640040 		.word	1073767554
 219              		.cfi_endproc
 220              	.LFE9:
 221              		.size	DMASDSPI_1_SPIMaster_SetRxInterruptMode, .-DMASDSPI_1_SPIMaster_SetRxInterruptMode
 222              		.section	.text.DMASDSPI_1_SPIMaster_ReadTxStatus,"ax",%progbits
 223              		.align	2
 224              		.global	DMASDSPI_1_SPIMaster_ReadTxStatus
 225              		.thumb
 226              		.thumb_func
 227              		.type	DMASDSPI_1_SPIMaster_ReadTxStatus, %function
 228              	DMASDSPI_1_SPIMaster_ReadTxStatus:
 229              	.LFB10:
 355:.\Generated_Source\PSoC5/DMASDSPI_1_SPIMaster.c **** }
 356:.\Generated_Source\PSoC5/DMASDSPI_1_SPIMaster.c **** 
 357:.\Generated_Source\PSoC5/DMASDSPI_1_SPIMaster.c **** 
 358:.\Generated_Source\PSoC5/DMASDSPI_1_SPIMaster.c **** /*******************************************************************************
 359:.\Generated_Source\PSoC5/DMASDSPI_1_SPIMaster.c **** * Function Name: DMASDSPI_1_SPIMaster_ReadTxStatus
 360:.\Generated_Source\PSoC5/DMASDSPI_1_SPIMaster.c **** ********************************************************************************
 361:.\Generated_Source\PSoC5/DMASDSPI_1_SPIMaster.c **** *
 362:.\Generated_Source\PSoC5/DMASDSPI_1_SPIMaster.c **** * Summary:
 363:.\Generated_Source\PSoC5/DMASDSPI_1_SPIMaster.c **** *  Read the Tx status register for the component.
 364:.\Generated_Source\PSoC5/DMASDSPI_1_SPIMaster.c **** *
 365:.\Generated_Source\PSoC5/DMASDSPI_1_SPIMaster.c **** * Parameters:
 366:.\Generated_Source\PSoC5/DMASDSPI_1_SPIMaster.c **** *  None.
 367:.\Generated_Source\PSoC5/DMASDSPI_1_SPIMaster.c **** *
 368:.\Generated_Source\PSoC5/DMASDSPI_1_SPIMaster.c **** * Return:
 369:.\Generated_Source\PSoC5/DMASDSPI_1_SPIMaster.c **** *  Contents of the Tx status register.
 370:.\Generated_Source\PSoC5/DMASDSPI_1_SPIMaster.c **** *
 371:.\Generated_Source\PSoC5/DMASDSPI_1_SPIMaster.c **** * Global variables:
 372:.\Generated_Source\PSoC5/DMASDSPI_1_SPIMaster.c **** *  DMASDSPI_1_SPIMaster_swStatusTx - used to store in software status register,
 373:.\Generated_Source\PSoC5/DMASDSPI_1_SPIMaster.c **** *  modified every function call - resets to zero.
 374:.\Generated_Source\PSoC5/DMASDSPI_1_SPIMaster.c **** *
 375:.\Generated_Source\PSoC5/DMASDSPI_1_SPIMaster.c **** * Theory:
 376:.\Generated_Source\PSoC5/DMASDSPI_1_SPIMaster.c **** *  Allows the user and the API to read the Tx status register for error
 377:.\Generated_Source\PSoC5/DMASDSPI_1_SPIMaster.c **** *  detection and flow control.
 378:.\Generated_Source\PSoC5/DMASDSPI_1_SPIMaster.c **** *
 379:.\Generated_Source\PSoC5/DMASDSPI_1_SPIMaster.c **** * Side Effects:
 380:.\Generated_Source\PSoC5/DMASDSPI_1_SPIMaster.c **** *  Clear Tx status register of the component.
 381:.\Generated_Source\PSoC5/DMASDSPI_1_SPIMaster.c **** *
 382:.\Generated_Source\PSoC5/DMASDSPI_1_SPIMaster.c **** * Reentrant:
 383:.\Generated_Source\PSoC5/DMASDSPI_1_SPIMaster.c **** *  No.
 384:.\Generated_Source\PSoC5/DMASDSPI_1_SPIMaster.c **** *
 385:.\Generated_Source\PSoC5/DMASDSPI_1_SPIMaster.c **** *******************************************************************************/
 386:.\Generated_Source\PSoC5/DMASDSPI_1_SPIMaster.c **** uint8 DMASDSPI_1_SPIMaster_ReadTxStatus(void) 
 387:.\Generated_Source\PSoC5/DMASDSPI_1_SPIMaster.c **** {
 230              		.loc 1 387 0
 231              		.cfi_startproc
 232              		@ args = 0, pretend = 0, frame = 0
 233              		@ frame_needed = 0, uses_anonymous_args = 0
 234              		@ link register save eliminated.
 388:.\Generated_Source\PSoC5/DMASDSPI_1_SPIMaster.c ****     uint8 tmpStatus;
 389:.\Generated_Source\PSoC5/DMASDSPI_1_SPIMaster.c **** 
 390:.\Generated_Source\PSoC5/DMASDSPI_1_SPIMaster.c ****     #if(DMASDSPI_1_SPIMaster_TX_SOFTWARE_BUF_ENABLED)
 391:.\Generated_Source\PSoC5/DMASDSPI_1_SPIMaster.c ****         /* Disable TX interrupt to protect global veriables */
 392:.\Generated_Source\PSoC5/DMASDSPI_1_SPIMaster.c ****         DMASDSPI_1_SPIMaster_DisableTxInt();
 393:.\Generated_Source\PSoC5/DMASDSPI_1_SPIMaster.c **** 
ARM GAS  C:\Users\honet\AppData\Local\Temp\ccb11yRS.s 			page 12


 394:.\Generated_Source\PSoC5/DMASDSPI_1_SPIMaster.c ****         tmpStatus = DMASDSPI_1_SPIMaster_GET_STATUS_TX(DMASDSPI_1_SPIMaster_swStatusTx);
 395:.\Generated_Source\PSoC5/DMASDSPI_1_SPIMaster.c ****         DMASDSPI_1_SPIMaster_swStatusTx = 0u;
 396:.\Generated_Source\PSoC5/DMASDSPI_1_SPIMaster.c **** 
 397:.\Generated_Source\PSoC5/DMASDSPI_1_SPIMaster.c ****         DMASDSPI_1_SPIMaster_EnableTxInt();
 398:.\Generated_Source\PSoC5/DMASDSPI_1_SPIMaster.c **** 
 399:.\Generated_Source\PSoC5/DMASDSPI_1_SPIMaster.c ****     #else
 400:.\Generated_Source\PSoC5/DMASDSPI_1_SPIMaster.c **** 
 401:.\Generated_Source\PSoC5/DMASDSPI_1_SPIMaster.c ****         tmpStatus = DMASDSPI_1_SPIMaster_TX_STATUS_REG;
 235              		.loc 1 401 0
 236 0000 014B     		ldr	r3, .L20
 237 0002 1878     		ldrb	r0, [r3]	@ zero_extendqisi2
 238              	.LVL6:
 402:.\Generated_Source\PSoC5/DMASDSPI_1_SPIMaster.c **** 
 403:.\Generated_Source\PSoC5/DMASDSPI_1_SPIMaster.c ****     #endif /* (DMASDSPI_1_SPIMaster_TX_SOFTWARE_BUF_ENABLED) */
 404:.\Generated_Source\PSoC5/DMASDSPI_1_SPIMaster.c **** 
 405:.\Generated_Source\PSoC5/DMASDSPI_1_SPIMaster.c ****     return(tmpStatus);
 406:.\Generated_Source\PSoC5/DMASDSPI_1_SPIMaster.c **** }
 239              		.loc 1 406 0
 240 0004 7047     		bx	lr
 241              	.L21:
 242 0006 00BF     		.align	2
 243              	.L20:
 244 0008 63640040 		.word	1073767523
 245              		.cfi_endproc
 246              	.LFE10:
 247              		.size	DMASDSPI_1_SPIMaster_ReadTxStatus, .-DMASDSPI_1_SPIMaster_ReadTxStatus
 248              		.section	.text.DMASDSPI_1_SPIMaster_ReadRxStatus,"ax",%progbits
 249              		.align	2
 250              		.global	DMASDSPI_1_SPIMaster_ReadRxStatus
 251              		.thumb
 252              		.thumb_func
 253              		.type	DMASDSPI_1_SPIMaster_ReadRxStatus, %function
 254              	DMASDSPI_1_SPIMaster_ReadRxStatus:
 255              	.LFB11:
 407:.\Generated_Source\PSoC5/DMASDSPI_1_SPIMaster.c **** 
 408:.\Generated_Source\PSoC5/DMASDSPI_1_SPIMaster.c **** 
 409:.\Generated_Source\PSoC5/DMASDSPI_1_SPIMaster.c **** /*******************************************************************************
 410:.\Generated_Source\PSoC5/DMASDSPI_1_SPIMaster.c **** * Function Name: DMASDSPI_1_SPIMaster_ReadRxStatus
 411:.\Generated_Source\PSoC5/DMASDSPI_1_SPIMaster.c **** ********************************************************************************
 412:.\Generated_Source\PSoC5/DMASDSPI_1_SPIMaster.c **** *
 413:.\Generated_Source\PSoC5/DMASDSPI_1_SPIMaster.c **** * Summary:
 414:.\Generated_Source\PSoC5/DMASDSPI_1_SPIMaster.c **** *  Read the Rx status register for the component.
 415:.\Generated_Source\PSoC5/DMASDSPI_1_SPIMaster.c **** *
 416:.\Generated_Source\PSoC5/DMASDSPI_1_SPIMaster.c **** * Parameters:
 417:.\Generated_Source\PSoC5/DMASDSPI_1_SPIMaster.c **** *  None.
 418:.\Generated_Source\PSoC5/DMASDSPI_1_SPIMaster.c **** *
 419:.\Generated_Source\PSoC5/DMASDSPI_1_SPIMaster.c **** * Return:
 420:.\Generated_Source\PSoC5/DMASDSPI_1_SPIMaster.c **** *  Contents of the Rx status register.
 421:.\Generated_Source\PSoC5/DMASDSPI_1_SPIMaster.c **** *
 422:.\Generated_Source\PSoC5/DMASDSPI_1_SPIMaster.c **** * Global variables:
 423:.\Generated_Source\PSoC5/DMASDSPI_1_SPIMaster.c **** *  DMASDSPI_1_SPIMaster_swStatusRx - used to store in software Rx status register,
 424:.\Generated_Source\PSoC5/DMASDSPI_1_SPIMaster.c **** *  modified every function call - resets to zero.
 425:.\Generated_Source\PSoC5/DMASDSPI_1_SPIMaster.c **** *
 426:.\Generated_Source\PSoC5/DMASDSPI_1_SPIMaster.c **** * Theory:
 427:.\Generated_Source\PSoC5/DMASDSPI_1_SPIMaster.c **** *  Allows the user and the API to read the Rx status register for error
 428:.\Generated_Source\PSoC5/DMASDSPI_1_SPIMaster.c **** *  detection and flow control.
 429:.\Generated_Source\PSoC5/DMASDSPI_1_SPIMaster.c **** *
ARM GAS  C:\Users\honet\AppData\Local\Temp\ccb11yRS.s 			page 13


 430:.\Generated_Source\PSoC5/DMASDSPI_1_SPIMaster.c **** * Side Effects:
 431:.\Generated_Source\PSoC5/DMASDSPI_1_SPIMaster.c **** *  Clear Rx status register of the component.
 432:.\Generated_Source\PSoC5/DMASDSPI_1_SPIMaster.c **** *
 433:.\Generated_Source\PSoC5/DMASDSPI_1_SPIMaster.c **** * Reentrant:
 434:.\Generated_Source\PSoC5/DMASDSPI_1_SPIMaster.c **** *  No.
 435:.\Generated_Source\PSoC5/DMASDSPI_1_SPIMaster.c **** *
 436:.\Generated_Source\PSoC5/DMASDSPI_1_SPIMaster.c **** *******************************************************************************/
 437:.\Generated_Source\PSoC5/DMASDSPI_1_SPIMaster.c **** uint8 DMASDSPI_1_SPIMaster_ReadRxStatus(void) 
 438:.\Generated_Source\PSoC5/DMASDSPI_1_SPIMaster.c **** {
 256              		.loc 1 438 0
 257              		.cfi_startproc
 258              		@ args = 0, pretend = 0, frame = 0
 259              		@ frame_needed = 0, uses_anonymous_args = 0
 260              		@ link register save eliminated.
 439:.\Generated_Source\PSoC5/DMASDSPI_1_SPIMaster.c ****     uint8 tmpStatus;
 440:.\Generated_Source\PSoC5/DMASDSPI_1_SPIMaster.c **** 
 441:.\Generated_Source\PSoC5/DMASDSPI_1_SPIMaster.c ****     #if(DMASDSPI_1_SPIMaster_RX_SOFTWARE_BUF_ENABLED)
 442:.\Generated_Source\PSoC5/DMASDSPI_1_SPIMaster.c ****         /* Disable RX interrupt to protect global veriables */
 443:.\Generated_Source\PSoC5/DMASDSPI_1_SPIMaster.c ****         DMASDSPI_1_SPIMaster_DisableRxInt();
 444:.\Generated_Source\PSoC5/DMASDSPI_1_SPIMaster.c **** 
 445:.\Generated_Source\PSoC5/DMASDSPI_1_SPIMaster.c ****         tmpStatus = DMASDSPI_1_SPIMaster_GET_STATUS_RX(DMASDSPI_1_SPIMaster_swStatusRx);
 446:.\Generated_Source\PSoC5/DMASDSPI_1_SPIMaster.c ****         DMASDSPI_1_SPIMaster_swStatusRx = 0u;
 447:.\Generated_Source\PSoC5/DMASDSPI_1_SPIMaster.c **** 
 448:.\Generated_Source\PSoC5/DMASDSPI_1_SPIMaster.c ****         DMASDSPI_1_SPIMaster_EnableRxInt();
 449:.\Generated_Source\PSoC5/DMASDSPI_1_SPIMaster.c **** 
 450:.\Generated_Source\PSoC5/DMASDSPI_1_SPIMaster.c ****     #else
 451:.\Generated_Source\PSoC5/DMASDSPI_1_SPIMaster.c **** 
 452:.\Generated_Source\PSoC5/DMASDSPI_1_SPIMaster.c ****         tmpStatus = DMASDSPI_1_SPIMaster_RX_STATUS_REG;
 261              		.loc 1 452 0
 262 0000 014B     		ldr	r3, .L23
 263 0002 1878     		ldrb	r0, [r3]	@ zero_extendqisi2
 264              	.LVL7:
 453:.\Generated_Source\PSoC5/DMASDSPI_1_SPIMaster.c **** 
 454:.\Generated_Source\PSoC5/DMASDSPI_1_SPIMaster.c ****     #endif /* (DMASDSPI_1_SPIMaster_RX_SOFTWARE_BUF_ENABLED) */
 455:.\Generated_Source\PSoC5/DMASDSPI_1_SPIMaster.c **** 
 456:.\Generated_Source\PSoC5/DMASDSPI_1_SPIMaster.c ****     return(tmpStatus);
 457:.\Generated_Source\PSoC5/DMASDSPI_1_SPIMaster.c **** }
 265              		.loc 1 457 0
 266 0004 7047     		bx	lr
 267              	.L24:
 268 0006 00BF     		.align	2
 269              	.L23:
 270 0008 62640040 		.word	1073767522
 271              		.cfi_endproc
 272              	.LFE11:
 273              		.size	DMASDSPI_1_SPIMaster_ReadRxStatus, .-DMASDSPI_1_SPIMaster_ReadRxStatus
 274              		.section	.text.DMASDSPI_1_SPIMaster_WriteTxData,"ax",%progbits
 275              		.align	2
 276              		.global	DMASDSPI_1_SPIMaster_WriteTxData
 277              		.thumb
 278              		.thumb_func
 279              		.type	DMASDSPI_1_SPIMaster_WriteTxData, %function
 280              	DMASDSPI_1_SPIMaster_WriteTxData:
 281              	.LFB12:
 458:.\Generated_Source\PSoC5/DMASDSPI_1_SPIMaster.c **** 
 459:.\Generated_Source\PSoC5/DMASDSPI_1_SPIMaster.c **** 
 460:.\Generated_Source\PSoC5/DMASDSPI_1_SPIMaster.c **** /*******************************************************************************
ARM GAS  C:\Users\honet\AppData\Local\Temp\ccb11yRS.s 			page 14


 461:.\Generated_Source\PSoC5/DMASDSPI_1_SPIMaster.c **** * Function Name: DMASDSPI_1_SPIMaster_WriteTxData
 462:.\Generated_Source\PSoC5/DMASDSPI_1_SPIMaster.c **** ********************************************************************************
 463:.\Generated_Source\PSoC5/DMASDSPI_1_SPIMaster.c **** *
 464:.\Generated_Source\PSoC5/DMASDSPI_1_SPIMaster.c **** * Summary:
 465:.\Generated_Source\PSoC5/DMASDSPI_1_SPIMaster.c **** *  Write a byte of data to be sent across the SPI.
 466:.\Generated_Source\PSoC5/DMASDSPI_1_SPIMaster.c **** *
 467:.\Generated_Source\PSoC5/DMASDSPI_1_SPIMaster.c **** * Parameters:
 468:.\Generated_Source\PSoC5/DMASDSPI_1_SPIMaster.c **** *  txDataByte: The data value to send across the SPI.
 469:.\Generated_Source\PSoC5/DMASDSPI_1_SPIMaster.c **** *
 470:.\Generated_Source\PSoC5/DMASDSPI_1_SPIMaster.c **** * Return:
 471:.\Generated_Source\PSoC5/DMASDSPI_1_SPIMaster.c **** *  None.
 472:.\Generated_Source\PSoC5/DMASDSPI_1_SPIMaster.c **** *
 473:.\Generated_Source\PSoC5/DMASDSPI_1_SPIMaster.c **** * Global variables:
 474:.\Generated_Source\PSoC5/DMASDSPI_1_SPIMaster.c **** *  DMASDSPI_1_SPIMaster_txBufferWrite - used for the account of the bytes which
 475:.\Generated_Source\PSoC5/DMASDSPI_1_SPIMaster.c **** *  have been written down in the TX software buffer, modified every function
 476:.\Generated_Source\PSoC5/DMASDSPI_1_SPIMaster.c **** *  call if TX Software Buffer is used.
 477:.\Generated_Source\PSoC5/DMASDSPI_1_SPIMaster.c **** *  DMASDSPI_1_SPIMaster_txBufferRead - used for the account of the bytes which
 478:.\Generated_Source\PSoC5/DMASDSPI_1_SPIMaster.c **** *  have been read from the TX software buffer.
 479:.\Generated_Source\PSoC5/DMASDSPI_1_SPIMaster.c **** *  DMASDSPI_1_SPIMaster_txBuffer[DMASDSPI_1_SPIMaster_TX_BUFFER_SIZE] - used to store
 480:.\Generated_Source\PSoC5/DMASDSPI_1_SPIMaster.c **** *  data to sending, modified every function call if TX Software Buffer is used.
 481:.\Generated_Source\PSoC5/DMASDSPI_1_SPIMaster.c **** *
 482:.\Generated_Source\PSoC5/DMASDSPI_1_SPIMaster.c **** * Theory:
 483:.\Generated_Source\PSoC5/DMASDSPI_1_SPIMaster.c **** *  Allows the user to transmit any byte of data in a single transfer.
 484:.\Generated_Source\PSoC5/DMASDSPI_1_SPIMaster.c **** *
 485:.\Generated_Source\PSoC5/DMASDSPI_1_SPIMaster.c **** * Side Effects:
 486:.\Generated_Source\PSoC5/DMASDSPI_1_SPIMaster.c **** *  If this function is called again before the previous byte is finished then
 487:.\Generated_Source\PSoC5/DMASDSPI_1_SPIMaster.c **** *  the next byte will be appended to the transfer with no time between
 488:.\Generated_Source\PSoC5/DMASDSPI_1_SPIMaster.c **** *  the byte transfers. Clear Tx status register of the component.
 489:.\Generated_Source\PSoC5/DMASDSPI_1_SPIMaster.c **** *
 490:.\Generated_Source\PSoC5/DMASDSPI_1_SPIMaster.c **** * Reentrant:
 491:.\Generated_Source\PSoC5/DMASDSPI_1_SPIMaster.c **** *  No.
 492:.\Generated_Source\PSoC5/DMASDSPI_1_SPIMaster.c **** *
 493:.\Generated_Source\PSoC5/DMASDSPI_1_SPIMaster.c **** *******************************************************************************/
 494:.\Generated_Source\PSoC5/DMASDSPI_1_SPIMaster.c **** void DMASDSPI_1_SPIMaster_WriteTxData(uint8 txData) 
 495:.\Generated_Source\PSoC5/DMASDSPI_1_SPIMaster.c **** {
 282              		.loc 1 495 0
 283              		.cfi_startproc
 284              		@ args = 0, pretend = 0, frame = 0
 285              		@ frame_needed = 0, uses_anonymous_args = 0
 286              		@ link register save eliminated.
 287              	.LVL8:
 288              	.L26:
 496:.\Generated_Source\PSoC5/DMASDSPI_1_SPIMaster.c ****     #if(DMASDSPI_1_SPIMaster_TX_SOFTWARE_BUF_ENABLED)
 497:.\Generated_Source\PSoC5/DMASDSPI_1_SPIMaster.c **** 
 498:.\Generated_Source\PSoC5/DMASDSPI_1_SPIMaster.c ****         uint8 tempStatus;
 499:.\Generated_Source\PSoC5/DMASDSPI_1_SPIMaster.c ****         uint8 tmpTxBufferRead;
 500:.\Generated_Source\PSoC5/DMASDSPI_1_SPIMaster.c **** 
 501:.\Generated_Source\PSoC5/DMASDSPI_1_SPIMaster.c ****         /* Block if TX buffer is FULL: don't overwrite */
 502:.\Generated_Source\PSoC5/DMASDSPI_1_SPIMaster.c ****         do
 503:.\Generated_Source\PSoC5/DMASDSPI_1_SPIMaster.c ****         {
 504:.\Generated_Source\PSoC5/DMASDSPI_1_SPIMaster.c ****             tmpTxBufferRead = DMASDSPI_1_SPIMaster_txBufferRead;
 505:.\Generated_Source\PSoC5/DMASDSPI_1_SPIMaster.c ****             if(0u == tmpTxBufferRead)
 506:.\Generated_Source\PSoC5/DMASDSPI_1_SPIMaster.c ****             {
 507:.\Generated_Source\PSoC5/DMASDSPI_1_SPIMaster.c ****                 tmpTxBufferRead = (DMASDSPI_1_SPIMaster_TX_BUFFER_SIZE - 1u);
 508:.\Generated_Source\PSoC5/DMASDSPI_1_SPIMaster.c ****             }
 509:.\Generated_Source\PSoC5/DMASDSPI_1_SPIMaster.c ****             else
 510:.\Generated_Source\PSoC5/DMASDSPI_1_SPIMaster.c ****             {
ARM GAS  C:\Users\honet\AppData\Local\Temp\ccb11yRS.s 			page 15


 511:.\Generated_Source\PSoC5/DMASDSPI_1_SPIMaster.c ****                 tmpTxBufferRead--;
 512:.\Generated_Source\PSoC5/DMASDSPI_1_SPIMaster.c ****             }
 513:.\Generated_Source\PSoC5/DMASDSPI_1_SPIMaster.c **** 
 514:.\Generated_Source\PSoC5/DMASDSPI_1_SPIMaster.c ****         }while(tmpTxBufferRead == DMASDSPI_1_SPIMaster_txBufferWrite);
 515:.\Generated_Source\PSoC5/DMASDSPI_1_SPIMaster.c **** 
 516:.\Generated_Source\PSoC5/DMASDSPI_1_SPIMaster.c ****         /* Disable TX interrupt to protect global veriables */
 517:.\Generated_Source\PSoC5/DMASDSPI_1_SPIMaster.c ****         DMASDSPI_1_SPIMaster_DisableTxInt();
 518:.\Generated_Source\PSoC5/DMASDSPI_1_SPIMaster.c **** 
 519:.\Generated_Source\PSoC5/DMASDSPI_1_SPIMaster.c ****         tempStatus = DMASDSPI_1_SPIMaster_GET_STATUS_TX(DMASDSPI_1_SPIMaster_swStatusTx);
 520:.\Generated_Source\PSoC5/DMASDSPI_1_SPIMaster.c ****         DMASDSPI_1_SPIMaster_swStatusTx = tempStatus;
 521:.\Generated_Source\PSoC5/DMASDSPI_1_SPIMaster.c **** 
 522:.\Generated_Source\PSoC5/DMASDSPI_1_SPIMaster.c **** 
 523:.\Generated_Source\PSoC5/DMASDSPI_1_SPIMaster.c ****         if((DMASDSPI_1_SPIMaster_txBufferRead == DMASDSPI_1_SPIMaster_txBufferWrite) &&
 524:.\Generated_Source\PSoC5/DMASDSPI_1_SPIMaster.c ****            (0u != (DMASDSPI_1_SPIMaster_swStatusTx & DMASDSPI_1_SPIMaster_STS_TX_FIFO_NOT_FULL)))
 525:.\Generated_Source\PSoC5/DMASDSPI_1_SPIMaster.c ****         {
 526:.\Generated_Source\PSoC5/DMASDSPI_1_SPIMaster.c ****             /* Put data element into the TX FIFO */
 527:.\Generated_Source\PSoC5/DMASDSPI_1_SPIMaster.c ****             CY_SET_REG8(DMASDSPI_1_SPIMaster_TXDATA_PTR, txData);
 528:.\Generated_Source\PSoC5/DMASDSPI_1_SPIMaster.c ****         }
 529:.\Generated_Source\PSoC5/DMASDSPI_1_SPIMaster.c ****         else
 530:.\Generated_Source\PSoC5/DMASDSPI_1_SPIMaster.c ****         {
 531:.\Generated_Source\PSoC5/DMASDSPI_1_SPIMaster.c ****             /* Add to the TX software buffer */
 532:.\Generated_Source\PSoC5/DMASDSPI_1_SPIMaster.c ****             DMASDSPI_1_SPIMaster_txBufferWrite++;
 533:.\Generated_Source\PSoC5/DMASDSPI_1_SPIMaster.c ****             if(DMASDSPI_1_SPIMaster_txBufferWrite >= DMASDSPI_1_SPIMaster_TX_BUFFER_SIZE)
 534:.\Generated_Source\PSoC5/DMASDSPI_1_SPIMaster.c ****             {
 535:.\Generated_Source\PSoC5/DMASDSPI_1_SPIMaster.c ****                 DMASDSPI_1_SPIMaster_txBufferWrite = 0u;
 536:.\Generated_Source\PSoC5/DMASDSPI_1_SPIMaster.c ****             }
 537:.\Generated_Source\PSoC5/DMASDSPI_1_SPIMaster.c **** 
 538:.\Generated_Source\PSoC5/DMASDSPI_1_SPIMaster.c ****             if(DMASDSPI_1_SPIMaster_txBufferWrite == DMASDSPI_1_SPIMaster_txBufferRead)
 539:.\Generated_Source\PSoC5/DMASDSPI_1_SPIMaster.c ****             {
 540:.\Generated_Source\PSoC5/DMASDSPI_1_SPIMaster.c ****                 DMASDSPI_1_SPIMaster_txBufferRead++;
 541:.\Generated_Source\PSoC5/DMASDSPI_1_SPIMaster.c ****                 if(DMASDSPI_1_SPIMaster_txBufferRead >= DMASDSPI_1_SPIMaster_TX_BUFFER_SIZE)
 542:.\Generated_Source\PSoC5/DMASDSPI_1_SPIMaster.c ****                 {
 543:.\Generated_Source\PSoC5/DMASDSPI_1_SPIMaster.c ****                     DMASDSPI_1_SPIMaster_txBufferRead = 0u;
 544:.\Generated_Source\PSoC5/DMASDSPI_1_SPIMaster.c ****                 }
 545:.\Generated_Source\PSoC5/DMASDSPI_1_SPIMaster.c ****                 DMASDSPI_1_SPIMaster_txBufferFull = 1u;
 546:.\Generated_Source\PSoC5/DMASDSPI_1_SPIMaster.c ****             }
 547:.\Generated_Source\PSoC5/DMASDSPI_1_SPIMaster.c **** 
 548:.\Generated_Source\PSoC5/DMASDSPI_1_SPIMaster.c ****             DMASDSPI_1_SPIMaster_txBuffer[DMASDSPI_1_SPIMaster_txBufferWrite] = txData;
 549:.\Generated_Source\PSoC5/DMASDSPI_1_SPIMaster.c **** 
 550:.\Generated_Source\PSoC5/DMASDSPI_1_SPIMaster.c ****             DMASDSPI_1_SPIMaster_TX_STATUS_MASK_REG |= DMASDSPI_1_SPIMaster_STS_TX_FIFO_NOT_FULL;
 551:.\Generated_Source\PSoC5/DMASDSPI_1_SPIMaster.c ****         }
 552:.\Generated_Source\PSoC5/DMASDSPI_1_SPIMaster.c **** 
 553:.\Generated_Source\PSoC5/DMASDSPI_1_SPIMaster.c ****         DMASDSPI_1_SPIMaster_EnableTxInt();
 554:.\Generated_Source\PSoC5/DMASDSPI_1_SPIMaster.c **** 
 555:.\Generated_Source\PSoC5/DMASDSPI_1_SPIMaster.c ****     #else
 556:.\Generated_Source\PSoC5/DMASDSPI_1_SPIMaster.c ****         /* Wait until TX FIFO has a place */
 557:.\Generated_Source\PSoC5/DMASDSPI_1_SPIMaster.c ****         while(0u == (DMASDSPI_1_SPIMaster_TX_STATUS_REG & DMASDSPI_1_SPIMaster_STS_TX_FIFO_NOT_FULL
 289              		.loc 1 557 0 discriminator 1
 290 0000 034B     		ldr	r3, .L27
 291 0002 1B78     		ldrb	r3, [r3]	@ zero_extendqisi2
 292 0004 13F0040F 		tst	r3, #4
 293 0008 FAD0     		beq	.L26
 558:.\Generated_Source\PSoC5/DMASDSPI_1_SPIMaster.c ****         {
 559:.\Generated_Source\PSoC5/DMASDSPI_1_SPIMaster.c ****         }
 560:.\Generated_Source\PSoC5/DMASDSPI_1_SPIMaster.c **** 
 561:.\Generated_Source\PSoC5/DMASDSPI_1_SPIMaster.c ****         /* Put data element into the TX FIFO */
 562:.\Generated_Source\PSoC5/DMASDSPI_1_SPIMaster.c ****         CY_SET_REG8(DMASDSPI_1_SPIMaster_TXDATA_PTR, txData);
ARM GAS  C:\Users\honet\AppData\Local\Temp\ccb11yRS.s 			page 16


 294              		.loc 1 562 0
 295 000a 024B     		ldr	r3, .L27+4
 296 000c 1870     		strb	r0, [r3]
 297 000e 7047     		bx	lr
 298              	.L28:
 299              		.align	2
 300              	.L27:
 301 0010 63640040 		.word	1073767523
 302 0014 41640040 		.word	1073767489
 303              		.cfi_endproc
 304              	.LFE12:
 305              		.size	DMASDSPI_1_SPIMaster_WriteTxData, .-DMASDSPI_1_SPIMaster_WriteTxData
 306              		.section	.text.DMASDSPI_1_SPIMaster_ReadRxData,"ax",%progbits
 307              		.align	2
 308              		.global	DMASDSPI_1_SPIMaster_ReadRxData
 309              		.thumb
 310              		.thumb_func
 311              		.type	DMASDSPI_1_SPIMaster_ReadRxData, %function
 312              	DMASDSPI_1_SPIMaster_ReadRxData:
 313              	.LFB13:
 563:.\Generated_Source\PSoC5/DMASDSPI_1_SPIMaster.c **** 
 564:.\Generated_Source\PSoC5/DMASDSPI_1_SPIMaster.c ****     #endif /* (DMASDSPI_1_SPIMaster_TX_SOFTWARE_BUF_ENABLED) */
 565:.\Generated_Source\PSoC5/DMASDSPI_1_SPIMaster.c **** }
 566:.\Generated_Source\PSoC5/DMASDSPI_1_SPIMaster.c **** 
 567:.\Generated_Source\PSoC5/DMASDSPI_1_SPIMaster.c **** 
 568:.\Generated_Source\PSoC5/DMASDSPI_1_SPIMaster.c **** /*******************************************************************************
 569:.\Generated_Source\PSoC5/DMASDSPI_1_SPIMaster.c **** * Function Name: DMASDSPI_1_SPIMaster_ReadRxData
 570:.\Generated_Source\PSoC5/DMASDSPI_1_SPIMaster.c **** ********************************************************************************
 571:.\Generated_Source\PSoC5/DMASDSPI_1_SPIMaster.c **** *
 572:.\Generated_Source\PSoC5/DMASDSPI_1_SPIMaster.c **** * Summary:
 573:.\Generated_Source\PSoC5/DMASDSPI_1_SPIMaster.c **** *  Read the next byte of data received across the SPI.
 574:.\Generated_Source\PSoC5/DMASDSPI_1_SPIMaster.c **** *
 575:.\Generated_Source\PSoC5/DMASDSPI_1_SPIMaster.c **** * Parameters:
 576:.\Generated_Source\PSoC5/DMASDSPI_1_SPIMaster.c **** *  None.
 577:.\Generated_Source\PSoC5/DMASDSPI_1_SPIMaster.c **** *
 578:.\Generated_Source\PSoC5/DMASDSPI_1_SPIMaster.c **** * Return:
 579:.\Generated_Source\PSoC5/DMASDSPI_1_SPIMaster.c **** *  The next byte of data read from the FIFO.
 580:.\Generated_Source\PSoC5/DMASDSPI_1_SPIMaster.c **** *
 581:.\Generated_Source\PSoC5/DMASDSPI_1_SPIMaster.c **** * Global variables:
 582:.\Generated_Source\PSoC5/DMASDSPI_1_SPIMaster.c **** *  DMASDSPI_1_SPIMaster_rxBufferWrite - used for the account of the bytes which
 583:.\Generated_Source\PSoC5/DMASDSPI_1_SPIMaster.c **** *  have been written down in the RX software buffer.
 584:.\Generated_Source\PSoC5/DMASDSPI_1_SPIMaster.c **** *  DMASDSPI_1_SPIMaster_rxBufferRead - used for the account of the bytes which
 585:.\Generated_Source\PSoC5/DMASDSPI_1_SPIMaster.c **** *  have been read from the RX software buffer, modified every function
 586:.\Generated_Source\PSoC5/DMASDSPI_1_SPIMaster.c **** *  call if RX Software Buffer is used.
 587:.\Generated_Source\PSoC5/DMASDSPI_1_SPIMaster.c **** *  DMASDSPI_1_SPIMaster_rxBuffer[DMASDSPI_1_SPIMaster_RX_BUFFER_SIZE] - used to store
 588:.\Generated_Source\PSoC5/DMASDSPI_1_SPIMaster.c **** *  received data.
 589:.\Generated_Source\PSoC5/DMASDSPI_1_SPIMaster.c **** *
 590:.\Generated_Source\PSoC5/DMASDSPI_1_SPIMaster.c **** * Theory:
 591:.\Generated_Source\PSoC5/DMASDSPI_1_SPIMaster.c **** *  Allows the user to read a byte of data received.
 592:.\Generated_Source\PSoC5/DMASDSPI_1_SPIMaster.c **** *
 593:.\Generated_Source\PSoC5/DMASDSPI_1_SPIMaster.c **** * Side Effects:
 594:.\Generated_Source\PSoC5/DMASDSPI_1_SPIMaster.c **** *  Will return invalid data if the FIFO is empty. The user should Call
 595:.\Generated_Source\PSoC5/DMASDSPI_1_SPIMaster.c **** *  GetRxBufferSize() and if it returns a non-zero value then it is safe to call
 596:.\Generated_Source\PSoC5/DMASDSPI_1_SPIMaster.c **** *  ReadByte() function.
 597:.\Generated_Source\PSoC5/DMASDSPI_1_SPIMaster.c **** *
 598:.\Generated_Source\PSoC5/DMASDSPI_1_SPIMaster.c **** * Reentrant:
 599:.\Generated_Source\PSoC5/DMASDSPI_1_SPIMaster.c **** *  No.
ARM GAS  C:\Users\honet\AppData\Local\Temp\ccb11yRS.s 			page 17


 600:.\Generated_Source\PSoC5/DMASDSPI_1_SPIMaster.c **** *
 601:.\Generated_Source\PSoC5/DMASDSPI_1_SPIMaster.c **** *******************************************************************************/
 602:.\Generated_Source\PSoC5/DMASDSPI_1_SPIMaster.c **** uint8 DMASDSPI_1_SPIMaster_ReadRxData(void) 
 603:.\Generated_Source\PSoC5/DMASDSPI_1_SPIMaster.c **** {
 314              		.loc 1 603 0
 315              		.cfi_startproc
 316              		@ args = 0, pretend = 0, frame = 0
 317              		@ frame_needed = 0, uses_anonymous_args = 0
 318              		@ link register save eliminated.
 604:.\Generated_Source\PSoC5/DMASDSPI_1_SPIMaster.c ****     uint8 rxData;
 605:.\Generated_Source\PSoC5/DMASDSPI_1_SPIMaster.c **** 
 606:.\Generated_Source\PSoC5/DMASDSPI_1_SPIMaster.c ****     #if(DMASDSPI_1_SPIMaster_RX_SOFTWARE_BUF_ENABLED)
 607:.\Generated_Source\PSoC5/DMASDSPI_1_SPIMaster.c **** 
 608:.\Generated_Source\PSoC5/DMASDSPI_1_SPIMaster.c ****         /* Disable RX interrupt to protect global veriables */
 609:.\Generated_Source\PSoC5/DMASDSPI_1_SPIMaster.c ****         DMASDSPI_1_SPIMaster_DisableRxInt();
 610:.\Generated_Source\PSoC5/DMASDSPI_1_SPIMaster.c **** 
 611:.\Generated_Source\PSoC5/DMASDSPI_1_SPIMaster.c ****         if(DMASDSPI_1_SPIMaster_rxBufferRead != DMASDSPI_1_SPIMaster_rxBufferWrite)
 612:.\Generated_Source\PSoC5/DMASDSPI_1_SPIMaster.c ****         {
 613:.\Generated_Source\PSoC5/DMASDSPI_1_SPIMaster.c ****             if(0u == DMASDSPI_1_SPIMaster_rxBufferFull)
 614:.\Generated_Source\PSoC5/DMASDSPI_1_SPIMaster.c ****             {
 615:.\Generated_Source\PSoC5/DMASDSPI_1_SPIMaster.c ****                 DMASDSPI_1_SPIMaster_rxBufferRead++;
 616:.\Generated_Source\PSoC5/DMASDSPI_1_SPIMaster.c ****                 if(DMASDSPI_1_SPIMaster_rxBufferRead >= DMASDSPI_1_SPIMaster_RX_BUFFER_SIZE)
 617:.\Generated_Source\PSoC5/DMASDSPI_1_SPIMaster.c ****                 {
 618:.\Generated_Source\PSoC5/DMASDSPI_1_SPIMaster.c ****                     DMASDSPI_1_SPIMaster_rxBufferRead = 0u;
 619:.\Generated_Source\PSoC5/DMASDSPI_1_SPIMaster.c ****                 }
 620:.\Generated_Source\PSoC5/DMASDSPI_1_SPIMaster.c ****             }
 621:.\Generated_Source\PSoC5/DMASDSPI_1_SPIMaster.c ****             else
 622:.\Generated_Source\PSoC5/DMASDSPI_1_SPIMaster.c ****             {
 623:.\Generated_Source\PSoC5/DMASDSPI_1_SPIMaster.c ****                 DMASDSPI_1_SPIMaster_rxBufferFull = 0u;
 624:.\Generated_Source\PSoC5/DMASDSPI_1_SPIMaster.c ****             }
 625:.\Generated_Source\PSoC5/DMASDSPI_1_SPIMaster.c ****         }
 626:.\Generated_Source\PSoC5/DMASDSPI_1_SPIMaster.c **** 
 627:.\Generated_Source\PSoC5/DMASDSPI_1_SPIMaster.c ****         rxData = DMASDSPI_1_SPIMaster_rxBuffer[DMASDSPI_1_SPIMaster_rxBufferRead];
 628:.\Generated_Source\PSoC5/DMASDSPI_1_SPIMaster.c **** 
 629:.\Generated_Source\PSoC5/DMASDSPI_1_SPIMaster.c ****         DMASDSPI_1_SPIMaster_EnableRxInt();
 630:.\Generated_Source\PSoC5/DMASDSPI_1_SPIMaster.c **** 
 631:.\Generated_Source\PSoC5/DMASDSPI_1_SPIMaster.c ****     #else
 632:.\Generated_Source\PSoC5/DMASDSPI_1_SPIMaster.c **** 
 633:.\Generated_Source\PSoC5/DMASDSPI_1_SPIMaster.c ****         rxData = CY_GET_REG8(DMASDSPI_1_SPIMaster_RXDATA_PTR);
 319              		.loc 1 633 0
 320 0000 014B     		ldr	r3, .L30
 321 0002 1878     		ldrb	r0, [r3]	@ zero_extendqisi2
 322              	.LVL9:
 634:.\Generated_Source\PSoC5/DMASDSPI_1_SPIMaster.c **** 
 635:.\Generated_Source\PSoC5/DMASDSPI_1_SPIMaster.c ****     #endif /* (DMASDSPI_1_SPIMaster_RX_SOFTWARE_BUF_ENABLED) */
 636:.\Generated_Source\PSoC5/DMASDSPI_1_SPIMaster.c **** 
 637:.\Generated_Source\PSoC5/DMASDSPI_1_SPIMaster.c ****     return(rxData);
 638:.\Generated_Source\PSoC5/DMASDSPI_1_SPIMaster.c **** }
 323              		.loc 1 638 0
 324 0004 7047     		bx	lr
 325              	.L31:
 326 0006 00BF     		.align	2
 327              	.L30:
 328 0008 51640040 		.word	1073767505
 329              		.cfi_endproc
 330              	.LFE13:
 331              		.size	DMASDSPI_1_SPIMaster_ReadRxData, .-DMASDSPI_1_SPIMaster_ReadRxData
ARM GAS  C:\Users\honet\AppData\Local\Temp\ccb11yRS.s 			page 18


 332              		.section	.text.DMASDSPI_1_SPIMaster_GetRxBufferSize,"ax",%progbits
 333              		.align	2
 334              		.global	DMASDSPI_1_SPIMaster_GetRxBufferSize
 335              		.thumb
 336              		.thumb_func
 337              		.type	DMASDSPI_1_SPIMaster_GetRxBufferSize, %function
 338              	DMASDSPI_1_SPIMaster_GetRxBufferSize:
 339              	.LFB14:
 639:.\Generated_Source\PSoC5/DMASDSPI_1_SPIMaster.c **** 
 640:.\Generated_Source\PSoC5/DMASDSPI_1_SPIMaster.c **** 
 641:.\Generated_Source\PSoC5/DMASDSPI_1_SPIMaster.c **** /*******************************************************************************
 642:.\Generated_Source\PSoC5/DMASDSPI_1_SPIMaster.c **** * Function Name: DMASDSPI_1_SPIMaster_GetRxBufferSize
 643:.\Generated_Source\PSoC5/DMASDSPI_1_SPIMaster.c **** ********************************************************************************
 644:.\Generated_Source\PSoC5/DMASDSPI_1_SPIMaster.c **** *
 645:.\Generated_Source\PSoC5/DMASDSPI_1_SPIMaster.c **** * Summary:
 646:.\Generated_Source\PSoC5/DMASDSPI_1_SPIMaster.c **** *  Returns the number of bytes/words of data currently held in the RX buffer.
 647:.\Generated_Source\PSoC5/DMASDSPI_1_SPIMaster.c **** *  If RX Software Buffer not used then function return 0 if FIFO empty or 1 if
 648:.\Generated_Source\PSoC5/DMASDSPI_1_SPIMaster.c **** *  FIFO not empty. In another case function return size of RX Software Buffer.
 649:.\Generated_Source\PSoC5/DMASDSPI_1_SPIMaster.c **** *
 650:.\Generated_Source\PSoC5/DMASDSPI_1_SPIMaster.c **** * Parameters:
 651:.\Generated_Source\PSoC5/DMASDSPI_1_SPIMaster.c **** *  None.
 652:.\Generated_Source\PSoC5/DMASDSPI_1_SPIMaster.c **** *
 653:.\Generated_Source\PSoC5/DMASDSPI_1_SPIMaster.c **** * Return:
 654:.\Generated_Source\PSoC5/DMASDSPI_1_SPIMaster.c **** *  Integer count of the number of bytes/words in the RX buffer.
 655:.\Generated_Source\PSoC5/DMASDSPI_1_SPIMaster.c **** *
 656:.\Generated_Source\PSoC5/DMASDSPI_1_SPIMaster.c **** * Global variables:
 657:.\Generated_Source\PSoC5/DMASDSPI_1_SPIMaster.c **** *  DMASDSPI_1_SPIMaster_rxBufferWrite - used for the account of the bytes which
 658:.\Generated_Source\PSoC5/DMASDSPI_1_SPIMaster.c **** *  have been written down in the RX software buffer.
 659:.\Generated_Source\PSoC5/DMASDSPI_1_SPIMaster.c **** *  DMASDSPI_1_SPIMaster_rxBufferRead - used for the account of the bytes which
 660:.\Generated_Source\PSoC5/DMASDSPI_1_SPIMaster.c **** *  have been read from the RX software buffer.
 661:.\Generated_Source\PSoC5/DMASDSPI_1_SPIMaster.c **** *
 662:.\Generated_Source\PSoC5/DMASDSPI_1_SPIMaster.c **** * Side Effects:
 663:.\Generated_Source\PSoC5/DMASDSPI_1_SPIMaster.c **** *  Clear status register of the component.
 664:.\Generated_Source\PSoC5/DMASDSPI_1_SPIMaster.c **** *
 665:.\Generated_Source\PSoC5/DMASDSPI_1_SPIMaster.c **** *******************************************************************************/
 666:.\Generated_Source\PSoC5/DMASDSPI_1_SPIMaster.c **** uint8 DMASDSPI_1_SPIMaster_GetRxBufferSize(void) 
 667:.\Generated_Source\PSoC5/DMASDSPI_1_SPIMaster.c **** {
 340              		.loc 1 667 0
 341              		.cfi_startproc
 342              		@ args = 0, pretend = 0, frame = 0
 343              		@ frame_needed = 0, uses_anonymous_args = 0
 344              		@ link register save eliminated.
 668:.\Generated_Source\PSoC5/DMASDSPI_1_SPIMaster.c ****     uint8 size;
 669:.\Generated_Source\PSoC5/DMASDSPI_1_SPIMaster.c **** 
 670:.\Generated_Source\PSoC5/DMASDSPI_1_SPIMaster.c ****     #if(DMASDSPI_1_SPIMaster_RX_SOFTWARE_BUF_ENABLED)
 671:.\Generated_Source\PSoC5/DMASDSPI_1_SPIMaster.c **** 
 672:.\Generated_Source\PSoC5/DMASDSPI_1_SPIMaster.c ****         /* Disable RX interrupt to protect global veriables */
 673:.\Generated_Source\PSoC5/DMASDSPI_1_SPIMaster.c ****         DMASDSPI_1_SPIMaster_DisableRxInt();
 674:.\Generated_Source\PSoC5/DMASDSPI_1_SPIMaster.c **** 
 675:.\Generated_Source\PSoC5/DMASDSPI_1_SPIMaster.c ****         if(DMASDSPI_1_SPIMaster_rxBufferRead == DMASDSPI_1_SPIMaster_rxBufferWrite)
 676:.\Generated_Source\PSoC5/DMASDSPI_1_SPIMaster.c ****         {
 677:.\Generated_Source\PSoC5/DMASDSPI_1_SPIMaster.c ****             size = 0u;
 678:.\Generated_Source\PSoC5/DMASDSPI_1_SPIMaster.c ****         }
 679:.\Generated_Source\PSoC5/DMASDSPI_1_SPIMaster.c ****         else if(DMASDSPI_1_SPIMaster_rxBufferRead < DMASDSPI_1_SPIMaster_rxBufferWrite)
 680:.\Generated_Source\PSoC5/DMASDSPI_1_SPIMaster.c ****         {
 681:.\Generated_Source\PSoC5/DMASDSPI_1_SPIMaster.c ****             size = (DMASDSPI_1_SPIMaster_rxBufferWrite - DMASDSPI_1_SPIMaster_rxBufferRead);
 682:.\Generated_Source\PSoC5/DMASDSPI_1_SPIMaster.c ****         }
ARM GAS  C:\Users\honet\AppData\Local\Temp\ccb11yRS.s 			page 19


 683:.\Generated_Source\PSoC5/DMASDSPI_1_SPIMaster.c ****         else
 684:.\Generated_Source\PSoC5/DMASDSPI_1_SPIMaster.c ****         {
 685:.\Generated_Source\PSoC5/DMASDSPI_1_SPIMaster.c ****             size = (DMASDSPI_1_SPIMaster_RX_BUFFER_SIZE - DMASDSPI_1_SPIMaster_rxBufferRead) + DMAS
 686:.\Generated_Source\PSoC5/DMASDSPI_1_SPIMaster.c ****         }
 687:.\Generated_Source\PSoC5/DMASDSPI_1_SPIMaster.c **** 
 688:.\Generated_Source\PSoC5/DMASDSPI_1_SPIMaster.c ****         DMASDSPI_1_SPIMaster_EnableRxInt();
 689:.\Generated_Source\PSoC5/DMASDSPI_1_SPIMaster.c **** 
 690:.\Generated_Source\PSoC5/DMASDSPI_1_SPIMaster.c ****     #else
 691:.\Generated_Source\PSoC5/DMASDSPI_1_SPIMaster.c **** 
 692:.\Generated_Source\PSoC5/DMASDSPI_1_SPIMaster.c ****         /* We can only know if there is data in the RX FIFO */
 693:.\Generated_Source\PSoC5/DMASDSPI_1_SPIMaster.c ****         size = (0u != (DMASDSPI_1_SPIMaster_RX_STATUS_REG & DMASDSPI_1_SPIMaster_STS_RX_FIFO_NOT_EM
 345              		.loc 1 693 0
 346 0000 044B     		ldr	r3, .L35
 347 0002 1B78     		ldrb	r3, [r3]	@ zero_extendqisi2
 348 0004 13F0200F 		tst	r3, #32
 349 0008 01D0     		beq	.L34
 350 000a 0120     		movs	r0, #1
 351 000c 7047     		bx	lr
 352              	.L34:
 353 000e 0020     		movs	r0, #0
 354              	.LVL10:
 694:.\Generated_Source\PSoC5/DMASDSPI_1_SPIMaster.c **** 
 695:.\Generated_Source\PSoC5/DMASDSPI_1_SPIMaster.c ****     #endif /* (DMASDSPI_1_SPIMaster_TX_SOFTWARE_BUF_ENABLED) */
 696:.\Generated_Source\PSoC5/DMASDSPI_1_SPIMaster.c **** 
 697:.\Generated_Source\PSoC5/DMASDSPI_1_SPIMaster.c ****     return(size);
 698:.\Generated_Source\PSoC5/DMASDSPI_1_SPIMaster.c **** }
 355              		.loc 1 698 0
 356 0010 7047     		bx	lr
 357              	.L36:
 358 0012 00BF     		.align	2
 359              	.L35:
 360 0014 62640040 		.word	1073767522
 361              		.cfi_endproc
 362              	.LFE14:
 363              		.size	DMASDSPI_1_SPIMaster_GetRxBufferSize, .-DMASDSPI_1_SPIMaster_GetRxBufferSize
 364              		.section	.text.DMASDSPI_1_SPIMaster_GetTxBufferSize,"ax",%progbits
 365              		.align	2
 366              		.global	DMASDSPI_1_SPIMaster_GetTxBufferSize
 367              		.thumb
 368              		.thumb_func
 369              		.type	DMASDSPI_1_SPIMaster_GetTxBufferSize, %function
 370              	DMASDSPI_1_SPIMaster_GetTxBufferSize:
 371              	.LFB15:
 699:.\Generated_Source\PSoC5/DMASDSPI_1_SPIMaster.c **** 
 700:.\Generated_Source\PSoC5/DMASDSPI_1_SPIMaster.c **** 
 701:.\Generated_Source\PSoC5/DMASDSPI_1_SPIMaster.c **** /*******************************************************************************
 702:.\Generated_Source\PSoC5/DMASDSPI_1_SPIMaster.c **** * Function Name: DMASDSPI_1_SPIMaster_GetTxBufferSize
 703:.\Generated_Source\PSoC5/DMASDSPI_1_SPIMaster.c **** ********************************************************************************
 704:.\Generated_Source\PSoC5/DMASDSPI_1_SPIMaster.c **** *
 705:.\Generated_Source\PSoC5/DMASDSPI_1_SPIMaster.c **** * Summary:
 706:.\Generated_Source\PSoC5/DMASDSPI_1_SPIMaster.c **** *  Returns the number of bytes/words of data currently held in the TX buffer.
 707:.\Generated_Source\PSoC5/DMASDSPI_1_SPIMaster.c **** *  If TX Software Buffer not used then function return 0 - if FIFO empty, 1 - if
 708:.\Generated_Source\PSoC5/DMASDSPI_1_SPIMaster.c **** *  FIFO not full, 4 - if FIFO full. In another case function return size of TX
 709:.\Generated_Source\PSoC5/DMASDSPI_1_SPIMaster.c **** *  Software Buffer.
 710:.\Generated_Source\PSoC5/DMASDSPI_1_SPIMaster.c **** *
 711:.\Generated_Source\PSoC5/DMASDSPI_1_SPIMaster.c **** * Parameters:
 712:.\Generated_Source\PSoC5/DMASDSPI_1_SPIMaster.c **** *  None.
ARM GAS  C:\Users\honet\AppData\Local\Temp\ccb11yRS.s 			page 20


 713:.\Generated_Source\PSoC5/DMASDSPI_1_SPIMaster.c **** *
 714:.\Generated_Source\PSoC5/DMASDSPI_1_SPIMaster.c **** * Return:
 715:.\Generated_Source\PSoC5/DMASDSPI_1_SPIMaster.c **** *  Integer count of the number of bytes/words in the TX buffer.
 716:.\Generated_Source\PSoC5/DMASDSPI_1_SPIMaster.c **** *
 717:.\Generated_Source\PSoC5/DMASDSPI_1_SPIMaster.c **** * Global variables:
 718:.\Generated_Source\PSoC5/DMASDSPI_1_SPIMaster.c **** *  DMASDSPI_1_SPIMaster_txBufferWrite - used for the account of the bytes which
 719:.\Generated_Source\PSoC5/DMASDSPI_1_SPIMaster.c **** *  have been written down in the TX software buffer.
 720:.\Generated_Source\PSoC5/DMASDSPI_1_SPIMaster.c **** *  DMASDSPI_1_SPIMaster_txBufferRead - used for the account of the bytes which
 721:.\Generated_Source\PSoC5/DMASDSPI_1_SPIMaster.c **** *  have been read from the TX software buffer.
 722:.\Generated_Source\PSoC5/DMASDSPI_1_SPIMaster.c **** *
 723:.\Generated_Source\PSoC5/DMASDSPI_1_SPIMaster.c **** * Side Effects:
 724:.\Generated_Source\PSoC5/DMASDSPI_1_SPIMaster.c **** *  Clear status register of the component.
 725:.\Generated_Source\PSoC5/DMASDSPI_1_SPIMaster.c **** *
 726:.\Generated_Source\PSoC5/DMASDSPI_1_SPIMaster.c **** *******************************************************************************/
 727:.\Generated_Source\PSoC5/DMASDSPI_1_SPIMaster.c **** uint8  DMASDSPI_1_SPIMaster_GetTxBufferSize(void) 
 728:.\Generated_Source\PSoC5/DMASDSPI_1_SPIMaster.c **** {
 372              		.loc 1 728 0
 373              		.cfi_startproc
 374              		@ args = 0, pretend = 0, frame = 0
 375              		@ frame_needed = 0, uses_anonymous_args = 0
 376              		@ link register save eliminated.
 729:.\Generated_Source\PSoC5/DMASDSPI_1_SPIMaster.c ****     uint8 size;
 730:.\Generated_Source\PSoC5/DMASDSPI_1_SPIMaster.c **** 
 731:.\Generated_Source\PSoC5/DMASDSPI_1_SPIMaster.c ****     #if(DMASDSPI_1_SPIMaster_TX_SOFTWARE_BUF_ENABLED)
 732:.\Generated_Source\PSoC5/DMASDSPI_1_SPIMaster.c ****         /* Disable TX interrupt to protect global veriables */
 733:.\Generated_Source\PSoC5/DMASDSPI_1_SPIMaster.c ****         DMASDSPI_1_SPIMaster_DisableTxInt();
 734:.\Generated_Source\PSoC5/DMASDSPI_1_SPIMaster.c **** 
 735:.\Generated_Source\PSoC5/DMASDSPI_1_SPIMaster.c ****         if(DMASDSPI_1_SPIMaster_txBufferRead == DMASDSPI_1_SPIMaster_txBufferWrite)
 736:.\Generated_Source\PSoC5/DMASDSPI_1_SPIMaster.c ****         {
 737:.\Generated_Source\PSoC5/DMASDSPI_1_SPIMaster.c ****             size = 0u;
 738:.\Generated_Source\PSoC5/DMASDSPI_1_SPIMaster.c ****         }
 739:.\Generated_Source\PSoC5/DMASDSPI_1_SPIMaster.c ****         else if(DMASDSPI_1_SPIMaster_txBufferRead < DMASDSPI_1_SPIMaster_txBufferWrite)
 740:.\Generated_Source\PSoC5/DMASDSPI_1_SPIMaster.c ****         {
 741:.\Generated_Source\PSoC5/DMASDSPI_1_SPIMaster.c ****             size = (DMASDSPI_1_SPIMaster_txBufferWrite - DMASDSPI_1_SPIMaster_txBufferRead);
 742:.\Generated_Source\PSoC5/DMASDSPI_1_SPIMaster.c ****         }
 743:.\Generated_Source\PSoC5/DMASDSPI_1_SPIMaster.c ****         else
 744:.\Generated_Source\PSoC5/DMASDSPI_1_SPIMaster.c ****         {
 745:.\Generated_Source\PSoC5/DMASDSPI_1_SPIMaster.c ****             size = (DMASDSPI_1_SPIMaster_TX_BUFFER_SIZE - DMASDSPI_1_SPIMaster_txBufferRead) + DMAS
 746:.\Generated_Source\PSoC5/DMASDSPI_1_SPIMaster.c ****         }
 747:.\Generated_Source\PSoC5/DMASDSPI_1_SPIMaster.c **** 
 748:.\Generated_Source\PSoC5/DMASDSPI_1_SPIMaster.c ****         DMASDSPI_1_SPIMaster_EnableTxInt();
 749:.\Generated_Source\PSoC5/DMASDSPI_1_SPIMaster.c **** 
 750:.\Generated_Source\PSoC5/DMASDSPI_1_SPIMaster.c ****     #else
 751:.\Generated_Source\PSoC5/DMASDSPI_1_SPIMaster.c **** 
 752:.\Generated_Source\PSoC5/DMASDSPI_1_SPIMaster.c ****         size = DMASDSPI_1_SPIMaster_TX_STATUS_REG;
 377              		.loc 1 752 0
 378 0000 074B     		ldr	r3, .L41
 379 0002 1B78     		ldrb	r3, [r3]	@ zero_extendqisi2
 380 0004 DBB2     		uxtb	r3, r3
 381              	.LVL11:
 753:.\Generated_Source\PSoC5/DMASDSPI_1_SPIMaster.c **** 
 754:.\Generated_Source\PSoC5/DMASDSPI_1_SPIMaster.c ****         if(0u != (size & DMASDSPI_1_SPIMaster_STS_TX_FIFO_EMPTY))
 382              		.loc 1 754 0
 383 0006 13F0020F 		tst	r3, #2
 384 000a 04D1     		bne	.L39
 755:.\Generated_Source\PSoC5/DMASDSPI_1_SPIMaster.c ****         {
 756:.\Generated_Source\PSoC5/DMASDSPI_1_SPIMaster.c ****             size = 0u;
ARM GAS  C:\Users\honet\AppData\Local\Temp\ccb11yRS.s 			page 21


 757:.\Generated_Source\PSoC5/DMASDSPI_1_SPIMaster.c ****         }
 758:.\Generated_Source\PSoC5/DMASDSPI_1_SPIMaster.c ****         else if(0u != (size & DMASDSPI_1_SPIMaster_STS_TX_FIFO_NOT_FULL))
 385              		.loc 1 758 0
 386 000c 13F0040F 		tst	r3, #4
 387 0010 03D0     		beq	.L40
 759:.\Generated_Source\PSoC5/DMASDSPI_1_SPIMaster.c ****         {
 760:.\Generated_Source\PSoC5/DMASDSPI_1_SPIMaster.c ****             size = 1u;
 388              		.loc 1 760 0
 389 0012 0120     		movs	r0, #1
 390 0014 7047     		bx	lr
 391              	.L39:
 756:.\Generated_Source\PSoC5/DMASDSPI_1_SPIMaster.c ****         }
 392              		.loc 1 756 0
 393 0016 0020     		movs	r0, #0
 394 0018 7047     		bx	lr
 395              	.L40:
 761:.\Generated_Source\PSoC5/DMASDSPI_1_SPIMaster.c ****         }
 762:.\Generated_Source\PSoC5/DMASDSPI_1_SPIMaster.c ****         else
 763:.\Generated_Source\PSoC5/DMASDSPI_1_SPIMaster.c ****         {
 764:.\Generated_Source\PSoC5/DMASDSPI_1_SPIMaster.c ****             size = DMASDSPI_1_SPIMaster_FIFO_SIZE;
 396              		.loc 1 764 0
 397 001a 0420     		movs	r0, #4
 398              	.LVL12:
 765:.\Generated_Source\PSoC5/DMASDSPI_1_SPIMaster.c ****         }
 766:.\Generated_Source\PSoC5/DMASDSPI_1_SPIMaster.c **** 
 767:.\Generated_Source\PSoC5/DMASDSPI_1_SPIMaster.c ****     #endif /* (DMASDSPI_1_SPIMaster_TX_SOFTWARE_BUF_ENABLED) */
 768:.\Generated_Source\PSoC5/DMASDSPI_1_SPIMaster.c **** 
 769:.\Generated_Source\PSoC5/DMASDSPI_1_SPIMaster.c ****     return(size);
 770:.\Generated_Source\PSoC5/DMASDSPI_1_SPIMaster.c **** }
 399              		.loc 1 770 0
 400 001c 7047     		bx	lr
 401              	.L42:
 402 001e 00BF     		.align	2
 403              	.L41:
 404 0020 63640040 		.word	1073767523
 405              		.cfi_endproc
 406              	.LFE15:
 407              		.size	DMASDSPI_1_SPIMaster_GetTxBufferSize, .-DMASDSPI_1_SPIMaster_GetTxBufferSize
 408              		.section	.text.DMASDSPI_1_SPIMaster_ClearRxBuffer,"ax",%progbits
 409              		.align	2
 410              		.global	DMASDSPI_1_SPIMaster_ClearRxBuffer
 411              		.thumb
 412              		.thumb_func
 413              		.type	DMASDSPI_1_SPIMaster_ClearRxBuffer, %function
 414              	DMASDSPI_1_SPIMaster_ClearRxBuffer:
 415              	.LFB16:
 771:.\Generated_Source\PSoC5/DMASDSPI_1_SPIMaster.c **** 
 772:.\Generated_Source\PSoC5/DMASDSPI_1_SPIMaster.c **** 
 773:.\Generated_Source\PSoC5/DMASDSPI_1_SPIMaster.c **** /*******************************************************************************
 774:.\Generated_Source\PSoC5/DMASDSPI_1_SPIMaster.c **** * Function Name: DMASDSPI_1_SPIMaster_ClearRxBuffer
 775:.\Generated_Source\PSoC5/DMASDSPI_1_SPIMaster.c **** ********************************************************************************
 776:.\Generated_Source\PSoC5/DMASDSPI_1_SPIMaster.c **** *
 777:.\Generated_Source\PSoC5/DMASDSPI_1_SPIMaster.c **** * Summary:
 778:.\Generated_Source\PSoC5/DMASDSPI_1_SPIMaster.c **** *  Clear the RX RAM buffer by setting the read and write pointers both to zero.
 779:.\Generated_Source\PSoC5/DMASDSPI_1_SPIMaster.c **** *
 780:.\Generated_Source\PSoC5/DMASDSPI_1_SPIMaster.c **** * Parameters:
 781:.\Generated_Source\PSoC5/DMASDSPI_1_SPIMaster.c **** *  None.
ARM GAS  C:\Users\honet\AppData\Local\Temp\ccb11yRS.s 			page 22


 782:.\Generated_Source\PSoC5/DMASDSPI_1_SPIMaster.c **** *
 783:.\Generated_Source\PSoC5/DMASDSPI_1_SPIMaster.c **** * Return:
 784:.\Generated_Source\PSoC5/DMASDSPI_1_SPIMaster.c **** *  None.
 785:.\Generated_Source\PSoC5/DMASDSPI_1_SPIMaster.c **** *
 786:.\Generated_Source\PSoC5/DMASDSPI_1_SPIMaster.c **** * Global variables:
 787:.\Generated_Source\PSoC5/DMASDSPI_1_SPIMaster.c **** *  DMASDSPI_1_SPIMaster_rxBufferWrite - used for the account of the bytes which
 788:.\Generated_Source\PSoC5/DMASDSPI_1_SPIMaster.c **** *  have been written down in the RX software buffer, modified every function
 789:.\Generated_Source\PSoC5/DMASDSPI_1_SPIMaster.c **** *  call - resets to zero.
 790:.\Generated_Source\PSoC5/DMASDSPI_1_SPIMaster.c **** *  DMASDSPI_1_SPIMaster_rxBufferRead - used for the account of the bytes which
 791:.\Generated_Source\PSoC5/DMASDSPI_1_SPIMaster.c **** *  have been read from the RX software buffer, modified every function call -
 792:.\Generated_Source\PSoC5/DMASDSPI_1_SPIMaster.c **** *  resets to zero.
 793:.\Generated_Source\PSoC5/DMASDSPI_1_SPIMaster.c **** *
 794:.\Generated_Source\PSoC5/DMASDSPI_1_SPIMaster.c **** * Theory:
 795:.\Generated_Source\PSoC5/DMASDSPI_1_SPIMaster.c **** *  Setting the pointers to zero makes the system believe there is no data to
 796:.\Generated_Source\PSoC5/DMASDSPI_1_SPIMaster.c **** *  read and writing will resume at address 0 overwriting any data that may have
 797:.\Generated_Source\PSoC5/DMASDSPI_1_SPIMaster.c **** *  remained in the RAM.
 798:.\Generated_Source\PSoC5/DMASDSPI_1_SPIMaster.c **** *
 799:.\Generated_Source\PSoC5/DMASDSPI_1_SPIMaster.c **** * Side Effects:
 800:.\Generated_Source\PSoC5/DMASDSPI_1_SPIMaster.c **** *  Any received data not read from the RAM buffer will be lost when overwritten.
 801:.\Generated_Source\PSoC5/DMASDSPI_1_SPIMaster.c **** *
 802:.\Generated_Source\PSoC5/DMASDSPI_1_SPIMaster.c **** * Reentrant:
 803:.\Generated_Source\PSoC5/DMASDSPI_1_SPIMaster.c **** *  No.
 804:.\Generated_Source\PSoC5/DMASDSPI_1_SPIMaster.c **** *
 805:.\Generated_Source\PSoC5/DMASDSPI_1_SPIMaster.c **** *******************************************************************************/
 806:.\Generated_Source\PSoC5/DMASDSPI_1_SPIMaster.c **** void DMASDSPI_1_SPIMaster_ClearRxBuffer(void) 
 807:.\Generated_Source\PSoC5/DMASDSPI_1_SPIMaster.c **** {
 416              		.loc 1 807 0
 417              		.cfi_startproc
 418              		@ args = 0, pretend = 0, frame = 0
 419              		@ frame_needed = 0, uses_anonymous_args = 0
 420              		@ link register save eliminated.
 808:.\Generated_Source\PSoC5/DMASDSPI_1_SPIMaster.c ****     /* Clear Hardware RX FIFO */
 809:.\Generated_Source\PSoC5/DMASDSPI_1_SPIMaster.c ****     while(0u !=(DMASDSPI_1_SPIMaster_RX_STATUS_REG & DMASDSPI_1_SPIMaster_STS_RX_FIFO_NOT_EMPTY))
 421              		.loc 1 809 0
 422 0000 01E0     		b	.L44
 423              	.L45:
 810:.\Generated_Source\PSoC5/DMASDSPI_1_SPIMaster.c ****     {
 811:.\Generated_Source\PSoC5/DMASDSPI_1_SPIMaster.c ****         (void) CY_GET_REG8(DMASDSPI_1_SPIMaster_RXDATA_PTR);
 424              		.loc 1 811 0
 425 0002 044B     		ldr	r3, .L46
 426 0004 1B78     		ldrb	r3, [r3]	@ zero_extendqisi2
 427              	.L44:
 809:.\Generated_Source\PSoC5/DMASDSPI_1_SPIMaster.c ****     {
 428              		.loc 1 809 0
 429 0006 044B     		ldr	r3, .L46+4
 430 0008 1B78     		ldrb	r3, [r3]	@ zero_extendqisi2
 431 000a 13F0200F 		tst	r3, #32
 432 000e F8D1     		bne	.L45
 812:.\Generated_Source\PSoC5/DMASDSPI_1_SPIMaster.c ****     }
 813:.\Generated_Source\PSoC5/DMASDSPI_1_SPIMaster.c **** 
 814:.\Generated_Source\PSoC5/DMASDSPI_1_SPIMaster.c ****     #if(DMASDSPI_1_SPIMaster_RX_SOFTWARE_BUF_ENABLED)
 815:.\Generated_Source\PSoC5/DMASDSPI_1_SPIMaster.c ****         /* Disable RX interrupt to protect global veriables */
 816:.\Generated_Source\PSoC5/DMASDSPI_1_SPIMaster.c ****         DMASDSPI_1_SPIMaster_DisableRxInt();
 817:.\Generated_Source\PSoC5/DMASDSPI_1_SPIMaster.c **** 
 818:.\Generated_Source\PSoC5/DMASDSPI_1_SPIMaster.c ****         DMASDSPI_1_SPIMaster_rxBufferFull  = 0u;
 819:.\Generated_Source\PSoC5/DMASDSPI_1_SPIMaster.c ****         DMASDSPI_1_SPIMaster_rxBufferRead  = 0u;
 820:.\Generated_Source\PSoC5/DMASDSPI_1_SPIMaster.c ****         DMASDSPI_1_SPIMaster_rxBufferWrite = 0u;
ARM GAS  C:\Users\honet\AppData\Local\Temp\ccb11yRS.s 			page 23


 821:.\Generated_Source\PSoC5/DMASDSPI_1_SPIMaster.c **** 
 822:.\Generated_Source\PSoC5/DMASDSPI_1_SPIMaster.c ****         DMASDSPI_1_SPIMaster_EnableRxInt();
 823:.\Generated_Source\PSoC5/DMASDSPI_1_SPIMaster.c ****     #endif /* (DMASDSPI_1_SPIMaster_RX_SOFTWARE_BUF_ENABLED) */
 824:.\Generated_Source\PSoC5/DMASDSPI_1_SPIMaster.c **** }
 433              		.loc 1 824 0
 434 0010 7047     		bx	lr
 435              	.L47:
 436 0012 00BF     		.align	2
 437              	.L46:
 438 0014 51640040 		.word	1073767505
 439 0018 62640040 		.word	1073767522
 440              		.cfi_endproc
 441              	.LFE16:
 442              		.size	DMASDSPI_1_SPIMaster_ClearRxBuffer, .-DMASDSPI_1_SPIMaster_ClearRxBuffer
 443              		.section	.text.DMASDSPI_1_SPIMaster_ClearTxBuffer,"ax",%progbits
 444              		.align	2
 445              		.global	DMASDSPI_1_SPIMaster_ClearTxBuffer
 446              		.thumb
 447              		.thumb_func
 448              		.type	DMASDSPI_1_SPIMaster_ClearTxBuffer, %function
 449              	DMASDSPI_1_SPIMaster_ClearTxBuffer:
 450              	.LFB17:
 825:.\Generated_Source\PSoC5/DMASDSPI_1_SPIMaster.c **** 
 826:.\Generated_Source\PSoC5/DMASDSPI_1_SPIMaster.c **** 
 827:.\Generated_Source\PSoC5/DMASDSPI_1_SPIMaster.c **** /*******************************************************************************
 828:.\Generated_Source\PSoC5/DMASDSPI_1_SPIMaster.c **** * Function Name: DMASDSPI_1_SPIMaster_ClearTxBuffer
 829:.\Generated_Source\PSoC5/DMASDSPI_1_SPIMaster.c **** ********************************************************************************
 830:.\Generated_Source\PSoC5/DMASDSPI_1_SPIMaster.c **** *
 831:.\Generated_Source\PSoC5/DMASDSPI_1_SPIMaster.c **** * Summary:
 832:.\Generated_Source\PSoC5/DMASDSPI_1_SPIMaster.c **** *  Clear the TX RAM buffer by setting the read and write pointers both to zero.
 833:.\Generated_Source\PSoC5/DMASDSPI_1_SPIMaster.c **** *
 834:.\Generated_Source\PSoC5/DMASDSPI_1_SPIMaster.c **** * Parameters:
 835:.\Generated_Source\PSoC5/DMASDSPI_1_SPIMaster.c **** *  None.
 836:.\Generated_Source\PSoC5/DMASDSPI_1_SPIMaster.c **** *
 837:.\Generated_Source\PSoC5/DMASDSPI_1_SPIMaster.c **** * Return:
 838:.\Generated_Source\PSoC5/DMASDSPI_1_SPIMaster.c **** *  None.
 839:.\Generated_Source\PSoC5/DMASDSPI_1_SPIMaster.c **** *
 840:.\Generated_Source\PSoC5/DMASDSPI_1_SPIMaster.c **** * Global variables:
 841:.\Generated_Source\PSoC5/DMASDSPI_1_SPIMaster.c **** *  DMASDSPI_1_SPIMaster_txBufferWrite - used for the account of the bytes which
 842:.\Generated_Source\PSoC5/DMASDSPI_1_SPIMaster.c **** *  have been written down in the TX software buffer, modified every function
 843:.\Generated_Source\PSoC5/DMASDSPI_1_SPIMaster.c **** *  call - resets to zero.
 844:.\Generated_Source\PSoC5/DMASDSPI_1_SPIMaster.c **** *  DMASDSPI_1_SPIMaster_txBufferRead - used for the account of the bytes which
 845:.\Generated_Source\PSoC5/DMASDSPI_1_SPIMaster.c **** *  have been read from the TX software buffer, modified every function call -
 846:.\Generated_Source\PSoC5/DMASDSPI_1_SPIMaster.c **** *  resets to zero.
 847:.\Generated_Source\PSoC5/DMASDSPI_1_SPIMaster.c **** *
 848:.\Generated_Source\PSoC5/DMASDSPI_1_SPIMaster.c **** * Theory:
 849:.\Generated_Source\PSoC5/DMASDSPI_1_SPIMaster.c **** *  Setting the pointers to zero makes the system believe there is no data to
 850:.\Generated_Source\PSoC5/DMASDSPI_1_SPIMaster.c **** *  read and writing will resume at address 0 overwriting any data that may have
 851:.\Generated_Source\PSoC5/DMASDSPI_1_SPIMaster.c **** *  remained in the RAM.
 852:.\Generated_Source\PSoC5/DMASDSPI_1_SPIMaster.c **** *
 853:.\Generated_Source\PSoC5/DMASDSPI_1_SPIMaster.c **** * Side Effects:
 854:.\Generated_Source\PSoC5/DMASDSPI_1_SPIMaster.c **** *  Any data not yet transmitted from the RAM buffer will be lost when
 855:.\Generated_Source\PSoC5/DMASDSPI_1_SPIMaster.c **** *  overwritten.
 856:.\Generated_Source\PSoC5/DMASDSPI_1_SPIMaster.c **** *
 857:.\Generated_Source\PSoC5/DMASDSPI_1_SPIMaster.c **** * Reentrant:
 858:.\Generated_Source\PSoC5/DMASDSPI_1_SPIMaster.c **** *  No.
 859:.\Generated_Source\PSoC5/DMASDSPI_1_SPIMaster.c **** *
ARM GAS  C:\Users\honet\AppData\Local\Temp\ccb11yRS.s 			page 24


 860:.\Generated_Source\PSoC5/DMASDSPI_1_SPIMaster.c **** *******************************************************************************/
 861:.\Generated_Source\PSoC5/DMASDSPI_1_SPIMaster.c **** void DMASDSPI_1_SPIMaster_ClearTxBuffer(void) 
 862:.\Generated_Source\PSoC5/DMASDSPI_1_SPIMaster.c **** {
 451              		.loc 1 862 0
 452              		.cfi_startproc
 453              		@ args = 0, pretend = 0, frame = 0
 454              		@ frame_needed = 0, uses_anonymous_args = 0
 455 0000 08B5     		push	{r3, lr}
 456              		.cfi_def_cfa_offset 8
 457              		.cfi_offset 3, -8
 458              		.cfi_offset 14, -4
 863:.\Generated_Source\PSoC5/DMASDSPI_1_SPIMaster.c ****     uint8 enableInterrupts;
 864:.\Generated_Source\PSoC5/DMASDSPI_1_SPIMaster.c **** 
 865:.\Generated_Source\PSoC5/DMASDSPI_1_SPIMaster.c ****     enableInterrupts = CyEnterCriticalSection();
 459              		.loc 1 865 0
 460 0002 FFF7FEFF 		bl	CyEnterCriticalSection
 461              	.LVL13:
 866:.\Generated_Source\PSoC5/DMASDSPI_1_SPIMaster.c ****     /* Clear TX FIFO */
 867:.\Generated_Source\PSoC5/DMASDSPI_1_SPIMaster.c ****     DMASDSPI_1_SPIMaster_AUX_CONTROL_DP0_REG |= ((uint8)  DMASDSPI_1_SPIMaster_TX_FIFO_CLR);
 462              		.loc 1 867 0
 463 0006 064B     		ldr	r3, .L50
 464 0008 1A78     		ldrb	r2, [r3]	@ zero_extendqisi2
 465 000a 42F00102 		orr	r2, r2, #1
 466 000e 1A70     		strb	r2, [r3]
 868:.\Generated_Source\PSoC5/DMASDSPI_1_SPIMaster.c ****     DMASDSPI_1_SPIMaster_AUX_CONTROL_DP0_REG &= ((uint8) ~DMASDSPI_1_SPIMaster_TX_FIFO_CLR);
 467              		.loc 1 868 0
 468 0010 1A78     		ldrb	r2, [r3]	@ zero_extendqisi2
 469 0012 02F0FE02 		and	r2, r2, #254
 470 0016 1A70     		strb	r2, [r3]
 869:.\Generated_Source\PSoC5/DMASDSPI_1_SPIMaster.c **** 
 870:.\Generated_Source\PSoC5/DMASDSPI_1_SPIMaster.c ****     #if(DMASDSPI_1_SPIMaster_USE_SECOND_DATAPATH)
 871:.\Generated_Source\PSoC5/DMASDSPI_1_SPIMaster.c ****         /* Clear TX FIFO for 2nd Datapath */
 872:.\Generated_Source\PSoC5/DMASDSPI_1_SPIMaster.c ****         DMASDSPI_1_SPIMaster_AUX_CONTROL_DP1_REG |= ((uint8)  DMASDSPI_1_SPIMaster_TX_FIFO_CLR);
 873:.\Generated_Source\PSoC5/DMASDSPI_1_SPIMaster.c ****         DMASDSPI_1_SPIMaster_AUX_CONTROL_DP1_REG &= ((uint8) ~DMASDSPI_1_SPIMaster_TX_FIFO_CLR);
 874:.\Generated_Source\PSoC5/DMASDSPI_1_SPIMaster.c ****     #endif /* (DMASDSPI_1_SPIMaster_USE_SECOND_DATAPATH) */
 875:.\Generated_Source\PSoC5/DMASDSPI_1_SPIMaster.c ****     CyExitCriticalSection(enableInterrupts);
 471              		.loc 1 875 0
 472 0018 FFF7FEFF 		bl	CyExitCriticalSection
 473              	.LVL14:
 474 001c 08BD     		pop	{r3, pc}
 475              	.L51:
 476 001e 00BF     		.align	2
 477              	.L50:
 478 0020 91640040 		.word	1073767569
 479              		.cfi_endproc
 480              	.LFE17:
 481              		.size	DMASDSPI_1_SPIMaster_ClearTxBuffer, .-DMASDSPI_1_SPIMaster_ClearTxBuffer
 482              		.section	.text.DMASDSPI_1_SPIMaster_PutArray,"ax",%progbits
 483              		.align	2
 484              		.global	DMASDSPI_1_SPIMaster_PutArray
 485              		.thumb
 486              		.thumb_func
 487              		.type	DMASDSPI_1_SPIMaster_PutArray, %function
 488              	DMASDSPI_1_SPIMaster_PutArray:
 489              	.LFB18:
 876:.\Generated_Source\PSoC5/DMASDSPI_1_SPIMaster.c **** 
 877:.\Generated_Source\PSoC5/DMASDSPI_1_SPIMaster.c ****     #if(DMASDSPI_1_SPIMaster_TX_SOFTWARE_BUF_ENABLED)
ARM GAS  C:\Users\honet\AppData\Local\Temp\ccb11yRS.s 			page 25


 878:.\Generated_Source\PSoC5/DMASDSPI_1_SPIMaster.c ****         /* Disable TX interrupt to protect global veriables */
 879:.\Generated_Source\PSoC5/DMASDSPI_1_SPIMaster.c ****         DMASDSPI_1_SPIMaster_DisableTxInt();
 880:.\Generated_Source\PSoC5/DMASDSPI_1_SPIMaster.c **** 
 881:.\Generated_Source\PSoC5/DMASDSPI_1_SPIMaster.c ****         DMASDSPI_1_SPIMaster_txBufferFull  = 0u;
 882:.\Generated_Source\PSoC5/DMASDSPI_1_SPIMaster.c ****         DMASDSPI_1_SPIMaster_txBufferRead  = 0u;
 883:.\Generated_Source\PSoC5/DMASDSPI_1_SPIMaster.c ****         DMASDSPI_1_SPIMaster_txBufferWrite = 0u;
 884:.\Generated_Source\PSoC5/DMASDSPI_1_SPIMaster.c **** 
 885:.\Generated_Source\PSoC5/DMASDSPI_1_SPIMaster.c ****         /* Buffer is EMPTY: disable TX FIFO NOT FULL interrupt */
 886:.\Generated_Source\PSoC5/DMASDSPI_1_SPIMaster.c ****         DMASDSPI_1_SPIMaster_TX_STATUS_MASK_REG &= ((uint8) ~DMASDSPI_1_SPIMaster_STS_TX_FIFO_NOT_F
 887:.\Generated_Source\PSoC5/DMASDSPI_1_SPIMaster.c **** 
 888:.\Generated_Source\PSoC5/DMASDSPI_1_SPIMaster.c ****         DMASDSPI_1_SPIMaster_EnableTxInt();
 889:.\Generated_Source\PSoC5/DMASDSPI_1_SPIMaster.c ****     #endif /* (DMASDSPI_1_SPIMaster_TX_SOFTWARE_BUF_ENABLED) */
 890:.\Generated_Source\PSoC5/DMASDSPI_1_SPIMaster.c **** }
 891:.\Generated_Source\PSoC5/DMASDSPI_1_SPIMaster.c **** 
 892:.\Generated_Source\PSoC5/DMASDSPI_1_SPIMaster.c **** 
 893:.\Generated_Source\PSoC5/DMASDSPI_1_SPIMaster.c **** #if(0u != DMASDSPI_1_SPIMaster_BIDIRECTIONAL_MODE)
 894:.\Generated_Source\PSoC5/DMASDSPI_1_SPIMaster.c ****     /*******************************************************************************
 895:.\Generated_Source\PSoC5/DMASDSPI_1_SPIMaster.c ****     * Function Name: DMASDSPI_1_SPIMaster_TxEnable
 896:.\Generated_Source\PSoC5/DMASDSPI_1_SPIMaster.c ****     ********************************************************************************
 897:.\Generated_Source\PSoC5/DMASDSPI_1_SPIMaster.c ****     *
 898:.\Generated_Source\PSoC5/DMASDSPI_1_SPIMaster.c ****     * Summary:
 899:.\Generated_Source\PSoC5/DMASDSPI_1_SPIMaster.c ****     *  If the SPI master is configured to use a single bi-directional pin then this
 900:.\Generated_Source\PSoC5/DMASDSPI_1_SPIMaster.c ****     *  will set the bi-directional pin to transmit.
 901:.\Generated_Source\PSoC5/DMASDSPI_1_SPIMaster.c ****     *
 902:.\Generated_Source\PSoC5/DMASDSPI_1_SPIMaster.c ****     * Parameters:
 903:.\Generated_Source\PSoC5/DMASDSPI_1_SPIMaster.c ****     *  None.
 904:.\Generated_Source\PSoC5/DMASDSPI_1_SPIMaster.c ****     *
 905:.\Generated_Source\PSoC5/DMASDSPI_1_SPIMaster.c ****     * Return:
 906:.\Generated_Source\PSoC5/DMASDSPI_1_SPIMaster.c ****     *  None.
 907:.\Generated_Source\PSoC5/DMASDSPI_1_SPIMaster.c ****     *
 908:.\Generated_Source\PSoC5/DMASDSPI_1_SPIMaster.c ****     *******************************************************************************/
 909:.\Generated_Source\PSoC5/DMASDSPI_1_SPIMaster.c ****     void DMASDSPI_1_SPIMaster_TxEnable(void) 
 910:.\Generated_Source\PSoC5/DMASDSPI_1_SPIMaster.c ****     {
 911:.\Generated_Source\PSoC5/DMASDSPI_1_SPIMaster.c ****         DMASDSPI_1_SPIMaster_CONTROL_REG |= DMASDSPI_1_SPIMaster_CTRL_TX_SIGNAL_EN;
 912:.\Generated_Source\PSoC5/DMASDSPI_1_SPIMaster.c ****     }
 913:.\Generated_Source\PSoC5/DMASDSPI_1_SPIMaster.c **** 
 914:.\Generated_Source\PSoC5/DMASDSPI_1_SPIMaster.c **** 
 915:.\Generated_Source\PSoC5/DMASDSPI_1_SPIMaster.c ****     /*******************************************************************************
 916:.\Generated_Source\PSoC5/DMASDSPI_1_SPIMaster.c ****     * Function Name: DMASDSPI_1_SPIMaster_TxDisable
 917:.\Generated_Source\PSoC5/DMASDSPI_1_SPIMaster.c ****     ********************************************************************************
 918:.\Generated_Source\PSoC5/DMASDSPI_1_SPIMaster.c ****     *
 919:.\Generated_Source\PSoC5/DMASDSPI_1_SPIMaster.c ****     * Summary:
 920:.\Generated_Source\PSoC5/DMASDSPI_1_SPIMaster.c ****     *  If the SPI master is configured to use a single bi-directional pin then this
 921:.\Generated_Source\PSoC5/DMASDSPI_1_SPIMaster.c ****     *  will set the bi-directional pin to receive.
 922:.\Generated_Source\PSoC5/DMASDSPI_1_SPIMaster.c ****     *
 923:.\Generated_Source\PSoC5/DMASDSPI_1_SPIMaster.c ****     * Parameters:
 924:.\Generated_Source\PSoC5/DMASDSPI_1_SPIMaster.c ****     *  None.
 925:.\Generated_Source\PSoC5/DMASDSPI_1_SPIMaster.c ****     *
 926:.\Generated_Source\PSoC5/DMASDSPI_1_SPIMaster.c ****     * Return:
 927:.\Generated_Source\PSoC5/DMASDSPI_1_SPIMaster.c ****     *  None.
 928:.\Generated_Source\PSoC5/DMASDSPI_1_SPIMaster.c ****     *
 929:.\Generated_Source\PSoC5/DMASDSPI_1_SPIMaster.c ****     *******************************************************************************/
 930:.\Generated_Source\PSoC5/DMASDSPI_1_SPIMaster.c ****     void DMASDSPI_1_SPIMaster_TxDisable(void) 
 931:.\Generated_Source\PSoC5/DMASDSPI_1_SPIMaster.c ****     {
 932:.\Generated_Source\PSoC5/DMASDSPI_1_SPIMaster.c ****         DMASDSPI_1_SPIMaster_CONTROL_REG &= ((uint8) ~DMASDSPI_1_SPIMaster_CTRL_TX_SIGNAL_EN);
 933:.\Generated_Source\PSoC5/DMASDSPI_1_SPIMaster.c ****     }
 934:.\Generated_Source\PSoC5/DMASDSPI_1_SPIMaster.c **** 
ARM GAS  C:\Users\honet\AppData\Local\Temp\ccb11yRS.s 			page 26


 935:.\Generated_Source\PSoC5/DMASDSPI_1_SPIMaster.c **** #endif /* (0u != DMASDSPI_1_SPIMaster_BIDIRECTIONAL_MODE) */
 936:.\Generated_Source\PSoC5/DMASDSPI_1_SPIMaster.c **** 
 937:.\Generated_Source\PSoC5/DMASDSPI_1_SPIMaster.c **** 
 938:.\Generated_Source\PSoC5/DMASDSPI_1_SPIMaster.c **** /*******************************************************************************
 939:.\Generated_Source\PSoC5/DMASDSPI_1_SPIMaster.c **** * Function Name: DMASDSPI_1_SPIMaster_PutArray
 940:.\Generated_Source\PSoC5/DMASDSPI_1_SPIMaster.c **** ********************************************************************************
 941:.\Generated_Source\PSoC5/DMASDSPI_1_SPIMaster.c **** *
 942:.\Generated_Source\PSoC5/DMASDSPI_1_SPIMaster.c **** * Summary:
 943:.\Generated_Source\PSoC5/DMASDSPI_1_SPIMaster.c **** *  Write available data from ROM/RAM to the TX buffer while space is available
 944:.\Generated_Source\PSoC5/DMASDSPI_1_SPIMaster.c **** *  in the TX buffer. Keep trying until all data is passed to the TX buffer.
 945:.\Generated_Source\PSoC5/DMASDSPI_1_SPIMaster.c **** *
 946:.\Generated_Source\PSoC5/DMASDSPI_1_SPIMaster.c **** * Parameters:
 947:.\Generated_Source\PSoC5/DMASDSPI_1_SPIMaster.c **** *  *buffer: Pointer to the location in RAM containing the data to send
 948:.\Generated_Source\PSoC5/DMASDSPI_1_SPIMaster.c **** *  byteCount: The number of bytes to move to the transmit buffer.
 949:.\Generated_Source\PSoC5/DMASDSPI_1_SPIMaster.c **** *
 950:.\Generated_Source\PSoC5/DMASDSPI_1_SPIMaster.c **** * Return:
 951:.\Generated_Source\PSoC5/DMASDSPI_1_SPIMaster.c **** *  None.
 952:.\Generated_Source\PSoC5/DMASDSPI_1_SPIMaster.c **** *
 953:.\Generated_Source\PSoC5/DMASDSPI_1_SPIMaster.c **** * Side Effects:
 954:.\Generated_Source\PSoC5/DMASDSPI_1_SPIMaster.c **** *  Will stay in this routine until all data has been sent.  May get locked in
 955:.\Generated_Source\PSoC5/DMASDSPI_1_SPIMaster.c **** *  this loop if data is not being initiated by the master if there is not
 956:.\Generated_Source\PSoC5/DMASDSPI_1_SPIMaster.c **** *  enough room in the TX FIFO.
 957:.\Generated_Source\PSoC5/DMASDSPI_1_SPIMaster.c **** *
 958:.\Generated_Source\PSoC5/DMASDSPI_1_SPIMaster.c **** * Reentrant:
 959:.\Generated_Source\PSoC5/DMASDSPI_1_SPIMaster.c **** *  No.
 960:.\Generated_Source\PSoC5/DMASDSPI_1_SPIMaster.c **** *
 961:.\Generated_Source\PSoC5/DMASDSPI_1_SPIMaster.c **** *******************************************************************************/
 962:.\Generated_Source\PSoC5/DMASDSPI_1_SPIMaster.c **** void DMASDSPI_1_SPIMaster_PutArray(const uint8 buffer[], uint8 byteCount)
 963:.\Generated_Source\PSoC5/DMASDSPI_1_SPIMaster.c ****                                                                           
 964:.\Generated_Source\PSoC5/DMASDSPI_1_SPIMaster.c **** {
 490              		.loc 1 964 0
 491              		.cfi_startproc
 492              		@ args = 0, pretend = 0, frame = 0
 493              		@ frame_needed = 0, uses_anonymous_args = 0
 494              	.LVL15:
 495 0000 70B5     		push	{r4, r5, r6, lr}
 496              		.cfi_def_cfa_offset 16
 497              		.cfi_offset 4, -16
 498              		.cfi_offset 5, -12
 499              		.cfi_offset 6, -8
 500              		.cfi_offset 14, -4
 501 0002 0646     		mov	r6, r0
 502 0004 0C46     		mov	r4, r1
 503              	.LVL16:
 965:.\Generated_Source\PSoC5/DMASDSPI_1_SPIMaster.c ****     uint8 bufIndex;
 966:.\Generated_Source\PSoC5/DMASDSPI_1_SPIMaster.c **** 
 967:.\Generated_Source\PSoC5/DMASDSPI_1_SPIMaster.c ****     bufIndex = 0u;
 504              		.loc 1 967 0
 505 0006 0025     		movs	r5, #0
 968:.\Generated_Source\PSoC5/DMASDSPI_1_SPIMaster.c **** 
 969:.\Generated_Source\PSoC5/DMASDSPI_1_SPIMaster.c ****     while(byteCount > 0u)
 506              		.loc 1 969 0
 507 0008 06E0     		b	.L53
 508              	.LVL17:
 509              	.L54:
 970:.\Generated_Source\PSoC5/DMASDSPI_1_SPIMaster.c ****     {
 971:.\Generated_Source\PSoC5/DMASDSPI_1_SPIMaster.c ****         DMASDSPI_1_SPIMaster_WriteTxData(buffer[bufIndex]);
ARM GAS  C:\Users\honet\AppData\Local\Temp\ccb11yRS.s 			page 27


 510              		.loc 1 971 0
 511 000a 705D     		ldrb	r0, [r6, r5]	@ zero_extendqisi2
 512 000c FFF7FEFF 		bl	DMASDSPI_1_SPIMaster_WriteTxData
 513              	.LVL18:
 972:.\Generated_Source\PSoC5/DMASDSPI_1_SPIMaster.c ****         bufIndex++;
 514              		.loc 1 972 0
 515 0010 0135     		adds	r5, r5, #1
 516              	.LVL19:
 517 0012 EDB2     		uxtb	r5, r5
 518              	.LVL20:
 973:.\Generated_Source\PSoC5/DMASDSPI_1_SPIMaster.c ****         byteCount--;
 519              		.loc 1 973 0
 520 0014 013C     		subs	r4, r4, #1
 521              	.LVL21:
 522 0016 E4B2     		uxtb	r4, r4
 523              	.LVL22:
 524              	.L53:
 969:.\Generated_Source\PSoC5/DMASDSPI_1_SPIMaster.c ****     {
 525              		.loc 1 969 0
 526 0018 002C     		cmp	r4, #0
 527 001a F6D1     		bne	.L54
 974:.\Generated_Source\PSoC5/DMASDSPI_1_SPIMaster.c ****     }
 975:.\Generated_Source\PSoC5/DMASDSPI_1_SPIMaster.c **** }
 528              		.loc 1 975 0
 529 001c 70BD     		pop	{r4, r5, r6, pc}
 530              		.cfi_endproc
 531              	.LFE18:
 532              		.size	DMASDSPI_1_SPIMaster_PutArray, .-DMASDSPI_1_SPIMaster_PutArray
 533 001e 00BF     		.section	.text.DMASDSPI_1_SPIMaster_ClearFIFO,"ax",%progbits
 534              		.align	2
 535              		.global	DMASDSPI_1_SPIMaster_ClearFIFO
 536              		.thumb
 537              		.thumb_func
 538              		.type	DMASDSPI_1_SPIMaster_ClearFIFO, %function
 539              	DMASDSPI_1_SPIMaster_ClearFIFO:
 540              	.LFB19:
 976:.\Generated_Source\PSoC5/DMASDSPI_1_SPIMaster.c **** 
 977:.\Generated_Source\PSoC5/DMASDSPI_1_SPIMaster.c **** 
 978:.\Generated_Source\PSoC5/DMASDSPI_1_SPIMaster.c **** /*******************************************************************************
 979:.\Generated_Source\PSoC5/DMASDSPI_1_SPIMaster.c **** * Function Name: DMASDSPI_1_SPIMaster_ClearFIFO
 980:.\Generated_Source\PSoC5/DMASDSPI_1_SPIMaster.c **** ********************************************************************************
 981:.\Generated_Source\PSoC5/DMASDSPI_1_SPIMaster.c **** *
 982:.\Generated_Source\PSoC5/DMASDSPI_1_SPIMaster.c **** * Summary:
 983:.\Generated_Source\PSoC5/DMASDSPI_1_SPIMaster.c **** *  Clear the RX and TX FIFO's of all data for a fresh start.
 984:.\Generated_Source\PSoC5/DMASDSPI_1_SPIMaster.c **** *
 985:.\Generated_Source\PSoC5/DMASDSPI_1_SPIMaster.c **** * Parameters:
 986:.\Generated_Source\PSoC5/DMASDSPI_1_SPIMaster.c **** *  None.
 987:.\Generated_Source\PSoC5/DMASDSPI_1_SPIMaster.c **** *
 988:.\Generated_Source\PSoC5/DMASDSPI_1_SPIMaster.c **** * Return:
 989:.\Generated_Source\PSoC5/DMASDSPI_1_SPIMaster.c **** *  None.
 990:.\Generated_Source\PSoC5/DMASDSPI_1_SPIMaster.c **** *
 991:.\Generated_Source\PSoC5/DMASDSPI_1_SPIMaster.c **** * Side Effects:
 992:.\Generated_Source\PSoC5/DMASDSPI_1_SPIMaster.c **** *  Clear status register of the component.
 993:.\Generated_Source\PSoC5/DMASDSPI_1_SPIMaster.c **** *
 994:.\Generated_Source\PSoC5/DMASDSPI_1_SPIMaster.c **** *******************************************************************************/
 995:.\Generated_Source\PSoC5/DMASDSPI_1_SPIMaster.c **** void DMASDSPI_1_SPIMaster_ClearFIFO(void) 
 996:.\Generated_Source\PSoC5/DMASDSPI_1_SPIMaster.c **** {
ARM GAS  C:\Users\honet\AppData\Local\Temp\ccb11yRS.s 			page 28


 541              		.loc 1 996 0
 542              		.cfi_startproc
 543              		@ args = 0, pretend = 0, frame = 0
 544              		@ frame_needed = 0, uses_anonymous_args = 0
 545 0000 08B5     		push	{r3, lr}
 546              		.cfi_def_cfa_offset 8
 547              		.cfi_offset 3, -8
 548              		.cfi_offset 14, -4
 997:.\Generated_Source\PSoC5/DMASDSPI_1_SPIMaster.c ****     uint8 enableInterrupts;
 998:.\Generated_Source\PSoC5/DMASDSPI_1_SPIMaster.c **** 
 999:.\Generated_Source\PSoC5/DMASDSPI_1_SPIMaster.c ****     /* Clear Hardware RX FIFO */
1000:.\Generated_Source\PSoC5/DMASDSPI_1_SPIMaster.c ****     while(0u !=(DMASDSPI_1_SPIMaster_RX_STATUS_REG & DMASDSPI_1_SPIMaster_STS_RX_FIFO_NOT_EMPTY))
 549              		.loc 1 1000 0
 550 0002 01E0     		b	.L57
 551              	.L58:
1001:.\Generated_Source\PSoC5/DMASDSPI_1_SPIMaster.c ****     {
1002:.\Generated_Source\PSoC5/DMASDSPI_1_SPIMaster.c ****         (void) CY_GET_REG8(DMASDSPI_1_SPIMaster_RXDATA_PTR);
 552              		.loc 1 1002 0
 553 0004 0A4B     		ldr	r3, .L60
 554 0006 1B78     		ldrb	r3, [r3]	@ zero_extendqisi2
 555              	.L57:
1000:.\Generated_Source\PSoC5/DMASDSPI_1_SPIMaster.c ****     {
 556              		.loc 1 1000 0
 557 0008 0A4B     		ldr	r3, .L60+4
 558 000a 1B78     		ldrb	r3, [r3]	@ zero_extendqisi2
 559 000c 13F0200F 		tst	r3, #32
 560 0010 F8D1     		bne	.L58
1003:.\Generated_Source\PSoC5/DMASDSPI_1_SPIMaster.c ****     }
1004:.\Generated_Source\PSoC5/DMASDSPI_1_SPIMaster.c **** 
1005:.\Generated_Source\PSoC5/DMASDSPI_1_SPIMaster.c ****     enableInterrupts = CyEnterCriticalSection();
 561              		.loc 1 1005 0
 562 0012 FFF7FEFF 		bl	CyEnterCriticalSection
 563              	.LVL23:
1006:.\Generated_Source\PSoC5/DMASDSPI_1_SPIMaster.c ****     /* Clear TX FIFO */
1007:.\Generated_Source\PSoC5/DMASDSPI_1_SPIMaster.c ****     DMASDSPI_1_SPIMaster_AUX_CONTROL_DP0_REG |= ((uint8)  DMASDSPI_1_SPIMaster_TX_FIFO_CLR);
 564              		.loc 1 1007 0
 565 0016 084B     		ldr	r3, .L60+8
 566 0018 1A78     		ldrb	r2, [r3]	@ zero_extendqisi2
 567 001a 42F00102 		orr	r2, r2, #1
 568 001e 1A70     		strb	r2, [r3]
1008:.\Generated_Source\PSoC5/DMASDSPI_1_SPIMaster.c ****     DMASDSPI_1_SPIMaster_AUX_CONTROL_DP0_REG &= ((uint8) ~DMASDSPI_1_SPIMaster_TX_FIFO_CLR);
 569              		.loc 1 1008 0
 570 0020 1A78     		ldrb	r2, [r3]	@ zero_extendqisi2
 571 0022 02F0FE02 		and	r2, r2, #254
 572 0026 1A70     		strb	r2, [r3]
1009:.\Generated_Source\PSoC5/DMASDSPI_1_SPIMaster.c **** 
1010:.\Generated_Source\PSoC5/DMASDSPI_1_SPIMaster.c ****     #if(DMASDSPI_1_SPIMaster_USE_SECOND_DATAPATH)
1011:.\Generated_Source\PSoC5/DMASDSPI_1_SPIMaster.c ****         /* Clear TX FIFO for 2nd Datapath */
1012:.\Generated_Source\PSoC5/DMASDSPI_1_SPIMaster.c ****         DMASDSPI_1_SPIMaster_AUX_CONTROL_DP1_REG |= ((uint8)  DMASDSPI_1_SPIMaster_TX_FIFO_CLR);
1013:.\Generated_Source\PSoC5/DMASDSPI_1_SPIMaster.c ****         DMASDSPI_1_SPIMaster_AUX_CONTROL_DP1_REG &= ((uint8) ~DMASDSPI_1_SPIMaster_TX_FIFO_CLR);
1014:.\Generated_Source\PSoC5/DMASDSPI_1_SPIMaster.c ****     #endif /* (DMASDSPI_1_SPIMaster_USE_SECOND_DATAPATH) */
1015:.\Generated_Source\PSoC5/DMASDSPI_1_SPIMaster.c ****     CyExitCriticalSection(enableInterrupts);
 573              		.loc 1 1015 0
 574 0028 FFF7FEFF 		bl	CyExitCriticalSection
 575              	.LVL24:
 576 002c 08BD     		pop	{r3, pc}
 577              	.L61:
ARM GAS  C:\Users\honet\AppData\Local\Temp\ccb11yRS.s 			page 29


 578 002e 00BF     		.align	2
 579              	.L60:
 580 0030 51640040 		.word	1073767505
 581 0034 62640040 		.word	1073767522
 582 0038 91640040 		.word	1073767569
 583              		.cfi_endproc
 584              	.LFE19:
 585              		.size	DMASDSPI_1_SPIMaster_ClearFIFO, .-DMASDSPI_1_SPIMaster_ClearFIFO
 586              		.section	.text.DMASDSPI_1_SPIMaster_Init,"ax",%progbits
 587              		.align	2
 588              		.global	DMASDSPI_1_SPIMaster_Init
 589              		.thumb
 590              		.thumb_func
 591              		.type	DMASDSPI_1_SPIMaster_Init, %function
 592              	DMASDSPI_1_SPIMaster_Init:
 593              	.LFB0:
  64:.\Generated_Source\PSoC5/DMASDSPI_1_SPIMaster.c ****     /* Initialize the Bit counter */
 594              		.loc 1 64 0
 595              		.cfi_startproc
 596              		@ args = 0, pretend = 0, frame = 0
 597              		@ frame_needed = 0, uses_anonymous_args = 0
 598 0000 08B5     		push	{r3, lr}
 599              		.cfi_def_cfa_offset 8
 600              		.cfi_offset 3, -8
 601              		.cfi_offset 14, -4
  66:.\Generated_Source\PSoC5/DMASDSPI_1_SPIMaster.c **** 
 602              		.loc 1 66 0
 603 0002 0F22     		movs	r2, #15
 604 0004 074B     		ldr	r3, .L64
 605 0006 1A70     		strb	r2, [r3]
  83:.\Generated_Source\PSoC5/DMASDSPI_1_SPIMaster.c **** 
 606              		.loc 1 83 0
 607 0008 FFF7FEFF 		bl	DMASDSPI_1_SPIMaster_ClearFIFO
 608              	.LVL25:
  97:.\Generated_Source\PSoC5/DMASDSPI_1_SPIMaster.c ****     (void) DMASDSPI_1_SPIMaster_ReadRxStatus(); /* Clear Rx status and swStatusRx */
 609              		.loc 1 97 0
 610 000c FFF7FEFF 		bl	DMASDSPI_1_SPIMaster_ReadTxStatus
 611              	.LVL26:
  98:.\Generated_Source\PSoC5/DMASDSPI_1_SPIMaster.c **** 
 612              		.loc 1 98 0
 613 0010 FFF7FEFF 		bl	DMASDSPI_1_SPIMaster_ReadRxStatus
 614              	.LVL27:
 101:.\Generated_Source\PSoC5/DMASDSPI_1_SPIMaster.c ****     DMASDSPI_1_SPIMaster_RX_STATUS_MASK_REG = DMASDSPI_1_SPIMaster_RX_INIT_INTERRUPTS_MASK;
 615              		.loc 1 101 0
 616 0014 0222     		movs	r2, #2
 617 0016 044B     		ldr	r3, .L64+4
 618 0018 1A70     		strb	r2, [r3]
 102:.\Generated_Source\PSoC5/DMASDSPI_1_SPIMaster.c **** }
 619              		.loc 1 102 0
 620 001a 2022     		movs	r2, #32
 621 001c 013B     		subs	r3, r3, #1
 622 001e 1A70     		strb	r2, [r3]
 623 0020 08BD     		pop	{r3, pc}
 624              	.L65:
 625 0022 00BF     		.align	2
 626              	.L64:
 627 0024 81640040 		.word	1073767553
ARM GAS  C:\Users\honet\AppData\Local\Temp\ccb11yRS.s 			page 30


 628 0028 83640040 		.word	1073767555
 629              		.cfi_endproc
 630              	.LFE0:
 631              		.size	DMASDSPI_1_SPIMaster_Init, .-DMASDSPI_1_SPIMaster_Init
 632              		.section	.text.DMASDSPI_1_SPIMaster_Start,"ax",%progbits
 633              		.align	2
 634              		.global	DMASDSPI_1_SPIMaster_Start
 635              		.thumb
 636              		.thumb_func
 637              		.type	DMASDSPI_1_SPIMaster_Start, %function
 638              	DMASDSPI_1_SPIMaster_Start:
 639              	.LFB2:
 164:.\Generated_Source\PSoC5/DMASDSPI_1_SPIMaster.c ****     if(0u == DMASDSPI_1_SPIMaster_initVar)
 640              		.loc 1 164 0
 641              		.cfi_startproc
 642              		@ args = 0, pretend = 0, frame = 0
 643              		@ frame_needed = 0, uses_anonymous_args = 0
 644 0000 08B5     		push	{r3, lr}
 645              		.cfi_def_cfa_offset 8
 646              		.cfi_offset 3, -8
 647              		.cfi_offset 14, -4
 165:.\Generated_Source\PSoC5/DMASDSPI_1_SPIMaster.c ****     {
 648              		.loc 1 165 0
 649 0002 054B     		ldr	r3, .L69
 650 0004 1B78     		ldrb	r3, [r3]	@ zero_extendqisi2
 651 0006 23B9     		cbnz	r3, .L67
 167:.\Generated_Source\PSoC5/DMASDSPI_1_SPIMaster.c ****         DMASDSPI_1_SPIMaster_initVar = 1u;
 652              		.loc 1 167 0
 653 0008 FFF7FEFF 		bl	DMASDSPI_1_SPIMaster_Init
 654              	.LVL28:
 168:.\Generated_Source\PSoC5/DMASDSPI_1_SPIMaster.c ****     }
 655              		.loc 1 168 0
 656 000c 0122     		movs	r2, #1
 657 000e 024B     		ldr	r3, .L69
 658 0010 1A70     		strb	r2, [r3]
 659              	.L67:
 171:.\Generated_Source\PSoC5/DMASDSPI_1_SPIMaster.c **** }
 660              		.loc 1 171 0
 661 0012 FFF7FEFF 		bl	DMASDSPI_1_SPIMaster_Enable
 662              	.LVL29:
 663 0016 08BD     		pop	{r3, pc}
 664              	.L70:
 665              		.align	2
 666              	.L69:
 667 0018 00000000 		.word	.LANCHOR0
 668              		.cfi_endproc
 669              	.LFE2:
 670              		.size	DMASDSPI_1_SPIMaster_Start, .-DMASDSPI_1_SPIMaster_Start
 671              		.section	.text.DMASDSPI_1_SPIMaster_EnableInt,"ax",%progbits
 672              		.align	2
 673              		.global	DMASDSPI_1_SPIMaster_EnableInt
 674              		.thumb
 675              		.thumb_func
 676              		.type	DMASDSPI_1_SPIMaster_EnableInt, %function
 677              	DMASDSPI_1_SPIMaster_EnableInt:
 678              	.LFB20:
1016:.\Generated_Source\PSoC5/DMASDSPI_1_SPIMaster.c **** }
ARM GAS  C:\Users\honet\AppData\Local\Temp\ccb11yRS.s 			page 31


1017:.\Generated_Source\PSoC5/DMASDSPI_1_SPIMaster.c **** 
1018:.\Generated_Source\PSoC5/DMASDSPI_1_SPIMaster.c **** 
1019:.\Generated_Source\PSoC5/DMASDSPI_1_SPIMaster.c **** /* Following functions are for version Compatibility, they are obsolete.
1020:.\Generated_Source\PSoC5/DMASDSPI_1_SPIMaster.c **** *  Please do not use it in new projects.
1021:.\Generated_Source\PSoC5/DMASDSPI_1_SPIMaster.c **** */
1022:.\Generated_Source\PSoC5/DMASDSPI_1_SPIMaster.c **** 
1023:.\Generated_Source\PSoC5/DMASDSPI_1_SPIMaster.c **** 
1024:.\Generated_Source\PSoC5/DMASDSPI_1_SPIMaster.c **** /*******************************************************************************
1025:.\Generated_Source\PSoC5/DMASDSPI_1_SPIMaster.c **** * Function Name: DMASDSPI_1_SPIMaster_EnableInt
1026:.\Generated_Source\PSoC5/DMASDSPI_1_SPIMaster.c **** ********************************************************************************
1027:.\Generated_Source\PSoC5/DMASDSPI_1_SPIMaster.c **** *
1028:.\Generated_Source\PSoC5/DMASDSPI_1_SPIMaster.c **** * Summary:
1029:.\Generated_Source\PSoC5/DMASDSPI_1_SPIMaster.c **** *  Enable internal interrupt generation.
1030:.\Generated_Source\PSoC5/DMASDSPI_1_SPIMaster.c **** *
1031:.\Generated_Source\PSoC5/DMASDSPI_1_SPIMaster.c **** * Parameters:
1032:.\Generated_Source\PSoC5/DMASDSPI_1_SPIMaster.c **** *  None.
1033:.\Generated_Source\PSoC5/DMASDSPI_1_SPIMaster.c **** *
1034:.\Generated_Source\PSoC5/DMASDSPI_1_SPIMaster.c **** * Return:
1035:.\Generated_Source\PSoC5/DMASDSPI_1_SPIMaster.c **** *  None.
1036:.\Generated_Source\PSoC5/DMASDSPI_1_SPIMaster.c **** *
1037:.\Generated_Source\PSoC5/DMASDSPI_1_SPIMaster.c **** * Theory:
1038:.\Generated_Source\PSoC5/DMASDSPI_1_SPIMaster.c **** *  Enable the internal interrupt output -or- the interrupt component itself.
1039:.\Generated_Source\PSoC5/DMASDSPI_1_SPIMaster.c **** *
1040:.\Generated_Source\PSoC5/DMASDSPI_1_SPIMaster.c **** *******************************************************************************/
1041:.\Generated_Source\PSoC5/DMASDSPI_1_SPIMaster.c **** void DMASDSPI_1_SPIMaster_EnableInt(void) 
1042:.\Generated_Source\PSoC5/DMASDSPI_1_SPIMaster.c **** {
 679              		.loc 1 1042 0
 680              		.cfi_startproc
 681              		@ args = 0, pretend = 0, frame = 0
 682              		@ frame_needed = 0, uses_anonymous_args = 0
 683              		@ link register save eliminated.
 684 0000 7047     		bx	lr
 685              		.cfi_endproc
 686              	.LFE20:
 687              		.size	DMASDSPI_1_SPIMaster_EnableInt, .-DMASDSPI_1_SPIMaster_EnableInt
 688 0002 00BF     		.section	.text.DMASDSPI_1_SPIMaster_DisableInt,"ax",%progbits
 689              		.align	2
 690              		.global	DMASDSPI_1_SPIMaster_DisableInt
 691              		.thumb
 692              		.thumb_func
 693              		.type	DMASDSPI_1_SPIMaster_DisableInt, %function
 694              	DMASDSPI_1_SPIMaster_DisableInt:
 695              	.LFB21:
1043:.\Generated_Source\PSoC5/DMASDSPI_1_SPIMaster.c ****     DMASDSPI_1_SPIMaster_EnableRxInt();
1044:.\Generated_Source\PSoC5/DMASDSPI_1_SPIMaster.c ****     DMASDSPI_1_SPIMaster_EnableTxInt();
1045:.\Generated_Source\PSoC5/DMASDSPI_1_SPIMaster.c **** }
1046:.\Generated_Source\PSoC5/DMASDSPI_1_SPIMaster.c **** 
1047:.\Generated_Source\PSoC5/DMASDSPI_1_SPIMaster.c **** 
1048:.\Generated_Source\PSoC5/DMASDSPI_1_SPIMaster.c **** /*******************************************************************************
1049:.\Generated_Source\PSoC5/DMASDSPI_1_SPIMaster.c **** * Function Name: DMASDSPI_1_SPIMaster_DisableInt
1050:.\Generated_Source\PSoC5/DMASDSPI_1_SPIMaster.c **** ********************************************************************************
1051:.\Generated_Source\PSoC5/DMASDSPI_1_SPIMaster.c **** *
1052:.\Generated_Source\PSoC5/DMASDSPI_1_SPIMaster.c **** * Summary:
1053:.\Generated_Source\PSoC5/DMASDSPI_1_SPIMaster.c **** *  Disable internal interrupt generation.
1054:.\Generated_Source\PSoC5/DMASDSPI_1_SPIMaster.c **** *
1055:.\Generated_Source\PSoC5/DMASDSPI_1_SPIMaster.c **** * Parameters:
1056:.\Generated_Source\PSoC5/DMASDSPI_1_SPIMaster.c **** *  None.
ARM GAS  C:\Users\honet\AppData\Local\Temp\ccb11yRS.s 			page 32


1057:.\Generated_Source\PSoC5/DMASDSPI_1_SPIMaster.c **** *
1058:.\Generated_Source\PSoC5/DMASDSPI_1_SPIMaster.c **** * Return:
1059:.\Generated_Source\PSoC5/DMASDSPI_1_SPIMaster.c **** *  None.
1060:.\Generated_Source\PSoC5/DMASDSPI_1_SPIMaster.c **** *
1061:.\Generated_Source\PSoC5/DMASDSPI_1_SPIMaster.c **** * Theory:
1062:.\Generated_Source\PSoC5/DMASDSPI_1_SPIMaster.c **** *  Disable the internal interrupt output -or- the interrupt component itself.
1063:.\Generated_Source\PSoC5/DMASDSPI_1_SPIMaster.c **** *
1064:.\Generated_Source\PSoC5/DMASDSPI_1_SPIMaster.c **** *******************************************************************************/
1065:.\Generated_Source\PSoC5/DMASDSPI_1_SPIMaster.c **** void DMASDSPI_1_SPIMaster_DisableInt(void) 
1066:.\Generated_Source\PSoC5/DMASDSPI_1_SPIMaster.c **** {
 696              		.loc 1 1066 0
 697              		.cfi_startproc
 698              		@ args = 0, pretend = 0, frame = 0
 699              		@ frame_needed = 0, uses_anonymous_args = 0
 700              		@ link register save eliminated.
 701 0000 7047     		bx	lr
 702              		.cfi_endproc
 703              	.LFE21:
 704              		.size	DMASDSPI_1_SPIMaster_DisableInt, .-DMASDSPI_1_SPIMaster_DisableInt
 705 0002 00BF     		.section	.text.DMASDSPI_1_SPIMaster_SetInterruptMode,"ax",%progbits
 706              		.align	2
 707              		.global	DMASDSPI_1_SPIMaster_SetInterruptMode
 708              		.thumb
 709              		.thumb_func
 710              		.type	DMASDSPI_1_SPIMaster_SetInterruptMode, %function
 711              	DMASDSPI_1_SPIMaster_SetInterruptMode:
 712              	.LFB22:
1067:.\Generated_Source\PSoC5/DMASDSPI_1_SPIMaster.c ****     DMASDSPI_1_SPIMaster_DisableTxInt();
1068:.\Generated_Source\PSoC5/DMASDSPI_1_SPIMaster.c ****     DMASDSPI_1_SPIMaster_DisableRxInt();
1069:.\Generated_Source\PSoC5/DMASDSPI_1_SPIMaster.c **** }
1070:.\Generated_Source\PSoC5/DMASDSPI_1_SPIMaster.c **** 
1071:.\Generated_Source\PSoC5/DMASDSPI_1_SPIMaster.c **** 
1072:.\Generated_Source\PSoC5/DMASDSPI_1_SPIMaster.c **** /*******************************************************************************
1073:.\Generated_Source\PSoC5/DMASDSPI_1_SPIMaster.c **** * Function Name: DMASDSPI_1_SPIMaster_SetInterruptMode
1074:.\Generated_Source\PSoC5/DMASDSPI_1_SPIMaster.c **** ********************************************************************************
1075:.\Generated_Source\PSoC5/DMASDSPI_1_SPIMaster.c **** *
1076:.\Generated_Source\PSoC5/DMASDSPI_1_SPIMaster.c **** * Summary:
1077:.\Generated_Source\PSoC5/DMASDSPI_1_SPIMaster.c **** *  Configure which status bits trigger an interrupt event.
1078:.\Generated_Source\PSoC5/DMASDSPI_1_SPIMaster.c **** *
1079:.\Generated_Source\PSoC5/DMASDSPI_1_SPIMaster.c **** * Parameters:
1080:.\Generated_Source\PSoC5/DMASDSPI_1_SPIMaster.c **** *  intSrc: An or'd combination of the desired status bit masks (defined in the
1081:.\Generated_Source\PSoC5/DMASDSPI_1_SPIMaster.c **** *  header file).
1082:.\Generated_Source\PSoC5/DMASDSPI_1_SPIMaster.c **** *
1083:.\Generated_Source\PSoC5/DMASDSPI_1_SPIMaster.c **** * Return:
1084:.\Generated_Source\PSoC5/DMASDSPI_1_SPIMaster.c **** *  None.
1085:.\Generated_Source\PSoC5/DMASDSPI_1_SPIMaster.c **** *
1086:.\Generated_Source\PSoC5/DMASDSPI_1_SPIMaster.c **** * Theory:
1087:.\Generated_Source\PSoC5/DMASDSPI_1_SPIMaster.c **** *  Enables the output of specific status bits to the interrupt controller.
1088:.\Generated_Source\PSoC5/DMASDSPI_1_SPIMaster.c **** *
1089:.\Generated_Source\PSoC5/DMASDSPI_1_SPIMaster.c **** *******************************************************************************/
1090:.\Generated_Source\PSoC5/DMASDSPI_1_SPIMaster.c **** void DMASDSPI_1_SPIMaster_SetInterruptMode(uint8 intSrc) 
1091:.\Generated_Source\PSoC5/DMASDSPI_1_SPIMaster.c **** {
 713              		.loc 1 1091 0
 714              		.cfi_startproc
 715              		@ args = 0, pretend = 0, frame = 0
 716              		@ frame_needed = 0, uses_anonymous_args = 0
 717              		@ link register save eliminated.
ARM GAS  C:\Users\honet\AppData\Local\Temp\ccb11yRS.s 			page 33


 718              	.LVL30:
1092:.\Generated_Source\PSoC5/DMASDSPI_1_SPIMaster.c ****     DMASDSPI_1_SPIMaster_TX_STATUS_MASK_REG  = (intSrc & ((uint8) ~DMASDSPI_1_SPIMaster_STS_SPI_IDL
 719              		.loc 1 1092 0
 720 0000 00F0EF02 		and	r2, r0, #239
 721 0004 024B     		ldr	r3, .L74
 722 0006 1A70     		strb	r2, [r3]
1093:.\Generated_Source\PSoC5/DMASDSPI_1_SPIMaster.c ****     DMASDSPI_1_SPIMaster_RX_STATUS_MASK_REG  =  intSrc;
 723              		.loc 1 1093 0
 724 0008 013B     		subs	r3, r3, #1
 725 000a 1870     		strb	r0, [r3]
 726 000c 7047     		bx	lr
 727              	.L75:
 728 000e 00BF     		.align	2
 729              	.L74:
 730 0010 83640040 		.word	1073767555
 731              		.cfi_endproc
 732              	.LFE22:
 733              		.size	DMASDSPI_1_SPIMaster_SetInterruptMode, .-DMASDSPI_1_SPIMaster_SetInterruptMode
 734              		.section	.text.DMASDSPI_1_SPIMaster_ReadStatus,"ax",%progbits
 735              		.align	2
 736              		.global	DMASDSPI_1_SPIMaster_ReadStatus
 737              		.thumb
 738              		.thumb_func
 739              		.type	DMASDSPI_1_SPIMaster_ReadStatus, %function
 740              	DMASDSPI_1_SPIMaster_ReadStatus:
 741              	.LFB23:
1094:.\Generated_Source\PSoC5/DMASDSPI_1_SPIMaster.c **** }
1095:.\Generated_Source\PSoC5/DMASDSPI_1_SPIMaster.c **** 
1096:.\Generated_Source\PSoC5/DMASDSPI_1_SPIMaster.c **** 
1097:.\Generated_Source\PSoC5/DMASDSPI_1_SPIMaster.c **** /*******************************************************************************
1098:.\Generated_Source\PSoC5/DMASDSPI_1_SPIMaster.c **** * Function Name: DMASDSPI_1_SPIMaster_ReadStatus
1099:.\Generated_Source\PSoC5/DMASDSPI_1_SPIMaster.c **** ********************************************************************************
1100:.\Generated_Source\PSoC5/DMASDSPI_1_SPIMaster.c **** *
1101:.\Generated_Source\PSoC5/DMASDSPI_1_SPIMaster.c **** * Summary:
1102:.\Generated_Source\PSoC5/DMASDSPI_1_SPIMaster.c **** *  Read the status register for the component.
1103:.\Generated_Source\PSoC5/DMASDSPI_1_SPIMaster.c **** *
1104:.\Generated_Source\PSoC5/DMASDSPI_1_SPIMaster.c **** * Parameters:
1105:.\Generated_Source\PSoC5/DMASDSPI_1_SPIMaster.c **** *  None.
1106:.\Generated_Source\PSoC5/DMASDSPI_1_SPIMaster.c **** *
1107:.\Generated_Source\PSoC5/DMASDSPI_1_SPIMaster.c **** * Return:
1108:.\Generated_Source\PSoC5/DMASDSPI_1_SPIMaster.c **** *  Contents of the status register.
1109:.\Generated_Source\PSoC5/DMASDSPI_1_SPIMaster.c **** *
1110:.\Generated_Source\PSoC5/DMASDSPI_1_SPIMaster.c **** * Global variables:
1111:.\Generated_Source\PSoC5/DMASDSPI_1_SPIMaster.c **** *  DMASDSPI_1_SPIMaster_swStatus - used to store in software status register,
1112:.\Generated_Source\PSoC5/DMASDSPI_1_SPIMaster.c **** *  modified every function call - resets to zero.
1113:.\Generated_Source\PSoC5/DMASDSPI_1_SPIMaster.c **** *
1114:.\Generated_Source\PSoC5/DMASDSPI_1_SPIMaster.c **** * Theory:
1115:.\Generated_Source\PSoC5/DMASDSPI_1_SPIMaster.c **** *  Allows the user and the API to read the status register for error detection
1116:.\Generated_Source\PSoC5/DMASDSPI_1_SPIMaster.c **** *  and flow control.
1117:.\Generated_Source\PSoC5/DMASDSPI_1_SPIMaster.c **** *
1118:.\Generated_Source\PSoC5/DMASDSPI_1_SPIMaster.c **** * Side Effects:
1119:.\Generated_Source\PSoC5/DMASDSPI_1_SPIMaster.c **** *  Clear status register of the component.
1120:.\Generated_Source\PSoC5/DMASDSPI_1_SPIMaster.c **** *
1121:.\Generated_Source\PSoC5/DMASDSPI_1_SPIMaster.c **** * Reentrant:
1122:.\Generated_Source\PSoC5/DMASDSPI_1_SPIMaster.c **** *  No.
1123:.\Generated_Source\PSoC5/DMASDSPI_1_SPIMaster.c **** *
1124:.\Generated_Source\PSoC5/DMASDSPI_1_SPIMaster.c **** *******************************************************************************/
ARM GAS  C:\Users\honet\AppData\Local\Temp\ccb11yRS.s 			page 34


1125:.\Generated_Source\PSoC5/DMASDSPI_1_SPIMaster.c **** uint8 DMASDSPI_1_SPIMaster_ReadStatus(void) 
1126:.\Generated_Source\PSoC5/DMASDSPI_1_SPIMaster.c **** {
 742              		.loc 1 1126 0
 743              		.cfi_startproc
 744              		@ args = 0, pretend = 0, frame = 0
 745              		@ frame_needed = 0, uses_anonymous_args = 0
 746              		@ link register save eliminated.
1127:.\Generated_Source\PSoC5/DMASDSPI_1_SPIMaster.c ****     uint8 tmpStatus;
1128:.\Generated_Source\PSoC5/DMASDSPI_1_SPIMaster.c **** 
1129:.\Generated_Source\PSoC5/DMASDSPI_1_SPIMaster.c ****     #if(DMASDSPI_1_SPIMaster_TX_SOFTWARE_BUF_ENABLED || DMASDSPI_1_SPIMaster_RX_SOFTWARE_BUF_ENABLE
1130:.\Generated_Source\PSoC5/DMASDSPI_1_SPIMaster.c **** 
1131:.\Generated_Source\PSoC5/DMASDSPI_1_SPIMaster.c ****         DMASDSPI_1_SPIMaster_DisableInt();
1132:.\Generated_Source\PSoC5/DMASDSPI_1_SPIMaster.c **** 
1133:.\Generated_Source\PSoC5/DMASDSPI_1_SPIMaster.c ****         tmpStatus  = DMASDSPI_1_SPIMaster_GET_STATUS_RX(DMASDSPI_1_SPIMaster_swStatusRx);
1134:.\Generated_Source\PSoC5/DMASDSPI_1_SPIMaster.c ****         tmpStatus |= DMASDSPI_1_SPIMaster_GET_STATUS_TX(DMASDSPI_1_SPIMaster_swStatusTx);
1135:.\Generated_Source\PSoC5/DMASDSPI_1_SPIMaster.c ****         tmpStatus &= ((uint8) ~DMASDSPI_1_SPIMaster_STS_SPI_IDLE);
1136:.\Generated_Source\PSoC5/DMASDSPI_1_SPIMaster.c **** 
1137:.\Generated_Source\PSoC5/DMASDSPI_1_SPIMaster.c ****         DMASDSPI_1_SPIMaster_swStatusTx = 0u;
1138:.\Generated_Source\PSoC5/DMASDSPI_1_SPIMaster.c ****         DMASDSPI_1_SPIMaster_swStatusRx = 0u;
1139:.\Generated_Source\PSoC5/DMASDSPI_1_SPIMaster.c **** 
1140:.\Generated_Source\PSoC5/DMASDSPI_1_SPIMaster.c ****         DMASDSPI_1_SPIMaster_EnableInt();
1141:.\Generated_Source\PSoC5/DMASDSPI_1_SPIMaster.c **** 
1142:.\Generated_Source\PSoC5/DMASDSPI_1_SPIMaster.c ****     #else
1143:.\Generated_Source\PSoC5/DMASDSPI_1_SPIMaster.c **** 
1144:.\Generated_Source\PSoC5/DMASDSPI_1_SPIMaster.c ****         tmpStatus  = DMASDSPI_1_SPIMaster_RX_STATUS_REG;
 747              		.loc 1 1144 0
 748 0000 034B     		ldr	r3, .L77
 749 0002 1B78     		ldrb	r3, [r3]	@ zero_extendqisi2
 750              	.LVL31:
1145:.\Generated_Source\PSoC5/DMASDSPI_1_SPIMaster.c ****         tmpStatus |= DMASDSPI_1_SPIMaster_TX_STATUS_REG;
 751              		.loc 1 1145 0
 752 0004 034A     		ldr	r2, .L77+4
 753 0006 1078     		ldrb	r0, [r2]	@ zero_extendqisi2
 754 0008 1843     		orrs	r0, r0, r3
 755              	.LVL32:
1146:.\Generated_Source\PSoC5/DMASDSPI_1_SPIMaster.c ****         tmpStatus &= ((uint8) ~DMASDSPI_1_SPIMaster_STS_SPI_IDLE);
1147:.\Generated_Source\PSoC5/DMASDSPI_1_SPIMaster.c **** 
1148:.\Generated_Source\PSoC5/DMASDSPI_1_SPIMaster.c ****     #endif /* (DMASDSPI_1_SPIMaster_TX_SOFTWARE_BUF_ENABLED || DMASDSPI_1_SPIMaster_RX_SOFTWARE_BUF
1149:.\Generated_Source\PSoC5/DMASDSPI_1_SPIMaster.c **** 
1150:.\Generated_Source\PSoC5/DMASDSPI_1_SPIMaster.c ****     return(tmpStatus);
1151:.\Generated_Source\PSoC5/DMASDSPI_1_SPIMaster.c **** }
 756              		.loc 1 1151 0
 757 000a 00F0EF00 		and	r0, r0, #239
 758              	.LVL33:
 759 000e 7047     		bx	lr
 760              	.L78:
 761              		.align	2
 762              	.L77:
 763 0010 62640040 		.word	1073767522
 764 0014 63640040 		.word	1073767523
 765              		.cfi_endproc
 766              	.LFE23:
 767              		.size	DMASDSPI_1_SPIMaster_ReadStatus, .-DMASDSPI_1_SPIMaster_ReadStatus
 768              		.comm	DMASDSPI_1_SPIMaster_swStatusRx,1,1
 769              		.comm	DMASDSPI_1_SPIMaster_swStatusTx,1,1
 770              		.global	DMASDSPI_1_SPIMaster_initVar
 771              		.bss
ARM GAS  C:\Users\honet\AppData\Local\Temp\ccb11yRS.s 			page 35


 772              		.set	.LANCHOR0,. + 0
 773              		.type	DMASDSPI_1_SPIMaster_initVar, %object
 774              		.size	DMASDSPI_1_SPIMaster_initVar, 1
 775              	DMASDSPI_1_SPIMaster_initVar:
 776 0000 00       		.space	1
 777              		.text
 778              	.Letext0:
 779              		.file 2 ".\\Generated_Source\\PSoC5\\cytypes.h"
 780              		.file 3 ".\\Generated_Source\\PSoC5\\CyLib.h"