ARM GAS  C:\Users\honet\AppData\Local\Temp\ccWT9Ujf.s 			page 1


   1              		.syntax unified
   2              		.cpu cortex-m3
   3              		.fpu softvfp
   4              		.eabi_attribute 20, 1
   5              		.eabi_attribute 21, 1
   6              		.eabi_attribute 23, 3
   7              		.eabi_attribute 24, 1
   8              		.eabi_attribute 25, 1
   9              		.eabi_attribute 26, 1
  10              		.eabi_attribute 30, 6
  11              		.eabi_attribute 34, 1
  12              		.eabi_attribute 18, 4
  13              		.thumb
  14              		.file	"main.c"
  15              		.text
  16              	.Ltext0:
  17              		.cfi_sections	.debug_frame
  18              		.global	nmillis
  19              		.bss
  20              		.align	2
  21              		.type	nmillis, %object
  22              		.size	nmillis, 4
  23              	nmillis:
  24 0000 00000000 		.space	4
  25              		.section	.text.MillisISR,"ax",%progbits
  26              		.align	2
  27              		.global	MillisISR
  28              		.thumb
  29              		.thumb_func
  30              		.type	MillisISR, %function
  31              	MillisISR:
  32              	.LFB63:
  33              		.file 1 ".\\main.c"
   1:.\main.c      **** /* ========================================
   2:.\main.c      ****  *
   3:.\main.c      ****  * Copyright YOUR COMPANY, THE YEAR
   4:.\main.c      ****  * All Rights Reserved
   5:.\main.c      ****  * UNPUBLISHED, LICENSED SOFTWARE.
   6:.\main.c      ****  *
   7:.\main.c      ****  * CONFIDENTIAL AND PROPRIETARY INFORMATION
   8:.\main.c      ****  * WHICH IS THE PROPERTY OF your company.
   9:.\main.c      ****  *
  10:.\main.c      ****  * ========================================
  11:.\main.c      **** */
  12:.\main.c      **** #include <string.h>
  13:.\main.c      **** #include <stdio.h>
  14:.\main.c      **** #include "project.h"
  15:.\main.c      **** #include "SDSPI_api.h"
  16:.\main.c      **** #include "SDSPI_fatfs.h"
  17:.\main.c      **** 
  18:.\main.c      **** volatile unsigned long nmillis = 0; //used for time measurement
  19:.\main.c      **** 
  20:.\main.c      **** void MillisISR()
  21:.\main.c      **** {
  34              		.loc 1 21 0
  35              		.cfi_startproc
  36              		@ args = 0, pretend = 0, frame = 0
ARM GAS  C:\Users\honet\AppData\Local\Temp\ccWT9Ujf.s 			page 2


  37              		@ frame_needed = 1, uses_anonymous_args = 0
  38 0000 80B5     		push	{r7, lr}
  39              		.cfi_def_cfa_offset 8
  40              		.cfi_offset 7, -8
  41              		.cfi_offset 14, -4
  42 0002 00AF     		add	r7, sp, #0
  43              		.cfi_def_cfa_register 7
  22:.\main.c      ****     nmillis++;          //used for time measurements
  44              		.loc 1 22 0
  45 0004 034B     		ldr	r3, .L2
  46 0006 1B68     		ldr	r3, [r3]
  47 0008 0133     		adds	r3, r3, #1
  48 000a 024A     		ldr	r2, .L2
  49 000c 1360     		str	r3, [r2]
  23:.\main.c      ****     disk_timerproc();   //MUST attach this to 1kHz interrupt for file system timeouts to work
  50              		.loc 1 23 0
  51 000e FFF7FEFF 		bl	disk_timerproc
  24:.\main.c      **** }
  52              		.loc 1 24 0
  53 0012 80BD     		pop	{r7, pc}
  54              	.L3:
  55              		.align	2
  56              	.L2:
  57 0014 00000000 		.word	nmillis
  58              		.cfi_endproc
  59              	.LFE63:
  60              		.size	MillisISR, .-MillisISR
  61              		.section	.text.SDCARD_FAST,"ax",%progbits
  62              		.align	2
  63              		.global	SDCARD_FAST
  64              		.thumb
  65              		.thumb_func
  66              		.type	SDCARD_FAST, %function
  67              	SDCARD_FAST:
  68              	.LFB64:
  25:.\main.c      **** 
  26:.\main.c      **** void SDCARD_FAST()
  27:.\main.c      **** {
  69              		.loc 1 27 0
  70              		.cfi_startproc
  71              		@ args = 0, pretend = 0, frame = 0
  72              		@ frame_needed = 1, uses_anonymous_args = 0
  73 0000 80B5     		push	{r7, lr}
  74              		.cfi_def_cfa_offset 8
  75              		.cfi_offset 7, -8
  76              		.cfi_offset 14, -4
  77 0002 00AF     		add	r7, sp, #0
  78              		.cfi_def_cfa_register 7
  28:.\main.c      ****     SD_CLK_SetDivider(1); //This should work even at 79.5 MHz clock, giving (79.5/5) MHz bitrate
  79              		.loc 1 28 0
  80 0004 0120     		movs	r0, #1
  81 0006 0121     		movs	r1, #1
  82 0008 FFF7FEFF 		bl	SD_CLK_SetDividerRegister
  29:.\main.c      ****     //this can push up to 10.6 Mbps reads in my tests so far, and 5.3 Mbps writes (possibly faster 
  30:.\main.c      **** }
  83              		.loc 1 30 0
  84 000c 80BD     		pop	{r7, pc}
ARM GAS  C:\Users\honet\AppData\Local\Temp\ccWT9Ujf.s 			page 3


  85              		.cfi_endproc
  86              	.LFE64:
  87              		.size	SDCARD_FAST, .-SDCARD_FAST
  88 000e 00BF     		.section	.text.SDCARD_SLOW,"ax",%progbits
  89              		.align	2
  90              		.global	SDCARD_SLOW
  91              		.thumb
  92              		.thumb_func
  93              		.type	SDCARD_SLOW, %function
  94              	SDCARD_SLOW:
  95              	.LFB65:
  31:.\main.c      **** 
  32:.\main.c      **** void SDCARD_SLOW()
  33:.\main.c      **** {
  96              		.loc 1 33 0
  97              		.cfi_startproc
  98              		@ args = 0, pretend = 0, frame = 0
  99              		@ frame_needed = 1, uses_anonymous_args = 0
 100 0000 80B5     		push	{r7, lr}
 101              		.cfi_def_cfa_offset 8
 102              		.cfi_offset 7, -8
 103              		.cfi_offset 14, -4
 104 0002 00AF     		add	r7, sp, #0
 105              		.cfi_def_cfa_register 7
  34:.\main.c      ****     SD_CLK_SetDivider(200);   //SD card must be initialised at max. 400 kHz
 106              		.loc 1 34 0
 107 0004 C820     		movs	r0, #200
 108 0006 0121     		movs	r1, #1
 109 0008 FFF7FEFF 		bl	SD_CLK_SetDividerRegister
  35:.\main.c      **** }
 110              		.loc 1 35 0
 111 000c 80BD     		pop	{r7, pc}
 112              		.cfi_endproc
 113              	.LFE65:
 114              		.size	SDCARD_SLOW, .-SDCARD_SLOW
 115 000e 00BF     		.section	.text.PrintFxn,"ax",%progbits
 116              		.align	2
 117              		.global	PrintFxn
 118              		.thumb
 119              		.thumb_func
 120              		.type	PrintFxn, %function
 121              	PrintFxn:
 122              	.LFB66:
  36:.\main.c      **** 
  37:.\main.c      **** #define dbgprint(fmt, ...) \
  38:.\main.c      **** do{ \
  39:.\main.c      ****     char str[128]; \
  40:.\main.c      ****     sprintf(str, fmt, ## __VA_ARGS__); \
  41:.\main.c      ****     while(!USBUART_1_CDCIsReady()); \
  42:.\main.c      ****     USBUART_1_PutString(str); \
  43:.\main.c      **** }while(0)
  44:.\main.c      **** 
  45:.\main.c      **** void PrintFxn(char* pString)
  46:.\main.c      **** {
 123              		.loc 1 46 0
 124              		.cfi_startproc
 125              		@ args = 0, pretend = 0, frame = 8
ARM GAS  C:\Users\honet\AppData\Local\Temp\ccWT9Ujf.s 			page 4


 126              		@ frame_needed = 1, uses_anonymous_args = 0
 127              		@ link register save eliminated.
 128 0000 80B4     		push	{r7}
 129              		.cfi_def_cfa_offset 4
 130              		.cfi_offset 7, -4
 131 0002 83B0     		sub	sp, sp, #12
 132              		.cfi_def_cfa_offset 16
 133 0004 00AF     		add	r7, sp, #0
 134              		.cfi_def_cfa_register 7
 135 0006 7860     		str	r0, [r7, #4]
  47:.\main.c      **** }
 136              		.loc 1 47 0
 137 0008 0C37     		adds	r7, r7, #12
 138              		.cfi_def_cfa_offset 4
 139 000a BD46     		mov	sp, r7
 140              		.cfi_def_cfa_register 13
 141              		@ sp needed
 142 000c 5DF8047B 		ldr	r7, [sp], #4
 143              		.cfi_restore 7
 144              		.cfi_def_cfa_offset 0
 145 0010 7047     		bx	lr
 146              		.cfi_endproc
 147              	.LFE66:
 148              		.size	PrintFxn, .-PrintFxn
 149 0012 00BF     		.section	.rodata
 150              		.align	2
 151              	.LC0:
 152 0000 25732045 		.ascii	"%s ERR! res=\000"
 152      52522120 
 152      7265733D 
 152      00
 153 000d 000000   		.align	2
 154              	.LC1:
 155 0010 46525F4F 		.ascii	"FR_OK\000"
 155      4B00
 156 0016 0000     		.align	2
 157              	.LC2:
 158 0018 46525F44 		.ascii	"FR_DISK_ERR\000"
 158      49534B5F 
 158      45525200 
 159              		.align	2
 160              	.LC3:
 161 0024 46525F49 		.ascii	"FR_INT_ERR\000"
 161      4E545F45 
 161      525200
 162 002f 00       		.align	2
 163              	.LC4:
 164 0030 46525F4E 		.ascii	"FR_NOT_READY\000"
 164      4F545F52 
 164      45414459 
 164      00
 165 003d 000000   		.align	2
 166              	.LC5:
 167 0040 46525F4E 		.ascii	"FR_NO_FILE\000"
 167      4F5F4649 
 167      4C4500
 168 004b 00       		.align	2
ARM GAS  C:\Users\honet\AppData\Local\Temp\ccWT9Ujf.s 			page 5


 169              	.LC6:
 170 004c 46525F4E 		.ascii	"FR_NO_PATH\000"
 170      4F5F5041 
 170      544800
 171 0057 00       		.align	2
 172              	.LC7:
 173 0058 46525F49 		.ascii	"FR_INVALID_NAME\000"
 173      4E56414C 
 173      49445F4E 
 173      414D4500 
 174              		.align	2
 175              	.LC8:
 176 0068 46525F44 		.ascii	"FR_DENIED\000"
 176      454E4945 
 176      4400
 177 0072 0000     		.align	2
 178              	.LC9:
 179 0074 46525F45 		.ascii	"FR_EXIST\000"
 179      58495354 
 179      00
 180 007d 000000   		.align	2
 181              	.LC10:
 182 0080 46525F49 		.ascii	"FR_INVALID_OBJECT\000"
 182      4E56414C 
 182      49445F4F 
 182      424A4543 
 182      5400
 183 0092 0000     		.align	2
 184              	.LC11:
 185 0094 46525F57 		.ascii	"FR_WRITE_PROTECTED\000"
 185      52495445 
 185      5F50524F 
 185      54454354 
 185      454400
 186 00a7 00       		.align	2
 187              	.LC12:
 188 00a8 46525F49 		.ascii	"FR_INVALID_DRIVE\000"
 188      4E56414C 
 188      49445F44 
 188      52495645 
 188      00
 189 00b9 000000   		.align	2
 190              	.LC13:
 191 00bc 46525F4E 		.ascii	"FR_NOT_ENABLED\000"
 191      4F545F45 
 191      4E41424C 
 191      454400
 192 00cb 00       		.align	2
 193              	.LC14:
 194 00cc 46525F4E 		.ascii	"FR_NO_FILESYSTEM\000"
 194      4F5F4649 
 194      4C455359 
 194      5354454D 
 194      00
 195 00dd 000000   		.align	2
 196              	.LC15:
 197 00e0 46525F4D 		.ascii	"FR_MKFS_ABORTED\000"
ARM GAS  C:\Users\honet\AppData\Local\Temp\ccWT9Ujf.s 			page 6


 197      4B46535F 
 197      41424F52 
 197      54454400 
 198              		.align	2
 199              	.LC16:
 200 00f0 46525F54 		.ascii	"FR_TIMEOUT\000"
 200      494D454F 
 200      555400
 201 00fb 00       		.align	2
 202              	.LC17:
 203 00fc 46525F4C 		.ascii	"FR_LOCKED\000"
 203      4F434B45 
 203      4400
 204 0106 0000     		.align	2
 205              	.LC18:
 206 0108 46525F4E 		.ascii	"FR_NOT_ENOUGH_CORE\000"
 206      4F545F45 
 206      4E4F5547 
 206      485F434F 
 206      524500
 207 011b 00       		.align	2
 208              	.LC19:
 209 011c 46525F54 		.ascii	"FR_TOO_MANY_OPEN_FILES\000"
 209      4F4F5F4D 
 209      414E595F 
 209      4F50454E 
 209      5F46494C 
 210 0133 00       		.align	2
 211              	.LC20:
 212 0134 46525F49 		.ascii	"FR_INVALID_PARAMETER\000"
 212      4E56414C 
 212      49445F50 
 212      4152414D 
 212      45544552 
 213 0149 000000   		.align	2
 214              	.LC21:
 215 014c 256400   		.ascii	"%d\000"
 216              		.section	.text.chkres,"ax",%progbits
 217              		.align	2
 218              		.global	chkres
 219              		.thumb
 220              		.thumb_func
 221              		.type	chkres, %function
 222              	chkres:
 223              	.LFB67:
  48:.\main.c      **** 
  49:.\main.c      **** #define BUFFER_SIZE 16000   //Test buffer size. This will be read/written
  50:.\main.c      **** 
  51:.\main.c      **** void chkres(char *func, FRESULT exp){
 224              		.loc 1 51 0
 225              		.cfi_startproc
 226              		@ args = 0, pretend = 0, frame = 136
 227              		@ frame_needed = 1, uses_anonymous_args = 0
 228 0000 B0B5     		push	{r4, r5, r7, lr}
 229              		.cfi_def_cfa_offset 16
 230              		.cfi_offset 4, -16
 231              		.cfi_offset 5, -12
ARM GAS  C:\Users\honet\AppData\Local\Temp\ccWT9Ujf.s 			page 7


 232              		.cfi_offset 7, -8
 233              		.cfi_offset 14, -4
 234 0002 A2B0     		sub	sp, sp, #136
 235              		.cfi_def_cfa_offset 152
 236 0004 00AF     		add	r7, sp, #0
 237              		.cfi_def_cfa_register 7
 238 0006 7860     		str	r0, [r7, #4]
 239 0008 0B46     		mov	r3, r1
 240 000a FB70     		strb	r3, [r7, #3]
  52:.\main.c      **** 	if (exp!=FR_OK){
 241              		.loc 1 52 0
 242 000c FB78     		ldrb	r3, [r7, #3]	@ zero_extendqisi2
 243 000e 002B     		cmp	r3, #0
 244 0010 00F02E82 		beq	.L7
 245              	.LBB2:
  53:.\main.c      **** 		dbgprint("%s ERR! res=", func);
 246              		.loc 1 53 0
 247 0014 07F10803 		add	r3, r7, #8
 248 0018 1846     		mov	r0, r3
 249 001a C449     		ldr	r1, .L55
 250 001c 7A68     		ldr	r2, [r7, #4]
 251 001e FFF7FEFF 		bl	sprintf
 252 0022 00BF     		nop
 253              	.L9:
 254              		.loc 1 53 0 is_stmt 0 discriminator 2
 255 0024 FFF7FEFF 		bl	USBUART_1_CDCIsReady
 256 0028 0346     		mov	r3, r0
 257 002a 002B     		cmp	r3, #0
 258 002c FAD0     		beq	.L9
 259              		.loc 1 53 0 discriminator 3
 260 002e 07F10803 		add	r3, r7, #8
 261 0032 1846     		mov	r0, r3
 262 0034 FFF7FEFF 		bl	USBUART_1_PutString
 263              	.LBE2:
  54:.\main.c      **** 		switch(exp){
 264              		.loc 1 54 0 is_stmt 1 discriminator 3
 265 0038 FB78     		ldrb	r3, [r7, #3]	@ zero_extendqisi2
 266 003a 132B     		cmp	r3, #19
 267 003c 00F2F681 		bhi	.L10
 268 0040 01A2     		adr	r2, .L12
 269 0042 52F823F0 		ldr	pc, [r2, r3, lsl #2]
 270 0046 00BF     		.p2align 2
 271              	.L12:
 272 0048 99000000 		.word	.L11+1
 273 004c C1000000 		.word	.L13+1
 274 0050 E5000000 		.word	.L14+1
 275 0054 0F010000 		.word	.L15+1
 276 0058 37010000 		.word	.L16+1
 277 005c 61010000 		.word	.L17+1
 278 0060 8B010000 		.word	.L18+1
 279 0064 B3010000 		.word	.L19+1
 280 0068 D7010000 		.word	.L20+1
 281 006c FB010000 		.word	.L21+1
 282 0070 25020000 		.word	.L22+1
 283 0074 57020000 		.word	.L23+1
 284 0078 81020000 		.word	.L24+1
 285 007c AF020000 		.word	.L25+1
ARM GAS  C:\Users\honet\AppData\Local\Temp\ccWT9Ujf.s 			page 8


 286 0080 D9020000 		.word	.L26+1
 287 0084 01030000 		.word	.L27+1
 288 0088 71030000 		.word	.L28+1
 289 008c 95030000 		.word	.L29+1
 290 0090 C7030000 		.word	.L30+1
 291 0094 FD030000 		.word	.L31+1
 292              		.p2align 1
 293              	.L11:
 294              	.LBB3:
  55:.\main.c      **** 		case FR_OK: dbgprint("FR_OK"); break;
 295              		.loc 1 55 0
 296 0098 07F10803 		add	r3, r7, #8
 297 009c A44A     		ldr	r2, .L55+4
 298 009e 92E80300 		ldmia	r2, {r0, r1}
 299 00a2 1860     		str	r0, [r3]
 300 00a4 0433     		adds	r3, r3, #4
 301 00a6 1980     		strh	r1, [r3]	@ movhi
 302 00a8 00BF     		nop
 303              	.L32:
 304              		.loc 1 55 0 is_stmt 0 discriminator 2
 305 00aa FFF7FEFF 		bl	USBUART_1_CDCIsReady
 306 00ae 0346     		mov	r3, r0
 307 00b0 002B     		cmp	r3, #0
 308 00b2 FAD0     		beq	.L32
 309              		.loc 1 55 0 discriminator 3
 310 00b4 07F10803 		add	r3, r7, #8
 311 00b8 1846     		mov	r0, r3
 312 00ba FFF7FEFF 		bl	USBUART_1_PutString
 313              	.LBE3:
 314 00be C8E1     		b	.L33
 315              	.L13:
 316              	.LBB4:
  56:.\main.c      **** 		case FR_DISK_ERR: dbgprint("FR_DISK_ERR"); break;
 317              		.loc 1 56 0 is_stmt 1
 318 00c0 07F10803 		add	r3, r7, #8
 319 00c4 9B4A     		ldr	r2, .L55+8
 320 00c6 07CA     		ldmia	r2, {r0, r1, r2}
 321 00c8 83E80700 		stmia	r3, {r0, r1, r2}
 322 00cc 00BF     		nop
 323              	.L34:
 324              		.loc 1 56 0 is_stmt 0 discriminator 2
 325 00ce FFF7FEFF 		bl	USBUART_1_CDCIsReady
 326 00d2 0346     		mov	r3, r0
 327 00d4 002B     		cmp	r3, #0
 328 00d6 FAD0     		beq	.L34
 329              		.loc 1 56 0 discriminator 3
 330 00d8 07F10803 		add	r3, r7, #8
 331 00dc 1846     		mov	r0, r3
 332 00de FFF7FEFF 		bl	USBUART_1_PutString
 333              	.LBE4:
 334 00e2 B6E1     		b	.L33
 335              	.L14:
 336              	.LBB5:
  57:.\main.c      **** 		case FR_INT_ERR: dbgprint("FR_INT_ERR"); break;
 337              		.loc 1 57 0 is_stmt 1
 338 00e4 07F10803 		add	r3, r7, #8
 339 00e8 934A     		ldr	r2, .L55+12
ARM GAS  C:\Users\honet\AppData\Local\Temp\ccWT9Ujf.s 			page 9


 340 00ea 07CA     		ldmia	r2, {r0, r1, r2}
 341 00ec 03C3     		stmia	r3!, {r0, r1}
 342 00ee 1A80     		strh	r2, [r3]	@ movhi
 343 00f0 0233     		adds	r3, r3, #2
 344 00f2 120C     		lsrs	r2, r2, #16
 345 00f4 1A70     		strb	r2, [r3]
 346 00f6 00BF     		nop
 347              	.L35:
 348              		.loc 1 57 0 is_stmt 0 discriminator 2
 349 00f8 FFF7FEFF 		bl	USBUART_1_CDCIsReady
 350 00fc 0346     		mov	r3, r0
 351 00fe 002B     		cmp	r3, #0
 352 0100 FAD0     		beq	.L35
 353              		.loc 1 57 0 discriminator 3
 354 0102 07F10803 		add	r3, r7, #8
 355 0106 1846     		mov	r0, r3
 356 0108 FFF7FEFF 		bl	USBUART_1_PutString
 357              	.LBE5:
 358 010c A1E1     		b	.L33
 359              	.L15:
 360              	.LBB6:
  58:.\main.c      **** 		case FR_NOT_READY: dbgprint("FR_NOT_READY"); break;
 361              		.loc 1 58 0 is_stmt 1
 362 010e 07F10803 		add	r3, r7, #8
 363 0112 8A4A     		ldr	r2, .L55+16
 364 0114 1C46     		mov	r4, r3
 365 0116 1346     		mov	r3, r2
 366 0118 0FCB     		ldmia	r3, {r0, r1, r2, r3}
 367 011a 07C4     		stmia	r4!, {r0, r1, r2}
 368 011c 2370     		strb	r3, [r4]
 369 011e 00BF     		nop
 370              	.L36:
 371              		.loc 1 58 0 is_stmt 0 discriminator 2
 372 0120 FFF7FEFF 		bl	USBUART_1_CDCIsReady
 373 0124 0346     		mov	r3, r0
 374 0126 002B     		cmp	r3, #0
 375 0128 FAD0     		beq	.L36
 376              		.loc 1 58 0 discriminator 3
 377 012a 07F10803 		add	r3, r7, #8
 378 012e 1846     		mov	r0, r3
 379 0130 FFF7FEFF 		bl	USBUART_1_PutString
 380              	.LBE6:
 381 0134 8DE1     		b	.L33
 382              	.L16:
 383              	.LBB7:
  59:.\main.c      **** 		case FR_NO_FILE: dbgprint("FR_NO_FILE"); break;
 384              		.loc 1 59 0 is_stmt 1
 385 0136 07F10803 		add	r3, r7, #8
 386 013a 814A     		ldr	r2, .L55+20
 387 013c 07CA     		ldmia	r2, {r0, r1, r2}
 388 013e 03C3     		stmia	r3!, {r0, r1}
 389 0140 1A80     		strh	r2, [r3]	@ movhi
 390 0142 0233     		adds	r3, r3, #2
 391 0144 120C     		lsrs	r2, r2, #16
 392 0146 1A70     		strb	r2, [r3]
 393 0148 00BF     		nop
 394              	.L37:
ARM GAS  C:\Users\honet\AppData\Local\Temp\ccWT9Ujf.s 			page 10


 395              		.loc 1 59 0 is_stmt 0 discriminator 2
 396 014a FFF7FEFF 		bl	USBUART_1_CDCIsReady
 397 014e 0346     		mov	r3, r0
 398 0150 002B     		cmp	r3, #0
 399 0152 FAD0     		beq	.L37
 400              		.loc 1 59 0 discriminator 3
 401 0154 07F10803 		add	r3, r7, #8
 402 0158 1846     		mov	r0, r3
 403 015a FFF7FEFF 		bl	USBUART_1_PutString
 404              	.LBE7:
 405 015e 78E1     		b	.L33
 406              	.L17:
 407              	.LBB8:
  60:.\main.c      **** 		case FR_NO_PATH: dbgprint("FR_NO_PATH"); break;
 408              		.loc 1 60 0 is_stmt 1
 409 0160 07F10803 		add	r3, r7, #8
 410 0164 774A     		ldr	r2, .L55+24
 411 0166 07CA     		ldmia	r2, {r0, r1, r2}
 412 0168 03C3     		stmia	r3!, {r0, r1}
 413 016a 1A80     		strh	r2, [r3]	@ movhi
 414 016c 0233     		adds	r3, r3, #2
 415 016e 120C     		lsrs	r2, r2, #16
 416 0170 1A70     		strb	r2, [r3]
 417 0172 00BF     		nop
 418              	.L38:
 419              		.loc 1 60 0 is_stmt 0 discriminator 2
 420 0174 FFF7FEFF 		bl	USBUART_1_CDCIsReady
 421 0178 0346     		mov	r3, r0
 422 017a 002B     		cmp	r3, #0
 423 017c FAD0     		beq	.L38
 424              		.loc 1 60 0 discriminator 3
 425 017e 07F10803 		add	r3, r7, #8
 426 0182 1846     		mov	r0, r3
 427 0184 FFF7FEFF 		bl	USBUART_1_PutString
 428              	.LBE8:
 429 0188 63E1     		b	.L33
 430              	.L18:
 431              	.LBB9:
  61:.\main.c      **** 		case FR_INVALID_NAME: dbgprint("FR_INVALID_NAME"); break;
 432              		.loc 1 61 0 is_stmt 1
 433 018a 07F10803 		add	r3, r7, #8
 434 018e 6E4A     		ldr	r2, .L55+28
 435 0190 1C46     		mov	r4, r3
 436 0192 1346     		mov	r3, r2
 437 0194 0FCB     		ldmia	r3, {r0, r1, r2, r3}
 438 0196 84E80F00 		stmia	r4, {r0, r1, r2, r3}
 439 019a 00BF     		nop
 440              	.L39:
 441              		.loc 1 61 0 is_stmt 0 discriminator 2
 442 019c FFF7FEFF 		bl	USBUART_1_CDCIsReady
 443 01a0 0346     		mov	r3, r0
 444 01a2 002B     		cmp	r3, #0
 445 01a4 FAD0     		beq	.L39
 446              		.loc 1 61 0 discriminator 3
 447 01a6 07F10803 		add	r3, r7, #8
 448 01aa 1846     		mov	r0, r3
 449 01ac FFF7FEFF 		bl	USBUART_1_PutString
ARM GAS  C:\Users\honet\AppData\Local\Temp\ccWT9Ujf.s 			page 11


 450              	.LBE9:
 451 01b0 4FE1     		b	.L33
 452              	.L19:
 453              	.LBB10:
  62:.\main.c      **** 		case FR_DENIED: dbgprint("FR_DENIED"); break;
 454              		.loc 1 62 0 is_stmt 1
 455 01b2 07F10803 		add	r3, r7, #8
 456 01b6 654A     		ldr	r2, .L55+32
 457 01b8 07CA     		ldmia	r2, {r0, r1, r2}
 458 01ba 03C3     		stmia	r3!, {r0, r1}
 459 01bc 1A80     		strh	r2, [r3]	@ movhi
 460 01be 00BF     		nop
 461              	.L40:
 462              		.loc 1 62 0 is_stmt 0 discriminator 2
 463 01c0 FFF7FEFF 		bl	USBUART_1_CDCIsReady
 464 01c4 0346     		mov	r3, r0
 465 01c6 002B     		cmp	r3, #0
 466 01c8 FAD0     		beq	.L40
 467              		.loc 1 62 0 discriminator 3
 468 01ca 07F10803 		add	r3, r7, #8
 469 01ce 1846     		mov	r0, r3
 470 01d0 FFF7FEFF 		bl	USBUART_1_PutString
 471              	.LBE10:
 472 01d4 3DE1     		b	.L33
 473              	.L20:
 474              	.LBB11:
  63:.\main.c      **** 		case FR_EXIST: dbgprint("FR_EXIST"); break;
 475              		.loc 1 63 0 is_stmt 1
 476 01d6 07F10803 		add	r3, r7, #8
 477 01da 5D4A     		ldr	r2, .L55+36
 478 01dc 07CA     		ldmia	r2, {r0, r1, r2}
 479 01de 03C3     		stmia	r3!, {r0, r1}
 480 01e0 1A70     		strb	r2, [r3]
 481 01e2 00BF     		nop
 482              	.L41:
 483              		.loc 1 63 0 is_stmt 0 discriminator 2
 484 01e4 FFF7FEFF 		bl	USBUART_1_CDCIsReady
 485 01e8 0346     		mov	r3, r0
 486 01ea 002B     		cmp	r3, #0
 487 01ec FAD0     		beq	.L41
 488              		.loc 1 63 0 discriminator 3
 489 01ee 07F10803 		add	r3, r7, #8
 490 01f2 1846     		mov	r0, r3
 491 01f4 FFF7FEFF 		bl	USBUART_1_PutString
 492              	.LBE11:
 493 01f8 2BE1     		b	.L33
 494              	.L21:
 495              	.LBB12:
  64:.\main.c      **** 		case FR_INVALID_OBJECT: dbgprint("FR_INVALID_OBJECT"); break;
 496              		.loc 1 64 0 is_stmt 1
 497 01fa 07F10803 		add	r3, r7, #8
 498 01fe 554A     		ldr	r2, .L55+40
 499 0200 1C46     		mov	r4, r3
 500 0202 1546     		mov	r5, r2
 501 0204 0FCD     		ldmia	r5!, {r0, r1, r2, r3}
 502 0206 0FC4     		stmia	r4!, {r0, r1, r2, r3}
 503 0208 2B68     		ldr	r3, [r5]
ARM GAS  C:\Users\honet\AppData\Local\Temp\ccWT9Ujf.s 			page 12


 504 020a 2380     		strh	r3, [r4]	@ movhi
 505 020c 00BF     		nop
 506              	.L42:
 507              		.loc 1 64 0 is_stmt 0 discriminator 2
 508 020e FFF7FEFF 		bl	USBUART_1_CDCIsReady
 509 0212 0346     		mov	r3, r0
 510 0214 002B     		cmp	r3, #0
 511 0216 FAD0     		beq	.L42
 512              		.loc 1 64 0 discriminator 3
 513 0218 07F10803 		add	r3, r7, #8
 514 021c 1846     		mov	r0, r3
 515 021e FFF7FEFF 		bl	USBUART_1_PutString
 516              	.LBE12:
 517 0222 16E1     		b	.L33
 518              	.L22:
 519              	.LBB13:
  65:.\main.c      **** 		case FR_WRITE_PROTECTED: dbgprint("FR_WRITE_PROTECTED"); break;
 520              		.loc 1 65 0 is_stmt 1
 521 0224 07F10803 		add	r3, r7, #8
 522 0228 4B4A     		ldr	r2, .L55+44
 523 022a 1C46     		mov	r4, r3
 524 022c 1546     		mov	r5, r2
 525 022e 0FCD     		ldmia	r5!, {r0, r1, r2, r3}
 526 0230 0FC4     		stmia	r4!, {r0, r1, r2, r3}
 527 0232 2B68     		ldr	r3, [r5]
 528 0234 1A46     		mov	r2, r3	@ movhi
 529 0236 2280     		strh	r2, [r4]	@ movhi
 530 0238 0234     		adds	r4, r4, #2
 531 023a 1B0C     		lsrs	r3, r3, #16
 532 023c 2370     		strb	r3, [r4]
 533 023e 00BF     		nop
 534              	.L43:
 535              		.loc 1 65 0 is_stmt 0 discriminator 2
 536 0240 FFF7FEFF 		bl	USBUART_1_CDCIsReady
 537 0244 0346     		mov	r3, r0
 538 0246 002B     		cmp	r3, #0
 539 0248 FAD0     		beq	.L43
 540              		.loc 1 65 0 discriminator 3
 541 024a 07F10803 		add	r3, r7, #8
 542 024e 1846     		mov	r0, r3
 543 0250 FFF7FEFF 		bl	USBUART_1_PutString
 544              	.LBE13:
 545 0254 FDE0     		b	.L33
 546              	.L23:
 547              	.LBB14:
  66:.\main.c      **** 		case FR_INVALID_DRIVE: dbgprint("FR_INVALID_DRIVE"); break;
 548              		.loc 1 66 0 is_stmt 1
 549 0256 07F10803 		add	r3, r7, #8
 550 025a 404A     		ldr	r2, .L55+48
 551 025c 1C46     		mov	r4, r3
 552 025e 1546     		mov	r5, r2
 553 0260 0FCD     		ldmia	r5!, {r0, r1, r2, r3}
 554 0262 0FC4     		stmia	r4!, {r0, r1, r2, r3}
 555 0264 2B68     		ldr	r3, [r5]
 556 0266 2370     		strb	r3, [r4]
 557 0268 00BF     		nop
 558              	.L44:
ARM GAS  C:\Users\honet\AppData\Local\Temp\ccWT9Ujf.s 			page 13


 559              		.loc 1 66 0 is_stmt 0 discriminator 2
 560 026a FFF7FEFF 		bl	USBUART_1_CDCIsReady
 561 026e 0346     		mov	r3, r0
 562 0270 002B     		cmp	r3, #0
 563 0272 FAD0     		beq	.L44
 564              		.loc 1 66 0 discriminator 3
 565 0274 07F10803 		add	r3, r7, #8
 566 0278 1846     		mov	r0, r3
 567 027a FFF7FEFF 		bl	USBUART_1_PutString
 568              	.LBE14:
 569 027e E8E0     		b	.L33
 570              	.L24:
 571              	.LBB15:
  67:.\main.c      **** 		case FR_NOT_ENABLED: dbgprint("FR_NOT_ENABLED"); break;
 572              		.loc 1 67 0 is_stmt 1
 573 0280 07F10803 		add	r3, r7, #8
 574 0284 364A     		ldr	r2, .L55+52
 575 0286 1C46     		mov	r4, r3
 576 0288 1346     		mov	r3, r2
 577 028a 0FCB     		ldmia	r3, {r0, r1, r2, r3}
 578 028c 07C4     		stmia	r4!, {r0, r1, r2}
 579 028e 2380     		strh	r3, [r4]	@ movhi
 580 0290 0234     		adds	r4, r4, #2
 581 0292 1B0C     		lsrs	r3, r3, #16
 582 0294 2370     		strb	r3, [r4]
 583 0296 00BF     		nop
 584              	.L45:
 585              		.loc 1 67 0 is_stmt 0 discriminator 2
 586 0298 FFF7FEFF 		bl	USBUART_1_CDCIsReady
 587 029c 0346     		mov	r3, r0
 588 029e 002B     		cmp	r3, #0
 589 02a0 FAD0     		beq	.L45
 590              		.loc 1 67 0 discriminator 3
 591 02a2 07F10803 		add	r3, r7, #8
 592 02a6 1846     		mov	r0, r3
 593 02a8 FFF7FEFF 		bl	USBUART_1_PutString
 594              	.LBE15:
 595 02ac D1E0     		b	.L33
 596              	.L25:
 597              	.LBB16:
  68:.\main.c      **** 		case FR_NO_FILESYSTEM: dbgprint("FR_NO_FILESYSTEM"); break;
 598              		.loc 1 68 0 is_stmt 1
 599 02ae 07F10803 		add	r3, r7, #8
 600 02b2 2C4A     		ldr	r2, .L55+56
 601 02b4 1C46     		mov	r4, r3
 602 02b6 1546     		mov	r5, r2
 603 02b8 0FCD     		ldmia	r5!, {r0, r1, r2, r3}
 604 02ba 0FC4     		stmia	r4!, {r0, r1, r2, r3}
 605 02bc 2B68     		ldr	r3, [r5]
 606 02be 2370     		strb	r3, [r4]
 607 02c0 00BF     		nop
 608              	.L46:
 609              		.loc 1 68 0 is_stmt 0 discriminator 2
 610 02c2 FFF7FEFF 		bl	USBUART_1_CDCIsReady
 611 02c6 0346     		mov	r3, r0
 612 02c8 002B     		cmp	r3, #0
 613 02ca FAD0     		beq	.L46
ARM GAS  C:\Users\honet\AppData\Local\Temp\ccWT9Ujf.s 			page 14


 614              		.loc 1 68 0 discriminator 3
 615 02cc 07F10803 		add	r3, r7, #8
 616 02d0 1846     		mov	r0, r3
 617 02d2 FFF7FEFF 		bl	USBUART_1_PutString
 618              	.LBE16:
 619 02d6 BCE0     		b	.L33
 620              	.L26:
 621              	.LBB17:
  69:.\main.c      **** 		case FR_MKFS_ABORTED: dbgprint("FR_MKFS_ABORTED"); break;
 622              		.loc 1 69 0 is_stmt 1
 623 02d8 07F10803 		add	r3, r7, #8
 624 02dc 224A     		ldr	r2, .L55+60
 625 02de 1C46     		mov	r4, r3
 626 02e0 1346     		mov	r3, r2
 627 02e2 0FCB     		ldmia	r3, {r0, r1, r2, r3}
 628 02e4 84E80F00 		stmia	r4, {r0, r1, r2, r3}
 629 02e8 00BF     		nop
 630              	.L47:
 631              		.loc 1 69 0 is_stmt 0 discriminator 2
 632 02ea FFF7FEFF 		bl	USBUART_1_CDCIsReady
 633 02ee 0346     		mov	r3, r0
 634 02f0 002B     		cmp	r3, #0
 635 02f2 FAD0     		beq	.L47
 636              		.loc 1 69 0 discriminator 3
 637 02f4 07F10803 		add	r3, r7, #8
 638 02f8 1846     		mov	r0, r3
 639 02fa FFF7FEFF 		bl	USBUART_1_PutString
 640              	.LBE17:
 641 02fe A8E0     		b	.L33
 642              	.L27:
 643              	.LBB18:
  70:.\main.c      **** 		case FR_TIMEOUT: dbgprint("FR_TIMEOUT"); break;
 644              		.loc 1 70 0 is_stmt 1
 645 0300 07F10803 		add	r3, r7, #8
 646 0304 194A     		ldr	r2, .L55+64
 647 0306 07CA     		ldmia	r2, {r0, r1, r2}
 648 0308 03C3     		stmia	r3!, {r0, r1}
 649 030a 1A80     		strh	r2, [r3]	@ movhi
 650 030c 0233     		adds	r3, r3, #2
 651 030e 120C     		lsrs	r2, r2, #16
 652 0310 1A70     		strb	r2, [r3]
 653 0312 00BF     		nop
 654              	.L48:
 655              		.loc 1 70 0 is_stmt 0 discriminator 2
 656 0314 FFF7FEFF 		bl	USBUART_1_CDCIsReady
 657 0318 0346     		mov	r3, r0
 658 031a 002B     		cmp	r3, #0
 659 031c FAD0     		beq	.L48
 660              		.loc 1 70 0 discriminator 3
 661 031e 07F10803 		add	r3, r7, #8
 662 0322 1846     		mov	r0, r3
 663 0324 FFF7FEFF 		bl	USBUART_1_PutString
 664              	.LBE18:
 665 0328 93E0     		b	.L33
 666              	.L56:
 667 032a 00BF     		.align	2
 668              	.L55:
ARM GAS  C:\Users\honet\AppData\Local\Temp\ccWT9Ujf.s 			page 15


 669 032c 00000000 		.word	.LC0
 670 0330 10000000 		.word	.LC1
 671 0334 18000000 		.word	.LC2
 672 0338 24000000 		.word	.LC3
 673 033c 30000000 		.word	.LC4
 674 0340 40000000 		.word	.LC5
 675 0344 4C000000 		.word	.LC6
 676 0348 58000000 		.word	.LC7
 677 034c 68000000 		.word	.LC8
 678 0350 74000000 		.word	.LC9
 679 0354 80000000 		.word	.LC10
 680 0358 94000000 		.word	.LC11
 681 035c A8000000 		.word	.LC12
 682 0360 BC000000 		.word	.LC13
 683 0364 CC000000 		.word	.LC14
 684 0368 E0000000 		.word	.LC15
 685 036c F0000000 		.word	.LC16
 686              	.L28:
 687              	.LBB19:
  71:.\main.c      **** 		case FR_LOCKED: dbgprint("FR_LOCKED"); break;
 688              		.loc 1 71 0 is_stmt 1
 689 0370 07F10803 		add	r3, r7, #8
 690 0374 404A     		ldr	r2, .L57
 691 0376 07CA     		ldmia	r2, {r0, r1, r2}
 692 0378 03C3     		stmia	r3!, {r0, r1}
 693 037a 1A80     		strh	r2, [r3]	@ movhi
 694 037c 00BF     		nop
 695              	.L49:
 696              		.loc 1 71 0 is_stmt 0 discriminator 2
 697 037e FFF7FEFF 		bl	USBUART_1_CDCIsReady
 698 0382 0346     		mov	r3, r0
 699 0384 002B     		cmp	r3, #0
 700 0386 FAD0     		beq	.L49
 701              		.loc 1 71 0 discriminator 3
 702 0388 07F10803 		add	r3, r7, #8
 703 038c 1846     		mov	r0, r3
 704 038e FFF7FEFF 		bl	USBUART_1_PutString
 705              	.LBE19:
 706 0392 5EE0     		b	.L33
 707              	.L29:
 708              	.LBB20:
  72:.\main.c      **** 		case FR_NOT_ENOUGH_CORE: dbgprint("FR_NOT_ENOUGH_CORE"); break;
 709              		.loc 1 72 0 is_stmt 1
 710 0394 07F10803 		add	r3, r7, #8
 711 0398 384A     		ldr	r2, .L57+4
 712 039a 1C46     		mov	r4, r3
 713 039c 1546     		mov	r5, r2
 714 039e 0FCD     		ldmia	r5!, {r0, r1, r2, r3}
 715 03a0 0FC4     		stmia	r4!, {r0, r1, r2, r3}
 716 03a2 2B68     		ldr	r3, [r5]
 717 03a4 1A46     		mov	r2, r3	@ movhi
 718 03a6 2280     		strh	r2, [r4]	@ movhi
 719 03a8 0234     		adds	r4, r4, #2
 720 03aa 1B0C     		lsrs	r3, r3, #16
 721 03ac 2370     		strb	r3, [r4]
 722 03ae 00BF     		nop
 723              	.L50:
ARM GAS  C:\Users\honet\AppData\Local\Temp\ccWT9Ujf.s 			page 16


 724              		.loc 1 72 0 is_stmt 0 discriminator 2
 725 03b0 FFF7FEFF 		bl	USBUART_1_CDCIsReady
 726 03b4 0346     		mov	r3, r0
 727 03b6 002B     		cmp	r3, #0
 728 03b8 FAD0     		beq	.L50
 729              		.loc 1 72 0 discriminator 3
 730 03ba 07F10803 		add	r3, r7, #8
 731 03be 1846     		mov	r0, r3
 732 03c0 FFF7FEFF 		bl	USBUART_1_PutString
 733              	.LBE20:
 734 03c4 45E0     		b	.L33
 735              	.L30:
 736              	.LBB21:
  73:.\main.c      **** 		case FR_TOO_MANY_OPEN_FILES: dbgprint("FR_TOO_MANY_OPEN_FILES"); break;
 737              		.loc 1 73 0 is_stmt 1
 738 03c6 07F10803 		add	r3, r7, #8
 739 03ca 2D4A     		ldr	r2, .L57+8
 740 03cc 1C46     		mov	r4, r3
 741 03ce 1546     		mov	r5, r2
 742 03d0 0FCD     		ldmia	r5!, {r0, r1, r2, r3}
 743 03d2 0FC4     		stmia	r4!, {r0, r1, r2, r3}
 744 03d4 95E80300 		ldmia	r5, {r0, r1}
 745 03d8 2060     		str	r0, [r4]
 746 03da 0434     		adds	r4, r4, #4
 747 03dc 2180     		strh	r1, [r4]	@ movhi
 748 03de 0234     		adds	r4, r4, #2
 749 03e0 0B0C     		lsrs	r3, r1, #16
 750 03e2 2370     		strb	r3, [r4]
 751 03e4 00BF     		nop
 752              	.L51:
 753              		.loc 1 73 0 is_stmt 0 discriminator 2
 754 03e6 FFF7FEFF 		bl	USBUART_1_CDCIsReady
 755 03ea 0346     		mov	r3, r0
 756 03ec 002B     		cmp	r3, #0
 757 03ee FAD0     		beq	.L51
 758              		.loc 1 73 0 discriminator 3
 759 03f0 07F10803 		add	r3, r7, #8
 760 03f4 1846     		mov	r0, r3
 761 03f6 FFF7FEFF 		bl	USBUART_1_PutString
 762              	.LBE21:
 763 03fa 2AE0     		b	.L33
 764              	.L31:
 765              	.LBB22:
  74:.\main.c      **** 		case FR_INVALID_PARAMETER: dbgprint("FR_INVALID_PARAMETER"); break;
 766              		.loc 1 74 0 is_stmt 1
 767 03fc 07F10803 		add	r3, r7, #8
 768 0400 204A     		ldr	r2, .L57+12
 769 0402 1C46     		mov	r4, r3
 770 0404 1546     		mov	r5, r2
 771 0406 0FCD     		ldmia	r5!, {r0, r1, r2, r3}
 772 0408 0FC4     		stmia	r4!, {r0, r1, r2, r3}
 773 040a 95E80300 		ldmia	r5, {r0, r1}
 774 040e 2060     		str	r0, [r4]
 775 0410 0434     		adds	r4, r4, #4
 776 0412 2170     		strb	r1, [r4]
 777 0414 00BF     		nop
 778              	.L52:
ARM GAS  C:\Users\honet\AppData\Local\Temp\ccWT9Ujf.s 			page 17


 779              		.loc 1 74 0 is_stmt 0 discriminator 2
 780 0416 FFF7FEFF 		bl	USBUART_1_CDCIsReady
 781 041a 0346     		mov	r3, r0
 782 041c 002B     		cmp	r3, #0
 783 041e FAD0     		beq	.L52
 784              		.loc 1 74 0 discriminator 3
 785 0420 07F10803 		add	r3, r7, #8
 786 0424 1846     		mov	r0, r3
 787 0426 FFF7FEFF 		bl	USBUART_1_PutString
 788              	.LBE22:
 789 042a 12E0     		b	.L33
 790              	.L10:
 791              	.LBB23:
  75:.\main.c      **** 		default: dbgprint("%d", exp);
 792              		.loc 1 75 0 is_stmt 1
 793 042c FB78     		ldrb	r3, [r7, #3]	@ zero_extendqisi2
 794 042e 07F10802 		add	r2, r7, #8
 795 0432 1046     		mov	r0, r2
 796 0434 1449     		ldr	r1, .L57+16
 797 0436 1A46     		mov	r2, r3
 798 0438 FFF7FEFF 		bl	sprintf
 799 043c 00BF     		nop
 800              	.L53:
 801              		.loc 1 75 0 is_stmt 0 discriminator 2
 802 043e FFF7FEFF 		bl	USBUART_1_CDCIsReady
 803 0442 0346     		mov	r3, r0
 804 0444 002B     		cmp	r3, #0
 805 0446 FAD0     		beq	.L53
 806              		.loc 1 75 0 discriminator 3
 807 0448 07F10803 		add	r3, r7, #8
 808 044c 1846     		mov	r0, r3
 809 044e FFF7FEFF 		bl	USBUART_1_PutString
 810              	.L33:
 811              	.LBE23:
 812              	.LBB24:
  76:.\main.c      **** 		}
  77:.\main.c      **** 		dbgprint("\n");
 813              		.loc 1 77 0 is_stmt 1
 814 0452 07F10803 		add	r3, r7, #8
 815 0456 0A22     		movs	r2, #10
 816 0458 1A80     		strh	r2, [r3]	@ movhi
 817 045a 00BF     		nop
 818              	.L54:
 819              		.loc 1 77 0 is_stmt 0 discriminator 2
 820 045c FFF7FEFF 		bl	USBUART_1_CDCIsReady
 821 0460 0346     		mov	r3, r0
 822 0462 002B     		cmp	r3, #0
 823 0464 FAD0     		beq	.L54
 824              		.loc 1 77 0 discriminator 3
 825 0466 07F10803 		add	r3, r7, #8
 826 046a 1846     		mov	r0, r3
 827 046c FFF7FEFF 		bl	USBUART_1_PutString
 828              	.L7:
 829              	.LBE24:
  78:.\main.c      **** 	}
  79:.\main.c      **** }
 830              		.loc 1 79 0 is_stmt 1
ARM GAS  C:\Users\honet\AppData\Local\Temp\ccWT9Ujf.s 			page 18


 831 0470 8837     		adds	r7, r7, #136
 832              		.cfi_def_cfa_offset 16
 833 0472 BD46     		mov	sp, r7
 834              		.cfi_def_cfa_register 13
 835              		@ sp needed
 836 0474 B0BD     		pop	{r4, r5, r7, pc}
 837              	.L58:
 838 0476 00BF     		.align	2
 839              	.L57:
 840 0478 FC000000 		.word	.LC17
 841 047c 08010000 		.word	.LC18
 842 0480 1C010000 		.word	.LC19
 843 0484 34010000 		.word	.LC20
 844 0488 4C010000 		.word	.LC21
 845              		.cfi_endproc
 846              	.LFE67:
 847              		.size	chkres, .-chkres
 848              		.comm	File,552,4
 849              		.section	.rodata
 850 014f 00       		.align	2
 851              	.LC22:
 852 0150 54727920 		.ascii	"Try to mount...\012\000"
 852      746F206D 
 852      6F756E74 
 852      2E2E2E0A 
 852      00
 853 0161 000000   		.align	2
 854              	.LC23:
 855 0164 6469736B 		.ascii	"disk_initialize ret=%d\012\000"
 855      5F696E69 
 855      7469616C 
 855      697A6520 
 855      7265743D 
 856              		.align	2
 857              	.LC24:
 858 017c 2F00     		.ascii	"/\000"
 859 017e 0000     		.align	2
 860              	.LC25:
 861 0180 53442D43 		.ascii	"SD-CARD mount ERROR!! nRes=\000"
 861      41524420 
 861      6D6F756E 
 861      74204552 
 861      524F5221 
 862              		.align	2
 863              	.LC26:
 864 019c 46525F49 		.ascii	"FR_INVALID_DRIVE\012\000"
 864      4E56414C 
 864      49445F44 
 864      52495645 
 864      0A00
 865 01ae 0000     		.align	2
 866              	.LC27:
 867 01b0 46525F44 		.ascii	"FR_DISK_ERR\012\000"
 867      49534B5F 
 867      4552520A 
 867      00
 868 01bd 000000   		.align	2
ARM GAS  C:\Users\honet\AppData\Local\Temp\ccWT9Ujf.s 			page 19


 869              	.LC28:
 870 01c0 46525F4E 		.ascii	"FR_NOT_READY\012\000"
 870      4F545F52 
 870      45414459 
 870      0A00
 871 01ce 0000     		.align	2
 872              	.LC29:
 873 01d0 46525F4E 		.ascii	"FR_NO_FILESYSTEM\012\000"
 873      4F5F4649 
 873      4C455359 
 873      5354454D 
 873      0A00
 874 01e2 0000     		.align	2
 875              	.LC30:
 876 01e4 53442D43 		.ascii	"SD-CARD mounted. FSTYPE=\000"
 876      41524420 
 876      6D6F756E 
 876      7465642E 
 876      20465354 
 877 01fd 000000   		.align	2
 878              	.LC31:
 879 0200 46415431 		.ascii	"FAT12\012\000"
 879      320A00
 880 0207 00       		.align	2
 881              	.LC32:
 882 0208 46415431 		.ascii	"FAT16\012\000"
 882      360A00
 883 020f 00       		.align	2
 884              	.LC33:
 885 0210 46415433 		.ascii	"FAT32\012\000"
 885      320A00
 886 0217 00       		.align	2
 887              	.LC34:
 888 0218 554E4B4E 		.ascii	"UNKNOWN\012\000"
 888      4F574E0A 
 888      00
 889 0221 000000   		.align	2
 890              	.LC35:
 891 0224 3E3E3E3E 		.ascii	">>>>Testing PIO mode...\012\000"
 891      54657374 
 891      696E6720 
 891      50494F20 
 891      6D6F6465 
 892 023d 000000   		.align	2
 893              	.LC36:
 894 0240 2F2F7465 		.ascii	"//test.txt\000"
 894      73742E74 
 894      787400
 895 024b 00       		.align	2
 896              	.LC37:
 897 024c 665F6F70 		.ascii	"f_open\000"
 897      656E00
 898 0253 00       		.align	2
 899              	.LC38:
 900 0254 54657374 		.ascii	"Testing Speed\012\000"
 900      696E6720 
 900      53706565 
ARM GAS  C:\Users\honet\AppData\Local\Temp\ccWT9Ujf.s 			page 20


 900      640A00
 901 0263 00       		.align	2
 902              	.LC39:
 903 0264 665F7772 		.ascii	"f_write\000"
 903      69746500 
 904              		.global	__aeabi_i2d
 905              		.global	__aeabi_dmul
 906              		.align	2
 907              	.LC40:
 908 026c 57726974 		.ascii	"Writing %d bytes to file, non-DMA\012\000"
 908      696E6720 
 908      25642062 
 908      79746573 
 908      20746F20 
 909 028f 00       		.align	2
 910              	.LC41:
 911 0290 2F2F5445 		.ascii	"//TESTPIO.bin\000"
 911      53545049 
 911      4F2E6269 
 911      6E00
 912 029e 0000     		.align	2
 913              	.LC42:
 914 02a0 665F636C 		.ascii	"f_close\000"
 914      6F736500 
 915              		.align	2
 916              	.LC43:
 917 02a8 546F6F6B 		.ascii	"Took %lu ms\012\000"
 917      20256C75 
 917      206D730A 
 917      00
 918 02b5 000000   		.align	2
 919              	.LC44:
 920 02b8 52617465 		.ascii	"Rate %lu kbps\012\012\000"
 920      20256C75 
 920      206B6270 
 920      730A0A00 
 921              		.align	2
 922              	.LC45:
 923 02c8 52656164 		.ascii	"Reading %d bytes from file, non-DMA\012\000"
 923      696E6720 
 923      25642062 
 923      79746573 
 923      2066726F 
 924 02ed 000000   		.align	2
 925              	.LC46:
 926 02f0 665F7265 		.ascii	"f_read\000"
 926      616400
 927 02f7 00       		.align	2
 928              	.LC47:
 929 02f8 546F6F6B 		.ascii	"Took %lu ms\012Verifying...\000"
 929      20256C75 
 929      206D730A 
 929      56657269 
 929      6679696E 
 930              		.global	__aeabi_dcmpeq
 931 0311 000000   		.align	2
 932              	.LC48:
ARM GAS  C:\Users\honet\AppData\Local\Temp\ccWT9Ujf.s 			page 21


 933 0314 4641494C 		.ascii	"FAIL :O\012\000"
 933      203A4F0A 
 933      00
 934 031d 000000   		.align	2
 935              	.LC49:
 936 0320 20416C6C 		.ascii	" All Good! :D\012\000"
 936      20476F6F 
 936      6421203A 
 936      440A00
 937 032f 00       		.align	2
 938              	.LC50:
 939 0330 3E3E3E3E 		.ascii	">>>>Testing DMA mode...\012\000"
 939      54657374 
 939      696E6720 
 939      444D4120 
 939      6D6F6465 
 940 0349 000000   		.align	2
 941              	.LC51:
 942 034c 57726974 		.ascii	"Writing %d bytes to file, DMA\012\000"
 942      696E6720 
 942      25642062 
 942      79746573 
 942      20746F20 
 943 036b 00       		.align	2
 944              	.LC52:
 945 036c 2F2F5445 		.ascii	"//TESTDMA.bin\000"
 945      5354444D 
 945      412E6269 
 945      6E00
 946 037a 0000     		.align	2
 947              	.LC53:
 948 037c 52656164 		.ascii	"Reading %d bytes from file, DMA\012\000"
 948      696E6720 
 948      25642062 
 948      79746573 
 948      2066726F 
 949 039d 000000   		.align	2
 950              	.LC54:
 951 03a0 54455354 		.ascii	"TEST FINISHED!\012\000"
 951      2046494E 
 951      49534845 
 951      44210A00 
 952              		.section	.text.sdbench,"ax",%progbits
 953              		.align	2
 954              		.global	sdbench
 955              		.thumb
 956              		.thumb_func
 957              		.type	sdbench, %function
 958              	sdbench:
 959              	.LFB68:
  80:.\main.c      **** 
  81:.\main.c      **** FIL File; // result message txt-file
  82:.\main.c      **** 
  83:.\main.c      **** #define dmpmsg(msg, ...) \
  84:.\main.c      **** do{ \
  85:.\main.c      **** 	UINT BytesWritten; \
  86:.\main.c      **** 	size_t sz=strlen(msg); \
ARM GAS  C:\Users\honet\AppData\Local\Temp\ccWT9Ujf.s 			page 22


  87:.\main.c      **** 	dbgprint(msg, ## __VA_ARGS__); \
  88:.\main.c      **** 	FRESULT res = f_write(&File, msg, sz, &BytesWritten); \
  89:.\main.c      **** 	chkres("f_write", res); \
  90:.\main.c      **** }while(0)
  91:.\main.c      **** 
  92:.\main.c      **** void sdbench()
  93:.\main.c      **** {
 960              		.loc 1 93 0
 961              		.cfi_startproc
 962              		@ args = 0, pretend = 0, frame = 1600
 963              		@ frame_needed = 1, uses_anonymous_args = 0
 964 0000 2DE9F041 		push	{r4, r5, r6, r7, r8, lr}
 965              		.cfi_def_cfa_offset 24
 966              		.cfi_offset 4, -24
 967              		.cfi_offset 5, -20
 968              		.cfi_offset 6, -16
 969              		.cfi_offset 7, -12
 970              		.cfi_offset 8, -8
 971              		.cfi_offset 14, -4
 972 0004 ADF5C86D 		sub	sp, sp, #1600
 973              		.cfi_def_cfa_offset 1624
 974 0008 00AF     		add	r7, sp, #0
 975              		.cfi_def_cfa_register 7
 976 000a 6C46     		mov	r4, sp
 977 000c A046     		mov	r8, r4
  94:.\main.c      **** 	uint32_t nvals = BUFFER_SIZE/sizeof(double);
 978              		.loc 1 94 0
 979 000e 4FF4FA64 		mov	r4, #2000
 980 0012 C7F82846 		str	r4, [r7, #1576]
  95:.\main.c      **** 	double vals[nvals];
 981              		.loc 1 95 0
 982 0016 D7F82866 		ldr	r6, [r7, #1576]
 983 001a 3446     		mov	r4, r6
 984 001c 013C     		subs	r4, r4, #1
 985 001e C7F82446 		str	r4, [r7, #1572]
 986 0022 3446     		mov	r4, r6
 987 0024 4FF00005 		mov	r5, #0
 988 0028 A901     		lsls	r1, r5, #6
 989 002a 41EA9461 		orr	r1, r1, r4, lsr #26
 990 002e A001     		lsls	r0, r4, #6
 991 0030 3046     		mov	r0, r6
 992 0032 4FF00001 		mov	r1, #0
 993 0036 8B01     		lsls	r3, r1, #6
 994 0038 43EA9063 		orr	r3, r3, r0, lsr #26
 995 003c 8201     		lsls	r2, r0, #6
 996 003e F300     		lsls	r3, r6, #3
 997 0040 0733     		adds	r3, r3, #7
 998 0042 0733     		adds	r3, r3, #7
 999 0044 DB08     		lsrs	r3, r3, #3
 1000 0046 DB00     		lsls	r3, r3, #3
 1001 0048 ADEB030D 		sub	sp, sp, r3
 1002 004c 6B46     		mov	r3, sp
 1003 004e 0733     		adds	r3, r3, #7
 1004 0050 DB08     		lsrs	r3, r3, #3
 1005 0052 DB00     		lsls	r3, r3, #3
 1006 0054 C7F82036 		str	r3, [r7, #1568]
 1007              	.LBB25:
ARM GAS  C:\Users\honet\AppData\Local\Temp\ccWT9Ujf.s 			page 23


  96:.\main.c      ****     
  97:.\main.c      **** 	char tmpchr[100];
  98:.\main.c      **** 	FRESULT res;
  99:.\main.c      **** 	UINT BytesWritten, BytesRead;
 100:.\main.c      **** 	
 101:.\main.c      **** 	FATFS FileSys;          //this will be our mounted file system
 102:.\main.c      **** 
 103:.\main.c      **** 	dbgprint("Try to mount...\n");
 1008              		.loc 1 103 0
 1009 0058 3B46     		mov	r3, r7
 1010 005a C14A     		ldr	r2, .L131
 1011 005c 1C46     		mov	r4, r3
 1012 005e 1546     		mov	r5, r2
 1013 0060 0FCD     		ldmia	r5!, {r0, r1, r2, r3}
 1014 0062 0FC4     		stmia	r4!, {r0, r1, r2, r3}
 1015 0064 2B68     		ldr	r3, [r5]
 1016 0066 2370     		strb	r3, [r4]
 1017 0068 00BF     		nop
 1018              	.L60:
 1019              		.loc 1 103 0 is_stmt 0 discriminator 2
 1020 006a FFF7FEFF 		bl	USBUART_1_CDCIsReady
 1021 006e 0346     		mov	r3, r0
 1022 0070 002B     		cmp	r3, #0
 1023 0072 FAD0     		beq	.L60
 1024              		.loc 1 103 0 discriminator 3
 1025 0074 3B46     		mov	r3, r7
 1026 0076 1846     		mov	r0, r3
 1027 0078 FFF7FEFF 		bl	USBUART_1_PutString
 1028              	.LBE25:
 104:.\main.c      **** 	DSTATUS dret = disk_initialize(0);     //initialise FatFS
 1029              		.loc 1 104 0 is_stmt 1 discriminator 3
 1030 007c 0020     		movs	r0, #0
 1031 007e FFF7FEFF 		bl	disk_initialize
 1032 0082 0346     		mov	r3, r0
 1033 0084 87F81F36 		strb	r3, [r7, #1567]
 1034              	.LBB26:
 105:.\main.c      **** 	dbgprint("disk_initialize ret=%d\n", dret);
 1035              		.loc 1 105 0 discriminator 3
 1036 0088 97F81F36 		ldrb	r3, [r7, #1567]	@ zero_extendqisi2
 1037 008c 3A46     		mov	r2, r7
 1038 008e 1046     		mov	r0, r2
 1039 0090 B449     		ldr	r1, .L131+4
 1040 0092 1A46     		mov	r2, r3
 1041 0094 FFF7FEFF 		bl	sprintf
 1042 0098 00BF     		nop
 1043              	.L61:
 1044              		.loc 1 105 0 is_stmt 0 discriminator 2
 1045 009a FFF7FEFF 		bl	USBUART_1_CDCIsReady
 1046 009e 0346     		mov	r3, r0
 1047 00a0 002B     		cmp	r3, #0
 1048 00a2 FAD0     		beq	.L61
 1049              		.loc 1 105 0 discriminator 3
 1050 00a4 3B46     		mov	r3, r7
 1051 00a6 1846     		mov	r0, r3
 1052 00a8 FFF7FEFF 		bl	USBUART_1_PutString
 1053              	.LBE26:
 106:.\main.c      **** 
ARM GAS  C:\Users\honet\AppData\Local\Temp\ccWT9Ujf.s 			page 24


 107:.\main.c      **** 	//and mount. Note: if/else and case statements below allow identification of status.
 108:.\main.c      **** 	//in this example, I just assume everything went ok, and have left the below for reference.
 109:.\main.c      **** 	FRESULT nRes;
 110:.\main.c      **** 	if ((nRes = f_mount(&FileSys, "/", 1)) != FR_OK) { //Fail to mount...
 1054              		.loc 1 110 0 is_stmt 1 discriminator 3
 1055 00ac 07F53B73 		add	r3, r7, #748
 1056 00b0 1846     		mov	r0, r3
 1057 00b2 AD49     		ldr	r1, .L131+8
 1058 00b4 0122     		movs	r2, #1
 1059 00b6 FFF7FEFF 		bl	f_mount
 1060 00ba 0346     		mov	r3, r0
 1061 00bc 87F81E36 		strb	r3, [r7, #1566]
 1062 00c0 97F81E36 		ldrb	r3, [r7, #1566]	@ zero_extendqisi2
 1063 00c4 002B     		cmp	r3, #0
 1064 00c6 00F08480 		beq	.L62
 1065              	.LBB27:
 111:.\main.c      **** 		dbgprint("SD-CARD mount ERROR!! nRes=");
 1066              		.loc 1 111 0
 1067 00ca 3B46     		mov	r3, r7
 1068 00cc A74A     		ldr	r2, .L131+12
 1069 00ce 1C46     		mov	r4, r3
 1070 00d0 1546     		mov	r5, r2
 1071 00d2 0FCD     		ldmia	r5!, {r0, r1, r2, r3}
 1072 00d4 0FC4     		stmia	r4!, {r0, r1, r2, r3}
 1073 00d6 95E80700 		ldmia	r5, {r0, r1, r2}
 1074 00da 84E80700 		stmia	r4, {r0, r1, r2}
 1075 00de 00BF     		nop
 1076              	.L63:
 1077              		.loc 1 111 0 is_stmt 0 discriminator 2
 1078 00e0 FFF7FEFF 		bl	USBUART_1_CDCIsReady
 1079 00e4 0346     		mov	r3, r0
 1080 00e6 002B     		cmp	r3, #0
 1081 00e8 FAD0     		beq	.L63
 1082              		.loc 1 111 0 discriminator 3
 1083 00ea 3B46     		mov	r3, r7
 1084 00ec 1846     		mov	r0, r3
 1085 00ee FFF7FEFF 		bl	USBUART_1_PutString
 1086              	.LBE27:
 112:.\main.c      **** 		switch(nRes) {    //reasons...
 1087              		.loc 1 112 0 is_stmt 1 discriminator 3
 1088 00f2 97F81E36 		ldrb	r3, [r7, #1566]	@ zero_extendqisi2
 1089 00f6 013B     		subs	r3, r3, #1
 1090 00f8 0C2B     		cmp	r3, #12
 1091 00fa 67D8     		bhi	.L130
 1092 00fc 01A2     		adr	r2, .L66
 1093 00fe 52F823F0 		ldr	pc, [r2, r3, lsl #2]
 1094 0102 00BF     		.p2align 2
 1095              	.L66:
 1096 0104 5F010000 		.word	.L65+1
 1097 0108 CD010000 		.word	.L130+1
 1098 010c 83010000 		.word	.L67+1
 1099 0110 CD010000 		.word	.L130+1
 1100 0114 CD010000 		.word	.L130+1
 1101 0118 CD010000 		.word	.L130+1
 1102 011c CD010000 		.word	.L130+1
 1103 0120 CD010000 		.word	.L130+1
 1104 0124 CD010000 		.word	.L130+1
ARM GAS  C:\Users\honet\AppData\Local\Temp\ccWT9Ujf.s 			page 25


 1105 0128 CD010000 		.word	.L130+1
 1106 012c 39010000 		.word	.L68+1
 1107 0130 CD010000 		.word	.L130+1
 1108 0134 A7010000 		.word	.L69+1
 1109              		.p2align 1
 1110              	.L68:
 1111              	.LBB28:
 113:.\main.c      **** 		case FR_INVALID_DRIVE:	dbgprint("FR_INVALID_DRIVE\n"); break;
 1112              		.loc 1 113 0
 1113 0138 3B46     		mov	r3, r7
 1114 013a 8D4A     		ldr	r2, .L131+16
 1115 013c 1C46     		mov	r4, r3
 1116 013e 1546     		mov	r5, r2
 1117 0140 0FCD     		ldmia	r5!, {r0, r1, r2, r3}
 1118 0142 0FC4     		stmia	r4!, {r0, r1, r2, r3}
 1119 0144 2B68     		ldr	r3, [r5]
 1120 0146 2380     		strh	r3, [r4]	@ movhi
 1121 0148 00BF     		nop
 1122              	.L70:
 1123              		.loc 1 113 0 is_stmt 0 discriminator 2
 1124 014a FFF7FEFF 		bl	USBUART_1_CDCIsReady
 1125 014e 0346     		mov	r3, r0
 1126 0150 002B     		cmp	r3, #0
 1127 0152 FAD0     		beq	.L70
 1128              		.loc 1 113 0 discriminator 3
 1129 0154 3B46     		mov	r3, r7
 1130 0156 1846     		mov	r0, r3
 1131 0158 FFF7FEFF 		bl	USBUART_1_PutString
 1132              	.LBE28:
 1133 015c 37E0     		b	.L71
 1134              	.L65:
 1135              	.LBB29:
 114:.\main.c      **** 		case FR_DISK_ERR:		dbgprint("FR_DISK_ERR\n"); break;
 1136              		.loc 1 114 0 is_stmt 1
 1137 015e 3B46     		mov	r3, r7
 1138 0160 844A     		ldr	r2, .L131+20
 1139 0162 1C46     		mov	r4, r3
 1140 0164 1346     		mov	r3, r2
 1141 0166 0FCB     		ldmia	r3, {r0, r1, r2, r3}
 1142 0168 07C4     		stmia	r4!, {r0, r1, r2}
 1143 016a 2370     		strb	r3, [r4]
 1144 016c 00BF     		nop
 1145              	.L72:
 1146              		.loc 1 114 0 is_stmt 0 discriminator 2
 1147 016e FFF7FEFF 		bl	USBUART_1_CDCIsReady
 1148 0172 0346     		mov	r3, r0
 1149 0174 002B     		cmp	r3, #0
 1150 0176 FAD0     		beq	.L72
 1151              		.loc 1 114 0 discriminator 3
 1152 0178 3B46     		mov	r3, r7
 1153 017a 1846     		mov	r0, r3
 1154 017c FFF7FEFF 		bl	USBUART_1_PutString
 1155              	.LBE29:
 1156 0180 25E0     		b	.L71
 1157              	.L67:
 1158              	.LBB30:
 115:.\main.c      **** 		case FR_NOT_READY:		dbgprint("FR_NOT_READY\n"); break;
ARM GAS  C:\Users\honet\AppData\Local\Temp\ccWT9Ujf.s 			page 26


 1159              		.loc 1 115 0 is_stmt 1
 1160 0182 3B46     		mov	r3, r7
 1161 0184 7C4A     		ldr	r2, .L131+24
 1162 0186 1C46     		mov	r4, r3
 1163 0188 1346     		mov	r3, r2
 1164 018a 0FCB     		ldmia	r3, {r0, r1, r2, r3}
 1165 018c 07C4     		stmia	r4!, {r0, r1, r2}
 1166 018e 2380     		strh	r3, [r4]	@ movhi
 1167 0190 00BF     		nop
 1168              	.L73:
 1169              		.loc 1 115 0 is_stmt 0 discriminator 2
 1170 0192 FFF7FEFF 		bl	USBUART_1_CDCIsReady
 1171 0196 0346     		mov	r3, r0
 1172 0198 002B     		cmp	r3, #0
 1173 019a FAD0     		beq	.L73
 1174              		.loc 1 115 0 discriminator 3
 1175 019c 3B46     		mov	r3, r7
 1176 019e 1846     		mov	r0, r3
 1177 01a0 FFF7FEFF 		bl	USBUART_1_PutString
 1178              	.LBE30:
 1179 01a4 13E0     		b	.L71
 1180              	.L69:
 1181              	.LBB31:
 116:.\main.c      **** 		case FR_NO_FILESYSTEM:	dbgprint("FR_NO_FILESYSTEM\n"); break;
 1182              		.loc 1 116 0 is_stmt 1
 1183 01a6 3B46     		mov	r3, r7
 1184 01a8 744A     		ldr	r2, .L131+28
 1185 01aa 1C46     		mov	r4, r3
 1186 01ac 1546     		mov	r5, r2
 1187 01ae 0FCD     		ldmia	r5!, {r0, r1, r2, r3}
 1188 01b0 0FC4     		stmia	r4!, {r0, r1, r2, r3}
 1189 01b2 2B68     		ldr	r3, [r5]
 1190 01b4 2380     		strh	r3, [r4]	@ movhi
 1191 01b6 00BF     		nop
 1192              	.L74:
 1193              		.loc 1 116 0 is_stmt 0 discriminator 2
 1194 01b8 FFF7FEFF 		bl	USBUART_1_CDCIsReady
 1195 01bc 0346     		mov	r3, r0
 1196 01be 002B     		cmp	r3, #0
 1197 01c0 FAD0     		beq	.L74
 1198              		.loc 1 116 0 discriminator 3
 1199 01c2 3B46     		mov	r3, r7
 1200 01c4 1846     		mov	r0, r3
 1201 01c6 FFF7FEFF 		bl	USBUART_1_PutString
 1202              	.LBE31:
 1203 01ca 00E0     		b	.L71
 1204              	.L130:
 117:.\main.c      **** 		default: break;
 1205              		.loc 1 117 0 is_stmt 1
 1206 01cc 00BF     		nop
 1207              	.L71:
 118:.\main.c      **** 		}
 119:.\main.c      **** 		goto err_exit;
 1208              		.loc 1 119 0 discriminator 4
 1209 01ce 00F076BD 		b	.L75
 1210              	.L62:
 1211              	.LBB32:
ARM GAS  C:\Users\honet\AppData\Local\Temp\ccWT9Ujf.s 			page 27


 120:.\main.c      **** 	} else {
 121:.\main.c      **** 		//Mounted
 122:.\main.c      **** 		dbgprint("SD-CARD mounted. FSTYPE=");
 1212              		.loc 1 122 0
 1213 01d2 3B46     		mov	r3, r7
 1214 01d4 6A4A     		ldr	r2, .L131+32
 1215 01d6 1C46     		mov	r4, r3
 1216 01d8 1546     		mov	r5, r2
 1217 01da 0FCD     		ldmia	r5!, {r0, r1, r2, r3}
 1218 01dc 0FC4     		stmia	r4!, {r0, r1, r2, r3}
 1219 01de 95E80700 		ldmia	r5, {r0, r1, r2}
 1220 01e2 03C4     		stmia	r4!, {r0, r1}
 1221 01e4 2270     		strb	r2, [r4]
 1222 01e6 00BF     		nop
 1223              	.L76:
 1224              		.loc 1 122 0 is_stmt 0 discriminator 2
 1225 01e8 FFF7FEFF 		bl	USBUART_1_CDCIsReady
 1226 01ec 0346     		mov	r3, r0
 1227 01ee 002B     		cmp	r3, #0
 1228 01f0 FAD0     		beq	.L76
 1229              		.loc 1 122 0 discriminator 3
 1230 01f2 3B46     		mov	r3, r7
 1231 01f4 1846     		mov	r0, r3
 1232 01f6 FFF7FEFF 		bl	USBUART_1_PutString
 1233              	.LBE32:
 123:.\main.c      **** 		switch(FileSys.fs_type) { //In case filesys type is of interest
 1234              		.loc 1 123 0 is_stmt 1 discriminator 3
 1235 01fa 07F53B73 		add	r3, r7, #748
 1236 01fe 1B78     		ldrb	r3, [r3]	@ zero_extendqisi2
 1237 0200 022B     		cmp	r3, #2
 1238 0202 18D0     		beq	.L78
 1239 0204 032B     		cmp	r3, #3
 1240 0206 2BD0     		beq	.L79
 1241 0208 012B     		cmp	r3, #1
 1242 020a 3ED1     		bne	.L129
 1243              	.LBB33:
 124:.\main.c      **** 		case FS_FAT12:	dbgprint("FAT12\n"); break;
 1244              		.loc 1 124 0
 1245 020c 3B46     		mov	r3, r7
 1246 020e 5D4A     		ldr	r2, .L131+36
 1247 0210 92E80300 		ldmia	r2, {r0, r1}
 1248 0214 1860     		str	r0, [r3]
 1249 0216 0433     		adds	r3, r3, #4
 1250 0218 1980     		strh	r1, [r3]	@ movhi
 1251 021a 0233     		adds	r3, r3, #2
 1252 021c 0A0C     		lsrs	r2, r1, #16
 1253 021e 1A70     		strb	r2, [r3]
 1254 0220 00BF     		nop
 1255              	.L81:
 1256              		.loc 1 124 0 is_stmt 0 discriminator 2
 1257 0222 FFF7FEFF 		bl	USBUART_1_CDCIsReady
 1258 0226 0346     		mov	r3, r0
 1259 0228 002B     		cmp	r3, #0
 1260 022a FAD0     		beq	.L81
 1261              		.loc 1 124 0 discriminator 3
 1262 022c 3B46     		mov	r3, r7
 1263 022e 1846     		mov	r0, r3
ARM GAS  C:\Users\honet\AppData\Local\Temp\ccWT9Ujf.s 			page 28


 1264 0230 FFF7FEFF 		bl	USBUART_1_PutString
 1265              	.LBE33:
 1266 0234 39E0     		b	.L82
 1267              	.L78:
 1268              	.LBB34:
 125:.\main.c      **** 		case FS_FAT16:	dbgprint("FAT16\n"); break;
 1269              		.loc 1 125 0 is_stmt 1
 1270 0236 3B46     		mov	r3, r7
 1271 0238 534A     		ldr	r2, .L131+40
 1272 023a 92E80300 		ldmia	r2, {r0, r1}
 1273 023e 1860     		str	r0, [r3]
 1274 0240 0433     		adds	r3, r3, #4
 1275 0242 1980     		strh	r1, [r3]	@ movhi
 1276 0244 0233     		adds	r3, r3, #2
 1277 0246 0A0C     		lsrs	r2, r1, #16
 1278 0248 1A70     		strb	r2, [r3]
 1279 024a 00BF     		nop
 1280              	.L83:
 1281              		.loc 1 125 0 is_stmt 0 discriminator 2
 1282 024c FFF7FEFF 		bl	USBUART_1_CDCIsReady
 1283 0250 0346     		mov	r3, r0
 1284 0252 002B     		cmp	r3, #0
 1285 0254 FAD0     		beq	.L83
 1286              		.loc 1 125 0 discriminator 3
 1287 0256 3B46     		mov	r3, r7
 1288 0258 1846     		mov	r0, r3
 1289 025a FFF7FEFF 		bl	USBUART_1_PutString
 1290              	.LBE34:
 1291 025e 24E0     		b	.L82
 1292              	.L79:
 1293              	.LBB35:
 126:.\main.c      **** 		case FS_FAT32:	dbgprint("FAT32\n"); break;
 1294              		.loc 1 126 0 is_stmt 1
 1295 0260 3B46     		mov	r3, r7
 1296 0262 4A4A     		ldr	r2, .L131+44
 1297 0264 92E80300 		ldmia	r2, {r0, r1}
 1298 0268 1860     		str	r0, [r3]
 1299 026a 0433     		adds	r3, r3, #4
 1300 026c 1980     		strh	r1, [r3]	@ movhi
 1301 026e 0233     		adds	r3, r3, #2
 1302 0270 0A0C     		lsrs	r2, r1, #16
 1303 0272 1A70     		strb	r2, [r3]
 1304 0274 00BF     		nop
 1305              	.L84:
 1306              		.loc 1 126 0 is_stmt 0 discriminator 2
 1307 0276 FFF7FEFF 		bl	USBUART_1_CDCIsReady
 1308 027a 0346     		mov	r3, r0
 1309 027c 002B     		cmp	r3, #0
 1310 027e FAD0     		beq	.L84
 1311              		.loc 1 126 0 discriminator 3
 1312 0280 3B46     		mov	r3, r7
 1313 0282 1846     		mov	r0, r3
 1314 0284 FFF7FEFF 		bl	USBUART_1_PutString
 1315              	.LBE35:
 1316 0288 0FE0     		b	.L82
 1317              	.L129:
 1318              	.LBB36:
ARM GAS  C:\Users\honet\AppData\Local\Temp\ccWT9Ujf.s 			page 29


 127:.\main.c      **** 		default:		dbgprint("UNKNOWN\n"); break;
 1319              		.loc 1 127 0 is_stmt 1
 1320 028a 3B46     		mov	r3, r7
 1321 028c 404A     		ldr	r2, .L131+48
 1322 028e 07CA     		ldmia	r2, {r0, r1, r2}
 1323 0290 03C3     		stmia	r3!, {r0, r1}
 1324 0292 1A70     		strb	r2, [r3]
 1325 0294 00BF     		nop
 1326              	.L85:
 1327              		.loc 1 127 0 is_stmt 0 discriminator 2
 1328 0296 FFF7FEFF 		bl	USBUART_1_CDCIsReady
 1329 029a 0346     		mov	r3, r0
 1330 029c 002B     		cmp	r3, #0
 1331 029e FAD0     		beq	.L85
 1332              		.loc 1 127 0 discriminator 3
 1333 02a0 3B46     		mov	r3, r7
 1334 02a2 1846     		mov	r0, r3
 1335 02a4 FFF7FEFF 		bl	USBUART_1_PutString
 1336              	.LBE36:
 1337 02a8 00BF     		nop
 1338              	.L82:
 1339              	.LBB37:
 128:.\main.c      **** 		}
 129:.\main.c      **** 	}
 130:.\main.c      **** 	
 131:.\main.c      **** 	/// --------------------------------------------------------------------------
 132:.\main.c      **** 	//Now for the benchmarking step...
 133:.\main.c      **** 	dbgprint(">>>>Testing PIO mode...\n");
 1340              		.loc 1 133 0 is_stmt 1
 1341 02aa 3B46     		mov	r3, r7
 1342 02ac 394A     		ldr	r2, .L131+52
 1343 02ae 1C46     		mov	r4, r3
 1344 02b0 1546     		mov	r5, r2
 1345 02b2 0FCD     		ldmia	r5!, {r0, r1, r2, r3}
 1346 02b4 0FC4     		stmia	r4!, {r0, r1, r2, r3}
 1347 02b6 95E80700 		ldmia	r5, {r0, r1, r2}
 1348 02ba 03C4     		stmia	r4!, {r0, r1}
 1349 02bc 2270     		strb	r2, [r4]
 1350 02be 00BF     		nop
 1351              	.L86:
 1352              		.loc 1 133 0 is_stmt 0 discriminator 2
 1353 02c0 FFF7FEFF 		bl	USBUART_1_CDCIsReady
 1354 02c4 0346     		mov	r3, r0
 1355 02c6 002B     		cmp	r3, #0
 1356 02c8 FAD0     		beq	.L86
 1357              		.loc 1 133 0 discriminator 3
 1358 02ca 3B46     		mov	r3, r7
 1359 02cc 1846     		mov	r0, r3
 1360 02ce FFF7FEFF 		bl	USBUART_1_PutString
 1361              	.LBE37:
 134:.\main.c      ****     CyDelay(500);
 1362              		.loc 1 134 0 is_stmt 1 discriminator 3
 1363 02d2 4FF4FA70 		mov	r0, #500
 1364 02d6 FFF7FEFF 		bl	CyDelay
 135:.\main.c      **** 	SDSPI_SetDMAMode(0);
 1365              		.loc 1 135 0 discriminator 3
 1366 02da 0020     		movs	r0, #0
ARM GAS  C:\Users\honet\AppData\Local\Temp\ccWT9Ujf.s 			page 30


 1367 02dc FFF7FEFF 		bl	SDSPI_SetDMAMode
 136:.\main.c      **** 
 137:.\main.c      **** 	//Open a file and write "Testing Output" to it
 138:.\main.c      **** 	res = f_open(&File, "//test.txt", FA_CREATE_ALWAYS | FA_WRITE);
 1368              		.loc 1 138 0 discriminator 3
 1369 02e0 2D48     		ldr	r0, .L131+56
 1370 02e2 2E49     		ldr	r1, .L131+60
 1371 02e4 0A22     		movs	r2, #10
 1372 02e6 FFF7FEFF 		bl	f_open
 1373 02ea 0346     		mov	r3, r0
 1374 02ec 87F81D36 		strb	r3, [r7, #1565]
 139:.\main.c      **** 	chkres("f_open", res);
 1375              		.loc 1 139 0 discriminator 3
 1376 02f0 97F81D36 		ldrb	r3, [r7, #1565]	@ zero_extendqisi2
 1377 02f4 2A48     		ldr	r0, .L131+64
 1378 02f6 1946     		mov	r1, r3
 1379 02f8 FFF7FEFF 		bl	chkres
 140:.\main.c      **** 	if (res!=FR_OK) goto err_exit;
 1380              		.loc 1 140 0 discriminator 3
 1381 02fc 97F81D36 		ldrb	r3, [r7, #1565]	@ zero_extendqisi2
 1382 0300 002B     		cmp	r3, #0
 1383 0302 01D0     		beq	.L87
 1384              		.loc 1 140 0 is_stmt 0
 1385 0304 00F0DBBC 		b	.L75
 1386              	.L87:
 1387              	.LBB38:
 141:.\main.c      **** 
 142:.\main.c      **** 	dmpmsg("Testing Speed\n");
 1388              		.loc 1 142 0 is_stmt 1
 1389 0308 0E23     		movs	r3, #14
 1390 030a C7F81836 		str	r3, [r7, #1560]
 1391              	.LBB39:
 1392 030e 3B46     		mov	r3, r7
 1393 0310 244A     		ldr	r2, .L131+68
 1394 0312 1C46     		mov	r4, r3
 1395 0314 1346     		mov	r3, r2
 1396 0316 0FCB     		ldmia	r3, {r0, r1, r2, r3}
 1397 0318 07C4     		stmia	r4!, {r0, r1, r2}
 1398 031a 2380     		strh	r3, [r4]	@ movhi
 1399 031c 0234     		adds	r4, r4, #2
 1400 031e 1B0C     		lsrs	r3, r3, #16
 1401 0320 2370     		strb	r3, [r4]
 1402 0322 00BF     		nop
 1403              	.L88:
 1404              		.loc 1 142 0 is_stmt 0 discriminator 2
 1405 0324 FFF7FEFF 		bl	USBUART_1_CDCIsReady
 1406 0328 0346     		mov	r3, r0
 1407 032a 002B     		cmp	r3, #0
 1408 032c FAD0     		beq	.L88
 1409              		.loc 1 142 0 discriminator 3
 1410 032e 3B46     		mov	r3, r7
 1411 0330 1846     		mov	r0, r3
 1412 0332 FFF7FEFF 		bl	USBUART_1_PutString
 1413              	.LBE39:
 1414 0336 07F1C003 		add	r3, r7, #192
 1415 033a 1748     		ldr	r0, .L131+56
 1416 033c 1949     		ldr	r1, .L131+68
ARM GAS  C:\Users\honet\AppData\Local\Temp\ccWT9Ujf.s 			page 31


 1417 033e D7F81826 		ldr	r2, [r7, #1560]
 1418 0342 FFF7FEFF 		bl	f_write
 1419 0346 0346     		mov	r3, r0
 1420 0348 87F81736 		strb	r3, [r7, #1559]
 1421 034c 97F81736 		ldrb	r3, [r7, #1559]	@ zero_extendqisi2
 1422 0350 1548     		ldr	r0, .L131+72
 1423 0352 1946     		mov	r1, r3
 1424 0354 FFF7FEFF 		bl	chkres
 1425              	.LBE38:
 1426              	.LBB40:
 143:.\main.c      **** 
 144:.\main.c      **** 	//generate dataset...
 145:.\main.c      **** 	for(int i = 0; i < nvals; i++) {
 1427              		.loc 1 145 0 is_stmt 1 discriminator 3
 1428 0358 0023     		movs	r3, #0
 1429 035a C7F83C36 		str	r3, [r7, #1596]
 1430 035e 44E0     		b	.L89
 1431              	.L132:
 1432              		.align	2
 1433              	.L131:
 1434 0360 50010000 		.word	.LC22
 1435 0364 64010000 		.word	.LC23
 1436 0368 7C010000 		.word	.LC24
 1437 036c 80010000 		.word	.LC25
 1438 0370 9C010000 		.word	.LC26
 1439 0374 B0010000 		.word	.LC27
 1440 0378 C0010000 		.word	.LC28
 1441 037c D0010000 		.word	.LC29
 1442 0380 E4010000 		.word	.LC30
 1443 0384 00020000 		.word	.LC31
 1444 0388 08020000 		.word	.LC32
 1445 038c 10020000 		.word	.LC33
 1446 0390 18020000 		.word	.LC34
 1447 0394 24020000 		.word	.LC35
 1448 0398 00000000 		.word	File
 1449 039c 40020000 		.word	.LC36
 1450 03a0 4C020000 		.word	.LC37
 1451 03a4 54020000 		.word	.LC38
 1452 03a8 64020000 		.word	.LC39
 1453              	.L90:
 146:.\main.c      **** 		vals[i] = (double)i*i;
 1454              		.loc 1 146 0 discriminator 3
 1455 03ac D7F83C06 		ldr	r0, [r7, #1596]
 1456 03b0 FFF7FEFF 		bl	__aeabi_i2d
 1457 03b4 0446     		mov	r4, r0
 1458 03b6 0D46     		mov	r5, r1
 1459 03b8 D7F83C06 		ldr	r0, [r7, #1596]
 1460 03bc FFF7FEFF 		bl	__aeabi_i2d
 1461 03c0 0246     		mov	r2, r0
 1462 03c2 0B46     		mov	r3, r1
 1463 03c4 2046     		mov	r0, r4
 1464 03c6 2946     		mov	r1, r5
 1465 03c8 FFF7FEFF 		bl	__aeabi_dmul
 1466 03cc 0246     		mov	r2, r0
 1467 03ce 0B46     		mov	r3, r1
 1468 03d0 D7F82006 		ldr	r0, [r7, #1568]
 1469 03d4 D7F83C16 		ldr	r1, [r7, #1596]
ARM GAS  C:\Users\honet\AppData\Local\Temp\ccWT9Ujf.s 			page 32


 1470 03d8 C900     		lsls	r1, r1, #3
 1471 03da 0144     		add	r1, r1, r0
 1472 03dc C1E90023 		strd	r2, [r1]
 145:.\main.c      **** 		vals[i] = (double)i*i;
 1473              		.loc 1 145 0 discriminator 3
 1474 03e0 D7F83C36 		ldr	r3, [r7, #1596]
 1475 03e4 0133     		adds	r3, r3, #1
 1476 03e6 C7F83C36 		str	r3, [r7, #1596]
 1477              	.L89:
 145:.\main.c      **** 		vals[i] = (double)i*i;
 1478              		.loc 1 145 0 is_stmt 0 discriminator 1
 1479 03ea D7F83C26 		ldr	r2, [r7, #1596]
 1480 03ee D7F82836 		ldr	r3, [r7, #1576]
 1481 03f2 9A42     		cmp	r2, r3
 1482 03f4 DAD3     		bcc	.L90
 1483              	.LBE40:
 1484              	.LBB41:
 147:.\main.c      **** 	}
 148:.\main.c      **** 
 149:.\main.c      **** 
 150:.\main.c      **** 	//First, we'll write the dataset to a file in the root direcory, time the operation, then
 151:.\main.c      **** 	//output results to test.txt in the SD card root.
 152:.\main.c      **** 
 153:.\main.c      **** 	//Indicate in test.txt what we're doing
 154:.\main.c      **** 	dmpmsg("Writing %d bytes to file, non-DMA\n", BUFFER_SIZE);
 1485              		.loc 1 154 0 is_stmt 1
 1486 03f6 2223     		movs	r3, #34
 1487 03f8 C7F81036 		str	r3, [r7, #1552]
 1488              	.LBB42:
 1489 03fc 3B46     		mov	r3, r7
 1490 03fe 1846     		mov	r0, r3
 1491 0400 CE49     		ldr	r1, .L133
 1492 0402 4FF47A52 		mov	r2, #16000
 1493 0406 FFF7FEFF 		bl	sprintf
 1494 040a 00BF     		nop
 1495              	.L91:
 1496              		.loc 1 154 0 is_stmt 0 discriminator 2
 1497 040c FFF7FEFF 		bl	USBUART_1_CDCIsReady
 1498 0410 0346     		mov	r3, r0
 1499 0412 002B     		cmp	r3, #0
 1500 0414 FAD0     		beq	.L91
 1501              		.loc 1 154 0 discriminator 3
 1502 0416 3B46     		mov	r3, r7
 1503 0418 1846     		mov	r0, r3
 1504 041a FFF7FEFF 		bl	USBUART_1_PutString
 1505              	.LBE42:
 1506 041e 07F1BC03 		add	r3, r7, #188
 1507 0422 C748     		ldr	r0, .L133+4
 1508 0424 C549     		ldr	r1, .L133
 1509 0426 D7F81026 		ldr	r2, [r7, #1552]
 1510 042a FFF7FEFF 		bl	f_write
 1511 042e 0346     		mov	r3, r0
 1512 0430 87F80F36 		strb	r3, [r7, #1551]
 1513 0434 97F80F36 		ldrb	r3, [r7, #1551]	@ zero_extendqisi2
 1514 0438 C248     		ldr	r0, .L133+8
 1515 043a 1946     		mov	r1, r3
 1516 043c FFF7FEFF 		bl	chkres
ARM GAS  C:\Users\honet\AppData\Local\Temp\ccWT9Ujf.s 			page 33


 1517              	.LBE41:
 155:.\main.c      **** 
 156:.\main.c      **** 	//perform operation
 157:.\main.c      **** 	unsigned long nCurrentMillis = nmillis; //get current millisecond count
 1518              		.loc 1 157 0 is_stmt 1 discriminator 3
 1519 0440 C14B     		ldr	r3, .L133+12
 1520 0442 1B68     		ldr	r3, [r3]
 1521 0444 C7F80836 		str	r3, [r7, #1544]
 158:.\main.c      **** 	FIL BinFile;
 159:.\main.c      **** 	res = f_open(&BinFile, "//TESTPIO.bin", FA_CREATE_ALWAYS | FA_WRITE);
 1522              		.loc 1 159 0 discriminator 3
 1523 0448 07F1C403 		add	r3, r7, #196
 1524 044c 1846     		mov	r0, r3
 1525 044e BF49     		ldr	r1, .L133+16
 1526 0450 0A22     		movs	r2, #10
 1527 0452 FFF7FEFF 		bl	f_open
 1528 0456 0346     		mov	r3, r0
 1529 0458 87F81D36 		strb	r3, [r7, #1565]
 160:.\main.c      **** 	chkres("f_open", res);
 1530              		.loc 1 160 0 discriminator 3
 1531 045c 97F81D36 		ldrb	r3, [r7, #1565]	@ zero_extendqisi2
 1532 0460 BB48     		ldr	r0, .L133+20
 1533 0462 1946     		mov	r1, r3
 1534 0464 FFF7FEFF 		bl	chkres
 161:.\main.c      **** 	if (res==FR_OK) {
 1535              		.loc 1 161 0 discriminator 3
 1536 0468 97F81D36 		ldrb	r3, [r7, #1565]	@ zero_extendqisi2
 1537 046c 002B     		cmp	r3, #0
 1538 046e 22D1     		bne	.L92
 162:.\main.c      **** 		res = f_write(&BinFile, vals, BUFFER_SIZE, &BytesWritten);
 1539              		.loc 1 162 0
 1540 0470 D7F82026 		ldr	r2, [r7, #1568]
 1541 0474 07F1C401 		add	r1, r7, #196
 1542 0478 07F5A463 		add	r3, r7, #1312
 1543 047c 0846     		mov	r0, r1
 1544 047e 1146     		mov	r1, r2
 1545 0480 4FF47A52 		mov	r2, #16000
 1546 0484 FFF7FEFF 		bl	f_write
 1547 0488 0346     		mov	r3, r0
 1548 048a 87F81D36 		strb	r3, [r7, #1565]
 163:.\main.c      **** 		chkres("f_write", res);
 1549              		.loc 1 163 0
 1550 048e 97F81D36 		ldrb	r3, [r7, #1565]	@ zero_extendqisi2
 1551 0492 AC48     		ldr	r0, .L133+8
 1552 0494 1946     		mov	r1, r3
 1553 0496 FFF7FEFF 		bl	chkres
 164:.\main.c      **** 		res = f_close(&BinFile);
 1554              		.loc 1 164 0
 1555 049a 07F1C403 		add	r3, r7, #196
 1556 049e 1846     		mov	r0, r3
 1557 04a0 FFF7FEFF 		bl	f_close
 1558 04a4 0346     		mov	r3, r0
 1559 04a6 87F81D36 		strb	r3, [r7, #1565]
 165:.\main.c      **** 		chkres("f_close", res);
 1560              		.loc 1 165 0
 1561 04aa 97F81D36 		ldrb	r3, [r7, #1565]	@ zero_extendqisi2
 1562 04ae A948     		ldr	r0, .L133+24
ARM GAS  C:\Users\honet\AppData\Local\Temp\ccWT9Ujf.s 			page 34


 1563 04b0 1946     		mov	r1, r3
 1564 04b2 FFF7FEFF 		bl	chkres
 1565              	.L92:
 166:.\main.c      **** 	}
 167:.\main.c      **** 
 168:.\main.c      **** 	//indicate in test.txt how long it took
 169:.\main.c      **** 	unsigned long nTime = nmillis-nCurrentMillis;
 1566              		.loc 1 169 0
 1567 04b6 A44B     		ldr	r3, .L133+12
 1568 04b8 1A68     		ldr	r2, [r3]
 1569 04ba D7F80836 		ldr	r3, [r7, #1544]
 1570 04be D31A     		subs	r3, r2, r3
 1571 04c0 C7F80436 		str	r3, [r7, #1540]
 1572              	.LBB43:
 170:.\main.c      **** 	dmpmsg("Took %lu ms\n", nTime);
 1573              		.loc 1 170 0
 1574 04c4 0C23     		movs	r3, #12
 1575 04c6 C7F80036 		str	r3, [r7, #1536]
 1576              	.LBB44:
 1577 04ca 3B46     		mov	r3, r7
 1578 04cc 1846     		mov	r0, r3
 1579 04ce A249     		ldr	r1, .L133+28
 1580 04d0 D7F80426 		ldr	r2, [r7, #1540]
 1581 04d4 FFF7FEFF 		bl	sprintf
 1582 04d8 00BF     		nop
 1583              	.L93:
 1584              		.loc 1 170 0 is_stmt 0 discriminator 2
 1585 04da FFF7FEFF 		bl	USBUART_1_CDCIsReady
 1586 04de 0346     		mov	r3, r0
 1587 04e0 002B     		cmp	r3, #0
 1588 04e2 FAD0     		beq	.L93
 1589              		.loc 1 170 0 discriminator 3
 1590 04e4 3B46     		mov	r3, r7
 1591 04e6 1846     		mov	r0, r3
 1592 04e8 FFF7FEFF 		bl	USBUART_1_PutString
 1593              	.LBE44:
 1594 04ec 07F1B803 		add	r3, r7, #184
 1595 04f0 9348     		ldr	r0, .L133+4
 1596 04f2 9949     		ldr	r1, .L133+28
 1597 04f4 D7F80026 		ldr	r2, [r7, #1536]
 1598 04f8 FFF7FEFF 		bl	f_write
 1599 04fc 0346     		mov	r3, r0
 1600 04fe 87F8FF35 		strb	r3, [r7, #1535]
 1601 0502 97F8FF35 		ldrb	r3, [r7, #1535]	@ zero_extendqisi2
 1602 0506 8F48     		ldr	r0, .L133+8
 1603 0508 1946     		mov	r1, r3
 1604 050a FFF7FEFF 		bl	chkres
 1605              	.LBE43:
 171:.\main.c      **** 
 172:.\main.c      **** 	unsigned long kbps = BUFFER_SIZE*8 / nTime;
 1606              		.loc 1 172 0 is_stmt 1 discriminator 3
 1607 050e 4FF4FA32 		mov	r2, #128000
 1608 0512 D7F80436 		ldr	r3, [r7, #1540]
 1609 0516 B2FBF3F3 		udiv	r3, r2, r3
 1610 051a C7F8F835 		str	r3, [r7, #1528]
 1611              	.LBB45:
 173:.\main.c      **** 	dmpmsg( "Rate %lu kbps\n\n", kbps);
ARM GAS  C:\Users\honet\AppData\Local\Temp\ccWT9Ujf.s 			page 35


 1612              		.loc 1 173 0 discriminator 3
 1613 051e 0F23     		movs	r3, #15
 1614 0520 C7F8F435 		str	r3, [r7, #1524]
 1615              	.LBB46:
 1616 0524 3B46     		mov	r3, r7
 1617 0526 1846     		mov	r0, r3
 1618 0528 8C49     		ldr	r1, .L133+32
 1619 052a D7F8F825 		ldr	r2, [r7, #1528]
 1620 052e FFF7FEFF 		bl	sprintf
 1621 0532 00BF     		nop
 1622              	.L94:
 1623              		.loc 1 173 0 is_stmt 0 discriminator 2
 1624 0534 FFF7FEFF 		bl	USBUART_1_CDCIsReady
 1625 0538 0346     		mov	r3, r0
 1626 053a 002B     		cmp	r3, #0
 1627 053c FAD0     		beq	.L94
 1628              		.loc 1 173 0 discriminator 3
 1629 053e 3B46     		mov	r3, r7
 1630 0540 1846     		mov	r0, r3
 1631 0542 FFF7FEFF 		bl	USBUART_1_PutString
 1632              	.LBE46:
 1633 0546 07F1B403 		add	r3, r7, #180
 1634 054a 7D48     		ldr	r0, .L133+4
 1635 054c 8349     		ldr	r1, .L133+32
 1636 054e D7F8F425 		ldr	r2, [r7, #1524]
 1637 0552 FFF7FEFF 		bl	f_write
 1638 0556 0346     		mov	r3, r0
 1639 0558 87F8F335 		strb	r3, [r7, #1523]
 1640 055c 97F8F335 		ldrb	r3, [r7, #1523]	@ zero_extendqisi2
 1641 0560 7848     		ldr	r0, .L133+8
 1642 0562 1946     		mov	r1, r3
 1643 0564 FFF7FEFF 		bl	chkres
 1644              	.LBE45:
 1645              	.LBB47:
 174:.\main.c      **** 
 175:.\main.c      **** 	//Next, read file in
 176:.\main.c      **** 
 177:.\main.c      **** 	//Indicate in test.txt what we're doing
 178:.\main.c      **** 	dmpmsg("Reading %d bytes from file, non-DMA\n", BUFFER_SIZE);
 1646              		.loc 1 178 0 is_stmt 1 discriminator 3
 1647 0568 2423     		movs	r3, #36
 1648 056a C7F8EC35 		str	r3, [r7, #1516]
 1649              	.LBB48:
 1650 056e 3B46     		mov	r3, r7
 1651 0570 1846     		mov	r0, r3
 1652 0572 7B49     		ldr	r1, .L133+36
 1653 0574 4FF47A52 		mov	r2, #16000
 1654 0578 FFF7FEFF 		bl	sprintf
 1655 057c 00BF     		nop
 1656              	.L95:
 1657              		.loc 1 178 0 is_stmt 0 discriminator 2
 1658 057e FFF7FEFF 		bl	USBUART_1_CDCIsReady
 1659 0582 0346     		mov	r3, r0
 1660 0584 002B     		cmp	r3, #0
 1661 0586 FAD0     		beq	.L95
 1662              		.loc 1 178 0 discriminator 3
 1663 0588 3B46     		mov	r3, r7
ARM GAS  C:\Users\honet\AppData\Local\Temp\ccWT9Ujf.s 			page 36


 1664 058a 1846     		mov	r0, r3
 1665 058c FFF7FEFF 		bl	USBUART_1_PutString
 1666              	.LBE48:
 1667 0590 07F1B003 		add	r3, r7, #176
 1668 0594 6A48     		ldr	r0, .L133+4
 1669 0596 7249     		ldr	r1, .L133+36
 1670 0598 D7F8EC25 		ldr	r2, [r7, #1516]
 1671 059c FFF7FEFF 		bl	f_write
 1672 05a0 0346     		mov	r3, r0
 1673 05a2 87F8EB35 		strb	r3, [r7, #1515]
 1674 05a6 97F8EB35 		ldrb	r3, [r7, #1515]	@ zero_extendqisi2
 1675 05aa 6648     		ldr	r0, .L133+8
 1676 05ac 1946     		mov	r1, r3
 1677 05ae FFF7FEFF 		bl	chkres
 1678              	.LBE47:
 179:.\main.c      **** 
 180:.\main.c      **** 	memset(vals, 0x00, BUFFER_SIZE);
 1679              		.loc 1 180 0 is_stmt 1 discriminator 3
 1680 05b2 D7F82036 		ldr	r3, [r7, #1568]
 1681 05b6 1846     		mov	r0, r3
 1682 05b8 0021     		movs	r1, #0
 1683 05ba 4FF47A52 		mov	r2, #16000
 1684 05be FFF7FEFF 		bl	memset
 181:.\main.c      **** 
 182:.\main.c      **** 	//perform operation
 183:.\main.c      **** 	nCurrentMillis = nmillis; //get current millisecond count
 1685              		.loc 1 183 0 discriminator 3
 1686 05c2 614B     		ldr	r3, .L133+12
 1687 05c4 1B68     		ldr	r3, [r3]
 1688 05c6 C7F80836 		str	r3, [r7, #1544]
 184:.\main.c      **** 
 185:.\main.c      **** 	res = f_open(&BinFile, "//TESTPIO.bin", FA_OPEN_EXISTING | FA_READ);
 1689              		.loc 1 185 0 discriminator 3
 1690 05ca 07F1C403 		add	r3, r7, #196
 1691 05ce 1846     		mov	r0, r3
 1692 05d0 5E49     		ldr	r1, .L133+16
 1693 05d2 0122     		movs	r2, #1
 1694 05d4 FFF7FEFF 		bl	f_open
 1695 05d8 0346     		mov	r3, r0
 1696 05da 87F81D36 		strb	r3, [r7, #1565]
 186:.\main.c      **** 	chkres("f_open", res);
 1697              		.loc 1 186 0 discriminator 3
 1698 05de 97F81D36 		ldrb	r3, [r7, #1565]	@ zero_extendqisi2
 1699 05e2 5B48     		ldr	r0, .L133+20
 1700 05e4 1946     		mov	r1, r3
 1701 05e6 FFF7FEFF 		bl	chkres
 187:.\main.c      **** 	if (res==FR_OK){
 1702              		.loc 1 187 0 discriminator 3
 1703 05ea 97F81D36 		ldrb	r3, [r7, #1565]	@ zero_extendqisi2
 1704 05ee 002B     		cmp	r3, #0
 1705 05f0 22D1     		bne	.L96
 188:.\main.c      **** 		res = f_read(&BinFile, vals, BUFFER_SIZE, &BytesRead);
 1706              		.loc 1 188 0
 1707 05f2 D7F82026 		ldr	r2, [r7, #1568]
 1708 05f6 07F1C401 		add	r1, r7, #196
 1709 05fa 07F21C53 		addw	r3, r7, #1308
 1710 05fe 0846     		mov	r0, r1
ARM GAS  C:\Users\honet\AppData\Local\Temp\ccWT9Ujf.s 			page 37


 1711 0600 1146     		mov	r1, r2
 1712 0602 4FF47A52 		mov	r2, #16000
 1713 0606 FFF7FEFF 		bl	f_read
 1714 060a 0346     		mov	r3, r0
 1715 060c 87F81D36 		strb	r3, [r7, #1565]
 189:.\main.c      **** 		chkres("f_read", res);
 1716              		.loc 1 189 0
 1717 0610 97F81D36 		ldrb	r3, [r7, #1565]	@ zero_extendqisi2
 1718 0614 5348     		ldr	r0, .L133+40
 1719 0616 1946     		mov	r1, r3
 1720 0618 FFF7FEFF 		bl	chkres
 190:.\main.c      **** 		res = f_close(&BinFile);
 1721              		.loc 1 190 0
 1722 061c 07F1C403 		add	r3, r7, #196
 1723 0620 1846     		mov	r0, r3
 1724 0622 FFF7FEFF 		bl	f_close
 1725 0626 0346     		mov	r3, r0
 1726 0628 87F81D36 		strb	r3, [r7, #1565]
 191:.\main.c      **** 		chkres("f_close", res);
 1727              		.loc 1 191 0
 1728 062c 97F81D36 		ldrb	r3, [r7, #1565]	@ zero_extendqisi2
 1729 0630 4848     		ldr	r0, .L133+24
 1730 0632 1946     		mov	r1, r3
 1731 0634 FFF7FEFF 		bl	chkres
 1732              	.L96:
 192:.\main.c      **** 	}
 193:.\main.c      **** 
 194:.\main.c      **** 	//indicate in test.txt how long it took
 195:.\main.c      **** 	nTime = nmillis-nCurrentMillis;
 1733              		.loc 1 195 0
 1734 0638 434B     		ldr	r3, .L133+12
 1735 063a 1A68     		ldr	r2, [r3]
 1736 063c D7F80836 		ldr	r3, [r7, #1544]
 1737 0640 D31A     		subs	r3, r2, r3
 1738 0642 C7F80436 		str	r3, [r7, #1540]
 1739              	.LBB49:
 196:.\main.c      **** 	dmpmsg("Took %lu ms\nVerifying...", nTime);
 1740              		.loc 1 196 0
 1741 0646 1823     		movs	r3, #24
 1742 0648 C7F8E435 		str	r3, [r7, #1508]
 1743              	.LBB50:
 1744 064c 3B46     		mov	r3, r7
 1745 064e 1846     		mov	r0, r3
 1746 0650 4549     		ldr	r1, .L133+44
 1747 0652 D7F80426 		ldr	r2, [r7, #1540]
 1748 0656 FFF7FEFF 		bl	sprintf
 1749 065a 00BF     		nop
 1750              	.L97:
 1751              		.loc 1 196 0 is_stmt 0 discriminator 2
 1752 065c FFF7FEFF 		bl	USBUART_1_CDCIsReady
 1753 0660 0346     		mov	r3, r0
 1754 0662 002B     		cmp	r3, #0
 1755 0664 FAD0     		beq	.L97
 1756              		.loc 1 196 0 discriminator 3
 1757 0666 3B46     		mov	r3, r7
 1758 0668 1846     		mov	r0, r3
 1759 066a FFF7FEFF 		bl	USBUART_1_PutString
ARM GAS  C:\Users\honet\AppData\Local\Temp\ccWT9Ujf.s 			page 38


 1760              	.LBE50:
 1761 066e 07F1AC03 		add	r3, r7, #172
 1762 0672 3348     		ldr	r0, .L133+4
 1763 0674 3C49     		ldr	r1, .L133+44
 1764 0676 D7F8E425 		ldr	r2, [r7, #1508]
 1765 067a FFF7FEFF 		bl	f_write
 1766 067e 0346     		mov	r3, r0
 1767 0680 87F8E335 		strb	r3, [r7, #1507]
 1768 0684 97F8E335 		ldrb	r3, [r7, #1507]	@ zero_extendqisi2
 1769 0688 2E48     		ldr	r0, .L133+8
 1770 068a 1946     		mov	r1, r3
 1771 068c FFF7FEFF 		bl	chkres
 1772              	.LBE49:
 197:.\main.c      **** 
 198:.\main.c      **** 	unsigned char bVerifyFail = 0;
 1773              		.loc 1 198 0 is_stmt 1 discriminator 3
 1774 0690 0023     		movs	r3, #0
 1775 0692 87F83B36 		strb	r3, [r7, #1595]
 1776              	.LBB51:
 199:.\main.c      **** 	for(int i = 0; i < 500; i++) {
 1777              		.loc 1 199 0 discriminator 3
 1778 0696 0023     		movs	r3, #0
 1779 0698 C7F83436 		str	r3, [r7, #1588]
 1780 069c 21E0     		b	.L98
 1781              	.L101:
 200:.\main.c      **** 		if(vals[(int)i] != i*i) bVerifyFail = 1;
 1782              		.loc 1 200 0
 1783 069e D7F82026 		ldr	r2, [r7, #1568]
 1784 06a2 D7F83436 		ldr	r3, [r7, #1588]
 1785 06a6 DB00     		lsls	r3, r3, #3
 1786 06a8 1344     		add	r3, r3, r2
 1787 06aa D3E90045 		ldrd	r4, [r3]
 1788 06ae D7F83436 		ldr	r3, [r7, #1588]
 1789 06b2 D7F83426 		ldr	r2, [r7, #1588]
 1790 06b6 02FB03F3 		mul	r3, r2, r3
 1791 06ba 1846     		mov	r0, r3
 1792 06bc FFF7FEFF 		bl	__aeabi_i2d
 1793 06c0 0246     		mov	r2, r0
 1794 06c2 0B46     		mov	r3, r1
 1795 06c4 2046     		mov	r0, r4
 1796 06c6 2946     		mov	r1, r5
 1797 06c8 FFF7FEFF 		bl	__aeabi_dcmpeq
 1798 06cc 0346     		mov	r3, r0
 1799 06ce 002B     		cmp	r3, #0
 1800 06d0 02D1     		bne	.L99
 1801              		.loc 1 200 0 is_stmt 0 discriminator 1
 1802 06d2 0123     		movs	r3, #1
 1803 06d4 87F83B36 		strb	r3, [r7, #1595]
 1804              	.L99:
 199:.\main.c      **** 	for(int i = 0; i < 500; i++) {
 1805              		.loc 1 199 0 is_stmt 1 discriminator 2
 1806 06d8 D7F83436 		ldr	r3, [r7, #1588]
 1807 06dc 0133     		adds	r3, r3, #1
 1808 06de C7F83436 		str	r3, [r7, #1588]
 1809              	.L98:
 199:.\main.c      **** 	for(int i = 0; i < 500; i++) {
 1810              		.loc 1 199 0 is_stmt 0 discriminator 1
ARM GAS  C:\Users\honet\AppData\Local\Temp\ccWT9Ujf.s 			page 39


 1811 06e2 D7F83436 		ldr	r3, [r7, #1588]
 1812 06e6 B3F5FA7F 		cmp	r3, #500
 1813 06ea D8DB     		blt	.L101
 1814              	.LBE51:
 201:.\main.c      **** 	}
 202:.\main.c      **** 	
 203:.\main.c      **** 	if(bVerifyFail)
 1815              		.loc 1 203 0 is_stmt 1
 1816 06ec 97F83B36 		ldrb	r3, [r7, #1595]	@ zero_extendqisi2
 1817 06f0 002B     		cmp	r3, #0
 1818 06f2 3DD0     		beq	.L102
 1819              	.LBB52:
 204:.\main.c      **** 		dmpmsg("FAIL :O\n");
 1820              		.loc 1 204 0
 1821 06f4 0823     		movs	r3, #8
 1822 06f6 C7F8DC35 		str	r3, [r7, #1500]
 1823              	.LBB53:
 1824 06fa 3B46     		mov	r3, r7
 1825 06fc 1B4A     		ldr	r2, .L133+48
 1826 06fe 07CA     		ldmia	r2, {r0, r1, r2}
 1827 0700 03C3     		stmia	r3!, {r0, r1}
 1828 0702 1A70     		strb	r2, [r3]
 1829 0704 00BF     		nop
 1830              	.L103:
 1831              		.loc 1 204 0 is_stmt 0 discriminator 2
 1832 0706 FFF7FEFF 		bl	USBUART_1_CDCIsReady
 1833 070a 0346     		mov	r3, r0
 1834 070c 002B     		cmp	r3, #0
 1835 070e FAD0     		beq	.L103
 1836              		.loc 1 204 0 discriminator 3
 1837 0710 3B46     		mov	r3, r7
 1838 0712 1846     		mov	r0, r3
 1839 0714 FFF7FEFF 		bl	USBUART_1_PutString
 1840              	.LBE53:
 1841 0718 07F1A803 		add	r3, r7, #168
 1842 071c 0848     		ldr	r0, .L133+4
 1843 071e 1349     		ldr	r1, .L133+48
 1844 0720 D7F8DC25 		ldr	r2, [r7, #1500]
 1845 0724 FFF7FEFF 		bl	f_write
 1846 0728 0346     		mov	r3, r0
 1847 072a 87F8DB35 		strb	r3, [r7, #1499]
 1848 072e 97F8DB35 		ldrb	r3, [r7, #1499]	@ zero_extendqisi2
 1849 0732 0448     		ldr	r0, .L133+8
 1850 0734 1946     		mov	r1, r3
 1851 0736 FFF7FEFF 		bl	chkres
 1852              	.LBE52:
 1853 073a 41E0     		b	.L104
 1854              	.L134:
 1855              		.align	2
 1856              	.L133:
 1857 073c 6C020000 		.word	.LC40
 1858 0740 00000000 		.word	File
 1859 0744 64020000 		.word	.LC39
 1860 0748 00000000 		.word	nmillis
 1861 074c 90020000 		.word	.LC41
 1862 0750 4C020000 		.word	.LC37
 1863 0754 A0020000 		.word	.LC42
ARM GAS  C:\Users\honet\AppData\Local\Temp\ccWT9Ujf.s 			page 40


 1864 0758 A8020000 		.word	.LC43
 1865 075c B8020000 		.word	.LC44
 1866 0760 C8020000 		.word	.LC45
 1867 0764 F0020000 		.word	.LC46
 1868 0768 F8020000 		.word	.LC47
 1869 076c 14030000 		.word	.LC48
 1870              	.L102:
 1871              	.LBB54:
 205:.\main.c      **** 	else
 206:.\main.c      **** 		dmpmsg(" All Good! :D\n");
 1872              		.loc 1 206 0 is_stmt 1
 1873 0770 0E23     		movs	r3, #14
 1874 0772 C7F8D435 		str	r3, [r7, #1492]
 1875              	.LBB55:
 1876 0776 3B46     		mov	r3, r7
 1877 0778 354A     		ldr	r2, .L135
 1878 077a 1C46     		mov	r4, r3
 1879 077c 1346     		mov	r3, r2
 1880 077e 0FCB     		ldmia	r3, {r0, r1, r2, r3}
 1881 0780 07C4     		stmia	r4!, {r0, r1, r2}
 1882 0782 2380     		strh	r3, [r4]	@ movhi
 1883 0784 0234     		adds	r4, r4, #2
 1884 0786 1B0C     		lsrs	r3, r3, #16
 1885 0788 2370     		strb	r3, [r4]
 1886 078a 00BF     		nop
 1887              	.L105:
 1888              		.loc 1 206 0 is_stmt 0 discriminator 2
 1889 078c FFF7FEFF 		bl	USBUART_1_CDCIsReady
 1890 0790 0346     		mov	r3, r0
 1891 0792 002B     		cmp	r3, #0
 1892 0794 FAD0     		beq	.L105
 1893              		.loc 1 206 0 discriminator 3
 1894 0796 3B46     		mov	r3, r7
 1895 0798 1846     		mov	r0, r3
 1896 079a FFF7FEFF 		bl	USBUART_1_PutString
 1897              	.LBE55:
 1898 079e 07F1A403 		add	r3, r7, #164
 1899 07a2 2C48     		ldr	r0, .L135+4
 1900 07a4 2A49     		ldr	r1, .L135
 1901 07a6 D7F8D425 		ldr	r2, [r7, #1492]
 1902 07aa FFF7FEFF 		bl	f_write
 1903 07ae 0346     		mov	r3, r0
 1904 07b0 87F8D335 		strb	r3, [r7, #1491]
 1905 07b4 97F8D335 		ldrb	r3, [r7, #1491]	@ zero_extendqisi2
 1906 07b8 2748     		ldr	r0, .L135+8
 1907 07ba 1946     		mov	r1, r3
 1908 07bc FFF7FEFF 		bl	chkres
 1909              	.L104:
 1910              	.LBE54:
 207:.\main.c      **** 
 208:.\main.c      **** 	kbps = BUFFER_SIZE*8 / nTime;
 1911              		.loc 1 208 0 is_stmt 1
 1912 07c0 4FF4FA32 		mov	r2, #128000
 1913 07c4 D7F80436 		ldr	r3, [r7, #1540]
 1914 07c8 B2FBF3F3 		udiv	r3, r2, r3
 1915 07cc C7F8F835 		str	r3, [r7, #1528]
 1916              	.LBB56:
ARM GAS  C:\Users\honet\AppData\Local\Temp\ccWT9Ujf.s 			page 41


 209:.\main.c      **** 	dmpmsg("Rate %lu kbps\n\n", kbps);
 1917              		.loc 1 209 0
 1918 07d0 0F23     		movs	r3, #15
 1919 07d2 C7F8CC35 		str	r3, [r7, #1484]
 1920              	.LBB57:
 1921 07d6 3B46     		mov	r3, r7
 1922 07d8 1846     		mov	r0, r3
 1923 07da 2049     		ldr	r1, .L135+12
 1924 07dc D7F8F825 		ldr	r2, [r7, #1528]
 1925 07e0 FFF7FEFF 		bl	sprintf
 1926 07e4 00BF     		nop
 1927              	.L106:
 1928              		.loc 1 209 0 is_stmt 0 discriminator 2
 1929 07e6 FFF7FEFF 		bl	USBUART_1_CDCIsReady
 1930 07ea 0346     		mov	r3, r0
 1931 07ec 002B     		cmp	r3, #0
 1932 07ee FAD0     		beq	.L106
 1933              		.loc 1 209 0 discriminator 3
 1934 07f0 3B46     		mov	r3, r7
 1935 07f2 1846     		mov	r0, r3
 1936 07f4 FFF7FEFF 		bl	USBUART_1_PutString
 1937              	.LBE57:
 1938 07f8 07F1A003 		add	r3, r7, #160
 1939 07fc 1548     		ldr	r0, .L135+4
 1940 07fe 1749     		ldr	r1, .L135+12
 1941 0800 D7F8CC25 		ldr	r2, [r7, #1484]
 1942 0804 FFF7FEFF 		bl	f_write
 1943 0808 0346     		mov	r3, r0
 1944 080a 87F8CB35 		strb	r3, [r7, #1483]
 1945 080e 97F8CB35 		ldrb	r3, [r7, #1483]	@ zero_extendqisi2
 1946 0812 1148     		ldr	r0, .L135+8
 1947 0814 1946     		mov	r1, r3
 1948 0816 FFF7FEFF 		bl	chkres
 1949              	.LBE56:
 1950              	.LBB58:
 210:.\main.c      **** 
 211:.\main.c      **** 	// ----------------------------------------------------------------------------
 212:.\main.c      **** 	dbgprint(">>>>Testing DMA mode...\n");
 1951              		.loc 1 212 0 is_stmt 1 discriminator 3
 1952 081a 3B46     		mov	r3, r7
 1953 081c 104A     		ldr	r2, .L135+16
 1954 081e 1C46     		mov	r4, r3
 1955 0820 1546     		mov	r5, r2
 1956 0822 0FCD     		ldmia	r5!, {r0, r1, r2, r3}
 1957 0824 0FC4     		stmia	r4!, {r0, r1, r2, r3}
 1958 0826 95E80700 		ldmia	r5, {r0, r1, r2}
 1959 082a 03C4     		stmia	r4!, {r0, r1}
 1960 082c 2270     		strb	r2, [r4]
 1961 082e 00BF     		nop
 1962              	.L107:
 1963              		.loc 1 212 0 is_stmt 0 discriminator 2
 1964 0830 FFF7FEFF 		bl	USBUART_1_CDCIsReady
 1965 0834 0346     		mov	r3, r0
 1966 0836 002B     		cmp	r3, #0
 1967 0838 FAD0     		beq	.L107
 1968              		.loc 1 212 0 discriminator 3
 1969 083a 3B46     		mov	r3, r7
ARM GAS  C:\Users\honet\AppData\Local\Temp\ccWT9Ujf.s 			page 42


 1970 083c 1846     		mov	r0, r3
 1971 083e FFF7FEFF 		bl	USBUART_1_PutString
 1972              	.LBE58:
 213:.\main.c      **** 	//Now, enable DMA...
 214:.\main.c      **** 	SDSPI_SetDMAMode(1);
 1973              		.loc 1 214 0 is_stmt 1 discriminator 3
 1974 0842 0120     		movs	r0, #1
 1975 0844 FFF7FEFF 		bl	SDSPI_SetDMAMode
 1976              	.LBB59:
 215:.\main.c      ****     
 216:.\main.c      **** for(int k=0; k<20; k++){
 1977              		.loc 1 216 0 discriminator 3
 1978 0848 0023     		movs	r3, #0
 1979 084a C7F83036 		str	r3, [r7, #1584]
 1980 084e 25E2     		b	.L108
 1981              	.L136:
 1982              		.align	2
 1983              	.L135:
 1984 0850 20030000 		.word	.LC49
 1985 0854 00000000 		.word	File
 1986 0858 64020000 		.word	.LC39
 1987 085c B8020000 		.word	.LC44
 1988 0860 30030000 		.word	.LC50
 1989              	.L125:
 1990              	.LBB60:
 217:.\main.c      **** 	//and repeat tests
 218:.\main.c      **** 	//Indicate in test.txt what we're doing
 219:.\main.c      **** 	dmpmsg( "Writing %d bytes to file, DMA\n", BUFFER_SIZE);
 1991              		.loc 1 219 0
 1992 0864 1E23     		movs	r3, #30
 1993 0866 C7F8C435 		str	r3, [r7, #1476]
 1994              	.LBB61:
 1995 086a 3B46     		mov	r3, r7
 1996 086c 1846     		mov	r0, r3
 1997 086e CF49     		ldr	r1, .L137
 1998 0870 4FF47A52 		mov	r2, #16000
 1999 0874 FFF7FEFF 		bl	sprintf
 2000 0878 00BF     		nop
 2001              	.L109:
 2002              		.loc 1 219 0 is_stmt 0 discriminator 2
 2003 087a FFF7FEFF 		bl	USBUART_1_CDCIsReady
 2004 087e 0346     		mov	r3, r0
 2005 0880 002B     		cmp	r3, #0
 2006 0882 FAD0     		beq	.L109
 2007              		.loc 1 219 0 discriminator 3
 2008 0884 3B46     		mov	r3, r7
 2009 0886 1846     		mov	r0, r3
 2010 0888 FFF7FEFF 		bl	USBUART_1_PutString
 2011              	.LBE61:
 2012 088c 07F19C03 		add	r3, r7, #156
 2013 0890 C748     		ldr	r0, .L137+4
 2014 0892 C649     		ldr	r1, .L137
 2015 0894 D7F8C425 		ldr	r2, [r7, #1476]
 2016 0898 FFF7FEFF 		bl	f_write
 2017 089c 0346     		mov	r3, r0
 2018 089e 87F8C335 		strb	r3, [r7, #1475]
 2019 08a2 97F8C335 		ldrb	r3, [r7, #1475]	@ zero_extendqisi2
ARM GAS  C:\Users\honet\AppData\Local\Temp\ccWT9Ujf.s 			page 43


 2020 08a6 C348     		ldr	r0, .L137+8
 2021 08a8 1946     		mov	r1, r3
 2022 08aa FFF7FEFF 		bl	chkres
 2023              	.LBE60:
 220:.\main.c      **** 
 221:.\main.c      **** 	//perform operation
 222:.\main.c      **** 	nCurrentMillis = nmillis; //get current millisecond count
 2024              		.loc 1 222 0 is_stmt 1 discriminator 3
 2025 08ae C24B     		ldr	r3, .L137+12
 2026 08b0 1B68     		ldr	r3, [r3]
 2027 08b2 C7F80836 		str	r3, [r7, #1544]
 223:.\main.c      **** 	res = f_open(&BinFile, "//TESTDMA.bin", FA_CREATE_ALWAYS | FA_WRITE);
 2028              		.loc 1 223 0 discriminator 3
 2029 08b6 07F1C403 		add	r3, r7, #196
 2030 08ba 1846     		mov	r0, r3
 2031 08bc BF49     		ldr	r1, .L137+16
 2032 08be 0A22     		movs	r2, #10
 2033 08c0 FFF7FEFF 		bl	f_open
 2034 08c4 0346     		mov	r3, r0
 2035 08c6 87F81D36 		strb	r3, [r7, #1565]
 224:.\main.c      **** 	chkres("f_open", res);
 2036              		.loc 1 224 0 discriminator 3
 2037 08ca 97F81D36 		ldrb	r3, [r7, #1565]	@ zero_extendqisi2
 2038 08ce BC48     		ldr	r0, .L137+20
 2039 08d0 1946     		mov	r1, r3
 2040 08d2 FFF7FEFF 		bl	chkres
 225:.\main.c      **** 	if (res==FR_OK){
 2041              		.loc 1 225 0 discriminator 3
 2042 08d6 97F81D36 		ldrb	r3, [r7, #1565]	@ zero_extendqisi2
 2043 08da 002B     		cmp	r3, #0
 2044 08dc 22D1     		bne	.L110
 226:.\main.c      **** 		res = f_write(&BinFile, vals, BUFFER_SIZE, &BytesWritten);
 2045              		.loc 1 226 0
 2046 08de D7F82026 		ldr	r2, [r7, #1568]
 2047 08e2 07F1C401 		add	r1, r7, #196
 2048 08e6 07F5A463 		add	r3, r7, #1312
 2049 08ea 0846     		mov	r0, r1
 2050 08ec 1146     		mov	r1, r2
 2051 08ee 4FF47A52 		mov	r2, #16000
 2052 08f2 FFF7FEFF 		bl	f_write
 2053 08f6 0346     		mov	r3, r0
 2054 08f8 87F81D36 		strb	r3, [r7, #1565]
 227:.\main.c      **** 		chkres("f_write", res);
 2055              		.loc 1 227 0
 2056 08fc 97F81D36 		ldrb	r3, [r7, #1565]	@ zero_extendqisi2
 2057 0900 AC48     		ldr	r0, .L137+8
 2058 0902 1946     		mov	r1, r3
 2059 0904 FFF7FEFF 		bl	chkres
 228:.\main.c      **** 		res = f_close(&BinFile);
 2060              		.loc 1 228 0
 2061 0908 07F1C403 		add	r3, r7, #196
 2062 090c 1846     		mov	r0, r3
 2063 090e FFF7FEFF 		bl	f_close
 2064 0912 0346     		mov	r3, r0
 2065 0914 87F81D36 		strb	r3, [r7, #1565]
 229:.\main.c      **** 		chkres("f_close", res);
 2066              		.loc 1 229 0
ARM GAS  C:\Users\honet\AppData\Local\Temp\ccWT9Ujf.s 			page 44


 2067 0918 97F81D36 		ldrb	r3, [r7, #1565]	@ zero_extendqisi2
 2068 091c A948     		ldr	r0, .L137+24
 2069 091e 1946     		mov	r1, r3
 2070 0920 FFF7FEFF 		bl	chkres
 2071              	.L110:
 230:.\main.c      **** 	}
 231:.\main.c      **** 
 232:.\main.c      **** 	//indicate in test.txt how long it took
 233:.\main.c      **** 	nTime = nmillis-nCurrentMillis;
 2072              		.loc 1 233 0
 2073 0924 A44B     		ldr	r3, .L137+12
 2074 0926 1A68     		ldr	r2, [r3]
 2075 0928 D7F80836 		ldr	r3, [r7, #1544]
 2076 092c D31A     		subs	r3, r2, r3
 2077 092e C7F80436 		str	r3, [r7, #1540]
 2078              	.LBB62:
 234:.\main.c      **** 	dmpmsg("Took %lu ms\n", nTime);
 2079              		.loc 1 234 0
 2080 0932 0C23     		movs	r3, #12
 2081 0934 C7F8BC35 		str	r3, [r7, #1468]
 2082              	.LBB63:
 2083 0938 3B46     		mov	r3, r7
 2084 093a 1846     		mov	r0, r3
 2085 093c A249     		ldr	r1, .L137+28
 2086 093e D7F80426 		ldr	r2, [r7, #1540]
 2087 0942 FFF7FEFF 		bl	sprintf
 2088 0946 00BF     		nop
 2089              	.L111:
 2090              		.loc 1 234 0 is_stmt 0 discriminator 2
 2091 0948 FFF7FEFF 		bl	USBUART_1_CDCIsReady
 2092 094c 0346     		mov	r3, r0
 2093 094e 002B     		cmp	r3, #0
 2094 0950 FAD0     		beq	.L111
 2095              		.loc 1 234 0 discriminator 3
 2096 0952 3B46     		mov	r3, r7
 2097 0954 1846     		mov	r0, r3
 2098 0956 FFF7FEFF 		bl	USBUART_1_PutString
 2099              	.LBE63:
 2100 095a 07F19803 		add	r3, r7, #152
 2101 095e 9448     		ldr	r0, .L137+4
 2102 0960 9949     		ldr	r1, .L137+28
 2103 0962 D7F8BC25 		ldr	r2, [r7, #1468]
 2104 0966 FFF7FEFF 		bl	f_write
 2105 096a 0346     		mov	r3, r0
 2106 096c 87F8BB35 		strb	r3, [r7, #1467]
 2107 0970 97F8BB35 		ldrb	r3, [r7, #1467]	@ zero_extendqisi2
 2108 0974 8F48     		ldr	r0, .L137+8
 2109 0976 1946     		mov	r1, r3
 2110 0978 FFF7FEFF 		bl	chkres
 2111              	.LBE62:
 235:.\main.c      **** 
 236:.\main.c      **** 	kbps = BUFFER_SIZE*8 / nTime;
 2112              		.loc 1 236 0 is_stmt 1 discriminator 3
 2113 097c 4FF4FA32 		mov	r2, #128000
 2114 0980 D7F80436 		ldr	r3, [r7, #1540]
 2115 0984 B2FBF3F3 		udiv	r3, r2, r3
 2116 0988 C7F8F835 		str	r3, [r7, #1528]
ARM GAS  C:\Users\honet\AppData\Local\Temp\ccWT9Ujf.s 			page 45


 2117              	.LBB64:
 237:.\main.c      **** 	dmpmsg("Rate %lu kbps\n\n", kbps);
 2118              		.loc 1 237 0 discriminator 3
 2119 098c 0F23     		movs	r3, #15
 2120 098e C7F8B435 		str	r3, [r7, #1460]
 2121              	.LBB65:
 2122 0992 3B46     		mov	r3, r7
 2123 0994 1846     		mov	r0, r3
 2124 0996 8D49     		ldr	r1, .L137+32
 2125 0998 D7F8F825 		ldr	r2, [r7, #1528]
 2126 099c FFF7FEFF 		bl	sprintf
 2127 09a0 00BF     		nop
 2128              	.L112:
 2129              		.loc 1 237 0 is_stmt 0 discriminator 2
 2130 09a2 FFF7FEFF 		bl	USBUART_1_CDCIsReady
 2131 09a6 0346     		mov	r3, r0
 2132 09a8 002B     		cmp	r3, #0
 2133 09aa FAD0     		beq	.L112
 2134              		.loc 1 237 0 discriminator 3
 2135 09ac 3B46     		mov	r3, r7
 2136 09ae 1846     		mov	r0, r3
 2137 09b0 FFF7FEFF 		bl	USBUART_1_PutString
 2138              	.LBE65:
 2139 09b4 07F19403 		add	r3, r7, #148
 2140 09b8 7D48     		ldr	r0, .L137+4
 2141 09ba 8449     		ldr	r1, .L137+32
 2142 09bc D7F8B425 		ldr	r2, [r7, #1460]
 2143 09c0 FFF7FEFF 		bl	f_write
 2144 09c4 0346     		mov	r3, r0
 2145 09c6 87F8B335 		strb	r3, [r7, #1459]
 2146 09ca 97F8B335 		ldrb	r3, [r7, #1459]	@ zero_extendqisi2
 2147 09ce 7948     		ldr	r0, .L137+8
 2148 09d0 1946     		mov	r1, r3
 2149 09d2 FFF7FEFF 		bl	chkres
 2150              	.LBE64:
 2151              	.LBB66:
 238:.\main.c      **** 
 239:.\main.c      **** 	//Next, read file in
 240:.\main.c      **** 
 241:.\main.c      **** 	//Indicate in test.txt what we're doing
 242:.\main.c      **** 	dmpmsg("Reading %d bytes from file, DMA\n", BUFFER_SIZE);
 2152              		.loc 1 242 0 is_stmt 1 discriminator 3
 2153 09d6 2023     		movs	r3, #32
 2154 09d8 C7F8AC35 		str	r3, [r7, #1452]
 2155              	.LBB67:
 2156 09dc 3B46     		mov	r3, r7
 2157 09de 1846     		mov	r0, r3
 2158 09e0 7B49     		ldr	r1, .L137+36
 2159 09e2 4FF47A52 		mov	r2, #16000
 2160 09e6 FFF7FEFF 		bl	sprintf
 2161 09ea 00BF     		nop
 2162              	.L113:
 2163              		.loc 1 242 0 is_stmt 0 discriminator 2
 2164 09ec FFF7FEFF 		bl	USBUART_1_CDCIsReady
 2165 09f0 0346     		mov	r3, r0
 2166 09f2 002B     		cmp	r3, #0
 2167 09f4 FAD0     		beq	.L113
ARM GAS  C:\Users\honet\AppData\Local\Temp\ccWT9Ujf.s 			page 46


 2168              		.loc 1 242 0 discriminator 3
 2169 09f6 3B46     		mov	r3, r7
 2170 09f8 1846     		mov	r0, r3
 2171 09fa FFF7FEFF 		bl	USBUART_1_PutString
 2172              	.LBE67:
 2173 09fe 07F19003 		add	r3, r7, #144
 2174 0a02 6B48     		ldr	r0, .L137+4
 2175 0a04 7249     		ldr	r1, .L137+36
 2176 0a06 D7F8AC25 		ldr	r2, [r7, #1452]
 2177 0a0a FFF7FEFF 		bl	f_write
 2178 0a0e 0346     		mov	r3, r0
 2179 0a10 87F8AB35 		strb	r3, [r7, #1451]
 2180 0a14 97F8AB35 		ldrb	r3, [r7, #1451]	@ zero_extendqisi2
 2181 0a18 6648     		ldr	r0, .L137+8
 2182 0a1a 1946     		mov	r1, r3
 2183 0a1c FFF7FEFF 		bl	chkres
 2184              	.LBE66:
 243:.\main.c      **** 
 244:.\main.c      **** 	memset(vals, 0x00, BUFFER_SIZE);
 2185              		.loc 1 244 0 is_stmt 1 discriminator 3
 2186 0a20 D7F82036 		ldr	r3, [r7, #1568]
 2187 0a24 1846     		mov	r0, r3
 2188 0a26 0021     		movs	r1, #0
 2189 0a28 4FF47A52 		mov	r2, #16000
 2190 0a2c FFF7FEFF 		bl	memset
 245:.\main.c      **** 
 246:.\main.c      **** 	//perform operation
 247:.\main.c      **** 	nCurrentMillis = nmillis; //get current millisecond count
 2191              		.loc 1 247 0 discriminator 3
 2192 0a30 614B     		ldr	r3, .L137+12
 2193 0a32 1B68     		ldr	r3, [r3]
 2194 0a34 C7F80836 		str	r3, [r7, #1544]
 248:.\main.c      **** 
 249:.\main.c      **** 	res = f_open(&BinFile, "//TESTDMA.bin", FA_OPEN_EXISTING | FA_READ);
 2195              		.loc 1 249 0 discriminator 3
 2196 0a38 07F1C403 		add	r3, r7, #196
 2197 0a3c 1846     		mov	r0, r3
 2198 0a3e 5F49     		ldr	r1, .L137+16
 2199 0a40 0122     		movs	r2, #1
 2200 0a42 FFF7FEFF 		bl	f_open
 2201 0a46 0346     		mov	r3, r0
 2202 0a48 87F81D36 		strb	r3, [r7, #1565]
 250:.\main.c      **** 	chkres("f_open", res);
 2203              		.loc 1 250 0 discriminator 3
 2204 0a4c 97F81D36 		ldrb	r3, [r7, #1565]	@ zero_extendqisi2
 2205 0a50 5B48     		ldr	r0, .L137+20
 2206 0a52 1946     		mov	r1, r3
 2207 0a54 FFF7FEFF 		bl	chkres
 251:.\main.c      **** 	if(res==FR_OK){
 2208              		.loc 1 251 0 discriminator 3
 2209 0a58 97F81D36 		ldrb	r3, [r7, #1565]	@ zero_extendqisi2
 2210 0a5c 002B     		cmp	r3, #0
 2211 0a5e 22D1     		bne	.L114
 252:.\main.c      **** 		res = f_read(&BinFile, vals, BUFFER_SIZE, &BytesRead);
 2212              		.loc 1 252 0
 2213 0a60 D7F82026 		ldr	r2, [r7, #1568]
 2214 0a64 07F1C401 		add	r1, r7, #196
ARM GAS  C:\Users\honet\AppData\Local\Temp\ccWT9Ujf.s 			page 47


 2215 0a68 07F21C53 		addw	r3, r7, #1308
 2216 0a6c 0846     		mov	r0, r1
 2217 0a6e 1146     		mov	r1, r2
 2218 0a70 4FF47A52 		mov	r2, #16000
 2219 0a74 FFF7FEFF 		bl	f_read
 2220 0a78 0346     		mov	r3, r0
 2221 0a7a 87F81D36 		strb	r3, [r7, #1565]
 253:.\main.c      **** 		chkres("f_read", res);
 2222              		.loc 1 253 0
 2223 0a7e 97F81D36 		ldrb	r3, [r7, #1565]	@ zero_extendqisi2
 2224 0a82 5448     		ldr	r0, .L137+40
 2225 0a84 1946     		mov	r1, r3
 2226 0a86 FFF7FEFF 		bl	chkres
 254:.\main.c      **** 		res = f_close(&BinFile);
 2227              		.loc 1 254 0
 2228 0a8a 07F1C403 		add	r3, r7, #196
 2229 0a8e 1846     		mov	r0, r3
 2230 0a90 FFF7FEFF 		bl	f_close
 2231 0a94 0346     		mov	r3, r0
 2232 0a96 87F81D36 		strb	r3, [r7, #1565]
 255:.\main.c      **** 		chkres("f_close", res);
 2233              		.loc 1 255 0
 2234 0a9a 97F81D36 		ldrb	r3, [r7, #1565]	@ zero_extendqisi2
 2235 0a9e 4948     		ldr	r0, .L137+24
 2236 0aa0 1946     		mov	r1, r3
 2237 0aa2 FFF7FEFF 		bl	chkres
 2238              	.L114:
 256:.\main.c      **** 	}
 257:.\main.c      **** 
 258:.\main.c      **** 	//indicate in test.txt how long it took
 259:.\main.c      **** 	nTime = nmillis-nCurrentMillis;
 2239              		.loc 1 259 0
 2240 0aa6 444B     		ldr	r3, .L137+12
 2241 0aa8 1A68     		ldr	r2, [r3]
 2242 0aaa D7F80836 		ldr	r3, [r7, #1544]
 2243 0aae D31A     		subs	r3, r2, r3
 2244 0ab0 C7F80436 		str	r3, [r7, #1540]
 2245              	.LBB68:
 260:.\main.c      **** 	dmpmsg("Took %lu ms\nVerifying...", nTime);
 2246              		.loc 1 260 0
 2247 0ab4 1823     		movs	r3, #24
 2248 0ab6 C7F8A435 		str	r3, [r7, #1444]
 2249              	.LBB69:
 2250 0aba 3B46     		mov	r3, r7
 2251 0abc 1846     		mov	r0, r3
 2252 0abe 4649     		ldr	r1, .L137+44
 2253 0ac0 D7F80426 		ldr	r2, [r7, #1540]
 2254 0ac4 FFF7FEFF 		bl	sprintf
 2255 0ac8 00BF     		nop
 2256              	.L115:
 2257              		.loc 1 260 0 is_stmt 0 discriminator 2
 2258 0aca FFF7FEFF 		bl	USBUART_1_CDCIsReady
 2259 0ace 0346     		mov	r3, r0
 2260 0ad0 002B     		cmp	r3, #0
 2261 0ad2 FAD0     		beq	.L115
 2262              		.loc 1 260 0 discriminator 3
 2263 0ad4 3B46     		mov	r3, r7
ARM GAS  C:\Users\honet\AppData\Local\Temp\ccWT9Ujf.s 			page 48


 2264 0ad6 1846     		mov	r0, r3
 2265 0ad8 FFF7FEFF 		bl	USBUART_1_PutString
 2266              	.LBE69:
 2267 0adc 07F18C03 		add	r3, r7, #140
 2268 0ae0 3348     		ldr	r0, .L137+4
 2269 0ae2 3D49     		ldr	r1, .L137+44
 2270 0ae4 D7F8A425 		ldr	r2, [r7, #1444]
 2271 0ae8 FFF7FEFF 		bl	f_write
 2272 0aec 0346     		mov	r3, r0
 2273 0aee 87F8A335 		strb	r3, [r7, #1443]
 2274 0af2 97F8A335 		ldrb	r3, [r7, #1443]	@ zero_extendqisi2
 2275 0af6 2F48     		ldr	r0, .L137+8
 2276 0af8 1946     		mov	r1, r3
 2277 0afa FFF7FEFF 		bl	chkres
 2278              	.LBE68:
 261:.\main.c      **** 
 262:.\main.c      **** 	bVerifyFail = 0;
 2279              		.loc 1 262 0 is_stmt 1 discriminator 3
 2280 0afe 0023     		movs	r3, #0
 2281 0b00 87F83B36 		strb	r3, [r7, #1595]
 2282              	.LBB70:
 263:.\main.c      **** 	for(int i = 0; i < 500; i++) {
 2283              		.loc 1 263 0 discriminator 3
 2284 0b04 0023     		movs	r3, #0
 2285 0b06 C7F82C36 		str	r3, [r7, #1580]
 2286 0b0a 21E0     		b	.L116
 2287              	.L119:
 264:.\main.c      **** 		if(vals[i] != i*i) bVerifyFail = 1;
 2288              		.loc 1 264 0
 2289 0b0c D7F82026 		ldr	r2, [r7, #1568]
 2290 0b10 D7F82C36 		ldr	r3, [r7, #1580]
 2291 0b14 DB00     		lsls	r3, r3, #3
 2292 0b16 1344     		add	r3, r3, r2
 2293 0b18 D3E90045 		ldrd	r4, [r3]
 2294 0b1c D7F82C36 		ldr	r3, [r7, #1580]
 2295 0b20 D7F82C26 		ldr	r2, [r7, #1580]
 2296 0b24 02FB03F3 		mul	r3, r2, r3
 2297 0b28 1846     		mov	r0, r3
 2298 0b2a FFF7FEFF 		bl	__aeabi_i2d
 2299 0b2e 0246     		mov	r2, r0
 2300 0b30 0B46     		mov	r3, r1
 2301 0b32 2046     		mov	r0, r4
 2302 0b34 2946     		mov	r1, r5
 2303 0b36 FFF7FEFF 		bl	__aeabi_dcmpeq
 2304 0b3a 0346     		mov	r3, r0
 2305 0b3c 002B     		cmp	r3, #0
 2306 0b3e 02D1     		bne	.L117
 2307              		.loc 1 264 0 is_stmt 0 discriminator 1
 2308 0b40 0123     		movs	r3, #1
 2309 0b42 87F83B36 		strb	r3, [r7, #1595]
 2310              	.L117:
 263:.\main.c      **** 	for(int i = 0; i < 500; i++) {
 2311              		.loc 1 263 0 is_stmt 1 discriminator 2
 2312 0b46 D7F82C36 		ldr	r3, [r7, #1580]
 2313 0b4a 0133     		adds	r3, r3, #1
 2314 0b4c C7F82C36 		str	r3, [r7, #1580]
 2315              	.L116:
ARM GAS  C:\Users\honet\AppData\Local\Temp\ccWT9Ujf.s 			page 49


 263:.\main.c      **** 	for(int i = 0; i < 500; i++) {
 2316              		.loc 1 263 0 is_stmt 0 discriminator 1
 2317 0b50 D7F82C36 		ldr	r3, [r7, #1580]
 2318 0b54 B3F5FA7F 		cmp	r3, #500
 2319 0b58 D8DB     		blt	.L119
 2320              	.LBE70:
 265:.\main.c      **** 	}
 266:.\main.c      **** 	
 267:.\main.c      **** 	if(bVerifyFail)
 2321              		.loc 1 267 0 is_stmt 1
 2322 0b5a 97F83B36 		ldrb	r3, [r7, #1595]	@ zero_extendqisi2
 2323 0b5e 002B     		cmp	r3, #0
 2324 0b60 3ED0     		beq	.L120
 2325              	.LBB71:
 268:.\main.c      **** 		dmpmsg("FAIL :O\n");
 2326              		.loc 1 268 0
 2327 0b62 0823     		movs	r3, #8
 2328 0b64 C7F89C35 		str	r3, [r7, #1436]
 2329              	.LBB72:
 2330 0b68 3B46     		mov	r3, r7
 2331 0b6a 1C4A     		ldr	r2, .L137+48
 2332 0b6c 07CA     		ldmia	r2, {r0, r1, r2}
 2333 0b6e 03C3     		stmia	r3!, {r0, r1}
 2334 0b70 1A70     		strb	r2, [r3]
 2335 0b72 00BF     		nop
 2336              	.L121:
 2337              		.loc 1 268 0 is_stmt 0 discriminator 2
 2338 0b74 FFF7FEFF 		bl	USBUART_1_CDCIsReady
 2339 0b78 0346     		mov	r3, r0
 2340 0b7a 002B     		cmp	r3, #0
 2341 0b7c FAD0     		beq	.L121
 2342              		.loc 1 268 0 discriminator 3
 2343 0b7e 3B46     		mov	r3, r7
 2344 0b80 1846     		mov	r0, r3
 2345 0b82 FFF7FEFF 		bl	USBUART_1_PutString
 2346              	.LBE72:
 2347 0b86 07F18803 		add	r3, r7, #136
 2348 0b8a 0948     		ldr	r0, .L137+4
 2349 0b8c 1349     		ldr	r1, .L137+48
 2350 0b8e D7F89C25 		ldr	r2, [r7, #1436]
 2351 0b92 FFF7FEFF 		bl	f_write
 2352 0b96 0346     		mov	r3, r0
 2353 0b98 87F89B35 		strb	r3, [r7, #1435]
 2354 0b9c 97F89B35 		ldrb	r3, [r7, #1435]	@ zero_extendqisi2
 2355 0ba0 0448     		ldr	r0, .L137+8
 2356 0ba2 1946     		mov	r1, r3
 2357 0ba4 FFF7FEFF 		bl	chkres
 2358              	.LBE71:
 2359 0ba8 42E0     		b	.L122
 2360              	.L138:
 2361 0baa 00BF     		.align	2
 2362              	.L137:
 2363 0bac 4C030000 		.word	.LC51
 2364 0bb0 00000000 		.word	File
 2365 0bb4 64020000 		.word	.LC39
 2366 0bb8 00000000 		.word	nmillis
 2367 0bbc 6C030000 		.word	.LC52
ARM GAS  C:\Users\honet\AppData\Local\Temp\ccWT9Ujf.s 			page 50


 2368 0bc0 4C020000 		.word	.LC37
 2369 0bc4 A0020000 		.word	.LC42
 2370 0bc8 A8020000 		.word	.LC43
 2371 0bcc B8020000 		.word	.LC44
 2372 0bd0 7C030000 		.word	.LC53
 2373 0bd4 F0020000 		.word	.LC46
 2374 0bd8 F8020000 		.word	.LC47
 2375 0bdc 14030000 		.word	.LC48
 2376              	.L120:
 2377              	.LBB73:
 269:.\main.c      **** 	else
 270:.\main.c      **** 		dmpmsg(" All Good! :D\n");
 2378              		.loc 1 270 0 is_stmt 1
 2379 0be0 0E23     		movs	r3, #14
 2380 0be2 C7F89435 		str	r3, [r7, #1428]
 2381              	.LBB74:
 2382 0be6 3B46     		mov	r3, r7
 2383 0be8 424A     		ldr	r2, .L139
 2384 0bea 1C46     		mov	r4, r3
 2385 0bec 1346     		mov	r3, r2
 2386 0bee 0FCB     		ldmia	r3, {r0, r1, r2, r3}
 2387 0bf0 07C4     		stmia	r4!, {r0, r1, r2}
 2388 0bf2 2380     		strh	r3, [r4]	@ movhi
 2389 0bf4 0234     		adds	r4, r4, #2
 2390 0bf6 1B0C     		lsrs	r3, r3, #16
 2391 0bf8 2370     		strb	r3, [r4]
 2392 0bfa 00BF     		nop
 2393              	.L123:
 2394              		.loc 1 270 0 is_stmt 0 discriminator 2
 2395 0bfc FFF7FEFF 		bl	USBUART_1_CDCIsReady
 2396 0c00 0346     		mov	r3, r0
 2397 0c02 002B     		cmp	r3, #0
 2398 0c04 FAD0     		beq	.L123
 2399              		.loc 1 270 0 discriminator 3
 2400 0c06 3B46     		mov	r3, r7
 2401 0c08 1846     		mov	r0, r3
 2402 0c0a FFF7FEFF 		bl	USBUART_1_PutString
 2403              	.LBE74:
 2404 0c0e 07F18403 		add	r3, r7, #132
 2405 0c12 3948     		ldr	r0, .L139+4
 2406 0c14 3749     		ldr	r1, .L139
 2407 0c16 D7F89425 		ldr	r2, [r7, #1428]
 2408 0c1a FFF7FEFF 		bl	f_write
 2409 0c1e 0346     		mov	r3, r0
 2410 0c20 87F89335 		strb	r3, [r7, #1427]
 2411 0c24 97F89335 		ldrb	r3, [r7, #1427]	@ zero_extendqisi2
 2412 0c28 3448     		ldr	r0, .L139+8
 2413 0c2a 1946     		mov	r1, r3
 2414 0c2c FFF7FEFF 		bl	chkres
 2415              	.L122:
 2416              	.LBE73:
 271:.\main.c      **** 
 272:.\main.c      **** 	kbps = BUFFER_SIZE*8 / nTime;
 2417              		.loc 1 272 0 is_stmt 1
 2418 0c30 4FF4FA32 		mov	r2, #128000
 2419 0c34 D7F80436 		ldr	r3, [r7, #1540]
 2420 0c38 B2FBF3F3 		udiv	r3, r2, r3
ARM GAS  C:\Users\honet\AppData\Local\Temp\ccWT9Ujf.s 			page 51


 2421 0c3c C7F8F835 		str	r3, [r7, #1528]
 2422              	.LBB75:
 273:.\main.c      **** 	dmpmsg("Rate %lu kbps\n\n", kbps);
 2423              		.loc 1 273 0
 2424 0c40 0F23     		movs	r3, #15
 2425 0c42 C7F88C35 		str	r3, [r7, #1420]
 2426              	.LBB76:
 2427 0c46 3B46     		mov	r3, r7
 2428 0c48 1846     		mov	r0, r3
 2429 0c4a 2D49     		ldr	r1, .L139+12
 2430 0c4c D7F8F825 		ldr	r2, [r7, #1528]
 2431 0c50 FFF7FEFF 		bl	sprintf
 2432 0c54 00BF     		nop
 2433              	.L124:
 2434              		.loc 1 273 0 is_stmt 0 discriminator 2
 2435 0c56 FFF7FEFF 		bl	USBUART_1_CDCIsReady
 2436 0c5a 0346     		mov	r3, r0
 2437 0c5c 002B     		cmp	r3, #0
 2438 0c5e FAD0     		beq	.L124
 2439              		.loc 1 273 0 discriminator 3
 2440 0c60 3B46     		mov	r3, r7
 2441 0c62 1846     		mov	r0, r3
 2442 0c64 FFF7FEFF 		bl	USBUART_1_PutString
 2443              	.LBE76:
 2444 0c68 07F18003 		add	r3, r7, #128
 2445 0c6c 2248     		ldr	r0, .L139+4
 2446 0c6e 2449     		ldr	r1, .L139+12
 2447 0c70 D7F88C25 		ldr	r2, [r7, #1420]
 2448 0c74 FFF7FEFF 		bl	f_write
 2449 0c78 0346     		mov	r3, r0
 2450 0c7a 87F88B35 		strb	r3, [r7, #1419]
 2451 0c7e 97F88B35 		ldrb	r3, [r7, #1419]	@ zero_extendqisi2
 2452 0c82 1E48     		ldr	r0, .L139+8
 2453 0c84 1946     		mov	r1, r3
 2454 0c86 FFF7FEFF 		bl	chkres
 2455              	.LBE75:
 274:.\main.c      **** 
 275:.\main.c      ****     CyDelay(1000);
 2456              		.loc 1 275 0 is_stmt 1 discriminator 3
 2457 0c8a 4FF47A70 		mov	r0, #1000
 2458 0c8e FFF7FEFF 		bl	CyDelay
 216:.\main.c      **** 	//and repeat tests
 2459              		.loc 1 216 0 discriminator 3
 2460 0c92 D7F83036 		ldr	r3, [r7, #1584]
 2461 0c96 0133     		adds	r3, r3, #1
 2462 0c98 C7F83036 		str	r3, [r7, #1584]
 2463              	.L108:
 216:.\main.c      **** 	//and repeat tests
 2464              		.loc 1 216 0 is_stmt 0 discriminator 2
 2465 0c9c D7F83036 		ldr	r3, [r7, #1584]
 2466 0ca0 132B     		cmp	r3, #19
 2467 0ca2 7FF7DFAD 		ble	.L125
 2468              	.LBE59:
 276:.\main.c      **** }
 277:.\main.c      **** 
 278:.\main.c      **** 	res = f_close(&File);
 2469              		.loc 1 278 0 is_stmt 1
ARM GAS  C:\Users\honet\AppData\Local\Temp\ccWT9Ujf.s 			page 52


 2470 0ca6 1448     		ldr	r0, .L139+4
 2471 0ca8 FFF7FEFF 		bl	f_close
 2472 0cac 0346     		mov	r3, r0
 2473 0cae 87F81D36 		strb	r3, [r7, #1565]
 279:.\main.c      **** 	chkres("f_close", res);
 2474              		.loc 1 279 0
 2475 0cb2 97F81D36 		ldrb	r3, [r7, #1565]	@ zero_extendqisi2
 2476 0cb6 1348     		ldr	r0, .L139+16
 2477 0cb8 1946     		mov	r1, r3
 2478 0cba FFF7FEFF 		bl	chkres
 2479              	.L75:
 280:.\main.c      **** 
 281:.\main.c      **** 
 282:.\main.c      **** err_exit:
 283:.\main.c      **** 	LEDControl_Write(0);
 2480              		.loc 1 283 0
 2481 0cbe 0020     		movs	r0, #0
 2482 0cc0 FFF7FEFF 		bl	LEDControl_Write
 2483              	.LBB77:
 284:.\main.c      **** 	dbgprint("TEST FINISHED!\n");
 2484              		.loc 1 284 0
 2485 0cc4 3B46     		mov	r3, r7
 2486 0cc6 104A     		ldr	r2, .L139+20
 2487 0cc8 1C46     		mov	r4, r3
 2488 0cca 1346     		mov	r3, r2
 2489 0ccc 0FCB     		ldmia	r3, {r0, r1, r2, r3}
 2490 0cce 84E80F00 		stmia	r4, {r0, r1, r2, r3}
 2491 0cd2 00BF     		nop
 2492              	.L126:
 2493              		.loc 1 284 0 is_stmt 0 discriminator 2
 2494 0cd4 FFF7FEFF 		bl	USBUART_1_CDCIsReady
 2495 0cd8 0346     		mov	r3, r0
 2496 0cda 002B     		cmp	r3, #0
 2497 0cdc FAD0     		beq	.L126
 2498              		.loc 1 284 0 discriminator 3
 2499 0cde 3B46     		mov	r3, r7
 2500 0ce0 1846     		mov	r0, r3
 2501 0ce2 FFF7FEFF 		bl	USBUART_1_PutString
 2502              	.LBE77:
 2503 0ce6 C546     		mov	sp, r8
 285:.\main.c      **** }
 2504              		.loc 1 285 0 is_stmt 1 discriminator 3
 2505 0ce8 07F5C867 		add	r7, r7, #1600
 2506              		.cfi_def_cfa_offset 24
 2507 0cec BD46     		mov	sp, r7
 2508              		.cfi_def_cfa_register 13
 2509              		@ sp needed
 2510 0cee BDE8F081 		pop	{r4, r5, r6, r7, r8, pc}
 2511              	.L140:
 2512 0cf2 00BF     		.align	2
 2513              	.L139:
 2514 0cf4 20030000 		.word	.LC49
 2515 0cf8 00000000 		.word	File
 2516 0cfc 64020000 		.word	.LC39
 2517 0d00 B8020000 		.word	.LC44
 2518 0d04 A0020000 		.word	.LC42
 2519 0d08 A0030000 		.word	.LC54
ARM GAS  C:\Users\honet\AppData\Local\Temp\ccWT9Ujf.s 			page 53


 2520              		.cfi_endproc
 2521              	.LFE68:
 2522              		.size	sdbench, .-sdbench
 2523              		.section	.rodata
 2524              		.align	2
 2525              	.LC55:
 2526 03b0 25642E0A 		.ascii	"%d.\012\000"
 2526      00
 2527 03b5 000000   		.align	2
 2528              	.LC56:
 2529 03b8 48656C6C 		.ascii	"Hello SDC\012\000"
 2529      6F205344 
 2529      430A00
 2530 03c3 00       		.section	.text.main,"ax",%progbits
 2531              		.align	2
 2532              		.global	main
 2533              		.thumb
 2534              		.thumb_func
 2535              		.type	main, %function
 2536              	main:
 2537              	.LFB69:
 286:.\main.c      **** 
 287:.\main.c      **** int main()
 288:.\main.c      **** {
 2538              		.loc 1 288 0
 2539              		.cfi_startproc
 2540              		@ args = 0, pretend = 0, frame = 136
 2541              		@ frame_needed = 1, uses_anonymous_args = 0
 2542 0000 80B5     		push	{r7, lr}
 2543              		.cfi_def_cfa_offset 8
 2544              		.cfi_offset 7, -8
 2545              		.cfi_offset 14, -4
 2546 0002 A2B0     		sub	sp, sp, #136
 2547              		.cfi_def_cfa_offset 144
 2548 0004 00AF     		add	r7, sp, #0
 2549              		.cfi_def_cfa_register 7
 289:.\main.c      **** 	//    SysResetReg_Write(1);
 290:.\main.c      **** 	//    CyDelay(1);
 291:.\main.c      **** 	//    SysResetReg_Write(0);
 292:.\main.c      **** 
 293:.\main.c      ****     CyDelay(1000);
 2550              		.loc 1 293 0
 2551 0006 4FF47A70 		mov	r0, #1000
 2552 000a FFF7FEFF 		bl	CyDelay
 294:.\main.c      **** 	LEDControl_Write(1);
 2553              		.loc 1 294 0
 2554 000e 0120     		movs	r0, #1
 2555 0010 FFF7FEFF 		bl	LEDControl_Write
 295:.\main.c      **** 	CyGlobalIntEnable;              //Enable interrupts
 2556              		.loc 1 295 0
 2557              	@ 295 ".\main.c" 1
 2558 0014 62B6     		CPSIE   i
 2559              	@ 0 "" 2
 296:.\main.c      **** 
 297:.\main.c      **** 	MillisecISR_StartEx(MillisISR); //start millisec ISR
 2560              		.loc 1 297 0
 2561              		.thumb
ARM GAS  C:\Users\honet\AppData\Local\Temp\ccWT9Ujf.s 			page 54


 2562 0016 2648     		ldr	r0, .L148
 2563 0018 FFF7FEFF 		bl	MillisecISR_StartEx
 298:.\main.c      **** 
 299:.\main.c      **** 	USBUART_1_Start(0, USBUART_1_DWR_VDDD_OPERATION);
 2564              		.loc 1 299 0
 2565 001c 0020     		movs	r0, #0
 2566 001e 0221     		movs	r1, #2
 2567 0020 FFF7FEFF 		bl	USBUART_1_Start
 300:.\main.c      **** 	while(!USBUART_1_bGetConfiguration());
 2568              		.loc 1 300 0
 2569 0024 00BF     		nop
 2570              	.L142:
 2571              		.loc 1 300 0 is_stmt 0 discriminator 1
 2572 0026 FFF7FEFF 		bl	USBUART_1_GetConfiguration
 2573 002a 0346     		mov	r3, r0
 2574 002c 002B     		cmp	r3, #0
 2575 002e FAD0     		beq	.L142
 301:.\main.c      **** 	USBUART_1_CDC_Init();
 2576              		.loc 1 301 0 is_stmt 1
 2577 0030 FFF7FEFF 		bl	USBUART_1_CDC_Init
 2578              	.L147:
 2579              	.LBB78:
 302:.\main.c      **** 
 303:.\main.c      ****     for(;;){
 304:.\main.c      **** 	for(int i=5; i>0; i--){
 2580              		.loc 1 304 0
 2581 0034 0523     		movs	r3, #5
 2582 0036 C7F88430 		str	r3, [r7, #132]
 2583 003a 19E0     		b	.L143
 2584              	.L145:
 2585              	.LBB79:
 305:.\main.c      **** 		dbgprint("%d.\n", i);
 2586              		.loc 1 305 0
 2587 003c 3B1D     		adds	r3, r7, #4
 2588 003e 1846     		mov	r0, r3
 2589 0040 1C49     		ldr	r1, .L148+4
 2590 0042 D7F88420 		ldr	r2, [r7, #132]
 2591 0046 FFF7FEFF 		bl	sprintf
 2592 004a 00BF     		nop
 2593              	.L144:
 2594              		.loc 1 305 0 is_stmt 0 discriminator 2
 2595 004c FFF7FEFF 		bl	USBUART_1_CDCIsReady
 2596 0050 0346     		mov	r3, r0
 2597 0052 002B     		cmp	r3, #0
 2598 0054 FAD0     		beq	.L144
 2599              		.loc 1 305 0 discriminator 3
 2600 0056 3B1D     		adds	r3, r7, #4
 2601 0058 1846     		mov	r0, r3
 2602 005a FFF7FEFF 		bl	USBUART_1_PutString
 2603              	.LBE79:
 306:.\main.c      **** 		CyDelay(1000);
 2604              		.loc 1 306 0 is_stmt 1 discriminator 3
 2605 005e 4FF47A70 		mov	r0, #1000
 2606 0062 FFF7FEFF 		bl	CyDelay
 304:.\main.c      **** 		dbgprint("%d.\n", i);
 2607              		.loc 1 304 0 discriminator 3
 2608 0066 D7F88430 		ldr	r3, [r7, #132]
ARM GAS  C:\Users\honet\AppData\Local\Temp\ccWT9Ujf.s 			page 55


 2609 006a 013B     		subs	r3, r3, #1
 2610 006c C7F88430 		str	r3, [r7, #132]
 2611              	.L143:
 304:.\main.c      **** 		dbgprint("%d.\n", i);
 2612              		.loc 1 304 0 is_stmt 0 discriminator 2
 2613 0070 D7F88430 		ldr	r3, [r7, #132]
 2614 0074 002B     		cmp	r3, #0
 2615 0076 E1DC     		bgt	.L145
 2616              	.LBE78:
 2617              	.LBB80:
 307:.\main.c      **** 	}
 308:.\main.c      **** 	dbgprint("Hello SDC\n");
 2618              		.loc 1 308 0 is_stmt 1
 2619 0078 3B1D     		adds	r3, r7, #4
 2620 007a 0F4A     		ldr	r2, .L148+8
 2621 007c 07CA     		ldmia	r2, {r0, r1, r2}
 2622 007e 03C3     		stmia	r3!, {r0, r1}
 2623 0080 1A80     		strh	r2, [r3]	@ movhi
 2624 0082 0233     		adds	r3, r3, #2
 2625 0084 120C     		lsrs	r2, r2, #16
 2626 0086 1A70     		strb	r2, [r3]
 2627 0088 00BF     		nop
 2628              	.L146:
 2629              		.loc 1 308 0 is_stmt 0 discriminator 2
 2630 008a FFF7FEFF 		bl	USBUART_1_CDCIsReady
 2631 008e 0346     		mov	r3, r0
 2632 0090 002B     		cmp	r3, #0
 2633 0092 FAD0     		beq	.L146
 2634              		.loc 1 308 0 discriminator 3
 2635 0094 3B1D     		adds	r3, r7, #4
 2636 0096 1846     		mov	r0, r3
 2637 0098 FFF7FEFF 		bl	USBUART_1_PutString
 2638              	.LBE80:
 309:.\main.c      **** 
 310:.\main.c      **** 	SDSPI_StartInterface();
 2639              		.loc 1 310 0 is_stmt 1 discriminator 3
 2640 009c FFF7FEFF 		bl	SDSPI_StartInterface
 311:.\main.c      **** 	SDSPI_Start(SDCARD_SLOW, SDCARD_FAST, PrintFxn);   //Initialise SD card and file system (note: Pri
 2641              		.loc 1 311 0 discriminator 3
 2642 00a0 0648     		ldr	r0, .L148+12
 2643 00a2 0749     		ldr	r1, .L148+16
 2644 00a4 074A     		ldr	r2, .L148+20
 2645 00a6 FFF7FEFF 		bl	SDSPI_Start
 312:.\main.c      **** 
 313:.\main.c      **** 	sdbench();
 2646              		.loc 1 313 0 discriminator 3
 2647 00aa FFF7FEFF 		bl	sdbench
 314:.\main.c      ****     }
 2648              		.loc 1 314 0 discriminator 3
 2649 00ae C1E7     		b	.L147
 2650              	.L149:
 2651              		.align	2
 2652              	.L148:
 2653 00b0 00000000 		.word	MillisISR
 2654 00b4 B0030000 		.word	.LC55
 2655 00b8 B8030000 		.word	.LC56
 2656 00bc 00000000 		.word	SDCARD_SLOW
ARM GAS  C:\Users\honet\AppData\Local\Temp\ccWT9Ujf.s 			page 56


 2657 00c0 00000000 		.word	SDCARD_FAST
 2658 00c4 00000000 		.word	PrintFxn
 2659              		.cfi_endproc
 2660              	.LFE69:
 2661              		.size	main, .-main
 2662              		.text
 2663              	.Letext0:
 2664              		.file 2 "c:\\program files (x86)\\cypress\\psoc creator\\3.3\\psoc creator\\import\\gnu\\arm\\4.9.
 2665              		.file 3 "c:\\program files (x86)\\cypress\\psoc creator\\3.3\\psoc creator\\import\\gnu\\arm\\4.9.
 2666              		.file 4 "c:\\program files (x86)\\cypress\\psoc creator\\3.3\\psoc creator\\import\\gnu\\arm\\4.9.
 2667              		.file 5 "Generated_Source\\PSoC5/SDSPI_fatfs.h"
 2668              		.file 6 "Generated_Source\\PSoC5/core_cm3.h"