ARM GAS  C:\Users\honet\AppData\Local\Temp\ccWT9Ujf.s 			page 1


   1              		.syntax unified
   2              		.cpu cortex-m3
   3              		.fpu softvfp
   4              		.eabi_attribute 20, 1
   5              		.eabi_attribute 21, 1
   6              		.eabi_attribute 23, 3
   7              		.eabi_attribute 24, 1
   8              		.eabi_attribute 25, 1
   9              		.eabi_attribute 26, 1
  10              		.eabi_attribute 30, 6
  11              		.eabi_attribute 34, 1
  12              		.eabi_attribute 18, 4
  13              		.thumb
  14              		.file	"main.c"
  15              		.text
  16              	.Ltext0:
  17              		.cfi_sections	.debug_frame
  18              		.global	nmillis
  19              		.bss
  20              		.align	2
  21              		.type	nmillis, %object
  22              		.size	nmillis, 4
  23              	nmillis:
  24 0000 00000000 		.space	4
  25              		.section	.text.MillisISR,"ax",%progbits
  26              		.align	2
  27              		.global	MillisISR
  28              		.thumb
  29              		.thumb_func
  30              		.type	MillisISR, %function
  31              	MillisISR:
  32              	.LFB63:
  33              		.file 1 ".\\main.c"
   1:.\main.c      **** /* ========================================
   2:.\main.c      ****  *
   3:.\main.c      ****  * Copyright YOUR COMPANY, THE YEAR
   4:.\main.c      ****  * All Rights Reserved
   5:.\main.c      ****  * UNPUBLISHED, LICENSED SOFTWARE.
   6:.\main.c      ****  *
   7:.\main.c      ****  * CONFIDENTIAL AND PROPRIETARY INFORMATION
   8:.\main.c      ****  * WHICH IS THE PROPERTY OF your company.
   9:.\main.c      ****  *
  10:.\main.c      ****  * ========================================
  11:.\main.c      **** */
  12:.\main.c      **** #include <string.h>
  13:.\main.c      **** #include <stdio.h>
  14:.\main.c      **** #include "project.h"
  15:.\main.c      **** #include "SDSPI_api.h"
  16:.\main.c      **** #include "SDSPI_fatfs.h"
  17:.\main.c      **** 
  18:.\main.c      **** volatile unsigned long nmillis = 0; //used for time measurement
  19:.\main.c      **** 
  20:.\main.c      **** void MillisISR()
  21:.\main.c      **** {
  34              		.loc 1 21 0
  35              		.cfi_startproc
  36              		@ args = 0, pretend = 0, frame = 0
ARM GAS  C:\Users\honet\AppData\Local\Temp\ccWT9Ujf.s 			page 2


  37              		@ frame_needed = 1, uses_anonymous_args = 0
  38 0000 80B5     		push	{r7, lr}
  39              		.cfi_def_cfa_offset 8
  40              		.cfi_offset 7, -8
  41              		.cfi_offset 14, -4
  42 0002 00AF     		add	r7, sp, #0
  43              		.cfi_def_cfa_register 7
  22:.\main.c      ****     nmillis++;          //used for time measurements
  44              		.loc 1 22 0
  45 0004 034B     		ldr	r3, .L2
  46 0006 1B68     		ldr	r3, [r3]
  47 0008 0133     		adds	r3, r3, #1
  48 000a 024A     		ldr	r2, .L2
  49 000c 1360     		str	r3, [r2]
  23:.\main.c      ****     disk_timerproc();   //MUST attach this to 1kHz interrupt for file system timeouts to work
  50              		.loc 1 23 0
  51 000e FFF7FEFF 		bl	disk_timerproc
  24:.\main.c      **** }
  52              		.loc 1 24 0
  53 0012 80BD     		pop	{r7, pc}
  54              	.L3:
  55              		.align	2
  56              	.L2:
  57 0014 00000000 		.word	nmillis
  58              		.cfi_endproc
  59              	.LFE63:
  60              		.size	MillisISR, .-MillisISR
  61              		.section	.text.SDCARD_FAST,"ax",%progbits
  62              		.align	2
  63              		.global	SDCARD_FAST
  64              		.thumb
  65              		.thumb_func
  66              		.type	SDCARD_FAST, %function
  67              	SDCARD_FAST:
  68              	.LFB64:
  25:.\main.c      **** 
  26:.\main.c      **** void SDCARD_FAST()
  27:.\main.c      **** {
  69              		.loc 1 27 0
  70              		.cfi_startproc
  71              		@ args = 0, pretend = 0, frame = 0
  72              		@ frame_needed = 1, uses_anonymous_args = 0
  73 0000 80B5     		push	{r7, lr}
  74              		.cfi_def_cfa_offset 8
  75              		.cfi_offset 7, -8
  76              		.cfi_offset 14, -4
  77 0002 00AF     		add	r7, sp, #0
  78              		.cfi_def_cfa_register 7
  28:.\main.c      ****     SD_CLK_SetDivider(1); //This should work even at 79.5 MHz clock, giving (79.5/5) MHz bitrate
  79              		.loc 1 28 0
  80 0004 0120     		movs	r0, #1
  81 0006 0121     		movs	r1, #1
  82 0008 FFF7FEFF 		bl	SD_CLK_SetDividerRegister
  29:.\main.c      ****     //this can push up to 10.6 Mbps reads in my tests so far, and 5.3 Mbps writes (possibly faster 
  30:.\main.c      **** }
  83              		.loc 1 30 0
  84 000c 80BD     		pop	{r7, pc}
ARM GAS  C:\Users\honet\AppData\Local\Temp\ccWT9Ujf.s 			page 3


  85              		.cfi_endproc
  86              	.LFE64:
  87              		.size	SDCARD_FAST, .-SDCARD_FAST
  88 000e 00BF     		.section	.text.SDCARD_SLOW,"ax",%progbits
  89              		.align	2
  90              		.global	SDCARD_SLOW
  91              		.thumb
  92              		.thumb_func
  93              		.type	SDCARD_SLOW, %function
  94              	SDCARD_SLOW:
  95              	.LFB65:
  31:.\main.c      **** 
  32:.\main.c      **** void SDCARD_SLOW()
  33:.\main.c      **** {
  96              		.loc 1 33 0
  97              		.cfi_startproc
  98              		@ args = 0, pretend = 0, frame = 0
  99              		@ frame_needed = 1, uses_anonymous_args = 0
 100 0000 80B5     		push	{r7, lr}
 101              		.cfi_def_cfa_offset 8
 102              		.cfi_offset 7, -8
 103              		.cfi_offset 14, -4
 104 0002 00AF     		add	r7, sp, #0
 105              		.cfi_def_cfa_register 7
  34:.\main.c      ****     SD_CLK_SetDivider(200);   //SD card must be initialised at max. 400 kHz
 106              		.loc 1 34 0
 107 0004 C820     		movs	r0, #200
 108 0006 0121     		movs	r1, #1
 109 0008 FFF7FEFF 		bl	SD_CLK_SetDividerRegister
  35:.\main.c      **** }
 110              		.loc 1 35 0
 111 000c 80BD     		pop	{r7, pc}
 112              		.cfi_endproc
 113              	.LFE65:
 114              		.size	SDCARD_SLOW, .-SDCARD_SLOW
 115 000e 00BF     		.section	.text.PrintFxn,"ax",%progbits
 116              		.align	2
 117              		.global	PrintFxn
 118              		.thumb
 119              		.thumb_func
 120              		.type	PrintFxn, %function
 121              	PrintFxn:
 122              	.LFB66:
  36:.\main.c      **** 
  37:.\main.c      **** #define dbgprint(fmt, ...) \
  38:.\main.c      **** do{ \
  39:.\main.c      ****     char str[128]; \
  40:.\main.c      ****     sprintf(str, fmt, ## __VA_ARGS__); \
  41:.\main.c      ****     while(!USBUART_1_CDCIsReady()); \
  42:.\main.c      ****     USBUART_1_PutString(str); \
  43:.\main.c      **** }while(0)
  44:.\main.c      **** 
  45:.\main.c      **** void PrintFxn(char* pString)
  46:.\main.c      **** {
 123              		.loc 1 46 0
 124              		.cfi_startproc
 125              		@ args = 0, pretend = 0, frame = 8
ARM GAS  C:\Users\honet\AppData\Local\Temp\ccWT9Ujf.s 			page 4


 126              		@ frame_needed = 1, uses_anonymous_args = 0
 127              		@ link register save eliminated.
 128 0000 80B4     		push	{r7}
 129              		.cfi_def_cfa_offset 4
 130              		.cfi_offset 7, -4
 131 0002 83B0     		sub	sp, sp, #12
 132              		.cfi_def_cfa_offset 16
 133 0004 00AF     		add	r7, sp, #0
 134              		.cfi_def_cfa_register 7
 135 0006 7860     		str	r0, [r7, #4]
  47:.\main.c      **** }
 136              		.loc 1 47 0
 137 0008 0C37     		adds	r7, r7, #12
 138              		.cfi_def_cfa_offset 4
 139 000a BD46     		mov	sp, r7
 140              		.cfi_def_cfa_register 13
 141              		@ sp needed
 142 000c 5DF8047B 		ldr	r7, [sp], #4
 143              		.cfi_restore 7
 144              		.cfi_def_cfa_offset 0
 145 0010 7047     		bx	lr
 146              		.cfi_endproc
 147              	.LFE66:
 148              		.size	PrintFxn, .-PrintFxn
 149 0012 00BF     		.section	.rodata
 150              		.align	2
 151              	.LC0:
 152 0000 25732045 		.ascii	"%s ERR! res=\000"
 152      52522120 
 152      7265733D 
 152      00
 153 000d 000000   		.align	2
 154              	.LC1:
 155 0010 46525F4F 		.ascii	"FR_OK\000"
 155      4B00
 156 0016 0000     		.align	2
 157              	.LC2:
 158 0018 46525F44 		.ascii	"FR_DISK_ERR\000"
 158      49534B5F 
 158      45525200 
 159              		.align	2
 160              	.LC3:
 161 0024 46525F49 		.ascii	"FR_INT_ERR\000"
 161      4E545F45 
 161      525200
 162 002f 00       		.align	2
 163              	.LC4:
 164 0030 46525F4E 		.ascii	"FR_NOT_READY\000"
 164      4F545F52 
 164      45414459 
 164      00
 165 003d 000000   		.align	2
 166              	.LC5:
 167 0040 46525F4E 		.ascii	"FR_NO_FILE\000"
 167      4F5F4649 
 167      4C4500
 168 004b 00       		.align	2
ARM GAS  C:\Users\honet\AppData\Local\Temp\ccWT9Ujf.s 			page 5


 169              	.LC6:
 170 004c 46525F4E 		.ascii	"FR_NO_PATH\000"
 170      4F5F5041 
 170      544800
 171 0057 00       		.align	2
 172              	.LC7:
 173 0058 46525F49 		.ascii	"FR_INVALID_NAME\000"
 173      4E56414C 
 173      49445F4E 
 173      414D4500 
 174              		.align	2
 175              	.LC8:
 176 0068 46525F44 		.ascii	"FR_DENIED\000"
 176      454E4945 
 176      4400
 177 0072 0000     		.align	2
 178              	.LC9:
 179 0074 46525F45 		.ascii	"FR_EXIST\000"
 179      58495354 
 179      00
 180 007d 000000   		.align	2
 181              	.LC10:
 182 0080 46525F49 		.ascii	"FR_INVALID_OBJECT\000"
 182      4E56414C 
 182      49445F4F 
 182      424A4543 
 182      5400
 183 0092 0000     		.align	2
 184              	.LC11:
 185 0094 46525F57 		.ascii	"FR_WRITE_PROTECTED\000"
 185      52495445 
 185      5F50524F 
 185      54454354 
 185      454400
 186 00a7 00       		.align	2
 187              	.LC12:
 188 00a8 46525F49 		.ascii	"FR_INVALID_DRIVE\000"
 188      4E56414C 
 188      49445F44 
 188      52495645 
 188      00
 189 00b9 000000   		.align	2
 190              	.LC13:
 191 00bc 46525F4E 		.ascii	"FR_NOT_ENABLED\000"
 191      4F545F45 
 191      4E41424C 
 191      454400
 192 00cb 00       		.align	2
 193              	.LC14:
 194 00cc 46525F4E 		.ascii	"FR_NO_FILESYSTEM\000"
 194      4F5F4649 
 194      4C455359 
 194      5354454D 
 194      00
 195 00dd 000000   		.align	2
 196              	.LC15:
 197 00e0 46525F4D 		.ascii	"FR_MKFS_ABORTED\000"
ARM GAS  C:\Users\honet\AppData\Local\Temp\ccWT9Ujf.s 			page 6


 197      4B46535F 
 197      41424F52 
 197      54454400 
 198              		.align	2
 199              	.LC16:
 200 00f0 46525F54 		.ascii	"FR_TIMEOUT\000"
 200      494D454F 
 200      555400
 201 00fb 00       		.align	2
 202              	.LC17:
 203 00fc 46525F4C 		.ascii	"FR_LOCKED\000"
 203      4F434B45 
 203      4400
 204 0106 0000     		.align	2
 205              	.LC18:
 206 0108 46525F4E 		.ascii	"FR_NOT_ENOUGH_CORE\000"
 206      4F545F45 
 206      4E4F5547 
 206      485F434F 
 206      524500
 207 011b 00       		.align	2
 208              	.LC19:
 209 011c 46525F54 		.ascii	"FR_TOO_MANY_OPEN_FILES\000"
 209      4F4F5F4D 
 209      414E595F 
 209      4F50454E 
 209      5F46494C 
 210 0133 00       		.align	2
 211              	.LC20:
 212 0134 46525F49 		.ascii	"FR_INVALID_PARAMETER\000"
 212      4E56414C 
 212      49445F50 
 212      4152414D 
 212      45544552 
 213 0149 000000   		.align	2
 214              	.LC21:
 215 014c 256400   		.ascii	"%d\000"
 216              		.section	.text.chkres,"ax",%progbits
 217              		.align	2
 218              		.global	chkres
 219              		.thumb
 220              		.thumb_func
 221              		.type	chkres, %function
 222              	chkres:
 223              	.LFB67:
  48:.\main.c      **** 
  49:.\main.c      **** #define BUFFER_SIZE 16000   //Test buffer size. This will be read/written
  50:.\main.c      **** 
  51:.\main.c      **** void chkres(char *func, FRESULT exp){
 224              		.loc 1 51 0
 225              		.cfi_startproc
 226              		@ args = 0, pretend = 0, frame = 136
 227              		@ frame_needed = 1, uses_anonymous_args = 0
 228 0000 B0B5     		push	{r4, r5, r7, lr}
 229              		.cfi_def_cfa_offset 16
 230              		.cfi_offset 4, -16
 231              		.cfi_offset 5, -12
ARM GAS  C:\Users\honet\AppData\Local\Temp\ccWT9Ujf.s 			page 7


 232              		.cfi_offset 7, -8
 233              		.cfi_offset 14, -4
 234 0002 A2B0     		sub	sp, sp, #136
 235              		.cfi_def_cfa_offset 152
 236 0004 00AF     		add	r7, sp, #0
 237              		.cfi_def_cfa_register 7
 238 0006 7860     		str	r0, [r7, #4]
 239 0008 0B46     		mov	r3, r1
 240 000a FB70     		strb	r3, [r7, #3]
  52:.\main.c      **** 	if (exp!=FR_OK){
 241              		.loc 1 52 0
 242 000c FB78     		ldrb	r3, [r7, #3]	@ zero_extendqisi2
 243 000e 002B     		cmp	r3, #0
 244 0010 00F02E82 		beq	.L7
 245              	.LBB2:
  53:.\main.c      **** 		dbgprint("%s ERR! res=", func);
 246              		.loc 1 53 0
 247 0014 07F10803 		add	r3, r7, #8
 248 0018 1846     		mov	r0, r3
 249 001a C449     		ldr	r1, .L55
 250 001c 7A68     		ldr	r2, [r7, #4]
 251 001e FFF7FEFF 		bl	sprintf
 252 0022 00BF     		nop
 253              	.L9:
 254              		.loc 1 53 0 is_stmt 0 discriminator 2
 255 0024 FFF7FEFF 		bl	USBUART_1_CDCIsReady
 256 0028 0346     		mov	r3, r0
 257 002a 002B     		cmp	r3, #0
 258 002c FAD0     		beq	.L9
 259              		.loc 1 53 0 discriminator 3
 260 002e 07F10803 		add	r3, r7, #8
 261 0032 1846     		mov	r0, r3
 262 0034 FFF7FEFF 		bl	USBUART_1_PutString
 263              	.LBE2:
  54:.\main.c      **** 		switch(exp){
 264              		.loc 1 54 0 is_stmt 1 discriminator 3
 265 0038 FB78     		ldrb	r3, [r7, #3]	@ zero_extendqisi2
 266 003a 132B     		cmp	r3, #19
 267 003c 00F2F681 		bhi	.L10
 268 0040 01A2     		adr	r2, .L12
 269 0042 52F823F0 		ldr	pc, [r2, r3, lsl #2]
 270 0046 00BF     		.p2align 2
 271              	.L12:
 272 0048 99000000 		.word	.L11+1
 273 004c C1000000 		.word	.L13+1
 274 0050 E5000000 		.word	.L14+1
 275 0054 0F010000 		.word	.L15+1
 276 0058 37010000 		.word	.L16+1
 277 005c 61010000 		.word	.L17+1
 278 0060 8B010000 		.word	.L18+1
 279 0064 B3010000 		.word	.L19+1
 280 0068 D7010000 		.word	.L20+1
 281 006c FB010000 		.word	.L21+1
 282 0070 25020000 		.word	.L22+1
 283 0074 57020000 		.word	.L23+1
 284 0078 81020000 		.word	.L24+1
 285 007c AF020000 		.word	.L25+1
ARM GAS  C:\Users\honet\AppData\Local\Temp\ccWT9Ujf.s 			page 8


 286 0080 D9020000 		.word	.L26+1
 287 0084 01030000 		.word	.L27+1
 288 0088 71030000 		.word	.L28+1
 289 008c 95030000 		.word	.L29+1
 290 0090 C7030000 		.word	.L30+1
 291 0094 FD030000 		.word	.L31+1
 292              		.p2align 1
 293              	.L11:
 294              	.LBB3:
  55:.\main.c      **** 		case FR_OK: dbgprint("FR_OK"); break;
 295              		.loc 1 55 0
 296 0098 07F10803 		add	r3, r7, #8
 297 009c A44A     		ldr	r2, .L55+4
 298 009e 92E80300 		ldmia	r2, {r0, r1}
 299 00a2 1860     		str	r0, [r3]
 300 00a4 0433     		adds	r3, r3, #4
 301 00a6 1980     		strh	r1, [r3]	@ movhi
 302 00a8 00BF     		nop
 303              	.L32:
 304              		.loc 1 55 0 is_stmt 0 discriminator 2
 305 00aa FFF7FEFF 		bl	USBUART_1_CDCIsReady
 306 00ae 0346     		mov	r3, r0
 307 00b0 002B     		cmp	r3, #0
 308 00b2 FAD0     		beq	.L32
 309              		.loc 1 55 0 discriminator 3
 310 00b4 07F10803 		add	r3, r7, #8
 311 00b8 1846     		mov	r0, r3
 312 00ba FFF7FEFF 		bl	USBUART_1_PutString
 313              	.LBE3:
 314 00be C8E1     		b	.L33
 315              	.L13:
 316              	.LBB4:
  56:.\main.c      **** 		case FR_DISK_ERR: dbgprint("FR_DISK_ERR"); break;
 317              		.loc 1 56 0 is_stmt 1
 318 00c0 07F10803 		add	r3, r7, #8
 319 00c4 9B4A     		ldr	r2, .L55+8
 320 00c6 07CA     		ldmia	r2, {r0, r1, r2}
 321 00c8 83E80700 		stmia	r3, {r0, r1, r2}
 322 00cc 00BF     		nop
 323              	.L34:
 324              		.loc 1 56 0 is_stmt 0 discriminator 2
 325 00ce FFF7FEFF 		bl	USBUART_1_CDCIsReady
 326 00d2 0346     		mov	r3, r0
 327 00d4 002B     		cmp	r3, #0
 328 00d6 FAD0     		beq	.L34
 329              		.loc 1 56 0 discriminator 3
 330 00d8 07F10803 		add	r3, r7, #8
 331 00dc 1846     		mov	r0, r3
 332 00de FFF7FEFF 		bl	USBUART_1_PutString
 333              	.LBE4:
 334 00e2 B6E1     		b	.L33
 335              	.L14:
 336              	.LBB5:
  57:.\main.c      **** 		case FR_INT_ERR: dbgprint("FR_INT_ERR"); break;
 337              		.loc 1 57 0 is_stmt 1
 338 00e4 07F10803 		add	r3, r7, #8
 339 00e8 934A     		ldr	r2, .L55+12
ARM GAS  C:\Users\honet\AppData\Local\Temp\ccWT9Ujf.s 			page 9


 340 00ea 07CA     		ldmia	r2, {r0, r1, r2}
 341 00ec 03C3     		stmia	r3!, {r0, r1}
 342 00ee 1A80     		strh	r2, [r3]	@ movhi
 343 00f0 0233     		adds	r3, r3, #2
 344 00f2 120C     		lsrs	r2, r2, #16
 345 00f4 1A70     		strb	r2, [r3]
 346 00f6 00BF     		nop
 347              	.L35:
 348              		.loc 1 57 0 is_stmt 0 discriminator 2
 349 00f8 FFF7FEFF 		bl	USBUART_1_CDCIsReady
 350 00fc 0346     		mov	r3, r0
 351 00fe 002B     		cmp	r3, #0
 352 0100 FAD0     		beq	.L35
 353              		.loc 1 57 0 discriminator 3
 354 0102 07F10803 		add	r3, r7, #8
 355 0106 1846     		mov	r0, r3
 356 0108 FFF7FEFF 		bl	USBUART_1_PutString
 357              	.LBE5:
 358 010c A1E1     		b	.L33
 359              	.L15:
 360              	.LBB6:
  58:.\main.c      **** 		case FR_NOT_READY: dbgprint("FR_NOT_READY"); break;
 361              		.loc 1 58 0 is_stmt 1
 362 010e 07F10803 		add	r3, r7, #8
 363 0112 8A4A     		ldr	r2, .L55+16
 364 0114 1C46     		mov	r4, r3
 365 0116 1346     		mov	r3, r2
 366 0118 0FCB     		ldmia	r3, {r0, r1, r2, r3}
 367 011a 07C4     		stmia	r4!, {r0, r1, r2}
 368 011c 2370     		strb	r3, [r4]
 369 011e 00BF     		nop
 370              	.L36:
 371              		.loc 1 58 0 is_stmt 0 discriminator 2
 372 0120 FFF7FEFF 		bl	USBUART_1_CDCIsReady
 373 0124 0346     		mov	r3, r0
 374 0126 002B     		cmp	r3, #0
 375 0128 FAD0     		beq	.L36
 376              		.loc 1 58 0 discriminator 3
 377 012a 07F10803 		add	r3, r7, #8
 378 012e 1846     		mov	r0, r3
 379 0130 FFF7FEFF 		bl	USBUART_1_PutString
 380              	.LBE6:
 381 0134 8DE1     		b	.L33
 382              	.L16:
 383              	.LBB7:
  59:.\main.c      **** 		case FR_NO_FILE: dbgprint("FR_NO_FILE"); break;
 384              		.loc 1 59 0 is_stmt 1
 385 0136 07F10803 		add	r3, r7, #8
 386 013a 814A     		ldr	r2, .L55+20
 387 013c 07CA     		ldmia	r2, {r0, r1, r2}
 388 013e 03C3     		stmia	r3!, {r0, r1}
 389 0140 1A80     		strh	r2, [r3]	@ movhi
 390 0142 0233     		adds	r3, r3, #2
 391 0144 120C     		lsrs	r2, r2, #16
 392 0146 1A70     		strb	r2, [r3]
 393 0148 00BF     		nop
 394              	.L37:
ARM GAS  C:\Users\honet\AppData\Local\Temp\ccWT9Ujf.s 			page 10


 395              		.loc 1 59 0 is_stmt 0 discriminator 2
 396 014a FFF7FEFF 		bl	USBUART_1_CDCIsReady
 397 014e 0346     		mov	r3, r0
 398 0150 002B     		cmp	r3, #0
 399 0152 FAD0     		beq	.L37
 400              		.loc 1 59 0 discriminator 3
 401 0154 07F10803 		add	r3, r7, #8
 402 0158 1846     		mov	r0, r3
 403 015a FFF7FEFF 		bl	USBUART_1_PutString
 404              	.LBE7:
 405 015e 78E1     		b	.L33
 406              	.L17:
 407              	.LBB8:
  60:.\main.c      **** 		case FR_NO_PATH: dbgprint("FR_NO_PATH"); break;
 408              		.loc 1 60 0 is_stmt 1
 409 0160 07F10803 		add	r3, r7, #8
 410 0164 774A     		ldr	r2, .L55+24
 411 0166 07CA     		ldmia	r2, {r0, r1, r2}
 412 0168 03C3     		stmia	r3!, {r0, r1}
 413 016a 1A80     		strh	r2, [r3]	@ movhi
 414 016c 0233     		adds	r3, r3, #2
 415 016e 120C     		lsrs	r2, r2, #16
 416 0170 1A70     		strb	r2, [r3]
 417 0172 00BF     		nop
 418              	.L38:
 419              		.loc 1 60 0 is_stmt 0 discriminator 2
 420 0174 FFF7FEFF 		bl	USBUART_1_CDCIsReady
 421 0178 0346     		mov	r3, r0
 422 017a 002B     		cmp	r3, #0
 423 017c FAD0     		beq	.L38
 424              		.loc 1 60 0 discriminator 3
 425 017e 07F10803 		add	r3, r7, #8
 426 0182 1846     		mov	r0, r3
 427 0184 FFF7FEFF 		bl	USBUART_1_PutString
 428              	.LBE8:
 429 0188 63E1     		b	.L33
 430              	.L18:
 431              	.LBB9:
  61:.\main.c      **** 		case FR_INVALID_NAME: dbgprint("FR_INVALID_NAME"); break;
 432              		.loc 1 61 0 is_stmt 1
 433 018a 07F10803 		add	r3, r7, #8
 434 018e 6E4A     		ldr	r2, .L55+28
 435 0190 1C46     		mov	r4, r3
 436 0192 1346     		mov	r3, r2
 437 0194 0FCB     		ldmia	r3, {r0, r1, r2, r3}
 438 0196 84E80F00 		stmia	r4, {r0, r1, r2, r3}
 439 019a 00BF     		nop
 440              	.L39:
 441              		.loc 1 61 0 is_stmt 0 discriminator 2
 442 019c FFF7FEFF 		bl	USBUART_1_CDCIsReady
 443 01a0 0346     		mov	r3, r0
 444 01a2 002B     		cmp	r3, #0
 445 01a4 FAD0     		beq	.L39
 446              		.loc 1 61 0 discriminator 3
 447 01a6 07F10803 		add	r3, r7, #8
 448 01aa 1846     		mov	r0, r3
 449 01ac FFF7FEFF 		bl	USBUART_1_PutString
ARM GAS  C:\Users\honet\AppData\Local\Temp\ccWT9Ujf.s 			page 11


 450              	.LBE9:
 451 01b0 4FE1     		b	.L33
 452              	.L19:
 453              	.LBB10:
  62:.\main.c      **** 		case FR_DENIED: dbgprint("FR_DENIED"); break;
 454              		.loc 1 62 0 is_stmt 1
 455 01b2 07F10803 		add	r3, r7, #8
 456 01b6 654A     		ldr	r2, .L55+32
 457 01b8 07CA     		ldmia	r2, {r0, r1, r2}
 458 01ba 03C3     		stmia	r3!, {r0, r1}
 459 01bc 1A80     		strh	r2, [r3]	@ movhi
 460 01be 00BF     		nop
 461              	.L40:
 462              		.loc 1 62 0 is_stmt 0 discriminator 2
 463 01c0 FFF7FEFF 		bl	USBUART_1_CDCIsReady
 464 01c4 0346     		mov	r3, r0
 465 01c6 002B     		cmp	r3, #0
 466 01c8 FAD0     		beq	.L40
 467              		.loc 1 62 0 discriminator 3
 468 01ca 07F10803 		add	r3, r7, #8
 469 01ce 1846     		mov	r0, r3
 470 01d0 FFF7FEFF 		bl	USBUART_1_PutString
 471              	.LBE10:
 472 01d4 3DE1     		b	.L33
 473              	.L20:
 474              	.LBB11:
  63:.\main.c      **** 		case FR_EXIST: dbgprint("FR_EXIST"); break;
 475              		.loc 1 63 0 is_stmt 1
 476 01d6 07F10803 		add	r3, r7, #8
 477 01da 5D4A     		ldr	r2, .L55+36
 478 01dc 07CA     		ldmia	r2, {r0, r1, r2}
 479 01de 03C3     		stmia	r3!, {r0, r1}
 480 01e0 1A70     		strb	r2, [r3]
 481 01e2 00BF     		nop
 482              	.L41:
 483              		.loc 1 63 0 is_stmt 0 discriminator 2
 484 01e4 FFF7FEFF 		bl	USBUART_1_CDCIsReady
 485 01e8 0346     		mov	r3, r0
 486 01ea 002B     		cmp	r3, #0
 487 01ec FAD0     		beq	.L41
 488              		.loc 1 63 0 discriminator 3
 489 01ee 07F10803 		add	r3, r7, #8
 490 01f2 1846     		mov	r0, r3
 491 01f4 FFF7FEFF 		bl	USBUART_1_PutString
 492              	.LBE11:
 493 01f8 2BE1     		b	.L33
 494              	.L21:
 495              	.LBB12:
  64:.\main.c      **** 		case FR_INVALID_OBJECT: dbgprint("FR_INVALID_OBJECT"); break;
 496              		.loc 1 64 0 is_stmt 1
 497 01fa 07F10803 		add	r3, r7, #8
 498 01fe 554A     		ldr	r2, .L55+40
 499 0200 1C46     		mov	r4, r3
 500 0202 1546     		mov	r5, r2
 501 0204 0FCD     		ldmia	r5!, {r0, r1, r2, r3}
 502 0206 0FC4     		stmia	r4!, {r0, r1, r2, r3}
 503 0208 2B68     		ldr	r3, [r5]
ARM GAS  C:\Users\honet\AppData\Local\Temp\ccWT9Ujf.s 			page 12


 504 020a 2380     		strh	r3, [r4]	@ movhi
 505 020c 00BF     		nop
 506              	.L42:
 507              		.loc 1 64 0 is_stmt 0 discriminator 2
 508 020e FFF7FEFF 		bl	USBUART_1_CDCIsReady
 509 0212 0346     		mov	r3, r0
 510 0214 002B     		cmp	r3, #0
 511 0216 FAD0     		beq	.L42
 512              		.loc 1 64 0 discriminator 3
 513 0218 07F10803 		add	r3, r7, #8
 514 021c 1846     		mov	r0, r3
 515 021e FFF7FEFF 		bl	USBUART_1_PutString
 516              	.LBE12:
 517 0222 16E1     		b	.L33
 518              	.L22:
 519              	.LBB13:
  65:.\main.c      **** 		case FR_WRITE_PROTECTED: dbgprint("FR_WRITE_PROTECTED"); break;
 520              		.loc 1 65 0 is_stmt 1
 521 0224 07F10803 		add	r3, r7, #8
 522 0228 4B4A     		ldr	r2, .L55+44
 523 022a 1C46     		mov	r4, r3
 524 022c 1546     		mov	r5, r2
 525 022e 0FCD     		ldmia	r5!, {r0, r1, r2, r3}
 526 0230 0FC4     		stmia	r4!, {r0, r1, r2, r3}
 527 0232 2B68     		ldr	r3, [r5]
 528 0234 1A46     		mov	r2, r3	@ movhi
 529 0236 2280     		strh	r2, [r4]	@ movhi
 530 0238 0234     		adds	r4, r4, #2
 531 023a 1B0C     		lsrs	r3, r3, #16
 532 023c 2370     		strb	r3, [r4]
 533 023e 00BF     		nop
 534              	.L43:
 535              		.loc 1 65 0 is_stmt 0 discriminator 2
 536 0240 FFF7FEFF 		bl	USBUART_1_CDCIsReady
 537 0244 0346     		mov	r3, r0
 538 0246 002B     		cmp	r3, #0
 539 0248 FAD0     		beq	.L43
 540              		.loc 1 65 0 discriminator 3
 541 024a 07F10803 		add	r3, r7, #8
 542 024e 1846     		mov	r0, r3
 543 0250 FFF7FEFF 		bl	USBUART_1_PutString
 544              	.LBE13:
 545 0254 FDE0     		b	.L33
 546              	.L23:
 547              	.LBB14:
  66:.\main.c      **** 		case FR_INVALID_DRIVE: dbgprint("FR_INVALID_DRIVE"); break;
 548              		.loc 1 66 0 is_stmt 1
 549 0256 07F10803 		add	r3, r7, #8
 550 025a 404A     		ldr	r2, .L55+48
 551 025c 1C46     		mov	r4, r3
 552 025e 1546     		mov	r5, r2
 553 0260 0FCD     		ldmia	r5!, {r0, r1, r2, r3}
 554 0262 0FC4     		stmia	r4!, {r0, r1, r2, r3}
 555 0264 2B68     		ldr	r3, [r5]
 556 0266 2370     		strb	r3, [r4]
 557 0268 00BF     		nop
 558              	.L44:
ARM GAS  C:\Users\honet\AppData\Local\Temp\ccWT9Ujf.s 			page 13


 559              		.loc 1 66 0 is_stmt 0 discriminator 2
 560 026a FFF7FEFF 		bl	USBUART_1_CDCIsReady
 561 026e 0346     		mov	r3, r0
 562 0270 002B     		cmp	r3, #0
 563 0272 FAD0     		beq	.L44
 564              		.loc 1 66 0 discriminator 3
 565 0274 07F10803 		add	r3, r7, #8
 566 0278 1846     		mov	r0, r3
 567 027a FFF7FEFF 		bl	USBUART_1_PutString
 568              	.LBE14:
 569 027e E8E0     		b	.L33
 570              	.L24:
 571              	.LBB15:
  67:.\main.c      **** 		case FR_NOT_ENABLED: dbgprint("FR_NOT_ENABLED"); break;
 572              		.loc 1 67 0 is_stmt 1
 573 0280 07F10803 		add	r3, r7, #8
 574 0284 364A     		ldr	r2, .L55+52
 575 0286 1C46     		mov	r4, r3
 576 0288 1346     		mov	r3, r2
 577 028a 0FCB     		ldmia	r3, {r0, r1, r2, r3}
 578 028c 07C4     		stmia	r4!, {r0, r1, r2}
 579 028e 2380     		strh	r3, [r4]	@ movhi
 580 0290 0234     		adds	r4, r4, #2
 581 0292 1B0C     		lsrs	r3, r3, #16
 582 0294 2370     		strb	r3, [r4]
 583 0296 00BF     		nop
 584              	.L45:
 585              		.loc 1 67 0 is_stmt 0 discriminator 2
 586 0298 FFF7FEFF 		bl	USBUART_1_CDCIsReady
 587 029c 0346     		mov	r3, r0
 588 029e 002B     		cmp	r3, #0
 589 02a0 FAD0     		beq	.L45
 590              		.loc 1 67 0 discriminator 3
 591 02a2 07F10803 		add	r3, r7, #8
 592 02a6 1846     		mov	r0, r3
 593 02a8 FFF7FEFF 		bl	USBUART_1_PutString
 594              	.LBE15:
 595 02ac D1E0     		b	.L33
 596              	.L25:
 597              	.LBB16:
  68:.\main.c      **** 		case FR_NO_FILESYSTEM: dbgprint("FR_NO_FILESYSTEM"); break;
 598              		.loc 1 68 0 is_stmt 1
 599 02ae 07F10803 		add	r3, r7, #8
 600 02b2 2C4A     		ldr	r2, .L55+56
 601 02b4 1C46     		mov	r4, r3
 602 02b6 1546     		mov	r5, r2
 603 02b8 0FCD     		ldmia	r5!, {r0, r1, r2, r3}
 604 02ba 0FC4     		stmia	r4!, {r0, r1, r2, r3}
 605 02bc 2B68     		ldr	r3, [r5]
 606 02be 2370     		strb	r3, [r4]
 607 02c0 00BF     		nop
 608              	.L46:
 609              		.loc 1 68 0 is_stmt 0 discriminator 2
 610 02c2 FFF7FEFF 		bl	USBUART_1_CDCIsReady
 611 02c6 0346     		mov	r3, r0
 612 02c8 002B     		cmp	r3, #0
 613 02ca FAD0     		beq	.L46
ARM GAS  C:\Users\honet\AppData\Local\Temp\ccWT9Ujf.s 			page 14


 614              		.loc 1 68 0 discriminator 3
 615 02cc 07F10803 		add	r3, r7, #8
 616 02d0 1846     		mov	r0, r3
 617 02d2 FFF7FEFF 		bl	USBUART_1_PutString
 618              	.LBE16:
 619 02d6 BCE0     		b	.L33
 620              	.L26:
 621              	.LBB17:
  69:.\main.c      **** 		case FR_MKFS_ABORTED: dbgprint("FR_MKFS_ABORTED"); break;
 622              		.loc 1 69 0 is_stmt 1
 623 02d8 07F10803 		add	r3, r7, #8
 624 02dc 224A     		ldr	r2, .L55+60
 625 02de 1C46     		mov	r4, r3
 626 02e0 1346     		mov	r3, r2
 627 02e2 0FCB     		ldmia	r3, {r0, r1, r2, r3}
 628 02e4 84E80F00 		stmia	r4, {r0, r1, r2, r3}
 629 02e8 00BF     		nop
 630              	.L47:
 631              		.loc 1 69 0 is_stmt 0 discriminator 2
 632 02ea FFF7FEFF 		bl	USBUART_1_CDCIsReady
 633 02ee 0346     		mov	r3, r0
 634 02f0 002B     		cmp	r3, #0
 635 02f2 FAD0     		beq	.L47
 636              		.loc 1 69 0 discriminator 3
 637 02f4 07F10803 		add	r3, r7, #8
 638 02f8 1846     		mov	r0, r3
 639 02fa FFF7FEFF 		bl	USBUART_1_PutString
 640              	.LBE17:
 641 02fe A8E0     		b	.L33
 642              	.L27:
 643              	.LBB18:
  70:.\main.c      **** 		case FR_TIMEOUT: dbgprint("FR_TIMEOUT"); break;
 644              		.loc 1 70 0 is_stmt 1
 645 0300 07F10803 		add	r3, r7, #8
 646 0304 194A     		ldr	r2, .L55+64
 647 0306 07CA     		ldmia	r2, {r0, r1, r2}
 648 0308 03C3     		stmia	r3!, {r0, r1}
 649 030a 1A80     		strh	r2, [r3]	@ movhi
 650 030c 0233     		adds	r3, r3, #2
 651 030e 120C     		lsrs	r2, r2, #16
 652 0310 1A70     		strb	r2, [r3]
 653 0312 00BF     		nop
 654              	.L48:
 655              		.loc 1 70 0 is_stmt 0 discriminator 2
 656 0314 FFF7FEFF 		bl	USBUART_1_CDCIsReady
 657 0318 0346     		mov	r3, r0
 658 031a 002B     		cmp	r3, #0
 659 031c FAD0     		beq	.L48
 660              		.loc 1 70 0 discriminator 3
 661 031e 07F10803 		add	r3, r7, #8
 662 0322 1846     		mov	r0, r3
 663 0324 FFF7FEFF 		bl	USBUART_1_PutString
 664              	.LBE18:
 665 0328 93E0     		b	.L33
 666              	.L56:
 667 032a 00BF     		.align	2
 668              	.L55:
ARM GAS  C:\Users\honet\AppData\Local\Temp\ccWT9Ujf.s 			page 15


 669 032c 00000000 		.word	.LC0
 670 0330 10000000 		.word	.LC1
 671 0334 18000000 		.word	.LC2
 672 0338 24000000 		.word	.LC3
 673 033c 30000000 		.word	.LC4
 674 0340 40000000 		.word	.LC5
 675 0344 4C000000 		.word	.LC6
 676 0348 58000000 		.word	.LC7
 677 034c 68000000 		.word	.LC8
 678 0350 74000000 		.word	.LC9
 679 0354 80000000 		.word	.LC10
 680 0358 94000000 		.word	.LC11
 681 035c A8000000 		.word	.LC12
 682 0360 BC000000 		.word	.LC13
 683 0364 CC000000 		.word	.LC14
 684 0368 E0000000 		.word	.LC15
 685 036c F0000000 		.word	.LC16
 686              	.L28:
 687              	.LBB19:
  71:.\main.c      **** 		case FR_LOCKED: dbgprint("FR_LOCKED"); break;
 688              		.loc 1 71 0 is_stmt 1
 689 0370 07F10803 		add	r3, r7, #8
 690 0374 404A     		ldr	r2, .L57
 691 0376 07CA     		ldmia	r2, {r0, r1, r2}
 692 0378 03C3     		stmia	r3!, {r0, r1}
 693 037a 1A80     		strh	r2, [r3]	@ movhi
 694 037c 00BF     		nop
 695              	.L49:
 696              		.loc 1 71 0 is_stmt 0 discriminator 2
 697 037e FFF7FEFF 		bl	USBUART_1_CDCIsReady
 698 0382 0346     		mov	r3, r0
 699 0384 002B     		cmp	r3, #0
 700 0386 FAD0     		beq	.L49
 701              		.loc 1 71 0 discriminator 3
 702 0388 07F10803 		add	r3, r7, #8
 703 038c 1846     		mov	r0, r3
 704 038e FFF7FEFF 		bl	USBUART_1_PutString
 705              	.LBE19:
 706 0392 5EE0     		b	.L33
 707              	.L29:
 708              	.LBB20:
  72:.\main.c      **** 		case FR_NOT_ENOUGH_CORE: dbgprint("FR_NOT_ENOUGH_CORE"); break;
 709              		.loc 1 72 0 is_stmt 1
 710 0394 07F10803 		add	r3, r7, #8
 711 0398 384A     		ldr	r2, .L57+4
 712 039a 1C46     		mov	r4, r3
 713 039c 1546     		mov	r5, r2
 714 039e 0FCD     		ldmia	r5!, {r0, r1, r2, r3}
 715 03a0 0FC4     		stmia	r4!, {r0, r1, r2, r3}
 716 03a2 2B68     		ldr	r3, [r5]
 717 03a4 1A46     		mov	r2, r3	@ movhi
 718 03a6 2280     		strh	r2, [r4]	@ movhi
 719 03a8 0234     		adds	r4, r4, #2
 720 03aa 1B0C     		lsrs	r3, r3, #16
 721 03ac 2370     		strb	r3, [r4]
 722 03ae 00BF     		nop
 723              	.L50:
ARM GAS  C:\Users\honet\AppData\Local\Temp\ccWT9Ujf.s 			page 16


 724              		.loc 1 72 0 is_stmt 0 discriminator 2
 725 03b0 FFF7FEFF 		bl	USBUART_1_CDCIsReady
 726 03b4 0346     		mov	r3, r0
 727 03b6 002B     		cmp	r3, #0
 728 03b8 FAD0     		beq	.L50
 729              		.loc 1 72 0 discriminator 3
 730 03ba 07F10803 		add	r3, r7, #8
 731 03be 1846     		mov	r0, r3
 732 03c0 FFF7FEFF 		bl	USBUART_1_PutString
 733              	.LBE20:
 734 03c4 45E0     		b	.L33
 735              	.L30:
 736              	.LBB21:
  73:.\main.c      **** 		case FR_TOO_MANY_OPEN_FILES: dbgprint("FR_TOO_MANY_OPEN_FILES"); break;
 737              		.loc 1 73 0 is_stmt 1
 738 03c6 07F10803 		add	r3, r7, #8
 739 03ca 2D4A     		ldr	r2, .L57+8
 740 03cc 1C46     		mov	r4, r3
 741 03ce 1546     		mov	r5, r2
 742 03d0 0FCD     		ldmia	r5!, {r0, r1, r2, r3}
 743 03d2 0FC4     		stmia	r4!, {r0, r1, r2, r3}
 744 03d4 95E80300 		ldmia	r5, {r0, r1}
 745 03d8 2060     		str	r0, [r4]
 746 03da 0434     		adds	r4, r4, #4
 747 03dc 2180     		strh	r1, [r4]	@ movhi
 748 03de 0234     		adds	r4, r4, #2
 749 03e0 0B0C     		lsrs	r3, r1, #16
 750 03e2 2370     		strb	r3, [r4]
 751 03e4 00BF     		nop
 752              	.L51:
 753              		.loc 1 73 0 is_stmt 0 discriminator 2
 754 03e6 FFF7FEFF 		bl	USBUART_1_CDCIsReady
 755 03ea 0346     		mov	r3, r0
 756 03ec 002B     		cmp	r3, #0
 757 03ee FAD0     		beq	.L51
 758              		.loc 1 73 0 discriminator 3
 759 03f0 07F10803 		add	r3, r7, #8
 760 03f4 1846     		mov	r0, r3
 761 03f6 FFF7FEFF 		bl	USBUART_1_PutString
 762              	.LBE21:
 763 03fa 2AE0     		b	.L33
 764              	.L31:
 765              	.LBB22:
  74:.\main.c      **** 		case FR_INVALID_PARAMETER: dbgprint("FR_INVALID_PARAMETER"); break;
 766              		.loc 1 74 0 is_stmt 1
 767 03fc 07F10803 		add	r3, r7, #8
 768 0400 204A     		ldr	r2, .L57+12
 769 0402 1C46     		mov	r4, r3
 770 0404 1546     		mov	r5, r2
 771 0406 0FCD     		ldmia	r5!, {r0, r1, r2, r3}
 772 0408 0FC4     		stmia	r4!, {r0, r1, r2, r3}
 773 040a 95E80300 		ldmia	r5, {r0, r1}
 774 040e 2060     		str	r0, [r4]
 775 0410 0434     		adds	r4, r4, #4
 776 0412 2170     		strb	r1, [r4]
 777 0414 00BF     		nop
 778              	.L52:
ARM GAS  C:\Users\honet\AppData\Local\Temp\ccWT9Ujf.s 			page 17


 779              		.loc 1 74 0 is_stmt 0 discriminator 2
 780 0416 FFF7FEFF 		bl	USBUART_1_CDCIsReady
 781 041a 0346     		mov	r3, r0
 782 041c 002B     		cmp	r3, #0
 783 041e FAD0     		beq	.L52
 784              		.loc 1 74 0 discriminator 3
 785 0420 07F10803 		add	r3, r7, #8
 786 0424 1846     		mov	r0, r3
 787 0426 FFF7FEFF 		bl	USBUART_1_PutString
 788              	.LBE22:
 789 042a 12E0     		b	.L33
 790              	.L10:
 791              	.LBB23:
  75:.\main.c      **** 		default: dbgprint("%d", exp);
 792              		.loc 1 75 0 is_stmt 1
 793 042c FB78     		ldrb	r3, [r7, #3]	@ zero_extendqisi2
 794 042e 07F10802 		add	r2, r7, #8
 795 0432 1046     		mov	r0, r2
 796 0434 1449     		ldr	r1, .L57+16
 797 0436 1A46     		mov	r2, r3
 798 0438 FFF7FEFF 		bl	sprintf
 799 043c 00BF     		nop
 800              	.L53:
 801              		.loc 1 75 0 is_stmt 0 discriminator 2
 802 043e FFF7FEFF 		bl	USBUART_1_CDCIsReady
 803 0442 0346     		mov	r3, r0
 804 0444 002B     		cmp	r3, #0
 805 0446 FAD0     		beq	.L53
 806              		.loc 1 75 0 discriminator 3
 807 0448 07F10803 		add	r3, r7, #8
 808 044c 1846     		mov	r0, r3
 809 044e FFF7FEFF 		bl	USBUART_1_PutString
 810              	.L33:
 811              	.LBE23:
 812              	.LBB24:
  76:.\main.c      **** 		}
  77:.\main.c      **** 		dbgprint("\n");
 813              		.loc 1 77 0 is_stmt 1
 814 0452 07F10803 		add	r3, r7, #8
 815 0456 0A22     		movs	r2, #10
 816 0458 1A80     		strh	r2, [r3]	@ movhi
 817 045a 00BF     		nop
 818              	.L54:
 819              		.loc 1 77 0 is_stmt 0 discriminator 2
 820 045c FFF7FEFF 		bl	USBUART_1_CDCIsReady
 821 0460 0346     		mov	r3, r0
 822 0462 002B     		cmp	r3, #0
 823 0464 FAD0     		beq	.L54
 824              		.loc 1 77 0 discriminator 3
 825 0466 07F10803 		add	r3, r7, #8
 826 046a 1846     		mov	r0, r3
 827 046c FFF7FEFF 		bl	USBUART_1_PutString
 828              	.L7:
 829              	.LBE24:
  78:.\main.c      **** 	}
  79:.\main.c      **** }
 830              		.loc 1 79 0 is_stmt 1
ARM GAS  C:\Users\honet\AppData\Local\Temp\ccWT9Ujf.s 			page 18


 831 0470 8837     		adds	r7, r7, #136
 832              		.cfi_def_cfa_offset 16
 833 0472 BD46     		mov	sp, r7
 834              		.cfi_def_cfa_register 13
 835              		@ sp needed
 836 0474 B0BD     		pop	{r4, r5, r7, pc}
 837              	.L58:
 838 0476 00BF     		.align	2
 839              	.L57:
 840 0478 FC000000 		.word	.LC17
 841 047c 08010000 		.word	.LC18
 842 0480 1C010000 		.word	.LC19
 843 0484 34010000 		.word	.LC20
 844 0488 4C010000 		.word	.LC21
 845              		.cfi_endproc
 846              	.LFE67:
 847              		.size	chkres, .-chkres
 848              		.comm	File,552,4
 849              		.section	.rodata
 850 014f 00       		.align	2
 851              	.LC22:
 852 0150 54727920 		.ascii	"Try to mount...\012\000"
 852      746F206D 
 852      6F756E74 
 852      2E2E2E0A 
 852      00
 853 0161 000000   		.align	2
 854              	.LC23:
 855 0164 6469736B 		.ascii	"disk_initialize ret=%d\012\000"
 855      5F696E69 
 855      7469616C 
 855      697A6520 
 855      7265743D 
 856              		.align	2
 857              	.LC24:
 858 017c 2F00     		.ascii	"/\000"
 859 017e 0000     		.align	2
 860              	.LC25:
 861 0180 53442D43 		.ascii	"SD-CARD mount ERROR!! nRes=\000"
 861      41524420 
 861      6D6F756E 
 861      74204552 
 861      524F5221 
 862              		.align	2
 863              	.LC26:
 864 019c 46525F49 		.ascii	"FR_INVALID_DRIVE\012\000"
 864      4E56414C 
 864      49445F44 
 864      52495645 
 864      0A00
 865 01ae 0000     		.align	2
 866              	.LC27:
 867 01b0 46525F44 		.ascii	"FR_DISK_ERR\012\000"
 867      49534B5F 
 867      4552520A 
 867      00
 868 01bd 000000   		.align	2
ARM GAS  C:\Users\honet\AppData\Local\Temp\ccWT9Ujf.s 			page 19


 869              	.LC28:
 870 01c0 46525F4E 		.ascii	"FR_NOT_READY\012\000"
 870      4F545F52 
 870      45414459 
 870      0A00
 871 01ce 0000     		.align	2
 872              	.LC29:
 873 01d0 46525F4E 		.ascii	"FR_NO_FILESYSTEM\012\000"
 873      4F5F4649 
 873      4C455359 
 873      5354454D 
 873      0A00
 874 01e2 0000     		.align	2
 875              	.LC30:
 876 01e4 53442D43 		.ascii	"SD-CARD mounted. FSTYPE=\000"
 876      41524420 
 876      6D6F756E 
 876      7465642E 
 876      20465354 
 877 01fd 000000   		.align	2
 878              	.LC31:
 879 0200 46415431 		.ascii	"FAT12\012\000"
 879      320A00
 880 0207 00       		.align	2
 881              	.LC32:
 882 0208 46415431 		.ascii	"FAT16\012\000"
 882      360A00
 883 020f 00       		.align	2
 884              	.LC33:
 885 0210 46415433 		.ascii	"FAT32\012\000"
 885      320A00
 886 0217 00       		.align	2
 887              	.LC34:
 888 0218 554E4B4E 		.ascii	"UNKNOWN\012\000"
 888      4F574E0A 
 888      00
 889 0221 000000   		.align	2
 890              	.LC35:
 891 0224 3E3E3E3E 		.ascii	">>>>Testing PIO mode...\012\000"
 891      54657374 
 891      696E6720 
 891      50494F20 
 891      6D6F6465 
 892 023d 000000   		.align	2
 893              	.LC36:
 894 0240 2F2F7465 		.ascii	"//test.txt\000"
 894      73742E74 
 894      787400
 895 024b 00       		.align	2
 896              	.LC37:
 897 024c 665F6F70 		.ascii	"f_open\000"
 897      656E00
 898 0253 00       		.align	2
 899              	.LC38:
 900 0254 54657374 		.ascii	"Testing Speed\012\000"
 900      696E6720 
 900      53706565 
ARM GAS  C:\Users\honet\AppData\Local\Temp\ccWT9Ujf.s 			page 20


 900      640A00
 901 0263 00       		.align	2
 902              	.LC39:
 903 0264 665F7772 		.ascii	"f_write\000"
 903      69746500 
 904              		.global	__aeabi_i2d
 905              		.global	__aeabi_dmul
 906              		.align	2
 907              	.LC40:
 908 026c 57726974 		.ascii	"Writing %d bytes to file, non-DMA\012\000"
 908      696E6720 
 908      25642062 
 908      79746573 
 908      20746F20 
 909 028f 00       		.align	2
 910              	.LC41:
 911 0290 2F2F5445 		.ascii	"//TESTPIO.bin\000"
 911      53545049 
 911      4F2E6269 
 911      6E00
 912 029e 0000     		.align	2
 913              	.LC42:
 914 02a0 665F636C 		.ascii	"f_close\000"
 914      6F736500 
 915              		.align	2
 916              	.LC43:
 917 02a8 546F6F6B 		.ascii	"Took %lu ms\012\000"
 917      20256C75 
 917      206D730A 
 917      00
 918 02b5 000000   		.align	2
 919              	.LC44:
 920 02b8 52617465 		.ascii	"Rate %lu kbps\012\012\000"
 920      20256C75 
 920      206B6270 
 920      730A0A00 
 921              		.align	2
 922              	.LC45:
 923 02c8 52656164 		.ascii	"Reading %d bytes from file, non-DMA\012\000"
 923      696E6720 
 923      25642062 
 923      79746573 
 923      2066726F 
 924 02ed 000000   		.align	2
 925              	.LC46:
 926 02f0 665F7265 		.ascii	"f_read\000"
 926      616400
 927 02f7 00       		.align	2
 928              	.LC47:
 929 02f8 546F6F6B 		.ascii	"Took %lu ms\012Verifying...\000"
 929      20256C75 
 929      206D730A 
 929      56657269 
 929      6679696E 
 930              		.global	__aeabi_dcmpeq
 931 0311 000000   		.align	2
 932              	.LC48:
ARM GAS  C:\Users\honet\AppData\Local\Temp\ccWT9Ujf.s 			page 21


 933 0314 4641494C 		.ascii	"FAIL :O\012\000"
 933      203A4F0A 
 933      00
 934 031d 000000   		.align	2
 935              	.LC49:
 936 0320 20416C6C 		.ascii	" All Good! :D\012\000"
 936      20476F6F 
 936      6421203A 
 936      440A00
 937 032f 00       		.align	2
 938              	.LC50:
 939 0330 3E3E3E3E 		.ascii	">>>>Testing DMA mode...\012\000"
 939      54657374 
 939      696E6720 
 939      444D4120 
 939      6D6F6465 
 940 0349 000000   		.align	2
 941              	.LC51:
 942 034c 57726974 		.ascii	"Writing %d bytes to file, DMA\012\000"
 942      696E6720 
 942      25642062 
 942      79746573 
 942      20746F20 
 943 036b 00       		.align	2
 944              	.LC52:
 945 036c 2F2F5445 		.ascii	"//TESTDMA.bin\000"
 945      5354444D 
 945      412E6269 
 945      6E00
 946 037a 0000     		.align	2
 947              	.LC53:
 948 037c 52656164 		.ascii	"Reading %d bytes from file, DMA\012\000"
 948      696E6720 
 948      25642062 
 948      79746573 
 948      2066726F 
 949 039d 000000   		.align	2
 950              	.LC54:
 951 03a0 54455354 		.ascii	"TEST FINISHED!\012\000"
 951      2046494E 
 951      49534845 
 951      44210A00 
 952              		.section	.text.sdbench,"ax",%progbits
 953              		.align	2
 954              		.global	sdbench
 955              		.thumb
 956              		.thumb_func
 957              		.type	sdbench, %function
 958              	sdbench:
 959              	.LFB68:
  80:.\main.c      **** 
  81:.\main.c      **** FIL File; // result message txt-file
  82:.\main.c      **** 
  83:.\main.c      **** #define dmpmsg(msg, ...) \
  84:.\main.c      **** do{ \
  85:.\main.c      **** 	UINT BytesWritten; \
  86:.\main.c      **** 	size_t sz=strlen(msg); \
ARM GAS  C:\Users\honet\AppData\Local\Temp\ccWT9Ujf.s 			page 22


  87:.\main.c      **** 	dbgprint(msg, ## __VA_ARGS__); \
  88:.\main.c      **** 	FRESULT res = f_write(&File, msg, sz, &BytesWritten); \
  89:.\main.c      **** 	chkres("f_write", res); \
  90:.\main.c      **** }while(0)
  91:.\main.c      **** 
  92:.\main.c      **** void sdbench()
  93:.\main.c      **** {
 960              		.loc 1 93 0
 961              		.cfi_startproc
 962              		@ args = 0, pretend = 0, frame = 1600
 963              		@ frame_needed = 1, uses_anonymous_args = 0
 964 0000 2DE9F041 		push	{r4, r5, r6, r7, r8, lr}
 965              		.cfi_def_cfa_offset 24
 966              		.cfi_offset 4, -24
 967              		.cfi_offset 5, -20
 968              		.cfi_offset 6, -16
 969              		.cfi_offset 7, -12
 970              		.cfi_offset 8, -8
 971              		.cfi_offset 14, -4
 972 0004 ADF5C86D 		sub	sp, sp, #1600
 973              		.cfi_def_cfa_offset 1624
 974 0008 00AF     		add	r7, sp, #0
 975              		.cfi_def_cfa_register 7
 976 000a 6C46     		mov	r4, sp
 977 000c A046     		mov	r8, r4
  94:.\main.c      **** 	uint32_t nvals = BUFFER_SIZE/sizeof(double);
 978              		.loc 1 94 0
 979 000e 4FF4FA64 		mov	r4, #2000
 980 0012 C7F82846 		str	r4, [r7, #1576]
  95:.\main.c      **** 	double vals[nvals];
 981              		.loc 1 95 0
 982 0016 D7F82866 		ldr	r6, [r7, #1576]
 983 001a 3446     		mov	r4, r6
 984 001c 013C     		subs	r4, r4, #1
 985 001e C7F82446 		str	r4, [r7, #1572]
 986 0022 3446     		mov	r4, r6
 987 0024 4FF00005 		mov	r5, #0
 988 0028 A901     		lsls	r1, r5, #6
 989 002a 41EA9461 		orr	r1, r1, r4, lsr #26
 990 002e A001     		lsls	r0, r4, #6
 991 0030 3046     		mov	r0, r6
 992 0032 4FF00001 		mov	r1, #0
 993 0036 8B01     		lsls	r3, r1, #6
 994 0038 43EA9063 		orr	r3, r3, r0, lsr #26
 995 003c 8201     		lsls	r2, r0, #6
 996 003e F300     		lsls	r3, r6, #3
 997 0040 0733     		adds	r3, r3, #7
 998 0042 0733     		adds	r3, r3, #7
 999 0044 DB08     		lsrs	r3, r3, #3
 1000 0046 DB00     		lsls	r3, r3, #3
 1001 0048 ADEB030D 		sub	sp, sp, r3
 1002 004c 6B46     		mov	r3, sp
 1003 004e 0733     		adds	r3, r3, #7
 1004 0050 DB08     		lsrs	r3, r3, #3
 1005 0052 DB00     		lsls	r3, r3, #3
 1006 0054 C7F82036 		str	r3, [r7, #1568]
 1007              	.LBB25:
ARM GAS  C:\Users\honet\AppData\Local\Temp\ccWT9Ujf.s 			page 23


  96:.\main.c      ****     
  97:.\main.c      **** 	char tmpchr[100];
  98:.\main.c      **** 	FRESULT res;
  99:.\main.c      **** 	UINT BytesWritten, BytesRead;
 100:.\main.c      **** 	
 101:.\main.c      **** 	FATFS FileSys;          //this will be our mounted file system
 102:.\main.c      **** 
 103:.\main.c      **** 	dbgprint("Try to mount...\n");
 1008              		.loc 1 103 0
 1009 0058 3B46     		mov	r3, r7
 1010 005a C14A     		ldr	r2, .L131
 1011 005c 1C46     		mov	r4, r3
 1012 005e 1546     		mov	r5, r2
 1013 0060 0FCD     		ldmia	r5!, {r0, r1, r2, r3}
 1014 0062 0FC4     		stmia	r4!, {r0, r1, r2, r3}
 1015 0064 2B68     		ldr	r3, [r5]
 1016 0066 2370     		strb	r3, [r4]
 1017 0068 00BF     		nop
 1018              	.L60:
 1019              		.loc 1 103 0 is_stmt 0 discriminator 2
 1020 006a FFF7FEFF 		bl	USBUART_1_CDCIsReady
 1021 006e 0346     		mov	r3, r0
 1022 0070 002B     		cmp	r3, #0
 1023 0072 FAD0     		beq	.L60
 1024              		.loc 1 103 0 discriminator 3
 1025 0074 3B46     		mov	r3, r7
 1026 0076 1846     		mov	r0, r3
 1027 0078 FFF7FEFF 		bl	USBUART_1_PutString
 1028              	.LBE25:
 104:.\main.c      **** 	DSTATUS dret = disk_initialize(0);     //initialise FatFS
 1029              		.loc 1 104 0 is_stmt 1 discriminator 3
 1030 007c 0020     		movs	r0, #0
 1031 007e FFF7FEFF 		bl	disk_initialize
 1032 0082 0346     		mov	r3, r0
 1033 0084 87F81F36 		strb	r3, [r7, #1567]
 1034              	.LBB26:
 105:.\main.c      **** 	dbgprint("disk_initialize ret=%d\n", dret);
 1035              		.loc 1 105 0 discriminator 3
 1036 0088 97F81F36 		ldrb	r3, [r7, #1567]	@ zero_extendqisi2
 1037 008c 3A46     		mov	r2, r7
 1038 008e 1046     		mov	r0, r2
 1039 0090 B449     		ldr	r1, .L131+4
 1040 0092 1A46     		mov	r2, r3
 1041 0094 FFF7FEFF 		bl	sprintf
 1042 0098 00BF     		nop
 1043              	.L61:
 1044              		.loc 1 105 0 is_stmt 0 discriminator 2
 1045 009a FFF7FEFF 		bl	USBUART_1_CDCIsReady
 1046 009e 0346     		mov	r3, r0
 1047 00a0 002B     		cmp	r3, #0
 1048 00a2 FAD0     		beq	.L61
 1049              		.loc 1 105 0 discriminator 3
 1050 00a4 3B46     		mov	r3, r7
 1051 00a6 1846     		mov	r0, r3
 1052 00a8 FFF7FEFF 		bl	USBUART_1_PutString
 1053              	.LBE26:
 106:.\main.c      **** 
ARM GAS  C:\Users\honet\AppData\Local\Temp\ccWT9Ujf.s 			page 24


 107:.\main.c      **** 	//and mount. Note: if/else and case statements below allow identification of status.
 108:.\main.c      **** 	//in this example, I just assume everything went ok, and have left the below for reference.
 109:.\main.c      **** 	FRESULT nRes;
 110:.\main.c      **** 	if ((nRes = f_mount(&FileSys, "/", 1)) != FR_OK) { //Fail to mount...
 1054              		.loc 1 110 0 is_stmt 1 discriminator 3
 1055 00ac 07F53B73 		add	r3, r7, #748
 1056 00b0 1846     		mov	r0, r3
 1057 00b2 AD49     		ldr	r1, .L131+8
 1058 00b4 0122     		movs	r2, #1
 1059 00b6 FFF7FEFF 		bl	f_mount
 1060 00ba 0346     		mov	r3, r0
 1061 00bc 87F81E36 		strb	r3, [r7, #1566]
 1062 00c0 97F81E36 		ldrb	r3, [r7, #1566]	@ zero_extendqisi2
 1063 00c4 002B     		cmp	r3, #0
 1064 00c6 00F08480 		beq	.L62
 1065              	.LBB27:
 111:.\main.c      **** 		dbgprint("SD-CARD mount ERROR!! nRes=");
 1066              		.loc 1 111 0
 1067 00ca 3B46     		mov	r3, r7
 1068 00cc A74A     		ldr	r2, .L131+12
 1069 00ce 1C46     		mov	r4, r3
 1070 00d0 1546     		mov	r5, r2
 1071 00d2 0FCD     		ldmia	r5!, {r0, r1, r2, r3}
 1072 00d4 0FC4     		stmia	r4!, {r0, r1, r2, r3}
 1073 00d6 95E80700 		ldmia	r5, {r0, r1, r2}
 1074 00da 84E80700 		stmia	r4, {r0, r1, r2}
 1075 00de 00BF     		nop
 1076              	.L63:
 1077              		.loc 1 111 0 is_stmt 0 discriminator 2
 1078 00e0 FFF7FEFF 		bl	USBUART_1_CDCIsReady
 1079 00e4 0346     		mov	r3, r0
 1080 00e6 002B     		cmp	r3, #0
 1081 00e8 FAD0     		beq	.L63
 1082              		.loc 1 111 0 discriminator 3
 1083 00ea 3B46     		mov	r3, r7
 1084 00ec 1846     		mov	r0, r3
 1085 00ee FFF7FEFF 		bl	USBUART_1_PutString
 1086              	.LBE27:
 112:.\main.c      **** 		switch(nRes) {    //reasons...
 1087              		.loc 1 112 0 is_stmt 1 discriminator 3
 1088 00f2 97F81E36 		ldrb	r3, [r7, #1566]	@ zero_extendqisi2
 1089 00f6 013B     		subs	r3, r3, #1
 1090 00f8 0C2B     		cmp	r3, #12
 1091 00fa 67D8     		bhi	.L130
 1092 00fc 01A2     		adr	r2, .L66
 1093 00fe 52F823F0 		ldr	pc, [r2, r3, lsl #2]
 1094 0102 00BF     		.p2align 2
 1095              	.L66:
 1096 0104 5F010000 		.word	.L65+1
 1097 0108 CD010000 		.word	.L130+1
 1098 010c 83010000 		.word	.L67+1
 1099 0110 CD010000 		.word	.L130+1
 1100 0114 CD010000 		.word	.L130+1
 1101 0118 CD010000 		.word	.L130+1
 1102 011c CD010000 		.word	.L130+1
 1103 0120 CD010000 		.word	.L130+1
 1104 0124 CD010000 		.word	.L130+1
ARM GAS  C:\Users\honet\AppData\Local\Temp\ccWT9Ujf.s 			page 25


 1105 0128 CD010000 		.word	.L130+1
 1106 012c 39010000 		.word	.L68+1
 1107 0130 CD010000 		.word	.L130+1
 1108 0134 A7010000 		.word	.L69+1
 1109              		.p2align 1
 1110              	.L68:
 1111              	.LBB28:
 113:.\main.c      **** 		case FR_INVALID_DRIVE:	dbgprint("FR_INVALID_DRIVE\n"); break;
 1112              		.loc 1 113 0
 1113 0138 3B46     		mov	r3, r7
 1114 013a 8D4A     		ldr	r2, .L131+16
 1115 013c 1C46     		mov	r4, r3
 1116 013e 1546     		mov	r5, r2
 1117 0140 0FCD     		ldmia	r5!, {r0, r1, r2, r3}
 1118 0142 0FC4     		stmia	r4!, {r0, r1, r2, r3}
 1119 0144 2B68     		ldr	r3, [r5]
 1120 0146 2380     		strh	r3, [r4]	@ movhi
 1121 0148 00BF     		nop
 1122              	.L70:
 1123              		.loc 1 113 0 is_stmt 0 discriminator 2
 1124 014a FFF7FEFF 		bl	USBUART_1_CDCIsReady
 1125 014e 0346     		mov	r3, r0
 1126 0150 002B     		cmp	r3, #0
 1127 0152 FAD0     		beq	.L70
 1128              		.loc 1 113 0 discriminator 3
 1129 0154 3B46     		mov	r3, r7
 1130 0156 1846     		mov	r0, r3
 1131 0158 FFF7FEFF 		bl	USBUART_1_PutString
 1132              	.LBE28:
 1133 015c 37E0     		b	.L71
 1134              	.L65:
 1135              	.LBB29:
 114:.\main.c      **** 		case FR_DISK_ERR:		dbgprint("FR_DISK_ERR\n"); break;
 1136              		.loc 1 114 0 is_stmt 1
 1137 015e 3B46     		mov	r3, r7
 1138 0160 844A     		ldr	r2, .L131+20
 1139 0162 1C46     		mov	r4, r3
 1140 0164 1346     		mov	r3, r2
 1141 0166 0FCB     		ldmia	r3, {r0, r1, r2, r3}
 1142 0168 07C4     		stmia	r4!, {r0, r1, r2}
 1143 016a 2370     		strb	r3, [r4]
 1144 016c 00BF     		nop
 1145              	.L72:
 1146              		.loc 1 114 0 is_stmt 0 discriminator 2
 1147 016e FFF7FEFF 		bl	USBUART_1_CDCIsReady
 1148 0172 0346     		mov	r3, r0
 1149 0174 002B     		cmp	r3, #0
 1150 0176 FAD0     		beq	.L72
 1151              		.loc 1 114 0 discriminator 3
 1152 0178 3B46     		mov	r3, r7
 1153 017a 1846     		mov	r0, r3
 1154 017c FFF7FEFF 		bl	USBUART_1_PutString
 1155              	.LBE29:
 1156 0180 25E0     		b	.L71
 1157              	.L67:
 1158              	.LBB30:
 115:.\main.c      **** 		case FR_NOT_READY:		dbgprint("FR_NOT_READY\n"); break;
ARM GAS  C:\Users\honet\AppData\Local\Temp\ccWT9Ujf.s 			page 26


 1159              		.loc 1 115 0 is_stmt 1
 1160 0182 3B46     		mov	r3, r7
 1161 0184 7C4A     		ldr	r2, .L131+24
 1162 0186 1C46     		mov	r4, r3
 1163 0188 1346     		mov	r3, r2
 1164 018a 0FCB     		ldmia	r3, {r0, r1, r2, r3}
 1165 018c 07C4     		stmia	r4!, {r0, r1, r2}
 1166 018e 2380     		strh	r3, [r4]	@ movhi
 1167 0190 00BF     		nop
 1168              	.L73:
 1169              		.loc 1 115 0 is_stmt 0 discriminator 2
 1170 0192 FFF7FEFF 		bl	USBUART_1_CDCIsReady
 1171 0196 0346     		mov	r3, r0
 1172 0198 002B     		cmp	r3, #0
 1173 019a FAD0     		beq	.L73
 1174              		.loc 1 115 0 discriminator 3
 1175 019c 3B46     		mov	r3, r7
 1176 019e 1846     		mov	r0, r3
 1177 01a0 FFF7FEFF 		bl	USBUART_1_PutString
 1178              	.LBE30:
 1179 01a4 13E0     		b	.L71
 1180              	.L69:
 1181              	.LBB31:
 116:.\main.c      **** 		case FR_NO_FILESYSTEM:	dbgprint("FR_NO_FILESYSTEM\n"); break;
 1182              		.loc 1 116 0 is_stmt 1
 1183 01a6 3B46     		mov	r3, r7
 1184 01a8 744A     		ldr	r2, .L131+28
 1185 01aa 1C46     		mov	r4, r3
 1186 01ac 1546     		mov	r5, r2
 1187 01ae 0FCD     		ldmia	r5!, {r0, r1, r2, r3}
 1188 01b0 0FC4     		stmia	r4!, {r0, r1, r2, r3}
 1189 01b2 2B68     		ldr	r3, [r5]
 1190 01b4 2380     		strh	r3, [r4]	@ movhi
 1191 01b6 00BF     		nop
 1192              	.L74:
 1193              		.loc 1 116 0 is_stmt 0 discriminator 2
 1194 01b8 FFF7FEFF 		bl	USBUART_1_CDCIsReady
 1195 01bc 0346     		mov	r3, r0
 1196 01be 002B     		cmp	r3, #0
 1197 01c0 FAD0     		beq	.L74
 1198              		.loc 1 116 0 discriminator 3
 1199 01c2 3B46     		mov	r3, r7
 1200 01c4 1846     		mov	r0, r3
 1201 01c6 FFF7FEFF 		bl	USBUART_1_PutString
 1202              	.LBE31:
 1203 01ca 00E0     		b	.L71
 1204              	.L130:
 117:.\main.c      **** 		default: break;
 1205              		.loc 1 117 0 is_stmt 1
 1206 01cc 00BF     		nop
 1207              	.L71:
 118:.\main.c      **** 		}
 119:.\main.c      **** 		goto err_exit;
 1208              		.loc 1 119 0 discriminator 4
 1209 01ce 00F076BD 		b	.L75
 1210              	.L62:
 1211              	.LBB32:
ARM GAS  C:\Users\honet\AppData\Local\Temp\ccWT9Ujf.s 			page 27


 120:.\main.c      **** 	} else {
 121:.\main.c      **** 		//Mounted
 122:.\main.c      **** 		dbgprint("SD-CARD mounted. FSTYPE=");
 1212              		.loc 1 122 0
 1213 01d2 3B46     		mov	r3, r7
 1214 01d4 6A4A     		ldr	r2, .L131+32
 1215 01d6 1C46     		mov	r4, r3
 1216 01d8 1546     		mov	r5, r2
 1217 01da 0FCD     		ldmia	r5!, {r0, r1, r2, r3}
 1218 01dc 0FC4     		stmia	r4!, {r0, r1, r2, r3}
 1219 01de 95E80700 		ldmia	r5, {r0, r1, r2}
 1220 01e2 03C4     		stmia	r4!, {r0, r1}
 1221 01e4 2270     		strb	r2, [r4]
 1222 01e6 00BF     		nop
 1223              	.L76:
 1224              		.loc 1 122 0 is_stmt 0 discriminator 2
 1225 01e8 FFF7FEFF 		bl	USBUART_1_CDCIsReady
 1226 01ec 0346     		mov	r3, r0
 1227 01ee 002B     		cmp	r3, #0
 1228 01f0 FAD0     		beq	.L76
 1229              		.loc 1 122 0 discriminator 3
 1230 01f2 3B46     		mov	r3, r7
 1231 01f4 1846     		mov	r0, r3
 1232 01f6 FFF7FEFF 		bl	USBUART_1_PutString
 1233              	.LBE32:
 123:.\main.c      **** 		switch(FileSys.fs_type) { //In case filesys type is of interest
 1234              		.loc 1 123 0 is_stmt 1 discriminator 3
 1235 01fa 07F53B73 		add	r3, r7, #748
 1236 01fe 1B78     		ldrb	r3, [r3]	@ zero_extendqisi2
 1237 0200 022B     		cmp	r3, #2
 1238 0202 18D0     		beq	.L78
 1239 0204 032B     		cmp	r3, #3
 1240 0206 2BD0     		beq	.L79
 1241 0208 012B     		cmp	r3, #1
 1242 020a 3ED1     		bne	.L129
 1243              	.LBB33:
 124:.\main.c      **** 		case FS_FAT12:	dbgprint("FAT12\n"); break;
 1244              		.loc 1 124 0
 1245 020c 3B46     		mov	r3, r7
 1246 020e 5D4A     		ldr	r2, .L131+36
 1247 0210 92E80300 		ldmia	r2, {r0, r1}
 1248 0214 1860     		str	r0, [r3]
 1249 0216 0433     		adds	r3, r3, #4
 1250 0218 1980     		strh	r1, [r3]	@ movhi
 1251 021a 0233     		adds	r3, r3, #2
 1252 021c 0A0C     		lsrs	r2, r1, #16
 1253 021e 1A70     		strb	r2, [r3]
 1254 0220 00BF     		nop
 1255              	.L81:
 1256              		.loc 1 124 0 is_stmt 0 discriminator 2
 1257 0222 FFF7FEFF 		bl	USBUART_1_CDCIsReady
 1258 0226 0346     		mov	r3, r0
 1259 0228 002B     		cmp	r3, #0
 1260 022a FAD0     		beq	.L81
 1261              		.loc 1 124 0 discriminator 3
 1262 022c 3B46     		mov	r3, r7
 1263 022e 1846     		mov	r0, r3
ARM GAS  C:\Users\honet\AppData\Local\Temp\ccWT9Ujf.s 			page 28


 1264 0230 FFF7FEFF 		bl	USBUART_1_PutString
 1265              	.LBE33:
 1266 0234 39E0     		b	.L82
 1267              	.L78:
 1268              	.LBB34:
 125:.\main.c      **** 		case FS_FAT16:	dbgprint("FAT16\n"); break;
 1269              		.loc 1 125 0 is_stmt 1
 1270 0236 3B46     		mov	r3, r7
 1271 0238 534A     		ldr	r2, .L131+40
 1272 023a 92E80300 		ldmia	r2, {r0, r1}
 1273 023e 1860     		str	r0, [r3]
 1274 0240 0433     		adds	r3, r3, #4
 1275 0242 1980     		strh	r1, [r3]	@ movhi
 1276 0244 0233     		adds	r3, r3, #2
 1277 0246 0A0C     		lsrs	r2, r1, #16
 1278 0248 1A70     		strb	r2, [r3]
 1279 024a 00BF     		nop
 1280              	.L83:
 1281              		.loc 1 125 0 is_stmt 0 discriminator 2
 1282 024c FFF7FEFF 		bl	USBUART_1_CDCIsReady
 1283 0250 0346     		mov	r3, r0
 1284 0252 002B     		cmp	r3, #0
 1285 0254 FAD0     		beq	.L83
 1286              		.loc 1 125 0 discriminator 3
 1287 0256 3B46     		mov	r3, r7
 1288 0258 1846     		mov	r0, r3
 1289 025a FFF7FEFF 		bl	USBUART_1_PutString
 1290              	.LBE34:
 1291 025e 24E0     		b	.L82
 1292              	.L79:
 1293              	.LBB35:
 126:.\main.c      **** 		case FS_FAT32:	dbgprint("FAT32\n"); break;
 1294              		.loc 1 126 0 is_stmt 1
 1295 0260 3B46     		mov	r3, r7
 1296 0262 4A4A     		ldr	r2, .L131+44
 1297 0264 92E80300 		ldmia	r2, {r0, r1}
 1298 0268 1860     		str	r0, [r3]
 1299 026a 0433     		adds	r3, r3, #4
 1300 026c 1980     		strh	r1, [r3]	@ movhi
 1301 026e 0233     		adds	r3, r3, #2
 1302 0270 0A0C     		lsrs	r2, r1, #16
 1303 0272 1A70     		strb	r2, [r3]
 1304 0274 00BF     		nop
 1305              	.L84:
 1306              		.loc 1 126 0 is_stmt 0 discriminator 2
 1307 0276 FFF7FEFF 		bl	USBUART_1_CDCIsReady
 1308 027a 0346     		mov	r3, r0
 1309 027c 002B     		cmp	r3, #0
 1310 027e FAD0     		beq	.L84
 1311              		.loc 1 126 0 discriminator 3
 1312 0280 3B46     		mov	r3, r7
 1313 0282 1846     		mov	r0, r3
 1314 0284 FFF7FEFF 		bl	USBUART_1_PutString
 1315              	.LBE35:
 1316 0288 0FE0     		b	.L82
 1317              	.L129:
 1318              	.LBB36:
ARM GAS  C:\Users\honet\AppData\Local\Temp\ccWT9Ujf.s 			page 29


 127:.\main.c      **** 		default:		dbgprint("UNKNOWN\n"); break;
 1319              		.loc 1 127 0 is_stmt 1
 1320 028a 3B46     		mov	r3, r7
 1321 028c 404A     		ldr	r2, .L131+48
 1322 028e 07CA     		ldmia	r2, {r0, r1, r2}
 1323 0290 03C3     		stmia	r3!, {r0, r1}
 1324 0292 1A70     		strb	r2, [r3]
 1325 0294 00BF     		nop
 1326              	.L85:
 1327              		.loc 1 127 0 is_stmt 0 discriminator 2
 1328 0296 FFF7FEFF 		bl	USBUART_1_CDCIsReady
 1329 029a 0346     		mov	r3, r0
 1330 029c 002B     		cmp	r3, #0
 1331 029e FAD0     		beq	.L85
 1332              		.loc 1 127 0 discriminator 3
 1333 02a0 3B46     		mov	r3, r7
 1334 02a2 1846     		mov	r0, r3
 1335 02a4 FFF7FEFF 		bl	USBUART_1_PutString
 1336              	.LBE36:
 1337 02a8 00BF     		nop
 1338              	.L82:
 1339              	.LBB37:
 128:.\main.c      **** 		}
 129:.\main.c      **** 	}
 130:.\main.c      **** 	
 131:.\main.c      **** 	/// --------------------------------------------------------------------------
 132:.\main.c      **** 	//Now for the benchmarking step...
 133:.\main.c      **** 	dbgprint(">>>>Testing PIO mode...\n");
 1340              		.loc 1 133 0 is_stmt 1
 1341 02aa 3B46     		mov	r3, r7
 1342 02ac 394A     		ldr	r2, .L131+52
 1343 02ae 1C46     		mov	r4, r3
 1344 02b0 1546     		mov	r5, r2
 1345 02b2 0FCD     		ldmia	r5!, {r0, r1, r2, r3}
 1346 02b4 0FC4     		stmia	r4!, {r0, r1, r2, r3}
 1347 02b6 95E80700 		ldmia	r5, {r0, r1, r2}
 1348 02ba 03C4     		stmia	r4!, {r0, r1}
 1349 02bc 2270     		strb	r2, [r4]
 1350 02be 00BF     		nop
 1351              	.L86:
 1352              		.loc 1 133 0 is_stmt 0 discriminator 2
 1353 02c0 FFF7FEFF 		bl	USBUART_1_CDCIsReady
 1354 02c4 0346     		mov	r3, r0
 1355 02c6 002B     		cmp	r3, #0
 1356 02c8 FAD0     		beq	.L86
 1357              		.loc 1 133 0 discriminator 3
 1358 02ca 3B46     		mov	r3, r7
 1359 02cc 1846     		mov	r0, r3
 1360 02ce FFF7FEFF 		bl	USBUART_1_PutString
 1361              	.LBE37:
 134:.\main.c      ****     CyDelay(500);
 1362              		.loc 1 134 0 is_stmt 1 discriminator 3
 1363 02d2 4FF4FA70 		mov	r0, #500
 1364 02d6 FFF7FEFF 		bl	CyDelay
 135:.\main.c      **** 	SDSPI_SetDMAMode(0);
 1365              		.loc 1 135 0 discriminator 3
 1366 02da 0020     		movs	r0, #0
ARM GAS  C:\Users\honet\AppData\Local\Temp\ccWT9Ujf.s 			page 30


 1367 02dc FFF7FEFF 		bl	SDSPI_SetDMAMode
 136:.\main.c      **** 
 137:.\main.c      **** 	//Open a file and write "Testing Output" to it
 138:.\main.c      **** 	res = f_open(&File, "//test.txt", FA_CREATE_ALWAYS | FA_WRITE);
 1368              		.loc 1 138 0 discriminator 3
 1369 02e0 2D48     		ldr	r0, .L131+56
 1370 02e2 2E49     		ldr	r1, .L131+60
 1371 02e4 0A22     		movs	r2, #10
 1372 02e6 FFF7FEFF 		bl	f_open
 1373 02ea 0346     		mov	r3, r0
 1374 02ec 87F81D36 		strb	r3, [r7, #1565]
 139:.\main.c      **** 	chkres("f_open", res);
 1375              		.loc 1 139 0 discriminator 3
 1376 02f0 97F81D36 		ldrb	r3, [r7, #1565]	@ zero_extendqisi2
 1377 02f4 2A48     		ldr	r0, .L131+64
 1378 02f6 1946     		mov	r1, r3
 1379 02f8 FFF7FEFF 		bl	chkres
 140:.\main.c      **** 	if (res!=FR_OK) goto err_exit;
 1380              		.loc 1 140 0 discriminator 3
 1381 02fc 97F81D36 		ldrb	r3, [r7, #1565]	@ zero_extendqisi2
 1382 0300 002B     		cmp	r3, #0
 1383 0302 01D0     		beq	.L87
 1384              		.loc 1 140 0 is_stmt 0
 1385 0304 00F0DBBC 		b	.L75
 1386              	.L87:
 1387              	.LBB38:
 141:.\main.c      **** 
 142:.\main.c      **** 	dmpmsg("Testing Speed\n");
 1388              		.loc 1 142 0 is_stmt 1
 1389 0308 0E23     		movs	r3, #14
 1390 030a C7F81836 		str	r3, [r7, #1560]
 1391              	.LBB39:
 1392 030e 3B46     		mov	r3, r7
 1393 0310 244A     		ldr	r2, .L131+68
 1394 0312 1C46     		mov	r4, r3
 1395 0314 1346     		mov	r3, r2
 1396 0316 0FCB     		ldmia	r3, {r0, r1, r2, r3}
 1397 0318 07C4     		stmia	r4!, {r0, r1, r2}
 1398 031a 2380     		strh	r3, [r4]	@ movhi
 1399 031c 0234     		adds	r4, r4, #2
 1400 031e 1B0C     		lsrs	r3, r3, #16
 1401 0320 2370     		strb	r3, [r4]
 1402 0322 00BF     		nop
 1403              	.L88:
 1404              		.loc 1 142 0 is_stmt 0 discriminator 2
 1405 0324 FFF7FEFF 		bl	USBUART_1_CDCIsReady
 1406 0328 0346     		mov	r3, r0
 1407 032a 002B     		cmp	r3, #0
 1408 032c FAD0     		beq	.L88
 1409              		.loc 1 142 0 discriminator 3
 1410 032e 3B46     		mov	r3, r7
 1411 0330 1846     		mov	r0, r3
 1412 0332 FFF7FEFF 		bl	USBUART_1_PutString
 1413              	.LBE39:
 1414 0336 07F1C003 		add	r3, r7, #192
 1415 033a 1748     		ldr	r0, .L131+56
 1416 033c 1949     		ldr	r1, .L131+68
ARM GAS  C:\Users\honet\AppData\Local\Temp\ccWT9Ujf.s 			page 31


 1417 033e D7F81826 		ldr	r2, [r7, #1560]
 1418 0342 FFF7FEFF 		bl	f_write
 1419 0346 0346     		mov	r3, r0
 1420 0348 87F81736 		strb	r3, [r7, #1559]
 1421 034c 97F81736 		ldrb	r3, [r7, #1559]	@ zero_extendqisi2
 1422 0350 1548     		ldr	r0, .L131+72
 1423 0352 1946     		mov	r1, r3
 1424 0354 FFF7FEFF 		bl	chkres
 1425              	.LBE38:
 1426              	.LBB40:
 143:.\main.c      **** 
 144:.\main.c      **** 	//generate dataset...
 145:.\main.c      **** 	for(int i = 0; i < nvals; i++) {
 1427              		.loc 1 145 0 is_stmt 1 discriminator 3
 1428 0358 0023     		movs	r3, #0
 1429 035a C7F83C36 		str	r3, [r7, #1596]
 1430 035e 44E0     		b	.L89
 1431              	.L132:
 1432              		.align	2
 1433              	.L131:
 1434 0360 50010000 		.word	.LC22
 1435 0364 64010000 		.word	.LC23
 1436 0368 7C010000 		.word	.LC24
 1437 036c 80010000 		.word	.LC25
 1438 0370 9C010000 		.word	.LC26
 1439 0374 B0010000 		.word	.LC27
 1440 0378 C0010000 		.word	.LC28
 1441 037c D0010000 		.word	.LC29
 1442 0380 E4010000 		.word	.LC30
 1443 0384 00020000 		.word	.LC31
 1444 0388 08020000 		.word	.LC32
 1445 038c 10020000 		.word	.LC33
 1446 0390 18020000 		.word	.LC34
 1447 0394 24020000 		.word	.LC35
 1448 0398 00000000 		.word	File
 1449 039c 40020000 		.word	.LC36
 1450 03a0 4C020000 		.word	.LC37
 1451 03a4 54020000 		.word	.LC38
 1452 03a8 64020000 		.word	.LC39
 1453              	.L90:
 146:.\main.c      **** 		vals[i] = (double)i*i;
 1454              		.loc 1 146 0 discriminator 3
 1455 03ac D7F83C06 		ldr	r0, [r7, #1596]
 1456 03b0 FFF7FEFF 		bl	__aeabi_i2d
 1457 03b4 0446     		mov	r4, r0
 1458 03b6 0D46     		mov	r5, r1
 1459 03b8 D7F83C06 		ldr	r0, [r7, #1596]
 1460 03bc FFF7FEFF 		bl	__aeabi_i2d
 1461 03c0 0246     		mov	r2, r0
 1462 03c2 0B46     		mov	r3, r1
 1463 03c4 2046     		mov	r0, r4
 1464 03c6 2946     		mov	r1, r5
 1465 03c8 FFF7FEFF 		bl	__aeabi_dmul
 1466 03cc 0246     		mov	r2, r0
 1467 03ce 0B46     		mov	r3, r1
 1468 03d0 D7F82006 		ldr	r0, [r7, #1568]
 1469 03d4 D7F83C16 		ldr	r1, [r7, #1596]
ARM GAS  C:\Users\honet\AppData\Local\Temp\ccWT9Ujf.s 			page 32


 1470 03d8 C900     		lsls	r1, r1, #3
 1471 03da 0144     		add	r1, r1, r0
 1472 03dc C1E90023 		strd	r2, [r1]
 145:.\main.c      **** 		vals[i] = (double)i*i;
 1473              		.loc 1 145 0 discriminator 3
 1474 03e0 D7F83C36 		ldr	r3, [r7, #1596]
 1475 03e4 0133     		adds	r3, r3, #1
 1476 03e6 C7F83C36 		str	r3, [r7, #1596]
 1477              	.L89:
 145:.\main.c      **** 		vals[i] = (double)i*i;
 1478              		.loc 1 145 0 is_stmt 0 discriminator 1
 1479 03ea D7F83C26 		ldr	r2, [r7, #1596]
 1480 03ee D7F82836 		ldr	r3, [r7, #1576]
 1481 03f2 9A42     		cmp	r2, r3
 1482 03f4 DAD3     		bcc	.L90
 1483              	.LBE40:
 1484              	.LBB41:
 147:.\main.c      **** 	}
 148:.\main.c      **** 
 149:.\main.c      **** 
 150:.\main.c      **** 	//First, we'll write the dataset to a file in the root direcory, time the operation, then
 151:.\main.c      **** 	//output results to test.txt in the SD card root.
 152:.\main.c      **** 
 153:.\main.c      **** 	//Indicate in test.txt what we're doing
 154:.\main.c      **** 	dmpmsg("Writing %d bytes to file, non-DMA\n", BUFFER_SIZE);
 1485              		.loc 1 154 0 is_stmt 1
 1486 03f6 2223     		movs	r3, #34
 1487 03f8 C7F81036 		str	r3, [r7, #1552]
 1488              	.LBB42:
 1489 03fc 3B46     		mov	r3, r7
 1490 03fe 1846     		mov	r0, r3
 1491 0400 CE49     		ldr	r1, .L133
 1492 0402 4FF47A52 		mov	r2, #16000
 1493 0406 FFF7FEFF 		bl	sprintf
 1494 040a 00BF     		nop
 1495              	.L91:
 1496              		.loc 1 154 0 is_stmt 0 discriminator 2
 1497 040c FFF7FEFF 		bl	USBUART_1_CDCIsReady
 1498 0410 0346     		mov	r3, r0
 1499 0412 002B     		cmp	r3, #0
 1500 0414 FAD0     		beq	.L91
 1501              		.loc 1 154 0 discriminator 3
 1502 0416 3B46     		mov	r3, r7
 1503 0418 1846     		mov	r0, r3
 1504 041a FFF7FEFF 		bl	USBUART_1_PutString
 1505              	.LBE42:
 1506 041e 07F1BC03 		add	r3, r7, #188
 1507 0422 C748     		ldr	r0, .L133+4
 1508 0424 C549     		ldr	r1, .L133
 1509 0426 D7F81026 		ldr	r2, [r7, #1552]
 1510 042a FFF7FEFF 		bl	f_write
 1511 042e 0346     		mov	r3, r0
 1512 0430 87F80F36 		strb	r3, [r7, #1551]
 1513 0434 97F80F36 		ldrb	r3, [r7, #1551]	@ zero_extendqisi2
 1514 0438 C248     		ldr	r0, .L133+8
 1515 043a 1946     		mov	r1, r3
 1516 043c FFF7FEFF 		bl	chkres
ARM GAS  C:\Users\honet\AppData\Local\Temp\ccWT9Ujf.s 			page 33


 1517              	.LBE41:
 155:.\main.c      **** 
 156:.\main.c      **** 	//perform operation
 157:.\main.c      **** 	unsigned long nCurrentMillis = nmillis; //get current millisecond count
 1518              		.loc 1 157 0 is_stmt 1 discriminator 3
 1519 0440 C14B     		ldr	r3, .L133+12
 1520 0442 1B68     		ldr	r3, [r3]
 1521 0444 C7F80836 		str	r3, [r7, #1544]
 158:.\main.c      **** 	FIL BinFile;
 159:.\main.c      **** 	res = f_open(&BinFile, "//TESTPIO.bin", FA_CREATE_ALWAYS | FA_WRITE);
 1522              		.loc 1 159 0 discriminator 3
 1523 0448 07F1C403 		add	r3, r7, #196
 1524 044c 1846     		mov	r0, r3
 1525 044e BF49     		ldr	r1, .L133+16
 1526 0450 0A22     		movs	r2, #10
 1527 0452 FFF7FEFF 		bl	f_open
 1528 0456 0346     		mov	r3, r0
 1529 0458 87F81D36 		strb	r3, [r7, #1565]
 160:.\main.c      **** 	chkres("f_open", res);
 1530              		.loc 1 160 0 discriminator 3
 1531 045c 97F81D36 		ldrb	r3, [r7, #1565]	@ zero_extendqisi2
 1532 0460 BB48     		ldr	r0, .L133+20
 1533 0462 1946     		mov	r1, r3
 1534 0464 FFF7FEFF 		bl	chkres
 161:.\main.c      **** 	if (res==FR_OK) {
 1535              		.loc 1 161 0 discriminator 3
 1536 0468 97F81D36 		ldrb	r3, [r7, #1565]	@ zero_extendqisi2
 1537 046c 002B     		cmp	r3, #0
 1538 046e 22D1     		bne	.L92
 162:.\main.c      **** 		res = f_write(&BinFile, vals, BUFFER_SIZE, &BytesWritten);
 1539              		.loc 1 162 0
 1540 0470 D7F82026 		ldr	r2, [r7, #1568]
 1541 0474 07F1C401 		add	r1, r7, #196
 1542 0478 07F5A463 		add	r3, r7, #1312
 1543 047c 0846     		mov	r0, r1
 1544 047e 1146     		mov	r1, r2
 1545 0480 4FF47A52 		mov	r2, #16000
 1546 0484 FFF7FEFF 		bl	f_write
 1547 0488 0346     		mov	r3, r0
 1548 048a 87F81D36 		strb	r3, [r7, #1565]
 163:.\main.c      **** 		chkres("f_write", res);
 1549              		.loc 1 163 0
 1550 048e 97F81D36 		ldrb	r3, [r7, #1565]	@ zero_extendqisi2
 1551 0492 AC48     		ldr	r0, .L133+8
 1552 0494 1946     		mov	r1, r3
 1553 0496 FFF7FEFF 		bl	chkres
 164:.\main.c      **** 		res = f_close(&BinFile);
 1554              		.loc 1 164 0
 1555 049a 07F1C403 		add	r3, r7, #196
 1556 049e 1846     		mov	r0, r3
 1557 04a0 FFF7FEFF 		bl	f_close
 1558 04a4 0346     		mov	r3, r0
 1559 04a6 87F81D36 		strb	r3, [r7, #1565]
 165:.\main.c      **** 		chkres("f_close", res);
 1560              		.loc 1 165 0
 1561 04aa 97F81D36 		ldrb	r3, [r7, #1565]	@ zero_extendqisi2
 1562 04ae A948     		ldr	r0, .L133+24
ARM GAS  C:\Users\honet\AppData\Local\Temp\ccWT9Ujf.s 			page 34


 1563 04b0 1946     		mov	r1, r3
 1564 04b2 FFF7FEFF 		bl	chkres
 1565              	.L92:
 166:.\main.c      **** 	}
 167:.\main.c      **** 
 168:.\main.c      **** 	//indicate in test.txt how long it took
 169:.\main.c      **** 	unsigned long nTime = nmillis-nCurrentMillis;
 1566              		.loc 1 169 0
 1567 04b6 A44B     		ldr	r3, .L133+12
 1568 04b8 1A68     		ldr	r2, [r3]
 1569 04ba D7F80836 		ldr	r3, [r7, #1544]
 1570 04be D31A     		subs	r3, r2, r3
 1571 04c0 C7F80436 		str	r3, [r7, #1540]
 1572              	.LBB43:
 170:.\main.c      **** 	dmpmsg("Took %lu ms\n", nTime);
 1573              		.loc 1 170 0
 1574 04c4 0C23     		movs	r3, #12
 1575 04c6 C7F80036 		str	r3, [r7, #1536]
 1576              	.LBB44:
 1577 04ca 3B46     		mov	r3, r7
 1578 04cc 1846     		mov	r0, r3
 1579 04ce A249     		ldr	r1, .L133+28
 1580 04d0 D7F80426 		ldr	r2, [r7, #1540]
 1581 04d4 FFF7FEFF 		bl	sprintf
 1582 04d8 00BF     		nop
 1583              	.L93:
 1584              		.loc 1 170 0 is_stmt 0 discriminator 2
 1585 04da FFF7FEFF 		bl	USBUART_1_CDCIsReady
 1586 04de 0346     		mov	r3, r0
 1587 04e0 002B     		cmp	r3, #0
 1588 04e2 FAD0     		beq	.L93
 1589              		.loc 1 170 0 discriminator 3
 1590 04e4 3B46     		mov	r3, r7
 1591 04e6 1846     		mov	r0, r3
 1592 04e8 FFF7FEFF 		bl	USBUART_1_PutString
 1593              	.LBE44:
 1594 04ec 07F1B803 		add	r3, r7, #184
 1595 04f0 9348     		ldr	r0, .L133+4
 1596 04f2 9949     		ldr	r1, .L133+28
 1597 04f4 D7F80026 		ldr	r2, [r7, #1536]
 1598 04f8 FFF7FEFF 		bl	f_write
 1599 04fc 0346     		mov	r3, r0
 1600 04fe 87F8FF35 		strb	r3, [r7, #1535]
 1601 0502 97F8FF35 		ldrb	r3, [r7, #1535]	@ zero_extendqisi2
 1602 0506 8F48     		ldr	r0, .L133+8
 1603 0508 1946     		mov	r1, r3
 1604 050a FFF7FEFF 		bl	chkres
 1605              	.LBE43:
 171:.\main.c      **** 
 172:.\main.c      **** 	unsigned long kbps = BUFFER_SIZE*8 / nTime;
 1606              		.loc 1 172 0 is_stmt 1 discriminator 3
 1607 050e 4FF4FA32 		mov	r2, #128000
 1608 0512 D7F80436 		ldr	r3, [r7, #1540]
 1609 0516 B2FBF3F3 		udiv	r3, r2, r3
 1610 051a C7F8F835 		str	r3, [r7, #1528]
 1611              	.LBB45:
 173:.\main.c      **** 	dmpmsg( "Rate %lu kbps\n\n", kbps);
ARM GAS  C:\Users\honet\AppData\Local\Temp\ccWT9Ujf.s 			page 35


 1612              		.loc 1 173 0 discriminator 3
 1613 051e 0F23     		movs	r3, #15
 1614 0520 C7F8F435 		str	r3, [r7, #1524]
 1615              	.LBB46:
 1616 0524 3B46     		mov	r3, r7
 1617 0526 1846     		mov	r0, r3
 1618 0528 8C49     		ldr	r1, .L133+32
 1619 052a D7F8F825 		ldr	r2, [r7, #1528]
 1620 052e FFF7FEFF 		bl	sprintf
 1621 0532 00BF     		nop
 1622              	.L94:
 1623              		.loc 1 173 0 is_stmt 0 discriminator 2
 1624 0534 FFF7FEFF 		bl	USBUART_1_CDCIsReady
 1625 0538 0346     		mov	r3, r0
 1626 053a 002B     		cmp	r3, #0
 1627 053c FAD0     		beq	.L94
 1628              		.loc 1 173 0 discriminator 3
 1629 053e 3B46     		mov	r3, r7
 1630 0540 1846     		mov	r0, r3
 1631 0542 FFF7FEFF 		bl	USBUART_1_PutString
 1632              	.LBE46:
 1633 0546 07F1B403 		add	r3, r7, #180
 1634 054a 7D48     		ldr	r0, .L133+4
 1635 054c 8349     		ldr	r1, .L133+32
 1636 054e D7F8F425 		ldr	r2, [r7, #1524]
 1637 0552 FFF7FEFF 		bl	f_write
 1638 0556 0346     		mov	r3, r0
 1639 0558 87F8F335 		strb	r3, [r7, #1523]
 1640 055c 97F8F335 		ldrb	r3, [r7, #1523]	@ zero_extendqisi2
 1641 0560 7848     		ldr	r0, .L133+8
 1642 0562 1946     		mov	r1, r3
 1643 0564 FFF7FEFF 		bl	chkres
 1644              	.LBE45:
 1645              	.LBB47:
 174:.\main.c      **** 
 175:.\main.c      **** 	//Next, read file in
 176:.\main.c      **** 
 177:.\main.c      **** 	//Indicate in test.txt what we're doing
 178:.\main.c      **** 	dmpmsg("Reading %d bytes from file, non-DMA\n", BUFFER_SIZE);
 1646              		.loc 1 178 0 is_stmt 1 discriminator 3
 1647 0568 2423     		movs	r3, #36
 1648 056a C7F8EC35 		str	r3, [r7, #1516]
 1649              	.LBB48:
 1650 056e 3B46     		mov	r3, r7
 1651 0570 1846     		mov	r0, r3
 1652 0572 7B49     		ldr	r1, .L133+36
 1653 0574 4FF47A52 		mov	r2, #16000
 1654 0578 FFF7FEFF 		bl	sprintf
 1655 057c 00BF     		nop
 1656              	.L95:
 1657              		.loc 1 178 0 is_stmt 0 discriminator 2
 1658 057e FFF7FEFF 		bl	USBUART_1_CDCIsReady
 1659 0582 0346     		mov	r3, r0
 1660 0584 002B     		cmp	r3, #0
 1661 0586 FAD0     		beq	.L95
 1662              		.loc 1 178 0 discriminator 3
 1663 0588 3B46     		mov	r3, r7
ARM GAS  C:\Users\honet\AppData\Local\Temp\ccWT9Ujf.s 			page 36


 1664 058a 1846     		mov	r0, r3
 1665 058c FFF7FEFF 		bl	USBUART_1_PutString
 1666              	.LBE48:
 1667 0590 07F1B003 		add	r3, r7, #176
 1668 0594 6A48     		ldr	r0, .L133+4
 1669 0596 7249     		ldr	r1, .L133+36
 1670 0598 D7F8EC25 		ldr	r2, [r7, #1516]
 1671 059c FFF7FEFF 		bl	f_write
 1672 05a0 0346     		mov	r3, r0
 1673 05a2 87F8EB35 		strb	r3, [r7, #1515]
 1674 05a6 97F8EB35 		ldrb	r3, [r7, #1515]	@ zero_extendqisi2
 1675 05aa 6648     		ldr	r0, .L133+8
 1676 05ac 1946     		mov	r1, r3
 1677 05ae FFF7FEFF 		bl	chkres
 1678              	.LBE47:
 179:.\main.c      **** 
 180:.\main.c      **** 	memset(vals, 0x00, BUFFER_SIZE);
 1679              		.loc 1 180 0 is_stmt 1 discriminator 3
 1680 05b2 D7F82036 		ldr	r3, [r7, #1568]
 1681 05b6 1846     		mov	r0, r3
 1682 05b8 0021     		movs	r1, #0
 1683 05ba 4FF47A52 		mov	r2, #16000
 1684 05be FFF7FEFF 		bl	memset
 181:.\main.c      **** 
 182:.\main.c      **** 	//perform operation
 183:.\main.c      **** 	nCurrentMillis = nmillis; //get current millisecond count
 1685              		.loc 1 183 0 discriminator 3
 1686 05c2 614B     		ldr	r3, .L133+12
 1687 05c4 1B68     		ldr	r3, [r3]
 1688 05c6 C7F80836 		str	r3, [r7, #1544]
 184:.\main.c      **** 
 185:.\main.c      **** 	res = f_open(&BinFile, "//TESTPIO.bin", FA_OPEN_EXISTING | FA_READ);
 1689              		.loc 1 185 0 discriminator 3
 1690 05ca 07F1C403 		add	r3, r7, #196
 1691 05ce 1846     		mov	r0, r3
 1692 05d0 5E49     		ldr	r1, .L133+16
 1693 05d2 0122     		movs	r2, #1
 1694 05d4 FFF7FEFF 		bl	f_open
 1695 05d8 0346     		mov	r3, r0
 1696 05da 87F81D36 		strb	r3, [r7, #1565]
 186:.\main.c      **** 	chkres("f_open", res);
 1697              		.loc 1 186 0 discriminator 3
 1698 05de 97F81D36 		ldrb	r3, [r7, #1565]	@ zero_extendqisi2
 1699 05e2 5B48     		ldr	r0, .L133+20
 1700 05e4 1946     		mov	r1, r3
 1701 05e6 FFF7FEFF 		bl	chkres
 187:.\main.c      **** 	if (res==FR_OK){
 1702              		.loc 1 187 0 discriminator 3
 1703 05ea 97F81D36 		ldrb	r3, [r7, #1565]	@ zero_extendqisi2
 1704 05ee 002B     		cmp	r3, #0
 1705 05f0 22D1     		bne	.L96
 188:.\main.c      **** 		res = f_read(&BinFile, vals, BUFFER_SIZE, &BytesRead);
 1706              		.loc 1 188 0
 1707 05f2 D7F82026 		ldr	r2, [r7, #1568]
 1708 05f6 07F1C401 		add	r1, r7, #196
 1709 05fa 07F21C53 		addw	r3, r7, #1308
 1710 05fe 0846     		mov	r0, r1
ARM GAS  C:\Users\honet\AppData\Local\Temp\ccWT9Ujf.s 			page 37


 1711 0600 1146     		mov	r1, r2
 1712 0602 4FF47A52 		mov	r2, #16000
 1713 0606 FFF7FEFF 		bl	f_read
 1714 060a 0346     		mov	r3, r0
 1715 060c 87F81D36 		strb	r3, [r7, #1565]
 189:.\main.c      **** 		chkres("f_read", res);
 1716              		.loc 1 189 0
 1717 0610 97F81D36 		ldrb	r3, [r7, #1565]	@ zero_extendqisi2
 1718 0614 5348     		ldr	r0, .L133+40
 1719 0616 1946     		mov	r1, r3
 1720 0618 FFF7FEFF 		bl	chkres
 190:.\main.c      **** 		res = f_close(&BinFile);
 1721              		.loc 1 190 0
 1722 061c 07F1C403 		add	r3, r7, #196
 1723 0620 1846     		mov	r0, r3
 1724 0622 FFF7FEFF 		bl	f_close
 1725 0626 0346     		mov	r3, r0
 1726 0628 87F81D36 		strb	r3, [r7, #1565]
 191:.\main.c      **** 		chkres("f_close", res);
 1727              		.loc 1 191 0
 1728 062c 97F81D36 		ldrb	r3, [r7, #1565]	@ zero_extendqisi2
 1729 0630 4848     		ldr	r0, .L133+24
 1730 0632 1946     		mov	r1, r3
 1731 0634 FFF7FEFF 		bl	chkres
 1732              	.L96:
 192:.\main.c      **** 	}
 193:.\main.c      **** 
 194:.\main.c      **** 	//indicate in test.txt how long it took
 195:.\main.c      **** 	nTime = nmillis-nCurrentMillis;
 1733              		.loc 1 195 0
 1734 0638 434B     		ldr	r3, .L133+12
 1735 063a 1A68     		ldr	r2, [r3]
 1736 063c D7F80836 		ldr	r3, [r7, #1544]
 1737 0640 D31A     		subs	r3, r2, r3
 1738 0642 C7F80436 		str	r3, [r7, #1540]
 1739              	.LBB49:
 196:.\main.c      **** 	dmpmsg("Took %lu ms\nVerifying...", nTime);
 1740              		.loc 1 196 0
 1741 0646 1823     		movs	r3, #24
 1742 0648 C7F8E435 		str	r3, [r7, #1508]
 1743              	.LBB50:
 1744 064c 3B46     		mov	r3, r7
 1745 064e 1846     		mov	r0, r3
 1746 0650 4549     		ldr	r1, .L133+44
 1747 0652 D7F80426 		ldr	r2, [r7, #1540]
 1748 0656 FFF7FEFF 		bl	sprintf
 1749 065a 00BF     		nop
 1750              	.L97:
 1751              		.loc 1 196 0 is_stmt 0 discriminator 2
 1752 065c FFF7FEFF 		bl	USBUART_1_CDCIsReady
 1753 0660 0346     		mov	r3, r0
 1754 0662 002B     		cmp	r3, #0
 1755 0664 FAD0     		beq	.L97
 1756              		.loc 1 196 0 discriminator 3
 1757 0666 3B46     		mov	r3, r7
 1758 0668 1846     		mov	r0, r3
 1759 066a FFF7FEFF 		bl	USBUART_1_PutString
ARM GAS  C:\Users\honet\AppData\Local\Temp\ccWT9Ujf.s 			page 38


 1760              	.LBE50:
 1761 066e 07F1AC03 		add	r3, r7, #172
 1762 0672 3348     		ldr	r0, .L133+4
 1763 0674 3C49     		ldr	r1, .L133+44
 1764 0676 D7F8E425 		ldr	r2, [r7, #1508]
 1765 067a FFF7FEFF 		bl	f_write
 1766 067e 0346     		mov	r3, r0
 1767 0680 87F8E335 		strb	r3, [r7, #1507]
 1768 0684 97F8E335 		ldrb	r3, [r7, #1507]	@ zero_extendqisi2
 1769 0688 2E48     		ldr	r0, .L133+8
 1770 068a 1946     		mov	r1, r3
 1771 068c FFF7FEFF 		bl	chkres
 1772              	.LBE49:
 197:.\main.c      **** 
 198:.\main.c      **** 	unsigned char bVerifyFail = 0;
 1773              		.loc 1 198 0 is_stmt 1 discriminator 3
 1774 0690 0023     		movs	r3, #0
 1775 0692 87F83B36 		strb	r3, [r7, #1595]
 1776              	.LBB51:
 199:.\main.c      **** 	for(int i = 0; i < 500; i++) {
 1777              		.loc 1 199 0 discriminator 3
 1778 0696 0023     		movs	r3, #0
 1779 0698 C7F83436 		str	r3, [r7, #1588]
 1780 069c 21E0     		b	.L98
 1781              	.L101:
 200:.\main.c      **** 		if(vals[(int)i] != i*i) bVerifyFail = 1;
 1782              		.loc 1 200 0
 1783 069e D7F82026 		ldr	r2, [r7, #1568]
 1784 06a2 D7F83436 		ldr	r3, [r7, #1588]
 1785 06a6 DB00     		lsls	r3, r3, #3
 1786 06a8 1344     		add	r3, r3, r2
 1787 06aa D3E90045 		ldrd	r4, [r3]
 1788 06ae D7F83436 		ldr	r3, [r7, #1588]
 1789 06b2 D7F83426 		ldr	r2, [r7, #1588]
 1790 06b6 02FB03F3 		mul	r3, r2, r3
 1791 06ba 1846     		mov	r0, r3
 1792 06bc FFF7FEFF 		bl	__aeabi_i2d
 1793 06c0 0246     		mov	r2, r0
 1794 06c2 0B46     		mov	r3, r1
 1795 06c4 2046     		mov	r0, r4
 1796 06c6 2946     		mov	r1, r5
 1797 06c8 FFF7FEFF 		bl	__aeabi_dcmpeq
 1798 06cc 0346     		mov	r3, r0
 1799 06ce 002B     		cmp	r3, #0
 1800 06d0 02D1     		bne	.L99
 1801              		.loc 1 200 0 is_stmt 0 discriminator 1
 1802 06d2 0123     		movs	r3, #1
 1803 06d4 87F83B36 		strb	r3, [r7, #1595]
 1804              	.L99:
 199:.\main.c      **** 	for(int i = 0; i < 500; i++) {
 1805              		.loc 1 199 0 is_stmt 1 discriminator 2
 1806 06d8 D7F83436 		ldr	r3, [r7, #1588]
 1807 06dc 0133     		adds	r3, r3, #1
 1808 06de C7F83436 		str	r3, [r7, #1588]
 1809              	.L98:
 199:.\main.c      **** 	for(int i = 0; i < 500; i++) {
 1810              		.loc 1 199 0 is_stmt 0 discriminator 1
ARM GAS  C:\Users\honet\AppData\Local\Temp\ccWT9Ujf.s 			page 39


 1811 06e2 D7F83436 		ldr	r3, [r7, #1588]
 1812 06e6 B3F5FA7F 		cmp	r3, #500
 1813 06ea D8DB     		blt	.L101
 1814              	.LBE51:
 201:.\main.c      **** 	}
 202:.\main.c      **** 	
 203:.\main.c      **** 	if(bVerifyFail)
 1815              		.loc 1 203 0 is_stmt 1
 1816 06ec 97F83B36 		ldrb	r3, [r7, #1595]	@ zero_extendqisi2
 1817 06f0 002B     		cmp	r3, #0
 1818 06f2 3DD0     		beq	.L102
 1819              	.LBB52:
 204:.\main.c      **** 		dmpmsg("FAIL :O\n");
 1820              		.loc 1 204 0
 1821 06f4 0823     		movs	r3, #8
 1822 06f6 C7F8DC35 		str	r3, [r7, #1500]
 1823              	.LBB53:
 1824 06fa 3B46     		mov	r3, r7
 1825 06fc 1B4A     		ldr	r2, .L133+48
 1826 06fe 07CA     		ldmia	r2, {r0, r1, r2}
 1827 0700 03C3     		stmia	r3!, {r0, r1}
 1828 0702 1A70     		strb	r2, [r3]
 1829 0704 00BF     		nop
 1830              	.L103:
 1831              		.loc 1 204 0 is_stmt 0 discriminator 2
 1832 0706 FFF7FEFF 		bl	USBUART_1_CDCIsReady
 1833 070a 0346     		mov	r3, r0
 1834 070c 002B     		cmp	r3, #0
 1835 070e FAD0     		beq	.L103
 1836              		.loc 1 204 0 discriminator 3
 1837 0710 3B46     		mov	r3, r7
 1838 0712 1846     		mov	r0, r3
 1839 0714 FFF7FEFF 		bl	USBUART_1_PutString
 1840              	.LBE53:
 1841 0718 07F1A803 		add	r3, r7, #168
 1842 071c 0848     		ldr	r0, .L133+4
 1843 071e 1349     		ldr	r1, .L133+48
 1844 0720 D7F8DC25 		ldr	r2, [r7, #1500]
 1845 0724 FFF7FEFF 		bl	f_write
 1846 0728 0346     		mov	r3, r0
 1847 072a 87F8DB35 		strb	r3, [r7, #1499]
 1848 072e 97F8DB35 		ldrb	r3, [r7, #1499]	@ zero_extendqisi2
 1849 0732 0448     		ldr	r0, .L133+8
 1850 0734 1946     		mov	r1, r3
 1851 0736 FFF7FEFF 		bl	chkres
 1852              	.LBE52:
 1853 073a 41E0     		b	.L104
 1854              	.L134:
 1855              		.align	2
 1856              	.L133:
 1857 073c 6C020000 		.word	.LC40
 1858 0740 00000000 		.word	File
 1859 0744 64020000 		.word	.LC39
 1860 0748 00000000 		.word	nmillis
 1861 074c 90020000 		.word	.LC41
 1862 0750 4C020000 		.word	.LC37
 1863 0754 A0020000 		.word	.LC42
ARM GAS  C:\Users\honet\AppData\Local\Temp\ccWT9Ujf.s 			page 40


 1864 0758 A8020000 		.word	.LC43
 1865 075c B8020000 		.word	.LC44
 1866 0760 C8020000 		.word	.LC45
 1867 0764 F0020000 		.word	.LC46
 1868 0768 F8020000 		.word	.LC47
 1869 076c 14030000 		.word	.LC48
 1870              	.L102:
 1871              	.LBB54:
 205:.\main.c      **** 	else
 206:.\main.c      **** 		dmpmsg(" All Good! :D\n");
 1872              		.loc 1 206 0 is_stmt 1
 1873 0770 0E23     		movs	r3, #14
 1874 0772 C7F8D435 		str	r3, [r7, #1492]
 1875              	.LBB55:
 1876 0776 3B46     		mov	r3, r7
 1877 0778 354A     		ldr	r2, .L135
 1878 077a 1C46     		mov	r4, r3
 1879 077c 1346     		mov	r3, r2
 1880 077e 0FCB     		ldmia	r3, {r0, r1, r2, r3}
 1881 0780 07C4     		stmia	r4!, {r0, r1, r2}
 1882 0782 2380     		strh	r3, [r4]	@ movhi
 1883 0784 0234     		adds	r4, r4, #2
 1884 0786 1B0C     		lsrs	r3, r3, #16
 1885 0788 2370     		strb	r3, [r4]
 1886 078a 00BF     		nop
 1887              	.L105:
 1888              		.loc 1 206 0 is_stmt 0 discriminator 2
 1889 078c FFF7FEFF 		bl	USBUART_1_CDCIsReady
 1890 0790 0346     		mov	r3, r0
 1891 0792 002B     		cmp	r3, #0
 1892 0794 FAD0     		beq	.L105
 1893              		.loc 1 206 0 discriminator 3
 1894 0796 3B46     		mov	r3, r7
 1895 0798 1846     		mov	r0, r3
 1896 079a FFF7FEFF 		bl	USBUART_1_PutString
 1897              	.LBE55:
 1898 079e 07F1A403 		add	r3, r7, #164
 1899 07a2 2C48     		ldr	r0, .L135+4
 1900 07a4 2A49     		ldr	r1, .L135
 1901 07a6 D7F8D425 		ldr	r2, [r7, #1492]
 1902 07aa FFF7FEFF 		bl	f_write
 1903 07ae 0346     		mov	r3, r0
 1904 07b0 87F8D335 		strb	r3, [r7, #1491]
 1905 07b4 97F8D335 		ldrb	r3, [r7, #1491]	@ zero_extendqisi2
 1906 07b8 2748     		ldr	r0, .L135+8
 1907 07ba 1946     		mov	r1, r3
 1908 07bc FFF7FEFF 		bl	chkres
 1909              	.L104:
 1910              	.LBE54:
 207:.\main.c      **** 
 208:.\main.c      **** 	kbps = BUFFER_SIZE*8 / nTime;
 1911              		.loc 1 208 0 is_stmt 1
 1912 07c0 4FF4FA32 		mov	r2, #128000
 1913 07c4 D7F80436 		ldr	r3, [r7, #1540]
 1914 07c8 B2FBF3F3 		udiv	r3, r2, r3
 1915 07cc C7F8F835 		str	r3, [r7, #1528]
 1916              	.LBB56:
ARM GAS  C:\Users\honet\AppData\Local\Temp\ccWT9Ujf.s 			page 41


 209:.\main.c      **** 	dmpmsg("Rate %lu kbps\n\n", kbps);
 1917              		.loc 1 209 0
 1918 07d0 0F23     		movs	r3, #15
 1919 07d2 C7F8CC35 		str	r3, [r7, #1484]
 1920              	.LBB57:
 1921 07d6 3B46     		mov	r3, r7
 1922 07d8 1846     		mov	r0, r3
 1923 07da 2049     		ldr	r1, .L135+12
 1924 07dc D7F8F825 		ldr	r2, [r7, #1528]
 1925 07e0 FFF7FEFF 		bl	sprintf
 1926 07e4 00BF     		nop
 1927              	.L106:
 1928              		.loc 1 209 0 is_stmt 0 discriminator 2
 1929 07e6 FFF7FEFF 		bl	USBUART_1_CDCIsReady
 1930 07ea 0346     		mov	r3, r0
 1931 07ec 002B     		cmp	r3, #0
 1932 07ee FAD0     		beq	.L106
 1933              		.loc 1 209 0 discriminator 3
 1934 07f0 3B46     		mov	r3, r7
 1935 07f2 1846     		mov	r0, r3
 1936 07f4 FFF7FEFF 		bl	USBUART_1_PutString
 1937              	.LBE57:
 1938 07f8 07F1A003 		add	r3, r7, #160
 1939 07fc 1548     		ldr	r0, .L135+4
 1940 07fe 1749     		ldr	r1, .L135+12
 1941 0800 D7F8CC25 		ldr	r2, [r7, #1484]
 1942 0804 FFF7FEFF 		bl	f_write
 1943 0808 0346     		mov	r3, r0
 1944 080a 87F8CB35 		strb	r3, [r7, #1483]
 1945 080e 97F8CB35 		ldrb	r3, [r7, #1483]	@ zero_extendqisi2
 1946 0812 1148     		ldr	r0, .L135+8
 1947 0814 1946     		mov	r1, r3
 1948 0816 FFF7FEFF 		bl	chkres
 1949              	.LBE56:
 1950              	.LBB58:
 210:.\main.c      **** 
 211:.\main.c      **** 	// ----------------------------------------------------------------------------
 212:.\main.c      **** 	dbgprint(">>>>Testing DMA mode...\n");
 1951              		.loc 1 212 0 is_stmt 1 discriminator 3
 1952 081a 3B46     		mov	r3, r7
 1953 081c 104A     		ldr	r2, .L135+16
 1954 081e 1C46     		mov	r4, r3
 1955 0820 1546     		mov	r5, r2
 1956 0822 0FCD     		ldmia	r5!, {r0, r1, r2, r3}
 1957 0824 0FC4     		stmia	r4!, {r0, r1, r2, r3}
 1958 0826 95E80700 		ldmia	r5, {r0, r1, r2}
 1959 082a 03C4     		stmia	r4!, {r0, r1}
 1960 082c 2270     		strb	r2, [r4]
 1961 082e 00BF     		nop
 1962              	.L107:
 1963              		.loc 1 212 0 is_stmt 0 discriminator 2
 1964 0830 FFF7FEFF 		bl	USBUART_1_CDCIsReady
 1965 0834 0346     		mov	r3, r0
 1966 0836 002B     		cmp	r3, #0
 1967 0838 FAD0     		beq	.L107
 1968              		.loc 1 212 0 discriminator 3
 1969 083a 3B46     		mov	r3, r7
ARM GAS  C:\Users\honet\AppData\Local\Temp\ccWT9Ujf.s 			page 42


 1970 083c 1846     		mov	r0, r3
 1971 083e FFF7FEFF 		bl	USBUART_1_PutString
 1972              	.LBE58:
 213:.\main.c      **** 	//Now, enable DMA...
 214:.\main.c      **** 	SDSPI_SetDMAMode(1);
 1973              		.loc 1 214 0 is_stmt 1 discriminator 3
 1974 0842 0120     		movs	r0, #1
 1975 0844 FFF7FEFF 		bl	SDSPI_SetDMAMode
 1976              	.LBB59:
 215:.\main.c      ****     
 216:.\main.c      **** for(int k=0; k<20; k++){
 1977              		.loc 1 216 0 discriminator 3
 1978 0848 0023     		movs	r3, #0
 1979 084a C7F83036 		str	r3, [r7, #1584]
 1980 084e 25E2     		b	.L108
 1981              	.L136:
 1982              		.align	2
 1983              	.L135:
 1984 0850 20030000 		.word	.LC49
 1985 0854 00000000 		.word	File
 1986 0858 64020000 		.word	.LC39
 1987 085c B8020000 		.word	.LC44
 1988 0860 30030000 		.word	.LC50
 1989              	.L125:
 1990              	.LBB60:
 217:.\main.c      **** 	//and repeat tests
 218:.\main.c      **** 	//Indicate in test.txt what we're doing
 219:.\main.c      **** 	dmpmsg( "Writing %d bytes to file, DMA\n", BUFFER_SIZE);
 1991              		.loc 1 219 0
 1992 0864 1E23     		movs	r3, #30
 1993 0866 C7F8C435 		str	r3, [r7, #1476]
 1994              	.LBB61:
 1995 086a 3B46     		mov	r3, r7
 1996 086c 1846     		mov	r0, r3
 1997 086e CF49     		ldr	r1, .L137
 1998 0870 4FF47A52 		mov	r2, #16000
 1999 0874 FFF7FEFF 		bl	sprintf
 2000 0878 00BF     		nop
 2001              	.L109:
 2002              		.loc 1 219 0 is_stmt 0 discriminator 2
 2003 087a FFF7FEFF 		bl	USBUART_1_CDCIsReady
 2004 087e 0346     		mov	r3, r0
 2005 0880 002B     		cmp	r3, #0
 2006 0882 FAD0     		beq	.L109
 2007              		.loc 1 219 0 discriminator 3
 2008 0884 3B46     		mov	r3, r7
 2009 0886 1846     		mov	r0, r3
 2010 0888 FFF7FEFF 		bl	USBUART_1_PutString
 2011              	.LBE61:
 2012 088c 07F19C03 		add	r3, r7, #156
 2013 0890 C748     		ldr	r0, .L137+4
 2014 0892 C649     		ldr	r1, .L137
 2015 0894 D7F8C425 		ldr	r2, [r7, #1476]
 2016 0898 FFF7FEFF 		bl	f_write
 2017 089c 0346     		mov	r3, r0
 2018 089e 87F8C335 		strb	r3, [r7, #1475]
 2019 08a2 97F8C335 		ldrb	r3, [r7, #1475]	@ zero_extendqisi2
ARM GAS  C:\Users\honet\AppData\Local\Temp\ccWT9Ujf.s 			page 43


 2020 08a6 C348     		ldr	r0, .L137+8
 2021 08a8 1946     		mov	r1, r3
 2022 08aa FFF7FEFF 		bl	chkres
 2023              	.LBE60:
 220:.\main.c      **** 
 221:.\main.c      **** 	//perform operation
 222:.\main.c      **** 	nCurrentMillis = nmillis; //get current millisecond count
 2024              		.loc 1 222 0 is_stmt 1 discriminator 3
 2025 08ae C24B     		ldr	r3, .L137+12
 2026 08b0 1B68     		ldr	r3, [r3]
 2027 08b2 C7F80836 		str	r3, [r7, #1544]
 223:.\main.c      **** 	res = f_open(&BinFile, "//TESTDMA.bin", FA_CREATE_ALWAYS | FA_WRITE);
 2028              		.loc 1 223 0 discriminator 3
 2029 08b6 07F1C403 		add	r3, r7, #196
 2030 08ba 1846     		mov	r0, r3
 2031 08bc BF49     		ldr	r1, .L137+16
 2032 08be 0A22     		movs	r2, #10
 2033 08c0 FFF7FEFF 		bl	f_open
 2034 08c4 0346     		mov	r3, r0
 2035 08c6 87F81D36 		strb	r3, [r7, #1565]
 224:.\main.c      **** 	chkres("f_open", res);
 2036              		.loc 1 224 0 discriminator 3
 2037 08ca 97F81D36 		ldrb	r3, [r7, #1565]	@ zero_extendqisi2
 2038 08ce BC48     		ldr	r0, .L137+20
 2039 08d0 1946     		mov	r1, r3
 2040 08d2 FFF7FEFF 		bl	chkres
 225:.\main.c      **** 	if (res==FR_OK){
 2041              		.loc 1 225 0 discriminator 3
 2042 08d6 97F81D36 		ldrb	r3, [r7, #1565]	@ zero_extendqisi2
 2043 08da 002B     		cmp	r3, #0
 2044 08dc 22D1     		bne	.L110
 226:.\main.c      **** 		res = f_write(&BinFile, vals, BUFFER_SIZE, &BytesWritten);
 2045              		.loc 1 226 0
 2046 08de D7F82026 		ldr	r2, [r7, #1568]
 2047 08e2 07F1C401 		add	r1, r7, #196
 2048 08e6 07F5A463 		add	r3, r7, #1312
 2049 08ea 0846     		mov	r0, r1
 2050 08ec 1146     		mov	r1, r2
 2051 08ee 4FF47A52 		mov	r2, #16000
 2052 08f2 FFF7FEFF 		bl	f_write
 2053 08f6 0346     		mov	r3, r0
 2054 08f8 87F81D36 		strb	r3, [r7, #1565]
 227:.\main.c      **** 		chkres("f_write", res);
 2055              		.loc 1 227 0
 2056 08fc 97F81D36 		ldrb	r3, [r7, #1565]	@ zero_extendqisi2
 2057 0900 AC48     		ldr	r0, .L137+8
 2058 0902 1946     		mov	r1, r3
 2059 0904 FFF7FEFF 		bl	chkres
 228:.\main.c      **** 		res = f_close(&BinFile);
 2060              		.loc 1 228 0
 2061 0908 07F1C403 		add	r3, r7, #196
 2062 090c 1846     		mov	r0, r3
 2063 090e FFF7FEFF 		bl	f_close
 2064 0912 0346     		mov	r3, r0
 2065 0914 87F81D36 		strb	r3, [r7, #1565]
 229:.\main.c      **** 		chkres("f_close", res);
 2066              		.loc 1 229 0
ARM GAS  C:\Users\honet\AppData\Local\Temp\ccWT9Ujf.s 			page 44


 2067 0918 97F81D36 		ldrb	r3, [r7, #1565]	@ zero_extendqisi2
 2068 091c A948     		ldr	r0, .L137+24
 2069 091e 1946     		mov	r1, r3
 2070 0920 FFF7FEFF 		bl	chkres
 2071              	.L110:
 230:.\main.c      **** 	}
 231:.\main.c      **** 
 232:.\main.c      **** 	//indicate in test.txt how long it took
 233:.\main.c      **** 	nTime = nmillis-nCurrentMillis;
 2072              		.loc 1 233 0
 2073 0924 A44B     		ldr	r3, .L137+12
 2074 0926 1A68     		ldr	r2, [r3]
 2075 0928 D7F80836 		ldr	r3, [r7, #1544]
 2076 092c D31A     		subs	r3, r2, r3
 2077 092e C7F80436 		str	r3, [r7, #1540]
 2078              	.LBB62:
 234:.\main.c      **** 	dmpmsg("Took %lu ms\n", nTime);
 2079              		.loc 1 234 0
 2080 0932 0C23     		movs	r3, #12
 2081 0934 C7F8BC35 		str	r3, [r7, #1468]
 2082              	.LBB63:
 2083 0938 3B46     		mov	r3, r7
 2084 093a 1846     		mov	r0, r3
 2085 093c A249     		ldr	r1, .L137+28
 2086 093e D7F80426 		ldr	r2, [r7, #1540]
 2087 0942 FFF7FEFF 		bl	sprintf
 2088 0946 00BF     		nop
 2089              	.L111:
 2090              		.loc 1 234 0 is_stmt 0 discriminator 2
 2091 0948 FFF7FEFF 		bl	USBUART_1_CDCIsReady
 2092 094c 0346     		mov	r3, r0
 2093 094e 002B     		cmp	r3, #0
 2094 0950 FAD0     		beq	.L111
 2095              		.loc 1 234 0 discriminator 3
 2096 0952 3B46     		mov	r3, r7
 2097 0954 1846     		mov	r0, r3
 2098 0956 FFF7FEFF 		bl	USBUART_1_PutString
 2099              	.LBE63:
 2100 095a 07F19803 		add	r3, r7, #152
 2101 095e 9448     		ldr	r0, .L137+4
 2102 0960 9949     		ldr	r1, .L137+28
 2103 0962 D7F8BC25 		ldr	r2, [r7, #1468]
 2104 0966 FFF7FEFF 		bl	f_write
 2105 096a 0346     		mov	r3, r0
 2106 096c 87F8BB35 		strb	r3, [r7, #1467]
 2107 0970 97F8BB35 		ldrb	r3, [r7, #1467]	@ zero_extendqisi2
 2108 0974 8F48     		ldr	r0, .L137+8
 2109 0976 1946     		mov	r1, r3
 2110 0978 FFF7FEFF 		bl	chkres
 2111              	.LBE62:
 235:.\main.c      **** 
 236:.\main.c      **** 	kbps = BUFFER_SIZE*8 / nTime;
 2112              		.loc 1 236 0 is_stmt 1 discriminator 3
 2113 097c 4FF4FA32 		mov	r2, #128000
 2114 0980 D7F80436 		ldr	r3, [r7, #1540]
 2115 0984 B2FBF3F3 		udiv	r3, r2, r3
 2116 0988 C7F8F835 		str	r3, [r7, #1528]
ARM GAS  C:\Users\honet\AppData\Local\Temp\ccWT9Ujf.s 			page 45


 2117              	.LBB64:
 237:.\main.c      **** 	dmpmsg("Rate %lu kbps\n\n", kbps);
 2118              		.loc 1 237 0 discriminator 3
 2119 098c 0F23     		movs	r3, #15
 2120 098e C7F8B435 		str	r3, [r7, #1460]
 2121              	.LBB65:
 2122 0992 3B46     		mov	r3, r7
 2123 0994 1846     		mov	r0, r3
 2124 0996 8D49     		ldr	r1, .L137+32
 2125 0998 D7F8F825 		ldr	r2, [r7, #1528]
 2126 099c FFF7FEFF 		bl	sprintf
 2127 09a0 00BF     		nop
 2128              	.L112:
 2129              		.loc 1 237 0 is_stmt 0 discriminator 2
 2130 09a2 FFF7FEFF 		bl	USBUART_1_CDCIsReady
 2131 09a6 0346     		mov	r3, r0
 2132 09a8 002B     		cmp	r3, #0
 2133 09aa FAD0     		beq	.L112
 2134              		.loc 1 237 0 discriminator 3
 2135 09ac 3B46     		mov	r3, r7
 2136 09ae 1846     		mov	r0, r3
 2137 09b0 FFF7FEFF 		bl	USBUART_1_PutString
 2138              	.LBE65:
 2139 09b4 07F19403 		add	r3, r7, #148
 2140 09b8 7D48     		ldr	r0, .L137+4
 2141 09ba 8449     		ldr	r1, .L137+32
 2142 09bc D7F8B425 		ldr	r2, [r7, #1460]
 2143 09c0 FFF7FEFF 		bl	f_write
 2144 09c4 0346     		mov	r3, r0
 2145 09c6 87F8B335 		strb	r3, [r7, #1459]
 2146 09ca 97F8B335 		ldrb	r3, [r7, #1459]	@ zero_extendqisi2
 2147 09ce 7948     		ldr	r0, .L137+8
 2148 09d0 1946     		mov	r1, r3
 2149 09d2 FFF7FEFF 		bl	chkres
 2150              	.LBE64:
 2151              	.LBB66:
 238:.\main.c      **** 
 239:.\main.c      **** 	//Next, read file in
 240:.\main.c      **** 
 241:.\main.c      **** 	//Indicate in test.txt what we're doing
 242:.\main.c      **** 	dmpmsg("Reading %d bytes from file, DMA\n", BUFFER_SIZE);
 2152              		.loc 1 242 0 is_stmt 1 discriminator 3
 2153 09d6 2023     		movs	r3, #32
 2154 09d8 C7F8AC35 		str	r3, [r7, #1452]
 2155              	.LBB67:
 2156 09dc 3B46     		mov	r3, r7
 2157 09de 1846     		mov	r0, r3
 2158 09e0 7B49     		ldr	r1, .L137+36
 2159 09e2 4FF47A52 		mov	r2, #16000
 2160 09e6 FFF7FEFF 		bl	sprintf
 2161 09ea 00BF     		nop
 2162              	.L113:
 2163              		.loc 1 242 0 is_stmt 0 discriminator 2
 2164 09ec FFF7FEFF 		bl	USBUART_1_CDCIsReady
 2165 09f0 0346     		mov	r3, r0
 2166 09f2 002B     		cmp	r3, #0
 2167 09f4 FAD0     		beq	.L113
ARM GAS  C:\Users\honet\AppData\Local\Temp\ccWT9Ujf.s 			page 46


 2168              		.loc 1 242 0 discriminator 3
 2169 09f6 3B46     		mov	r3, r7
 2170 09f8 1846     		mov	r0, r3
 2171 09fa FFF7FEFF 		bl	USBUART_1_PutString
 2172              	.LBE67:
 2173 09fe 07F19003 		add	r3, r7, #144
 2174 0a02 6B48     		ldr	r0, .L137+4
 2175 0a04 7249     		ldr	r1, .L137+36
 2176 0a06 D7F8AC25 		ldr	r2, [r7, #1452]
 2177 0a0a FFF7FEFF 		bl	f_write
 2178 0a0e 0346     		mov	r3, r0
 2179 0a10 87F8AB35 		strb	r3, [r7, #1451]
 2180 0a14 97F8AB35 		ldrb	r3, [r7, #1451]	@ zero_extendqisi2
 2181 0a18 6648     		ldr	r0, .L137+8
 2182 0a1a 1946     		mov	r1, r3
 2183 0a1c FFF7FEFF 		bl	chkres
 2184              	.LBE66:
 243:.\main.c      **** 
 244:.\main.c      **** 	memset(vals, 0x00, BUFFER_SIZE);
 2185              		.loc 1 244 0 is_stmt 1 discriminator 3
 2186 0a20 D7F82036 		ldr	r3, [r7, #1568]
 2187 0a24 1846     		mov	r0, r3
 2188 0a26 0021     		movs	r1, #0
 2189 0a28 4FF47A52 		mov	r2, #16000
 2190 0a2c FFF7FEFF 		bl	memset
 245:.\main.c      **** 
 246:.\main.c      **** 	//perform operation
 247:.\main.c      **** 	nCurrentMillis = nmillis; //get current millisecond count
 2191              		.loc 1 247 0 discriminator 3
 2192 0a30 614B     		ldr	r3, .L137+12
 2193 0a32 1B68     		ldr	r3, [r3]
 2194 0a34 C7F80836 		str	r3, [r7, #1544]
 248:.\main.c      **** 
 249:.\main.c      **** 	res = f_open(&BinFile, "//TESTDMA.bin", FA_OPEN_EXISTING | FA_READ);
 2195              		.loc 1 249 0 discriminator 3
 2196 0a38 07F1C403 		add	r3, r7, #196
 2197 0a3c 1846     		mov	r0, r3
 2198 0a3e 5F49     		ldr	r1, .L137+16
 2199 0a40 0122     		movs	r2, #1
 2200 0a42 FFF7FEFF 		bl	f_open
 2201 0a46 0346     		mov	r3, r0
 2202 0a48 87F81D36 		strb	r3, [r7, #1565]
 250:.\main.c      **** 	chkres("f_open", res);
 2203              		.loc 1 250 0 discriminator 3
 2204 0a4c 97F81D36 		ldrb	r3, [r7, #1565]	@ zero_extendqisi2
 2205 0a50 5B48     		ldr	r0, .L137+20
 2206 0a52 1946     		mov	r1, r3
 2207 0a54 FFF7FEFF 		bl	chkres
 251:.\main.c      **** 	if(res==FR_OK){
 2208              		.loc 1 251 0 discriminator 3
 2209 0a58 97F81D36 		ldrb	r3, [r7, #1565]	@ zero_extendqisi2
 2210 0a5c 002B     		cmp	r3, #0
 2211 0a5e 22D1     		bne	.L114
 252:.\main.c      **** 		res = f_read(&BinFile, vals, BUFFER_SIZE, &BytesRead);
 2212              		.loc 1 252 0
 2213 0a60 D7F82026 		ldr	r2, [r7, #1568]
 2214 0a64 07F1C401 		add	r1, r7, #196
ARM GAS  C:\Users\honet\AppData\Local\Temp\ccWT9Ujf.s 			page 47


 2215 0a68 07F21C53 		addw	r3, r7, #1308
 2216 0a6c 0846     		mov	r0, r1
 2217 0a6e 1146     		mov	r1, r2
 2218 0a70 4FF47A52 		mov	r2, #16000
 2219 0a74 FFF7FEFF 		bl	f_read
 2220 0a78 0346     		mov	r3, r0
 2221 0a7a 87F81D36 		strb	r3, [r7, #1565]
 253:.\main.c      **** 		chkres("f_read", res);
 2222              		.loc 1 253 0
 2223 0a7e 97F81D36 		ldrb	r3, [r7, #1565]	@ zero_extendqisi2
 2224 0a82 5448     		ldr	r0, .L137+40
 2225 0a84 1946     		mov	r1, r3
 2226 0a86 FFF7FEFF 		bl	chkres
 254:.\main.c      **** 		res = f_close(&BinFile);
 2227              		.loc 1 254 0
 2228 0a8a 07F1C403 		add	r3, r7, #196
 2229 0a8e 1846     		mov	r0, r3
 2230 0a90 FFF7FEFF 		bl	f_close
 2231 0a94 0346     		mov	r3, r0
 2232 0a96 87F81D36 		strb	r3, [r7, #1565]
 255:.\main.c      **** 		chkres("f_close", res);
 2233              		.loc 1 255 0
 2234 0a9a 97F81D36 		ldrb	r3, [r7, #1565]	@ zero_extendqisi2
 2235 0a9e 4948     		ldr	r0, .L137+24
 2236 0aa0 1946     		mov	r1, r3
 2237 0aa2 FFF7FEFF 		bl	chkres
 2238              	.L114:
 256:.\main.c      **** 	}
 257:.\main.c      **** 
 258:.\main.c      **** 	//indicate in test.txt how long it took
 259:.\main.c      **** 	nTime = nmillis-nCurrentMillis;
 2239              		.loc 1 259 0
 2240 0aa6 444B     		ldr	r3, .L137+12
 2241 0aa8 1A68     		ldr	r2, [r3]
 2242 0aaa D7F80836 		ldr	r3, [r7, #1544]
 2243 0aae D31A     		subs	r3, r2, r3
 2244 0ab0 C7F80436 		str	r3, [r7, #1540]
 2245              	.LBB68:
 260:.\main.c      **** 	dmpmsg("Took %lu ms\nVerifying...", nTime);
 2246              		.loc 1 260 0
 2247 0ab4 1823     		movs	r3, #24
 2248 0ab6 C7F8A435 		str	r3, [r7, #1444]
 2249              	.LBB69:
 2250 0aba 3B46     		mov	r3, r7
 2251 0abc 1846     		mov	r0, r3
 2252 0abe 4649     		ldr	r1, .L137+44
 2253 0ac0 D7F80426 		ldr	r2, [r7, #1540]
 2254 0ac4 FFF7FEFF 		bl	sprintf
 2255 0ac8 00BF     		nop
 2256              	.L115:
 2257              		.loc 1 260 0 is_stmt 0 discriminator 2
 2258 0aca FFF7FEFF 		bl	USBUART_1_CDCIsReady
 2259 0ace 0346     		mov	r3, r0
 2260 0ad0 002B     		cmp	r3, #0
 2261 0ad2 FAD0     		beq	.L115
 2262              		.loc 1 260 0 discriminator 3
 2263 0ad4 3B46     		mov	r3, r7
ARM GAS  C:\Users\honet\AppData\Local\Temp\ccWT9Ujf.s 			page 48


 2264 0ad6 1846     		mov	r0, r3
 2265 0ad8 FFF7FEFF 		bl	USBUART_1_PutString
 2266              	.LBE69:
 2267 0adc 07F18C03 		add	r3, r7, #140
 2268 0ae0 3348     		ldr	r0, .L137+4
 2269 0ae2 3D49     		ldr	r1, .L137+44
 2270 0ae4 D7F8A425 		ldr	r2, [r7, #1444]
 2271 0ae8 FFF7FEFF 		bl	f_write
 2272 0aec 0346     		mov	r3, r0
 2273 0aee 87F8A335 		strb	r3, [r7, #1443]
 2274 0af2 97F8A335 		ldrb	r3, [r7, #1443]	@ zero_extendqisi2
 2275 0af6 2F48     		ldr	r0, .L137+8
 2276 0af8 1946     		mov	r1, r3
 2277 0afa FFF7FEFF 		bl	chkres
 2278              	.LBE68:
 261:.\main.c      **** 
 262:.\main.c      **** 	bVerifyFail = 0;
 2279              		.loc 1 262 0 is_stmt 1 discriminator 3
 2280 0afe 0023     		movs	r3, #0
 2281 0b00 87F83B36 		strb	r3, [r7, #1595]
 2282              	.LBB70:
 263:.\main.c      **** 	for(int i = 0; i < 500; i++) {
 2283              		.loc 1 263 0 discriminator 3
 2284 0b04 0023     		movs	r3, #0
 2285 0b06 C7F82C36 		str	r3, [r7, #1580]
 2286 0b0a 21E0     		b	.L116
 2287              	.L119:
 264:.\main.c      **** 		if(vals[i] != i*i) bVerifyFail = 1;
 2288              		.loc 1 264 0
 2289 0b0c D7F82026 		ldr	r2, [r7, #1568]
 2290 0b10 D7F82C36 		ldr	r3, [r7, #1580]
 2291 0b14 DB00     		lsls	r3, r3, #3
 2292 0b16 1344     		add	r3, r3, r2
 2293 0b18 D3E90045 		ldrd	r4, [r3]
 2294 0b1c D7F82C36 		ldr	r3, [r7, #1580]
 2295 0b20 D7F82C26 		ldr	r2, [r7, #1580]
 2296 0b24 02FB03F3 		mul	r3, r2, r3
 2297 0b28 1846     		mov	r0, r3
 2298 0b2a FFF7FEFF 		bl	__aeabi_i2d
 2299 0b2e 0246     		mov	r2, r0
 2300 0b30 0B46     		mov	r3, r1
 2301 0b32 2046     		mov	r0, r4
 2302 0b34 2946     		mov	r1, r5
 2303 0b36 FFF7FEFF 		bl	__aeabi_dcmpeq
 2304 0b3a 0346     		mov	r3, r0
 2305 0b3c 002B     		cmp	r3, #0
 2306 0b3e 02D1     		bne	.L117
 2307              		.loc 1 264 0 is_stmt 0 discriminator 1
 2308 0b40 0123     		movs	r3, #1
 2309 0b42 87F83B36 		strb	r3, [r7, #1595]
 2310              	.L117:
 263:.\main.c      **** 	for(int i = 0; i < 500; i++) {
 2311              		.loc 1 263 0 is_stmt 1 discriminator 2
 2312 0b46 D7F82C36 		ldr	r3, [r7, #1580]
 2313 0b4a 0133     		adds	r3, r3, #1
 2314 0b4c C7F82C36 		str	r3, [r7, #1580]
 2315              	.L116:
ARM GAS  C:\Users\honet\AppData\Local\Temp\ccWT9Ujf.s 			page 49


 263:.\main.c      **** 	for(int i = 0; i < 500; i++) {
 2316              		.loc 1 263 0 is_stmt 0 discriminator 1
 2317 0b50 D7F82C36 		ldr	r3, [r7, #1580]
 2318 0b54 B3F5FA7F 		cmp	r3, #500
 2319 0b58 D8DB     		blt	.L119
 2320              	.LBE70:
 265:.\main.c      **** 	}
 266:.\main.c      **** 	
 267:.\main.c      **** 	if(bVerifyFail)
 2321              		.loc 1 267 0 is_stmt 1
 2322 0b5a 97F83B36 		ldrb	r3, [r7, #1595]	@ zero_extendqisi2
 2323 0b5e 002B     		cmp	r3, #0
 2324 0b60 3ED0     		beq	.L120
 2325              	.LBB71:
 268:.\main.c      **** 		dmpmsg("FAIL :O\n");
 2326              		.loc 1 268 0
 2327 0b62 0823     		movs	r3, #8
 2328 0b64 C7F89C35 		str	r3, [r7, #1436]
 2329              	.LBB72:
 2330 0b68 3B46     		mov	r3, r7
 2331 0b6a 1C4A     		ldr	r2, .L137+48
 2332 0b6c 07CA     		ldmia	r2, {r0, r1, r2}
 2333 0b6e 03C3     		stmia	r3!, {r0, r1}
 2334 0b70 1A70     		strb	r2, [r3]
 2335 0b72 00BF     		nop
 2336              	.L121:
 2337              		.loc 1 268 0 is_stmt 0 discriminator 2
 2338 0b74 FFF7FEFF 		bl	USBUART_1_CDCIsReady
 2339 0b78 0346     		mov	r3, r0
 2340 0b7a 002B     		cmp	r3, #0
 2341 0b7c FAD0     		beq	.L121
 2342              		.loc 1 268 0 discriminator 3
 2343 0b7e 3B46     		mov	r3, r7
 2344 0b80 1846     		mov	r0, r3
 2345 0b82 FFF7FEFF 		bl	USBUART_1_PutString
 2346              	.LBE72:
 2347 0b86 07F18803 		add	r3, r7, #136
 2348 0b8a 0948     		ldr	r0, .L137+4
 2349 0b8c 1349     		ldr	r1, .L137+48
 2350 0b8e D7F89C25 		ldr	r2, [r7, #1436]
 2351 0b92 FFF7FEFF 		bl	f_write
 2352 0b96 0346     		mov	r3, r0
 2353 0b98 87F89B35 		strb	r3, [r7, #1435]
 2354 0b9c 97F89B35 		ldrb	r3, [r7, #1435]	@ zero_extendqisi2
 2355 0ba0 0448     		ldr	r0, .L137+8
 2356 0ba2 1946     		mov	r1, r3
 2357 0ba4 FFF7FEFF 		bl	chkres
 2358              	.LBE71:
 2359 0ba8 42E0     		b	.L122
 2360              	.L138:
 2361 0baa 00BF     		.align	2
 2362              	.L137:
 2363 0bac 4C030000 		.word	.LC51
 2364 0bb0 00000000 		.word	File
 2365 0bb4 64020000 		.word	.LC39
 2366 0bb8 00000000 		.word	nmillis
 2367 0bbc 6C030000 		.word	.LC52
ARM GAS  C:\Users\honet\AppData\Local\Temp\ccWT9Ujf.s 			page 50


 2368 0bc0 4C020000 		.word	.LC37
 2369 0bc4 A0020000 		.word	.LC42
 2370 0bc8 A8020000 		.word	.LC43
 2371 0bcc B8020000 		.word	.LC44
 2372 0bd0 7C030000 		.word	.LC53
 2373 0bd4 F0020000 		.word	.LC46
 2374 0bd8 F8020000 		.word	.LC47
 2375 0bdc 14030000 		.word	.LC48
 2376              	.L120:
 2377              	.LBB73:
 269:.\main.c      **** 	else
 270:.\main.c      **** 		dmpmsg(" All Good! :D\n");
 2378              		.loc 1 270 0 is_stmt 1
 2379 0be0 0E23     		movs	r3, #14
 2380 0be2 C7F89435 		str	r3, [r7, #1428]
 2381              	.LBB74:
 2382 0be6 3B46     		mov	r3, r7
 2383 0be8 424A     		ldr	r2, .L139
 2384 0bea 1C46     		mov	r4, r3
 2385 0bec 1346     		mov	r3, r2
 2386 0bee 0FCB     		ldmia	r3, {r0, r1, r2, r3}
 2387 0bf0 07C4     		stmia	r4!, {r0, r1, r2}
 2388 0bf2 2380     		strh	r3, [r4]	@ movhi
 2389 0bf4 0234     		adds	r4, r4, #2
 2390 0bf6 1B0C     		lsrs	r3, r3, #16
 2391 0bf8 2370     		strb	r3, [r4]
 2392 0bfa 00BF     		nop
 2393              	.L123:
 2394              		.loc 1 270 0 is_stmt 0 discriminator 2
 2395 0bfc FFF7FEFF 		bl	USBUART_1_CDCIsReady
 2396 0c00 0346     		mov	r3, r0
 2397 0c02 002B     		cmp	r3, #0
 2398 0c04 FAD0     		beq	.L123
 2399              		.loc 1 270 0 discriminator 3
 2400 0c06 3B46     		mov	r3, r7
 2401 0c08 1846     		mov	r0, r3
 2402 0c0a FFF7FEFF 		bl	USBUART_1_PutString
 2403              	.LBE74:
 2404 0c0e 07F18403 		add	r3, r7, #132
 2405 0c12 3948     		ldr	r0, .L139+4
 2406 0c14 3749     		ldr	r1, .L139
 2407 0c16 D7F89425 		ldr	r2, [r7, #1428]
 2408 0c1a FFF7FEFF 		bl	f_write
 2409 0c1e 0346     		mov	r3, r0
 2410 0c20 87F89335 		strb	r3, [r7, #1427]
 2411 0c24 97F89335 		ldrb	r3, [r7, #1427]	@ zero_extendqisi2
 2412 0c28 3448     		ldr	r0, .L139+8
 2413 0c2a 1946     		mov	r1, r3
 2414 0c2c FFF7FEFF 		bl	chkres
 2415              	.L122:
 2416              	.LBE73:
 271:.\main.c      **** 
 272:.\main.c      **** 	kbps = BUFFER_SIZE*8 / nTime;
 2417              		.loc 1 272 0 is_stmt 1
 2418 0c30 4FF4FA32 		mov	r2, #128000
 2419 0c34 D7F80436 		ldr	r3, [r7, #1540]
 2420 0c38 B2FBF3F3 		udiv	r3, r2, r3
ARM GAS  C:\Users\honet\AppData\Local\Temp\ccWT9Ujf.s 			page 51


 2421 0c3c C7F8F835 		str	r3, [r7, #1528]
 2422              	.LBB75:
 273:.\main.c      **** 	dmpmsg("Rate %lu kbps\n\n", kbps);
 2423              		.loc 1 273 0
 2424 0c40 0F23     		movs	r3, #15
 2425 0c42 C7F88C35 		str	r3, [r7, #1420]
 2426              	.LBB76:
 2427 0c46 3B46     		mov	r3, r7
 2428 0c48 1846     		mov	r0, r3
 2429 0c4a 2D49     		ldr	r1, .L139+12
 2430 0c4c D7F8F825 		ldr	r2, [r7, #1528]
 2431 0c50 FFF7FEFF 		bl	sprintf
 2432 0c54 00BF     		nop
 2433              	.L124:
 2434              		.loc 1 273 0 is_stmt 0 discriminator 2
 2435 0c56 FFF7FEFF 		bl	USBUART_1_CDCIsReady
 2436 0c5a 0346     		mov	r3, r0
 2437 0c5c 002B     		cmp	r3, #0
 2438 0c5e FAD0     		beq	.L124
 2439              		.loc 1 273 0 discriminator 3
 2440 0c60 3B46     		mov	r3, r7
 2441 0c62 1846     		mov	r0, r3
 2442 0c64 FFF7FEFF 		bl	USBUART_1_PutString
 2443              	.LBE76:
 2444 0c68 07F18003 		add	r3, r7, #128
 2445 0c6c 2248     		ldr	r0, .L139+4
 2446 0c6e 2449     		ldr	r1, .L139+12
 2447 0c70 D7F88C25 		ldr	r2, [r7, #1420]
 2448 0c74 FFF7FEFF 		bl	f_write
 2449 0c78 0346     		mov	r3, r0
 2450 0c7a 87F88B35 		strb	r3, [r7, #1419]
 2451 0c7e 97F88B35 		ldrb	r3, [r7, #1419]	@ zero_extendqisi2
 2452 0c82 1E48     		ldr	r0, .L139+8
 2453 0c84 1946     		mov	r1, r3
 2454 0c86 FFF7FEFF 		bl	chkres
 2455              	.LBE75:
 274:.\main.c      **** 
 275:.\main.c      ****     CyDelay(1000);
 2456              		.loc 1 275 0 is_stmt 1 discriminator 3
 2457 0c8a 4FF47A70 		mov	r0, #1000
 2458 0c8e FFF7FEFF 		bl	CyDelay
 216:.\main.c      **** 	//and repeat tests
 2459              		.loc 1 216 0 discriminator 3
 2460 0c92 D7F83036 		ldr	r3, [r7, #1584]
 2461 0c96 0133     		adds	r3, r3, #1
 2462 0c98 C7F83036 		str	r3, [r7, #1584]
 2463              	.L108:
 216:.\main.c      **** 	//and repeat tests
 2464              		.loc 1 216 0 is_stmt 0 discriminator 2
 2465 0c9c D7F83036 		ldr	r3, [r7, #1584]
 2466 0ca0 132B     		cmp	r3, #19
 2467 0ca2 7FF7DFAD 		ble	.L125
 2468              	.LBE59:
 276:.\main.c      **** }
 277:.\main.c      **** 
 278:.\main.c      **** 	res = f_close(&File);
 2469              		.loc 1 278 0 is_stmt 1
ARM GAS  C:\Users\honet\AppData\Local\Temp\ccWT9Ujf.s 			page 52


 2470 0ca6 1448     		ldr	r0, .L139+4
 2471 0ca8 FFF7FEFF 		bl	f_close
 2472 0cac 0346     		mov	r3, r0
 2473 0cae 87F81D36 		strb	r3, [r7, #1565]
 279:.\main.c      **** 	chkres("f_close", res);
 2474              		.loc 1 279 0
 2475 0cb2 97F81D36 		ldrb	r3, [r7, #1565]	@ zero_extendqisi2
 2476 0cb6 1348     		ldr	r0, .L139+16
 2477 0cb8 1946     		mov	r1, r3
 2478 0cba FFF7FEFF 		bl	chkres
 2479              	.L75:
 280:.\main.c      **** 
 281:.\main.c      **** 
 282:.\main.c      **** err_exit:
 283:.\main.c      **** 	LEDControl_Write(0);
 2480              		.loc 1 283 0
 2481 0cbe 0020     		movs	r0, #0
 2482 0cc0 FFF7FEFF 		bl	LEDControl_Write
 2483              	.LBB77:
 284:.\main.c      **** 	dbgprint("TEST FINISHED!\n");
 2484              		.loc 1 284 0
 2485 0cc4 3B46     		mov	r3, r7
 2486 0cc6 104A     		ldr	r2, .L139+20
 2487 0cc8 1C46     		mov	r4, r3
 2488 0cca 1346     		mov	r3, r2
 2489 0ccc 0FCB     		ldmia	r3, {r0, r1, r2, r3}
 2490 0cce 84E80F00 		stmia	r4, {r0, r1, r2, r3}
 2491 0cd2 00BF     		nop
 2492              	.L126:
 2493              		.loc 1 284 0 is_stmt 0 discriminator 2
 2494 0cd4 FFF7FEFF 		bl	USBUART_1_CDCIsReady
 2495 0cd8 0346     		mov	r3, r0
 2496 0cda 002B     		cmp	r3, #0
 2497 0cdc FAD0     		beq	.L126
 2498              		.loc 1 284 0 discriminator 3
 2499 0cde 3B46     		mov	r3, r7
 2500 0ce0 1846     		mov	r0, r3
 2501 0ce2 FFF7FEFF 		bl	USBUART_1_PutString
 2502              	.LBE77:
 2503 0ce6 C546     		mov	sp, r8
 285:.\main.c      **** }
 2504              		.loc 1 285 0 is_stmt 1 discriminator 3
 2505 0ce8 07F5C867 		add	r7, r7, #1600
 2506              		.cfi_def_cfa_offset 24
 2507 0cec BD46     		mov	sp, r7
 2508              		.cfi_def_cfa_register 13
 2509              		@ sp needed
 2510 0cee BDE8F081 		pop	{r4, r5, r6, r7, r8, pc}
 2511              	.L140:
 2512 0cf2 00BF     		.align	2
 2513              	.L139:
 2514 0cf4 20030000 		.word	.LC49
 2515 0cf8 00000000 		.word	File
 2516 0cfc 64020000 		.word	.LC39
 2517 0d00 B8020000 		.word	.LC44
 2518 0d04 A0020000 		.word	.LC42
 2519 0d08 A0030000 		.word	.LC54
ARM GAS  C:\Users\honet\AppData\Local\Temp\ccWT9Ujf.s 			page 53


 2520              		.cfi_endproc
 2521              	.LFE68:
 2522              		.size	sdbench, .-sdbench
 2523              		.section	.rodata
 2524              		.align	2
 2525              	.LC55:
 2526 03b0 25642E0A 		.ascii	"%d.\012\000"
 2526      00
 2527 03b5 000000   		.align	2
 2528              	.LC56:
 2529 03b8 48656C6C 		.ascii	"Hello SDC\012\000"
 2529      6F205344 
 2529      430A00
 2530 03c3 00       		.section	.text.main,"ax",%progbits
 2531              		.align	2
 2532              		.global	main
 2533              		.thumb
 2534              		.thumb_func
 2535              		.type	main, %function
 2536              	main:
 2537              	.LFB69:
 286:.\main.c      **** 
 287:.\main.c      **** int main()
 288:.\main.c      **** {
 2538              		.loc 1 288 0
 2539              		.cfi_startproc
 2540              		@ args = 0, pretend = 0, frame = 136
 2541              		@ frame_needed = 1, uses_anonymous_args = 0
 2542 0000 80B5     		push	{r7, lr}
 2543              		.cfi_def_cfa_offset 8
 2544              		.cfi_offset 7, -8
 2545              		.cfi_offset 14, -4
 2546 0002 A2B0     		sub	sp, sp, #136
 2547              		.cfi_def_cfa_offset 144
 2548 0004 00AF     		add	r7, sp, #0
 2549              		.cfi_def_cfa_register 7
 289:.\main.c      **** 	//    SysResetReg_Write(1);
 290:.\main.c      **** 	//    CyDelay(1);
 291:.\main.c      **** 	//    SysResetReg_Write(0);
 292:.\main.c      **** 
 293:.\main.c      ****     CyDelay(1000);
 2550              		.loc 1 293 0
 2551 0006 4FF47A70 		mov	r0, #1000
 2552 000a FFF7FEFF 		bl	CyDelay
 294:.\main.c      **** 	LEDControl_Write(1);
 2553              		.loc 1 294 0
 2554 000e 0120     		movs	r0, #1
 2555 0010 FFF7FEFF 		bl	LEDControl_Write
 295:.\main.c      **** 	CyGlobalIntEnable;              //Enable interrupts
 2556              		.loc 1 295 0
 2557              	@ 295 ".\main.c" 1
 2558 0014 62B6     		CPSIE   i
 2559              	@ 0 "" 2
 296:.\main.c      **** 
 297:.\main.c      **** 	MillisecISR_StartEx(MillisISR); //start millisec ISR
 2560              		.loc 1 297 0
 2561              		.thumb
ARM GAS  C:\Users\honet\AppData\Local\Temp\ccWT9Ujf.s 			page 54


 2562 0016 2648     		ldr	r0, .L148
 2563 0018 FFF7FEFF 		bl	MillisecISR_StartEx
 298:.\main.c      **** 
 299:.\main.c      **** 	USBUART_1_Start(0, USBUART_1_DWR_VDDD_OPERATION);
 2564              		.loc 1 299 0
 2565 001c 0020     		movs	r0, #0
 2566 001e 0221     		movs	r1, #2
 2567 0020 FFF7FEFF 		bl	USBUART_1_Start
 300:.\main.c      **** 	while(!USBUART_1_bGetConfiguration());
 2568              		.loc 1 300 0
 2569 0024 00BF     		nop
 2570              	.L142:
 2571              		.loc 1 300 0 is_stmt 0 discriminator 1
 2572 0026 FFF7FEFF 		bl	USBUART_1_GetConfiguration
 2573 002a 0346     		mov	r3, r0
 2574 002c 002B     		cmp	r3, #0
 2575 002e FAD0     		beq	.L142
 301:.\main.c      **** 	USBUART_1_CDC_Init();
 2576              		.loc 1 301 0 is_stmt 1
 2577 0030 FFF7FEFF 		bl	USBUART_1_CDC_Init
 2578              	.L147:
 2579              	.LBB78:
 302:.\main.c      **** 
 303:.\main.c      ****     for(;;){
 304:.\main.c      **** 	for(int i=5; i>0; i--){
 2580              		.loc 1 304 0
 2581 0034 0523     		movs	r3, #5
 2582 0036 C7F88430 		str	r3, [r7, #132]
 2583 003a 19E0     		b	.L143
 2584              	.L145:
 2585              	.LBB79:
 305:.\main.c      **** 		dbgprint("%d.\n", i);
 2586              		.loc 1 305 0
 2587 003c 3B1D     		adds	r3, r7, #4
 2588 003e 1846     		mov	r0, r3
 2589 0040 1C49     		ldr	r1, .L148+4
 2590 0042 D7F88420 		ldr	r2, [r7, #132]
 2591 0046 FFF7FEFF 		bl	sprintf
 2592 004a 00BF     		nop
 2593              	.L144:
 2594              		.loc 1 305 0 is_stmt 0 discriminator 2
 2595 004c FFF7FEFF 		bl	USBUART_1_CDCIsReady
 2596 0050 0346     		mov	r3, r0
 2597 0052 002B     		cmp	r3, #0
 2598 0054 FAD0     		beq	.L144
 2599              		.loc 1 305 0 discriminator 3
 2600 0056 3B1D     		adds	r3, r7, #4
 2601 0058 1846     		mov	r0, r3
 2602 005a FFF7FEFF 		bl	USBUART_1_PutString
 2603              	.LBE79:
 306:.\main.c      **** 		CyDelay(1000);
 2604              		.loc 1 306 0 is_stmt 1 discriminator 3
 2605 005e 4FF47A70 		mov	r0, #1000
 2606 0062 FFF7FEFF 		bl	CyDelay
 304:.\main.c      **** 		dbgprint("%d.\n", i);
 2607              		.loc 1 304 0 discriminator 3
 2608 0066 D7F88430 		ldr	r3, [r7, #132]
ARM GAS  C:\Users\honet\AppData\Local\Temp\ccWT9Ujf.s 			page 55


 2609 006a 013B     		subs	r3, r3, #1
 2610 006c C7F88430 		str	r3, [r7, #132]
 2611              	.L143:
 304:.\main.c      **** 		dbgprint("%d.\n", i);
 2612              		.loc 1 304 0 is_stmt 0 discriminator 2
 2613 0070 D7F88430 		ldr	r3, [r7, #132]
 2614 0074 002B     		cmp	r3, #0
 2615 0076 E1DC     		bgt	.L145
 2616              	.LBE78:
 2617              	.LBB80:
 307:.\main.c      **** 	}
 308:.\main.c      **** 	dbgprint("Hello SDC\n");
 2618              		.loc 1 308 0 is_stmt 1
 2619 0078 3B1D     		adds	r3, r7, #4
 2620 007a 0F4A     		ldr	r2, .L148+8
 2621 007c 07CA     		ldmia	r2, {r0, r1, r2}
 2622 007e 03C3     		stmia	r3!, {r0, r1}
 2623 0080 1A80     		strh	r2, [r3]	@ movhi
 2624 0082 0233     		adds	r3, r3, #2
 2625 0084 120C     		lsrs	r2, r2, #16
 2626 0086 1A70     		strb	r2, [r3]
 2627 0088 00BF     		nop
 2628              	.L146:
 2629              		.loc 1 308 0 is_stmt 0 discriminator 2
 2630 008a FFF7FEFF 		bl	USBUART_1_CDCIsReady
 2631 008e 0346     		mov	r3, r0
 2632 0090 002B     		cmp	r3, #0
 2633 0092 FAD0     		beq	.L146
 2634              		.loc 1 308 0 discriminator 3
 2635 0094 3B1D     		adds	r3, r7, #4
 2636 0096 1846     		mov	r0, r3
 2637 0098 FFF7FEFF 		bl	USBUART_1_PutString
 2638              	.LBE80:
 309:.\main.c      **** 
 310:.\main.c      **** 	SDSPI_StartInterface();
 2639              		.loc 1 310 0 is_stmt 1 discriminator 3
 2640 009c FFF7FEFF 		bl	SDSPI_StartInterface
 311:.\main.c      **** 	SDSPI_Start(SDCARD_SLOW, SDCARD_FAST, PrintFxn);   //Initialise SD card and file system (note: Pri
 2641              		.loc 1 311 0 discriminator 3
 2642 00a0 0648     		ldr	r0, .L148+12
 2643 00a2 0749     		ldr	r1, .L148+16
 2644 00a4 074A     		ldr	r2, .L148+20
 2645 00a6 FFF7FEFF 		bl	SDSPI_Start
 312:.\main.c      **** 
 313:.\main.c      **** 	sdbench();
 2646              		.loc 1 313 0 discriminator 3
 2647 00aa FFF7FEFF 		bl	sdbench
 314:.\main.c      ****     }
 2648              		.loc 1 314 0 discriminator 3
 2649 00ae C1E7     		b	.L147
 2650              	.L149:
 2651              		.align	2
 2652              	.L148:
 2653 00b0 00000000 		.word	MillisISR
 2654 00b4 B0030000 		.word	.LC55
 2655 00b8 B8030000 		.word	.LC56
 2656 00bc 00000000 		.word	SDCARD_SLOW
ARM GAS  C:\Users\honet\AppData\Local\Temp\ccWT9Ujf.s 			page 56


 2657 00c0 00000000 		.word	SDCARD_FAST
 2658 00c4 00000000 		.word	PrintFxn
 2659              		.cfi_endproc
 2660              	.LFE69:
 2661              		.size	main, .-main
 2662              		.text
 2663              	.Letext0:
 2664              		.file 2 "c:\\program files (x86)\\cypress\\psoc creator\\3.3\\psoc creator\\import\\gnu\\arm\\4.9.
 2665              		.file 3 "c:\\program files (x86)\\cypress\\psoc creator\\3.3\\psoc creator\\import\\gnu\\arm\\4.9.
 2666              		.file 4 "c:\\program files (x86)\\cypress\\psoc creator\\3.3\\psoc creator\\import\\gnu\\arm\\4.9.
 2667              		.file 5 "Generated_Source\\PSoC5/SDSPI_fatfs.h"
 2668              		.file 6 "Generated_Source\\PSoC5/core_cm3.h"
 2669              		.section	.debug_info,"",%progbits
 2670              	.Ldebug_info0:
 2671 0000 2F100000 		.4byte	0x102f
 2672 0004 0400     		.2byte	0x4
 2673 0006 00000000 		.4byte	.Ldebug_abbrev0
 2674 000a 04       		.byte	0x4
 2675 000b 01       		.uleb128 0x1
 2676 000c D7010000 		.4byte	.LASF100
 2677 0010 01       		.byte	0x1
 2678 0011 70020000 		.4byte	.LASF101
 2679 0015 31000000 		.4byte	.LASF102
 2680 0019 00000000 		.4byte	.Ldebug_ranges0+0
 2681 001d 00000000 		.4byte	0
 2682 0021 00000000 		.4byte	.Ldebug_line0
 2683 0025 02       		.uleb128 0x2
 2684 0026 04       		.byte	0x4
 2685 0027 05       		.byte	0x5
 2686 0028 696E7400 		.ascii	"int\000"
 2687 002c 03       		.uleb128 0x3
 2688 002d 7F030000 		.4byte	.LASF2
 2689 0031 02       		.byte	0x2
 2690 0032 D4       		.byte	0xd4
 2691 0033 37000000 		.4byte	0x37
 2692 0037 04       		.uleb128 0x4
 2693 0038 04       		.byte	0x4
 2694 0039 07       		.byte	0x7
 2695 003a CE020000 		.4byte	.LASF0
 2696 003e 04       		.uleb128 0x4
 2697 003f 01       		.byte	0x1
 2698 0040 06       		.byte	0x6
 2699 0041 23040000 		.4byte	.LASF1
 2700 0045 03       		.uleb128 0x3
 2701 0046 76010000 		.4byte	.LASF3
 2702 004a 03       		.byte	0x3
 2703 004b 1D       		.byte	0x1d
 2704 004c 50000000 		.4byte	0x50
 2705 0050 04       		.uleb128 0x4
 2706 0051 01       		.byte	0x1
 2707 0052 08       		.byte	0x8
 2708 0053 83020000 		.4byte	.LASF4
 2709 0057 04       		.uleb128 0x4
 2710 0058 02       		.byte	0x2
 2711 0059 05       		.byte	0x5
 2712 005a 83000000 		.4byte	.LASF5
 2713 005e 03       		.uleb128 0x3
ARM GAS  C:\Users\honet\AppData\Local\Temp\ccWT9Ujf.s 			page 57


 2714 005f CA000000 		.4byte	.LASF6
 2715 0063 03       		.byte	0x3
 2716 0064 2B       		.byte	0x2b
 2717 0065 69000000 		.4byte	0x69
 2718 0069 04       		.uleb128 0x4
 2719 006a 02       		.byte	0x2
 2720 006b 07       		.byte	0x7
 2721 006c 60030000 		.4byte	.LASF7
 2722 0070 03       		.uleb128 0x3
 2723 0071 19040000 		.4byte	.LASF8
 2724 0075 03       		.byte	0x3
 2725 0076 3F       		.byte	0x3f
 2726 0077 7B000000 		.4byte	0x7b
 2727 007b 04       		.uleb128 0x4
 2728 007c 04       		.byte	0x4
 2729 007d 05       		.byte	0x5
 2730 007e 59010000 		.4byte	.LASF9
 2731 0082 03       		.uleb128 0x3
 2732 0083 BA000000 		.4byte	.LASF10
 2733 0087 03       		.byte	0x3
 2734 0088 41       		.byte	0x41
 2735 0089 8D000000 		.4byte	0x8d
 2736 008d 04       		.uleb128 0x4
 2737 008e 04       		.byte	0x4
 2738 008f 07       		.byte	0x7
 2739 0090 B1030000 		.4byte	.LASF11
 2740 0094 04       		.uleb128 0x4
 2741 0095 08       		.byte	0x8
 2742 0096 05       		.byte	0x5
 2743 0097 43010000 		.4byte	.LASF12
 2744 009b 04       		.uleb128 0x4
 2745 009c 08       		.byte	0x8
 2746 009d 07       		.byte	0x7
 2747 009e AE020000 		.4byte	.LASF13
 2748 00a2 04       		.uleb128 0x4
 2749 00a3 04       		.byte	0x4
 2750 00a4 07       		.byte	0x7
 2751 00a5 92000000 		.4byte	.LASF14
 2752 00a9 05       		.uleb128 0x5
 2753 00aa 04       		.byte	0x4
 2754 00ab AF000000 		.4byte	0xaf
 2755 00af 04       		.uleb128 0x4
 2756 00b0 01       		.byte	0x1
 2757 00b1 08       		.byte	0x8
 2758 00b2 46030000 		.4byte	.LASF15
 2759 00b6 03       		.uleb128 0x3
 2760 00b7 2F040000 		.4byte	.LASF16
 2761 00bb 04       		.byte	0x4
 2762 00bc 15       		.byte	0x15
 2763 00bd 45000000 		.4byte	0x45
 2764 00c1 03       		.uleb128 0x3
 2765 00c2 9A030000 		.4byte	.LASF17
 2766 00c6 04       		.byte	0x4
 2767 00c7 21       		.byte	0x21
 2768 00c8 5E000000 		.4byte	0x5e
 2769 00cc 03       		.uleb128 0x3
 2770 00cd 58030000 		.4byte	.LASF18
ARM GAS  C:\Users\honet\AppData\Local\Temp\ccWT9Ujf.s 			page 58


 2771 00d1 04       		.byte	0x4
 2772 00d2 2C       		.byte	0x2c
 2773 00d3 70000000 		.4byte	0x70
 2774 00d7 03       		.uleb128 0x3
 2775 00d8 C5020000 		.4byte	.LASF19
 2776 00dc 04       		.byte	0x4
 2777 00dd 2D       		.byte	0x2d
 2778 00de 82000000 		.4byte	0x82
 2779 00e2 04       		.uleb128 0x4
 2780 00e3 04       		.byte	0x4
 2781 00e4 04       		.byte	0x4
 2782 00e5 38010000 		.4byte	.LASF20
 2783 00e9 04       		.uleb128 0x4
 2784 00ea 08       		.byte	0x8
 2785 00eb 04       		.byte	0x4
 2786 00ec CB030000 		.4byte	.LASF21
 2787 00f0 03       		.uleb128 0x3
 2788 00f1 53030000 		.4byte	.LASF22
 2789 00f5 05       		.byte	0x5
 2790 00f6 1F       		.byte	0x1f
 2791 00f7 D7000000 		.4byte	0xd7
 2792 00fb 03       		.uleb128 0x3
 2793 00fc C5000000 		.4byte	.LASF23
 2794 0100 05       		.byte	0x5
 2795 0101 22       		.byte	0x22
 2796 0102 B6000000 		.4byte	0xb6
 2797 0106 03       		.uleb128 0x3
 2798 0107 ED000000 		.4byte	.LASF24
 2799 010b 05       		.byte	0x5
 2800 010c 26       		.byte	0x26
 2801 010d C1000000 		.4byte	0xc1
 2802 0111 03       		.uleb128 0x3
 2803 0112 C0010000 		.4byte	.LASF25
 2804 0116 05       		.byte	0x5
 2805 0117 2B       		.byte	0x2b
 2806 0118 D7000000 		.4byte	0xd7
 2807 011c 03       		.uleb128 0x3
 2808 011d 86030000 		.4byte	.LASF26
 2809 0121 05       		.byte	0x5
 2810 0122 88       		.byte	0x88
 2811 0123 11010000 		.4byte	0x111
 2812 0127 06       		.uleb128 0x6
 2813 0128 3002     		.2byte	0x230
 2814 012a 05       		.byte	0x5
 2815 012b 8F       		.byte	0x8f
 2816 012c 08020000 		.4byte	0x208
 2817 0130 07       		.uleb128 0x7
 2818 0131 21000000 		.4byte	.LASF27
 2819 0135 05       		.byte	0x5
 2820 0136 90       		.byte	0x90
 2821 0137 FB000000 		.4byte	0xfb
 2822 013b 00       		.byte	0
 2823 013c 08       		.uleb128 0x8
 2824 013d 64727600 		.ascii	"drv\000"
 2825 0141 05       		.byte	0x5
 2826 0142 91       		.byte	0x91
 2827 0143 FB000000 		.4byte	0xfb
ARM GAS  C:\Users\honet\AppData\Local\Temp\ccWT9Ujf.s 			page 59


 2828 0147 01       		.byte	0x1
 2829 0148 07       		.uleb128 0x7
 2830 0149 00000000 		.4byte	.LASF28
 2831 014d 05       		.byte	0x5
 2832 014e 92       		.byte	0x92
 2833 014f FB000000 		.4byte	0xfb
 2834 0153 02       		.byte	0x2
 2835 0154 07       		.uleb128 0x7
 2836 0155 A3020000 		.4byte	.LASF29
 2837 0159 05       		.byte	0x5
 2838 015a 93       		.byte	0x93
 2839 015b FB000000 		.4byte	0xfb
 2840 015f 03       		.byte	0x3
 2841 0160 07       		.uleb128 0x7
 2842 0161 C6010000 		.4byte	.LASF30
 2843 0165 05       		.byte	0x5
 2844 0166 94       		.byte	0x94
 2845 0167 FB000000 		.4byte	0xfb
 2846 016b 04       		.byte	0x4
 2847 016c 08       		.uleb128 0x8
 2848 016d 696400   		.ascii	"id\000"
 2849 0170 05       		.byte	0x5
 2850 0171 95       		.byte	0x95
 2851 0172 06010000 		.4byte	0x106
 2852 0176 06       		.byte	0x6
 2853 0177 07       		.uleb128 0x7
 2854 0178 FF030000 		.4byte	.LASF31
 2855 017c 05       		.byte	0x5
 2856 017d 96       		.byte	0x96
 2857 017e 06010000 		.4byte	0x106
 2858 0182 08       		.byte	0x8
 2859 0183 07       		.uleb128 0x7
 2860 0184 6A010000 		.4byte	.LASF32
 2861 0188 05       		.byte	0x5
 2862 0189 97       		.byte	0x97
 2863 018a 06010000 		.4byte	0x106
 2864 018e 0A       		.byte	0xa
 2865 018f 07       		.uleb128 0x7
 2866 0190 FB020000 		.4byte	.LASF33
 2867 0194 05       		.byte	0x5
 2868 0195 A5       		.byte	0xa5
 2869 0196 11010000 		.4byte	0x111
 2870 019a 0C       		.byte	0xc
 2871 019b 07       		.uleb128 0x7
 2872 019c D5000000 		.4byte	.LASF34
 2873 01a0 05       		.byte	0x5
 2874 01a1 A6       		.byte	0xa6
 2875 01a2 11010000 		.4byte	0x111
 2876 01a6 10       		.byte	0x10
 2877 01a7 07       		.uleb128 0x7
 2878 01a8 18000000 		.4byte	.LASF35
 2879 01ac 05       		.byte	0x5
 2880 01ad B0       		.byte	0xb0
 2881 01ae 11010000 		.4byte	0x111
 2882 01b2 14       		.byte	0x14
 2883 01b3 07       		.uleb128 0x7
 2884 01b4 E7000000 		.4byte	.LASF36
ARM GAS  C:\Users\honet\AppData\Local\Temp\ccWT9Ujf.s 			page 60


 2885 01b8 05       		.byte	0x5
 2886 01b9 B1       		.byte	0xb1
 2887 01ba 11010000 		.4byte	0x111
 2888 01be 18       		.byte	0x18
 2889 01bf 07       		.uleb128 0x7
 2890 01c0 80010000 		.4byte	.LASF37
 2891 01c4 05       		.byte	0x5
 2892 01c5 B2       		.byte	0xb2
 2893 01c6 11010000 		.4byte	0x111
 2894 01ca 1C       		.byte	0x1c
 2895 01cb 07       		.uleb128 0x7
 2896 01cc 4B030000 		.4byte	.LASF38
 2897 01d0 05       		.byte	0x5
 2898 01d1 B3       		.byte	0xb3
 2899 01d2 11010000 		.4byte	0x111
 2900 01d6 20       		.byte	0x20
 2901 01d7 07       		.uleb128 0x7
 2902 01d8 C0040000 		.4byte	.LASF39
 2903 01dc 05       		.byte	0x5
 2904 01dd B4       		.byte	0xb4
 2905 01de 11010000 		.4byte	0x111
 2906 01e2 24       		.byte	0x24
 2907 01e3 07       		.uleb128 0x7
 2908 01e4 F2020000 		.4byte	.LASF40
 2909 01e8 05       		.byte	0x5
 2910 01e9 B5       		.byte	0xb5
 2911 01ea 11010000 		.4byte	0x111
 2912 01ee 28       		.byte	0x28
 2913 01ef 07       		.uleb128 0x7
 2914 01f0 85040000 		.4byte	.LASF41
 2915 01f4 05       		.byte	0x5
 2916 01f5 B6       		.byte	0xb6
 2917 01f6 11010000 		.4byte	0x111
 2918 01fa 2C       		.byte	0x2c
 2919 01fb 08       		.uleb128 0x8
 2920 01fc 77696E00 		.ascii	"win\000"
 2921 0200 05       		.byte	0x5
 2922 0201 B7       		.byte	0xb7
 2923 0202 08020000 		.4byte	0x208
 2924 0206 30       		.byte	0x30
 2925 0207 00       		.byte	0
 2926 0208 09       		.uleb128 0x9
 2927 0209 FB000000 		.4byte	0xfb
 2928 020d 19020000 		.4byte	0x219
 2929 0211 0A       		.uleb128 0xa
 2930 0212 A2000000 		.4byte	0xa2
 2931 0216 FF01     		.2byte	0x1ff
 2932 0218 00       		.byte	0
 2933 0219 03       		.uleb128 0x3
 2934 021a A3030000 		.4byte	.LASF42
 2935 021e 05       		.byte	0x5
 2936 021f B8       		.byte	0xb8
 2937 0220 27010000 		.4byte	0x127
 2938 0224 0B       		.uleb128 0xb
 2939 0225 10       		.byte	0x10
 2940 0226 05       		.byte	0x5
 2941 0227 BE       		.byte	0xbe
ARM GAS  C:\Users\honet\AppData\Local\Temp\ccWT9Ujf.s 			page 61


 2942 0228 73020000 		.4byte	0x273
 2943 022c 08       		.uleb128 0x8
 2944 022d 667300   		.ascii	"fs\000"
 2945 0230 05       		.byte	0x5
 2946 0231 BF       		.byte	0xbf
 2947 0232 73020000 		.4byte	0x273
 2948 0236 00       		.byte	0
 2949 0237 08       		.uleb128 0x8
 2950 0238 696400   		.ascii	"id\000"
 2951 023b 05       		.byte	0x5
 2952 023c C0       		.byte	0xc0
 2953 023d 06010000 		.4byte	0x106
 2954 0241 04       		.byte	0x4
 2955 0242 07       		.uleb128 0x7
 2956 0243 FA030000 		.4byte	.LASF43
 2957 0247 05       		.byte	0x5
 2958 0248 C1       		.byte	0xc1
 2959 0249 FB000000 		.4byte	0xfb
 2960 024d 06       		.byte	0x6
 2961 024e 07       		.uleb128 0x7
 2962 024f 76040000 		.4byte	.LASF44
 2963 0253 05       		.byte	0x5
 2964 0254 C2       		.byte	0xc2
 2965 0255 FB000000 		.4byte	0xfb
 2966 0259 07       		.byte	0x7
 2967 025a 07       		.uleb128 0x7
 2968 025b 41040000 		.4byte	.LASF45
 2969 025f 05       		.byte	0x5
 2970 0260 C3       		.byte	0xc3
 2971 0261 11010000 		.4byte	0x111
 2972 0265 08       		.byte	0x8
 2973 0266 07       		.uleb128 0x7
 2974 0267 51010000 		.4byte	.LASF46
 2975 026b 05       		.byte	0x5
 2976 026c C4       		.byte	0xc4
 2977 026d 1C010000 		.4byte	0x11c
 2978 0271 0C       		.byte	0xc
 2979 0272 00       		.byte	0
 2980 0273 05       		.uleb128 0x5
 2981 0274 04       		.byte	0x4
 2982 0275 19020000 		.4byte	0x219
 2983 0279 03       		.uleb128 0x3
 2984 027a 70010000 		.4byte	.LASF47
 2985 027e 05       		.byte	0x5
 2986 027f CE       		.byte	0xce
 2987 0280 24020000 		.4byte	0x224
 2988 0284 06       		.uleb128 0x6
 2989 0285 2802     		.2byte	0x228
 2990 0287 05       		.byte	0x5
 2991 0288 D4       		.byte	0xd4
 2992 0289 FA020000 		.4byte	0x2fa
 2993 028d 08       		.uleb128 0x8
 2994 028e 6F626A00 		.ascii	"obj\000"
 2995 0292 05       		.byte	0x5
 2996 0293 D5       		.byte	0xd5
 2997 0294 79020000 		.4byte	0x279
 2998 0298 00       		.byte	0
ARM GAS  C:\Users\honet\AppData\Local\Temp\ccWT9Ujf.s 			page 62


 2999 0299 07       		.uleb128 0x7
 3000 029a 71040000 		.4byte	.LASF48
 3001 029e 05       		.byte	0x5
 3002 029f D6       		.byte	0xd6
 3003 02a0 FB000000 		.4byte	0xfb
 3004 02a4 10       		.byte	0x10
 3005 02a5 08       		.uleb128 0x8
 3006 02a6 65727200 		.ascii	"err\000"
 3007 02aa 05       		.byte	0x5
 3008 02ab D7       		.byte	0xd7
 3009 02ac FB000000 		.4byte	0xfb
 3010 02b0 11       		.byte	0x11
 3011 02b1 07       		.uleb128 0x7
 3012 02b2 19010000 		.4byte	.LASF49
 3013 02b6 05       		.byte	0x5
 3014 02b7 D8       		.byte	0xd8
 3015 02b8 1C010000 		.4byte	0x11c
 3016 02bc 14       		.byte	0x14
 3017 02bd 07       		.uleb128 0x7
 3018 02be 9D020000 		.4byte	.LASF50
 3019 02c2 05       		.byte	0x5
 3020 02c3 D9       		.byte	0xd9
 3021 02c4 11010000 		.4byte	0x111
 3022 02c8 18       		.byte	0x18
 3023 02c9 07       		.uleb128 0x7
 3024 02ca A9020000 		.4byte	.LASF51
 3025 02ce 05       		.byte	0x5
 3026 02cf DA       		.byte	0xda
 3027 02d0 11010000 		.4byte	0x111
 3028 02d4 1C       		.byte	0x1c
 3029 02d5 07       		.uleb128 0x7
 3030 02d6 94040000 		.4byte	.LASF52
 3031 02da 05       		.byte	0x5
 3032 02db DC       		.byte	0xdc
 3033 02dc 11010000 		.4byte	0x111
 3034 02e0 20       		.byte	0x20
 3035 02e1 07       		.uleb128 0x7
 3036 02e2 29030000 		.4byte	.LASF53
 3037 02e6 05       		.byte	0x5
 3038 02e7 DD       		.byte	0xdd
 3039 02e8 FA020000 		.4byte	0x2fa
 3040 02ec 24       		.byte	0x24
 3041 02ed 08       		.uleb128 0x8
 3042 02ee 62756600 		.ascii	"buf\000"
 3043 02f2 05       		.byte	0x5
 3044 02f3 E3       		.byte	0xe3
 3045 02f4 08020000 		.4byte	0x208
 3046 02f8 28       		.byte	0x28
 3047 02f9 00       		.byte	0
 3048 02fa 05       		.uleb128 0x5
 3049 02fb 04       		.byte	0x4
 3050 02fc FB000000 		.4byte	0xfb
 3051 0300 0C       		.uleb128 0xc
 3052 0301 46494C00 		.ascii	"FIL\000"
 3053 0305 05       		.byte	0x5
 3054 0306 E5       		.byte	0xe5
 3055 0307 84020000 		.4byte	0x284
ARM GAS  C:\Users\honet\AppData\Local\Temp\ccWT9Ujf.s 			page 63


 3056 030b 0D       		.uleb128 0xd
 3057 030c 01       		.byte	0x1
 3058 030d 05       		.byte	0x5
 3059 030e 0F01     		.2byte	0x10f
 3060 0310 8D030000 		.4byte	0x38d
 3061 0314 0E       		.uleb128 0xe
 3062 0315 04010000 		.4byte	.LASF54
 3063 0319 00       		.sleb128 0
 3064 031a 0E       		.uleb128 0xe
 3065 031b 91020000 		.4byte	.LASF55
 3066 031f 01       		.sleb128 1
 3067 0320 0E       		.uleb128 0xe
 3068 0321 0E040000 		.4byte	.LASF56
 3069 0325 02       		.sleb128 2
 3070 0326 0E       		.uleb128 0xe
 3071 0327 98010000 		.4byte	.LASF57
 3072 032b 03       		.sleb128 3
 3073 032c 0E       		.uleb128 0xe
 3074 032d EF030000 		.4byte	.LASF58
 3075 0331 04       		.sleb128 4
 3076 0332 0E       		.uleb128 0xe
 3077 0333 AF000000 		.4byte	.LASF59
 3078 0337 05       		.sleb128 5
 3079 0338 0E       		.uleb128 0xe
 3080 0339 B0040000 		.4byte	.LASF60
 3081 033d 06       		.sleb128 6
 3082 033e 0E       		.uleb128 0xe
 3083 033f 0E000000 		.4byte	.LASF61
 3084 0343 07       		.sleb128 7
 3085 0344 0E       		.uleb128 0xe
 3086 0345 3D030000 		.4byte	.LASF62
 3087 0349 08       		.sleb128 8
 3088 034a 0E       		.uleb128 0xe
 3089 034b F2000000 		.4byte	.LASF63
 3090 034f 09       		.sleb128 9
 3091 0350 0E       		.uleb128 0xe
 3092 0351 A5010000 		.4byte	.LASF64
 3093 0355 0A       		.sleb128 10
 3094 0356 0E       		.uleb128 0xe
 3095 0357 48040000 		.4byte	.LASF65
 3096 035b 0B       		.sleb128 11
 3097 035c 0E       		.uleb128 0xe
 3098 035d 1A030000 		.4byte	.LASF66
 3099 0361 0C       		.sleb128 12
 3100 0362 0E       		.uleb128 0xe
 3101 0363 1E010000 		.4byte	.LASF67
 3102 0367 0D       		.sleb128 13
 3103 0368 0E       		.uleb128 0xe
 3104 0369 88010000 		.4byte	.LASF68
 3105 036d 0E       		.sleb128 14
 3106 036e 0E       		.uleb128 0xe
 3107 036f D2030000 		.4byte	.LASF69
 3108 0373 0F       		.sleb128 15
 3109 0374 0E       		.uleb128 0xe
 3110 0375 7B040000 		.4byte	.LASF70
 3111 0379 10       		.sleb128 16
 3112 037a 0E       		.uleb128 0xe
ARM GAS  C:\Users\honet\AppData\Local\Temp\ccWT9Ujf.s 			page 64


 3113 037b 9D040000 		.4byte	.LASF71
 3114 037f 11       		.sleb128 17
 3115 0380 0E       		.uleb128 0xe
 3116 0381 DB020000 		.4byte	.LASF72
 3117 0385 12       		.sleb128 18
 3118 0386 0E       		.uleb128 0xe
 3119 0387 05030000 		.4byte	.LASF73
 3120 038b 13       		.sleb128 19
 3121 038c 00       		.byte	0
 3122 038d 0F       		.uleb128 0xf
 3123 038e C3030000 		.4byte	.LASF74
 3124 0392 05       		.byte	0x5
 3125 0393 2401     		.2byte	0x124
 3126 0395 0B030000 		.4byte	0x30b
 3127 0399 0F       		.uleb128 0xf
 3128 039a B8010000 		.4byte	.LASF75
 3129 039e 05       		.byte	0x5
 3130 039f 9E01     		.2byte	0x19e
 3131 03a1 FB000000 		.4byte	0xfb
 3132 03a5 10       		.uleb128 0x10
 3133 03a6 79020000 		.4byte	.LASF76
 3134 03aa 01       		.byte	0x1
 3135 03ab 14       		.byte	0x14
 3136 03ac 00000000 		.4byte	.LFB63
 3137 03b0 18000000 		.4byte	.LFE63-.LFB63
 3138 03b4 01       		.uleb128 0x1
 3139 03b5 9C       		.byte	0x9c
 3140 03b6 10       		.uleb128 0x10
 3141 03b7 8E030000 		.4byte	.LASF77
 3142 03bb 01       		.byte	0x1
 3143 03bc 1A       		.byte	0x1a
 3144 03bd 00000000 		.4byte	.LFB64
 3145 03c1 0E000000 		.4byte	.LFE64-.LFB64
 3146 03c5 01       		.uleb128 0x1
 3147 03c6 9C       		.byte	0x9c
 3148 03c7 10       		.uleb128 0x10
 3149 03c8 73030000 		.4byte	.LASF78
 3150 03cc 01       		.byte	0x1
 3151 03cd 20       		.byte	0x20
 3152 03ce 00000000 		.4byte	.LFB65
 3153 03d2 0E000000 		.4byte	.LFE65-.LFB65
 3154 03d6 01       		.uleb128 0x1
 3155 03d7 9C       		.byte	0x9c
 3156 03d8 11       		.uleb128 0x11
 3157 03d9 0A010000 		.4byte	.LASF79
 3158 03dd 01       		.byte	0x1
 3159 03de 2D       		.byte	0x2d
 3160 03df 00000000 		.4byte	.LFB66
 3161 03e3 12000000 		.4byte	.LFE66-.LFB66
 3162 03e7 01       		.uleb128 0x1
 3163 03e8 9C       		.byte	0x9c
 3164 03e9 FC030000 		.4byte	0x3fc
 3165 03ed 12       		.uleb128 0x12
 3166 03ee 29000000 		.4byte	.LASF81
 3167 03f2 01       		.byte	0x1
 3168 03f3 2D       		.byte	0x2d
 3169 03f4 A9000000 		.4byte	0xa9
ARM GAS  C:\Users\honet\AppData\Local\Temp\ccWT9Ujf.s 			page 65


 3170 03f8 02       		.uleb128 0x2
 3171 03f9 91       		.byte	0x91
 3172 03fa 74       		.sleb128 -12
 3173 03fb 00       		.byte	0
 3174 03fc 13       		.uleb128 0x13
 3175 03fd 8D040000 		.4byte	.LASF80
 3176 0401 01       		.byte	0x1
 3177 0402 33       		.byte	0x33
 3178 0403 00000000 		.4byte	.LFB67
 3179 0407 8C040000 		.4byte	.LFE67-.LFB67
 3180 040b 01       		.uleb128 0x1
 3181 040c 9C       		.byte	0x9c
 3182 040d C7060000 		.4byte	0x6c7
 3183 0411 12       		.uleb128 0x12
 3184 0412 3E010000 		.4byte	.LASF82
 3185 0416 01       		.byte	0x1
 3186 0417 33       		.byte	0x33
 3187 0418 A9000000 		.4byte	0xa9
 3188 041c 03       		.uleb128 0x3
 3189 041d 91       		.byte	0x91
 3190 041e EC7E     		.sleb128 -148
 3191 0420 14       		.uleb128 0x14
 3192 0421 65787000 		.ascii	"exp\000"
 3193 0425 01       		.byte	0x1
 3194 0426 33       		.byte	0x33
 3195 0427 8D030000 		.4byte	0x38d
 3196 042b 03       		.uleb128 0x3
 3197 042c 91       		.byte	0x91
 3198 042d EB7E     		.sleb128 -149
 3199 042f 15       		.uleb128 0x15
 3200 0430 14000000 		.4byte	.LBB2
 3201 0434 24000000 		.4byte	.LBE2-.LBB2
 3202 0438 4C040000 		.4byte	0x44c
 3203 043c 16       		.uleb128 0x16
 3204 043d 73747200 		.ascii	"str\000"
 3205 0441 01       		.byte	0x1
 3206 0442 35       		.byte	0x35
 3207 0443 C7060000 		.4byte	0x6c7
 3208 0447 03       		.uleb128 0x3
 3209 0448 91       		.byte	0x91
 3210 0449 F07E     		.sleb128 -144
 3211 044b 00       		.byte	0
 3212 044c 15       		.uleb128 0x15
 3213 044d 98000000 		.4byte	.LBB3
 3214 0451 26000000 		.4byte	.LBE3-.LBB3
 3215 0455 69040000 		.4byte	0x469
 3216 0459 16       		.uleb128 0x16
 3217 045a 73747200 		.ascii	"str\000"
 3218 045e 01       		.byte	0x1
 3219 045f 37       		.byte	0x37
 3220 0460 C7060000 		.4byte	0x6c7
 3221 0464 03       		.uleb128 0x3
 3222 0465 91       		.byte	0x91
 3223 0466 F07E     		.sleb128 -144
 3224 0468 00       		.byte	0
 3225 0469 15       		.uleb128 0x15
 3226 046a C0000000 		.4byte	.LBB4
ARM GAS  C:\Users\honet\AppData\Local\Temp\ccWT9Ujf.s 			page 66


 3227 046e 22000000 		.4byte	.LBE4-.LBB4
 3228 0472 86040000 		.4byte	0x486
 3229 0476 16       		.uleb128 0x16
 3230 0477 73747200 		.ascii	"str\000"
 3231 047b 01       		.byte	0x1
 3232 047c 38       		.byte	0x38
 3233 047d C7060000 		.4byte	0x6c7
 3234 0481 03       		.uleb128 0x3
 3235 0482 91       		.byte	0x91
 3236 0483 F07E     		.sleb128 -144
 3237 0485 00       		.byte	0
 3238 0486 15       		.uleb128 0x15
 3239 0487 E4000000 		.4byte	.LBB5
 3240 048b 28000000 		.4byte	.LBE5-.LBB5
 3241 048f A3040000 		.4byte	0x4a3
 3242 0493 16       		.uleb128 0x16
 3243 0494 73747200 		.ascii	"str\000"
 3244 0498 01       		.byte	0x1
 3245 0499 39       		.byte	0x39
 3246 049a C7060000 		.4byte	0x6c7
 3247 049e 03       		.uleb128 0x3
 3248 049f 91       		.byte	0x91
 3249 04a0 F07E     		.sleb128 -144
 3250 04a2 00       		.byte	0
 3251 04a3 15       		.uleb128 0x15
 3252 04a4 0E010000 		.4byte	.LBB6
 3253 04a8 26000000 		.4byte	.LBE6-.LBB6
 3254 04ac C0040000 		.4byte	0x4c0
 3255 04b0 16       		.uleb128 0x16
 3256 04b1 73747200 		.ascii	"str\000"
 3257 04b5 01       		.byte	0x1
 3258 04b6 3A       		.byte	0x3a
 3259 04b7 C7060000 		.4byte	0x6c7
 3260 04bb 03       		.uleb128 0x3
 3261 04bc 91       		.byte	0x91
 3262 04bd F07E     		.sleb128 -144
 3263 04bf 00       		.byte	0
 3264 04c0 15       		.uleb128 0x15
 3265 04c1 36010000 		.4byte	.LBB7
 3266 04c5 28000000 		.4byte	.LBE7-.LBB7
 3267 04c9 DD040000 		.4byte	0x4dd
 3268 04cd 16       		.uleb128 0x16
 3269 04ce 73747200 		.ascii	"str\000"
 3270 04d2 01       		.byte	0x1
 3271 04d3 3B       		.byte	0x3b
 3272 04d4 C7060000 		.4byte	0x6c7
 3273 04d8 03       		.uleb128 0x3
 3274 04d9 91       		.byte	0x91
 3275 04da F07E     		.sleb128 -144
 3276 04dc 00       		.byte	0
 3277 04dd 15       		.uleb128 0x15
 3278 04de 60010000 		.4byte	.LBB8
 3279 04e2 28000000 		.4byte	.LBE8-.LBB8
 3280 04e6 FA040000 		.4byte	0x4fa
 3281 04ea 16       		.uleb128 0x16
 3282 04eb 73747200 		.ascii	"str\000"
 3283 04ef 01       		.byte	0x1
ARM GAS  C:\Users\honet\AppData\Local\Temp\ccWT9Ujf.s 			page 67


 3284 04f0 3C       		.byte	0x3c
 3285 04f1 C7060000 		.4byte	0x6c7
 3286 04f5 03       		.uleb128 0x3
 3287 04f6 91       		.byte	0x91
 3288 04f7 F07E     		.sleb128 -144
 3289 04f9 00       		.byte	0
 3290 04fa 15       		.uleb128 0x15
 3291 04fb 8A010000 		.4byte	.LBB9
 3292 04ff 26000000 		.4byte	.LBE9-.LBB9
 3293 0503 17050000 		.4byte	0x517
 3294 0507 16       		.uleb128 0x16
 3295 0508 73747200 		.ascii	"str\000"
 3296 050c 01       		.byte	0x1
 3297 050d 3D       		.byte	0x3d
 3298 050e C7060000 		.4byte	0x6c7
 3299 0512 03       		.uleb128 0x3
 3300 0513 91       		.byte	0x91
 3301 0514 F07E     		.sleb128 -144
 3302 0516 00       		.byte	0
 3303 0517 15       		.uleb128 0x15
 3304 0518 B2010000 		.4byte	.LBB10
 3305 051c 22000000 		.4byte	.LBE10-.LBB10
 3306 0520 34050000 		.4byte	0x534
 3307 0524 16       		.uleb128 0x16
 3308 0525 73747200 		.ascii	"str\000"
 3309 0529 01       		.byte	0x1
 3310 052a 3E       		.byte	0x3e
 3311 052b C7060000 		.4byte	0x6c7
 3312 052f 03       		.uleb128 0x3
 3313 0530 91       		.byte	0x91
 3314 0531 F07E     		.sleb128 -144
 3315 0533 00       		.byte	0
 3316 0534 15       		.uleb128 0x15
 3317 0535 D6010000 		.4byte	.LBB11
 3318 0539 22000000 		.4byte	.LBE11-.LBB11
 3319 053d 51050000 		.4byte	0x551
 3320 0541 16       		.uleb128 0x16
 3321 0542 73747200 		.ascii	"str\000"
 3322 0546 01       		.byte	0x1
 3323 0547 3F       		.byte	0x3f
 3324 0548 C7060000 		.4byte	0x6c7
 3325 054c 03       		.uleb128 0x3
 3326 054d 91       		.byte	0x91
 3327 054e F07E     		.sleb128 -144
 3328 0550 00       		.byte	0
 3329 0551 15       		.uleb128 0x15
 3330 0552 FA010000 		.4byte	.LBB12
 3331 0556 28000000 		.4byte	.LBE12-.LBB12
 3332 055a 6E050000 		.4byte	0x56e
 3333 055e 16       		.uleb128 0x16
 3334 055f 73747200 		.ascii	"str\000"
 3335 0563 01       		.byte	0x1
 3336 0564 40       		.byte	0x40
 3337 0565 C7060000 		.4byte	0x6c7
 3338 0569 03       		.uleb128 0x3
 3339 056a 91       		.byte	0x91
 3340 056b F07E     		.sleb128 -144
ARM GAS  C:\Users\honet\AppData\Local\Temp\ccWT9Ujf.s 			page 68


 3341 056d 00       		.byte	0
 3342 056e 15       		.uleb128 0x15
 3343 056f 24020000 		.4byte	.LBB13
 3344 0573 30000000 		.4byte	.LBE13-.LBB13
 3345 0577 8B050000 		.4byte	0x58b
 3346 057b 16       		.uleb128 0x16
 3347 057c 73747200 		.ascii	"str\000"
 3348 0580 01       		.byte	0x1
 3349 0581 41       		.byte	0x41
 3350 0582 C7060000 		.4byte	0x6c7
 3351 0586 03       		.uleb128 0x3
 3352 0587 91       		.byte	0x91
 3353 0588 F07E     		.sleb128 -144
 3354 058a 00       		.byte	0
 3355 058b 15       		.uleb128 0x15
 3356 058c 56020000 		.4byte	.LBB14
 3357 0590 28000000 		.4byte	.LBE14-.LBB14
 3358 0594 A8050000 		.4byte	0x5a8
 3359 0598 16       		.uleb128 0x16
 3360 0599 73747200 		.ascii	"str\000"
 3361 059d 01       		.byte	0x1
 3362 059e 42       		.byte	0x42
 3363 059f C7060000 		.4byte	0x6c7
 3364 05a3 03       		.uleb128 0x3
 3365 05a4 91       		.byte	0x91
 3366 05a5 F07E     		.sleb128 -144
 3367 05a7 00       		.byte	0
 3368 05a8 15       		.uleb128 0x15
 3369 05a9 80020000 		.4byte	.LBB15
 3370 05ad 2C000000 		.4byte	.LBE15-.LBB15
 3371 05b1 C5050000 		.4byte	0x5c5
 3372 05b5 16       		.uleb128 0x16
 3373 05b6 73747200 		.ascii	"str\000"
 3374 05ba 01       		.byte	0x1
 3375 05bb 43       		.byte	0x43
 3376 05bc C7060000 		.4byte	0x6c7
 3377 05c0 03       		.uleb128 0x3
 3378 05c1 91       		.byte	0x91
 3379 05c2 F07E     		.sleb128 -144
 3380 05c4 00       		.byte	0
 3381 05c5 15       		.uleb128 0x15
 3382 05c6 AE020000 		.4byte	.LBB16
 3383 05ca 28000000 		.4byte	.LBE16-.LBB16
 3384 05ce E2050000 		.4byte	0x5e2
 3385 05d2 16       		.uleb128 0x16
 3386 05d3 73747200 		.ascii	"str\000"
 3387 05d7 01       		.byte	0x1
 3388 05d8 44       		.byte	0x44
 3389 05d9 C7060000 		.4byte	0x6c7
 3390 05dd 03       		.uleb128 0x3
 3391 05de 91       		.byte	0x91
 3392 05df F07E     		.sleb128 -144
 3393 05e1 00       		.byte	0
 3394 05e2 15       		.uleb128 0x15
 3395 05e3 D8020000 		.4byte	.LBB17
 3396 05e7 26000000 		.4byte	.LBE17-.LBB17
 3397 05eb FF050000 		.4byte	0x5ff
ARM GAS  C:\Users\honet\AppData\Local\Temp\ccWT9Ujf.s 			page 69


 3398 05ef 16       		.uleb128 0x16
 3399 05f0 73747200 		.ascii	"str\000"
 3400 05f4 01       		.byte	0x1
 3401 05f5 45       		.byte	0x45
 3402 05f6 C7060000 		.4byte	0x6c7
 3403 05fa 03       		.uleb128 0x3
 3404 05fb 91       		.byte	0x91
 3405 05fc F07E     		.sleb128 -144
 3406 05fe 00       		.byte	0
 3407 05ff 15       		.uleb128 0x15
 3408 0600 00030000 		.4byte	.LBB18
 3409 0604 28000000 		.4byte	.LBE18-.LBB18
 3410 0608 1C060000 		.4byte	0x61c
 3411 060c 16       		.uleb128 0x16
 3412 060d 73747200 		.ascii	"str\000"
 3413 0611 01       		.byte	0x1
 3414 0612 46       		.byte	0x46
 3415 0613 C7060000 		.4byte	0x6c7
 3416 0617 03       		.uleb128 0x3
 3417 0618 91       		.byte	0x91
 3418 0619 F07E     		.sleb128 -144
 3419 061b 00       		.byte	0
 3420 061c 15       		.uleb128 0x15
 3421 061d 70030000 		.4byte	.LBB19
 3422 0621 22000000 		.4byte	.LBE19-.LBB19
 3423 0625 39060000 		.4byte	0x639
 3424 0629 16       		.uleb128 0x16
 3425 062a 73747200 		.ascii	"str\000"
 3426 062e 01       		.byte	0x1
 3427 062f 47       		.byte	0x47
 3428 0630 C7060000 		.4byte	0x6c7
 3429 0634 03       		.uleb128 0x3
 3430 0635 91       		.byte	0x91
 3431 0636 F07E     		.sleb128 -144
 3432 0638 00       		.byte	0
 3433 0639 15       		.uleb128 0x15
 3434 063a 94030000 		.4byte	.LBB20
 3435 063e 30000000 		.4byte	.LBE20-.LBB20
 3436 0642 56060000 		.4byte	0x656
 3437 0646 16       		.uleb128 0x16
 3438 0647 73747200 		.ascii	"str\000"
 3439 064b 01       		.byte	0x1
 3440 064c 48       		.byte	0x48
 3441 064d C7060000 		.4byte	0x6c7
 3442 0651 03       		.uleb128 0x3
 3443 0652 91       		.byte	0x91
 3444 0653 F07E     		.sleb128 -144
 3445 0655 00       		.byte	0
 3446 0656 15       		.uleb128 0x15
 3447 0657 C6030000 		.4byte	.LBB21
 3448 065b 34000000 		.4byte	.LBE21-.LBB21
 3449 065f 73060000 		.4byte	0x673
 3450 0663 16       		.uleb128 0x16
 3451 0664 73747200 		.ascii	"str\000"
 3452 0668 01       		.byte	0x1
 3453 0669 49       		.byte	0x49
 3454 066a C7060000 		.4byte	0x6c7
ARM GAS  C:\Users\honet\AppData\Local\Temp\ccWT9Ujf.s 			page 70


 3455 066e 03       		.uleb128 0x3
 3456 066f 91       		.byte	0x91
 3457 0670 F07E     		.sleb128 -144
 3458 0672 00       		.byte	0
 3459 0673 15       		.uleb128 0x15
 3460 0674 FC030000 		.4byte	.LBB22
 3461 0678 2E000000 		.4byte	.LBE22-.LBB22
 3462 067c 90060000 		.4byte	0x690
 3463 0680 16       		.uleb128 0x16
 3464 0681 73747200 		.ascii	"str\000"
 3465 0685 01       		.byte	0x1
 3466 0686 4A       		.byte	0x4a
 3467 0687 C7060000 		.4byte	0x6c7
 3468 068b 03       		.uleb128 0x3
 3469 068c 91       		.byte	0x91
 3470 068d F07E     		.sleb128 -144
 3471 068f 00       		.byte	0
 3472 0690 15       		.uleb128 0x15
 3473 0691 2C040000 		.4byte	.LBB23
 3474 0695 26000000 		.4byte	.LBE23-.LBB23
 3475 0699 AD060000 		.4byte	0x6ad
 3476 069d 16       		.uleb128 0x16
 3477 069e 73747200 		.ascii	"str\000"
 3478 06a2 01       		.byte	0x1
 3479 06a3 4B       		.byte	0x4b
 3480 06a4 C7060000 		.4byte	0x6c7
 3481 06a8 03       		.uleb128 0x3
 3482 06a9 91       		.byte	0x91
 3483 06aa F07E     		.sleb128 -144
 3484 06ac 00       		.byte	0
 3485 06ad 17       		.uleb128 0x17
 3486 06ae 52040000 		.4byte	.LBB24
 3487 06b2 1E000000 		.4byte	.LBE24-.LBB24
 3488 06b6 16       		.uleb128 0x16
 3489 06b7 73747200 		.ascii	"str\000"
 3490 06bb 01       		.byte	0x1
 3491 06bc 4D       		.byte	0x4d
 3492 06bd C7060000 		.4byte	0x6c7
 3493 06c1 03       		.uleb128 0x3
 3494 06c2 91       		.byte	0x91
 3495 06c3 F07E     		.sleb128 -144
 3496 06c5 00       		.byte	0
 3497 06c6 00       		.byte	0
 3498 06c7 09       		.uleb128 0x9
 3499 06c8 AF000000 		.4byte	0xaf
 3500 06cc D7060000 		.4byte	0x6d7
 3501 06d0 18       		.uleb128 0x18
 3502 06d1 A2000000 		.4byte	0xa2
 3503 06d5 7F       		.byte	0x7f
 3504 06d6 00       		.byte	0
 3505 06d7 19       		.uleb128 0x19
 3506 06d8 62010000 		.4byte	.LASF103
 3507 06dc 01       		.byte	0x1
 3508 06dd 5C       		.byte	0x5c
 3509 06de 00000000 		.4byte	.LFB68
 3510 06e2 0C0D0000 		.4byte	.LFE68-.LFB68
 3511 06e6 01       		.uleb128 0x1
ARM GAS  C:\Users\honet\AppData\Local\Temp\ccWT9Ujf.s 			page 71


 3512 06e7 9C       		.byte	0x9c
 3513 06e8 6D0F0000 		.4byte	0xf6d
 3514 06ec 1A       		.uleb128 0x1a
 3515 06ed 13010000 		.4byte	.LASF83
 3516 06f1 01       		.byte	0x1
 3517 06f2 5E       		.byte	0x5e
 3518 06f3 D7000000 		.4byte	0xd7
 3519 06f7 02       		.uleb128 0x2
 3520 06f8 91       		.byte	0x91
 3521 06f9 50       		.sleb128 -48
 3522 06fa 1A       		.uleb128 0x1a
 3523 06fb 09040000 		.4byte	.LASF84
 3524 06ff 01       		.byte	0x1
 3525 0700 5F       		.byte	0x5f
 3526 0701 6D0F0000 		.4byte	0xf6d
 3527 0705 03       		.uleb128 0x3
 3528 0706 91       		.byte	0x91
 3529 0707 48       		.sleb128 -56
 3530 0708 06       		.byte	0x6
 3531 0709 1A       		.uleb128 0x1a
 3532 070a 07000000 		.4byte	.LASF85
 3533 070e 01       		.byte	0x1
 3534 070f 61       		.byte	0x61
 3535 0710 800F0000 		.4byte	0xf80
 3536 0714 03       		.uleb128 0x3
 3537 0715 91       		.byte	0x91
 3538 0716 CC7D     		.sleb128 -308
 3539 0718 16       		.uleb128 0x16
 3540 0719 72657300 		.ascii	"res\000"
 3541 071d 01       		.byte	0x1
 3542 071e 62       		.byte	0x62
 3543 071f 8D030000 		.4byte	0x38d
 3544 0723 02       		.uleb128 0x2
 3545 0724 91       		.byte	0x91
 3546 0725 45       		.sleb128 -59
 3547 0726 1A       		.uleb128 0x1a
 3548 0727 59040000 		.4byte	.LASF86
 3549 072b 01       		.byte	0x1
 3550 072c 63       		.byte	0x63
 3551 072d F0000000 		.4byte	0xf0
 3552 0731 03       		.uleb128 0x3
 3553 0732 91       		.byte	0x91
 3554 0733 C87D     		.sleb128 -312
 3555 0735 1A       		.uleb128 0x1a
 3556 0736 37040000 		.4byte	.LASF87
 3557 073a 01       		.byte	0x1
 3558 073b 63       		.byte	0x63
 3559 073c F0000000 		.4byte	0xf0
 3560 0740 03       		.uleb128 0x3
 3561 0741 91       		.byte	0x91
 3562 0742 C47D     		.sleb128 -316
 3563 0744 1A       		.uleb128 0x1a
 3564 0745 CF010000 		.4byte	.LASF88
 3565 0749 01       		.byte	0x1
 3566 074a 65       		.byte	0x65
 3567 074b 19020000 		.4byte	0x219
 3568 074f 03       		.uleb128 0x3
ARM GAS  C:\Users\honet\AppData\Local\Temp\ccWT9Ujf.s 			page 72


 3569 0750 91       		.byte	0x91
 3570 0751 9479     		.sleb128 -876
 3571 0753 1A       		.uleb128 0x1a
 3572 0754 DD030000 		.4byte	.LASF89
 3573 0758 01       		.byte	0x1
 3574 0759 68       		.byte	0x68
 3575 075a 99030000 		.4byte	0x399
 3576 075e 02       		.uleb128 0x2
 3577 075f 91       		.byte	0x91
 3578 0760 47       		.sleb128 -57
 3579 0761 1A       		.uleb128 0x1a
 3580 0762 8D000000 		.4byte	.LASF90
 3581 0766 01       		.byte	0x1
 3582 0767 6D       		.byte	0x6d
 3583 0768 8D030000 		.4byte	0x38d
 3584 076c 02       		.uleb128 0x2
 3585 076d 91       		.byte	0x91
 3586 076e 46       		.sleb128 -58
 3587 076f 1B       		.uleb128 0x1b
 3588 0770 2F010000 		.4byte	.LASF104
 3589 0774 01       		.byte	0x1
 3590 0775 1A01     		.2byte	0x11a
 3591 0777 BE0C0000 		.4byte	.L75
 3592 077b 1A       		.uleb128 0x1a
 3593 077c A0000000 		.4byte	.LASF91
 3594 0780 01       		.byte	0x1
 3595 0781 9D       		.byte	0x9d
 3596 0782 8D000000 		.4byte	0x8d
 3597 0786 03       		.uleb128 0x3
 3598 0787 91       		.byte	0x91
 3599 0788 B07F     		.sleb128 -80
 3600 078a 1A       		.uleb128 0x1a
 3601 078b DF000000 		.4byte	.LASF92
 3602 078f 01       		.byte	0x1
 3603 0790 9E       		.byte	0x9e
 3604 0791 00030000 		.4byte	0x300
 3605 0795 03       		.uleb128 0x3
 3606 0796 91       		.byte	0x91
 3607 0797 EC74     		.sleb128 -1428
 3608 0799 1A       		.uleb128 0x1a
 3609 079a 6B040000 		.4byte	.LASF93
 3610 079e 01       		.byte	0x1
 3611 079f A9       		.byte	0xa9
 3612 07a0 8D000000 		.4byte	0x8d
 3613 07a4 03       		.uleb128 0x3
 3614 07a5 91       		.byte	0x91
 3615 07a6 AC7F     		.sleb128 -84
 3616 07a8 1A       		.uleb128 0x1a
 3617 07a9 7E000000 		.4byte	.LASF94
 3618 07ad 01       		.byte	0x1
 3619 07ae AC       		.byte	0xac
 3620 07af 8D000000 		.4byte	0x8d
 3621 07b3 03       		.uleb128 0x3
 3622 07b4 91       		.byte	0x91
 3623 07b5 A07F     		.sleb128 -96
 3624 07b7 1A       		.uleb128 0x1a
 3625 07b8 31030000 		.4byte	.LASF95
ARM GAS  C:\Users\honet\AppData\Local\Temp\ccWT9Ujf.s 			page 73


 3626 07bc 01       		.byte	0x1
 3627 07bd C6       		.byte	0xc6
 3628 07be 50000000 		.4byte	0x50
 3629 07c2 02       		.uleb128 0x2
 3630 07c3 91       		.byte	0x91
 3631 07c4 63       		.sleb128 -29
 3632 07c5 15       		.uleb128 0x15
 3633 07c6 58000000 		.4byte	.LBB25
 3634 07ca 24000000 		.4byte	.LBE25-.LBB25
 3635 07ce E2070000 		.4byte	0x7e2
 3636 07d2 16       		.uleb128 0x16
 3637 07d3 73747200 		.ascii	"str\000"
 3638 07d7 01       		.byte	0x1
 3639 07d8 67       		.byte	0x67
 3640 07d9 C7060000 		.4byte	0x6c7
 3641 07dd 03       		.uleb128 0x3
 3642 07de 91       		.byte	0x91
 3643 07df A873     		.sleb128 -1624
 3644 07e1 00       		.byte	0
 3645 07e2 15       		.uleb128 0x15
 3646 07e3 88000000 		.4byte	.LBB26
 3647 07e7 24000000 		.4byte	.LBE26-.LBB26
 3648 07eb FF070000 		.4byte	0x7ff
 3649 07ef 16       		.uleb128 0x16
 3650 07f0 73747200 		.ascii	"str\000"
 3651 07f4 01       		.byte	0x1
 3652 07f5 69       		.byte	0x69
 3653 07f6 C7060000 		.4byte	0x6c7
 3654 07fa 03       		.uleb128 0x3
 3655 07fb 91       		.byte	0x91
 3656 07fc A873     		.sleb128 -1624
 3657 07fe 00       		.byte	0
 3658 07ff 15       		.uleb128 0x15
 3659 0800 CA000000 		.4byte	.LBB27
 3660 0804 28000000 		.4byte	.LBE27-.LBB27
 3661 0808 1C080000 		.4byte	0x81c
 3662 080c 16       		.uleb128 0x16
 3663 080d 73747200 		.ascii	"str\000"
 3664 0811 01       		.byte	0x1
 3665 0812 6F       		.byte	0x6f
 3666 0813 C7060000 		.4byte	0x6c7
 3667 0817 03       		.uleb128 0x3
 3668 0818 91       		.byte	0x91
 3669 0819 A873     		.sleb128 -1624
 3670 081b 00       		.byte	0
 3671 081c 15       		.uleb128 0x15
 3672 081d 38010000 		.4byte	.LBB28
 3673 0821 24000000 		.4byte	.LBE28-.LBB28
 3674 0825 39080000 		.4byte	0x839
 3675 0829 16       		.uleb128 0x16
 3676 082a 73747200 		.ascii	"str\000"
 3677 082e 01       		.byte	0x1
 3678 082f 71       		.byte	0x71
 3679 0830 C7060000 		.4byte	0x6c7
 3680 0834 03       		.uleb128 0x3
 3681 0835 91       		.byte	0x91
 3682 0836 A873     		.sleb128 -1624
ARM GAS  C:\Users\honet\AppData\Local\Temp\ccWT9Ujf.s 			page 74


 3683 0838 00       		.byte	0
 3684 0839 15       		.uleb128 0x15
 3685 083a 5E010000 		.4byte	.LBB29
 3686 083e 22000000 		.4byte	.LBE29-.LBB29
 3687 0842 56080000 		.4byte	0x856
 3688 0846 16       		.uleb128 0x16
 3689 0847 73747200 		.ascii	"str\000"
 3690 084b 01       		.byte	0x1
 3691 084c 72       		.byte	0x72
 3692 084d C7060000 		.4byte	0x6c7
 3693 0851 03       		.uleb128 0x3
 3694 0852 91       		.byte	0x91
 3695 0853 A873     		.sleb128 -1624
 3696 0855 00       		.byte	0
 3697 0856 15       		.uleb128 0x15
 3698 0857 82010000 		.4byte	.LBB30
 3699 085b 22000000 		.4byte	.LBE30-.LBB30
 3700 085f 73080000 		.4byte	0x873
 3701 0863 16       		.uleb128 0x16
 3702 0864 73747200 		.ascii	"str\000"
 3703 0868 01       		.byte	0x1
 3704 0869 73       		.byte	0x73
 3705 086a C7060000 		.4byte	0x6c7
 3706 086e 03       		.uleb128 0x3
 3707 086f 91       		.byte	0x91
 3708 0870 A873     		.sleb128 -1624
 3709 0872 00       		.byte	0
 3710 0873 15       		.uleb128 0x15
 3711 0874 A6010000 		.4byte	.LBB31
 3712 0878 24000000 		.4byte	.LBE31-.LBB31
 3713 087c 90080000 		.4byte	0x890
 3714 0880 16       		.uleb128 0x16
 3715 0881 73747200 		.ascii	"str\000"
 3716 0885 01       		.byte	0x1
 3717 0886 74       		.byte	0x74
 3718 0887 C7060000 		.4byte	0x6c7
 3719 088b 03       		.uleb128 0x3
 3720 088c 91       		.byte	0x91
 3721 088d A873     		.sleb128 -1624
 3722 088f 00       		.byte	0
 3723 0890 15       		.uleb128 0x15
 3724 0891 D2010000 		.4byte	.LBB32
 3725 0895 28000000 		.4byte	.LBE32-.LBB32
 3726 0899 AD080000 		.4byte	0x8ad
 3727 089d 16       		.uleb128 0x16
 3728 089e 73747200 		.ascii	"str\000"
 3729 08a2 01       		.byte	0x1
 3730 08a3 7A       		.byte	0x7a
 3731 08a4 C7060000 		.4byte	0x6c7
 3732 08a8 03       		.uleb128 0x3
 3733 08a9 91       		.byte	0x91
 3734 08aa A873     		.sleb128 -1624
 3735 08ac 00       		.byte	0
 3736 08ad 15       		.uleb128 0x15
 3737 08ae 0C020000 		.4byte	.LBB33
 3738 08b2 28000000 		.4byte	.LBE33-.LBB33
 3739 08b6 CA080000 		.4byte	0x8ca
ARM GAS  C:\Users\honet\AppData\Local\Temp\ccWT9Ujf.s 			page 75


 3740 08ba 16       		.uleb128 0x16
 3741 08bb 73747200 		.ascii	"str\000"
 3742 08bf 01       		.byte	0x1
 3743 08c0 7C       		.byte	0x7c
 3744 08c1 C7060000 		.4byte	0x6c7
 3745 08c5 03       		.uleb128 0x3
 3746 08c6 91       		.byte	0x91
 3747 08c7 A873     		.sleb128 -1624
 3748 08c9 00       		.byte	0
 3749 08ca 15       		.uleb128 0x15
 3750 08cb 36020000 		.4byte	.LBB34
 3751 08cf 28000000 		.4byte	.LBE34-.LBB34
 3752 08d3 E7080000 		.4byte	0x8e7
 3753 08d7 16       		.uleb128 0x16
 3754 08d8 73747200 		.ascii	"str\000"
 3755 08dc 01       		.byte	0x1
 3756 08dd 7D       		.byte	0x7d
 3757 08de C7060000 		.4byte	0x6c7
 3758 08e2 03       		.uleb128 0x3
 3759 08e3 91       		.byte	0x91
 3760 08e4 A873     		.sleb128 -1624
 3761 08e6 00       		.byte	0
 3762 08e7 15       		.uleb128 0x15
 3763 08e8 60020000 		.4byte	.LBB35
 3764 08ec 28000000 		.4byte	.LBE35-.LBB35
 3765 08f0 04090000 		.4byte	0x904
 3766 08f4 16       		.uleb128 0x16
 3767 08f5 73747200 		.ascii	"str\000"
 3768 08f9 01       		.byte	0x1
 3769 08fa 7E       		.byte	0x7e
 3770 08fb C7060000 		.4byte	0x6c7
 3771 08ff 03       		.uleb128 0x3
 3772 0900 91       		.byte	0x91
 3773 0901 A873     		.sleb128 -1624
 3774 0903 00       		.byte	0
 3775 0904 15       		.uleb128 0x15
 3776 0905 8A020000 		.4byte	.LBB36
 3777 0909 1E000000 		.4byte	.LBE36-.LBB36
 3778 090d 21090000 		.4byte	0x921
 3779 0911 16       		.uleb128 0x16
 3780 0912 73747200 		.ascii	"str\000"
 3781 0916 01       		.byte	0x1
 3782 0917 7F       		.byte	0x7f
 3783 0918 C7060000 		.4byte	0x6c7
 3784 091c 03       		.uleb128 0x3
 3785 091d 91       		.byte	0x91
 3786 091e A873     		.sleb128 -1624
 3787 0920 00       		.byte	0
 3788 0921 15       		.uleb128 0x15
 3789 0922 AA020000 		.4byte	.LBB37
 3790 0926 28000000 		.4byte	.LBE37-.LBB37
 3791 092a 3E090000 		.4byte	0x93e
 3792 092e 16       		.uleb128 0x16
 3793 092f 73747200 		.ascii	"str\000"
 3794 0933 01       		.byte	0x1
 3795 0934 85       		.byte	0x85
 3796 0935 C7060000 		.4byte	0x6c7
ARM GAS  C:\Users\honet\AppData\Local\Temp\ccWT9Ujf.s 			page 76


 3797 0939 03       		.uleb128 0x3
 3798 093a 91       		.byte	0x91
 3799 093b A873     		.sleb128 -1624
 3800 093d 00       		.byte	0
 3801 093e 15       		.uleb128 0x15
 3802 093f 08030000 		.4byte	.LBB38
 3803 0943 50000000 		.4byte	.LBE38-.LBB38
 3804 0947 90090000 		.4byte	0x990
 3805 094b 1A       		.uleb128 0x1a
 3806 094c 59040000 		.4byte	.LASF86
 3807 0950 01       		.byte	0x1
 3808 0951 8E       		.byte	0x8e
 3809 0952 F0000000 		.4byte	0xf0
 3810 0956 03       		.uleb128 0x3
 3811 0957 91       		.byte	0x91
 3812 0958 E874     		.sleb128 -1432
 3813 095a 16       		.uleb128 0x16
 3814 095b 737A00   		.ascii	"sz\000"
 3815 095e 01       		.byte	0x1
 3816 095f 8E       		.byte	0x8e
 3817 0960 2C000000 		.4byte	0x2c
 3818 0964 02       		.uleb128 0x2
 3819 0965 91       		.byte	0x91
 3820 0966 40       		.sleb128 -64
 3821 0967 16       		.uleb128 0x16
 3822 0968 72657300 		.ascii	"res\000"
 3823 096c 01       		.byte	0x1
 3824 096d 8E       		.byte	0x8e
 3825 096e 8D030000 		.4byte	0x38d
 3826 0972 03       		.uleb128 0x3
 3827 0973 91       		.byte	0x91
 3828 0974 BF7F     		.sleb128 -65
 3829 0976 17       		.uleb128 0x17
 3830 0977 0E030000 		.4byte	.LBB39
 3831 097b 28000000 		.4byte	.LBE39-.LBB39
 3832 097f 16       		.uleb128 0x16
 3833 0980 73747200 		.ascii	"str\000"
 3834 0984 01       		.byte	0x1
 3835 0985 8E       		.byte	0x8e
 3836 0986 C7060000 		.4byte	0x6c7
 3837 098a 03       		.uleb128 0x3
 3838 098b 91       		.byte	0x91
 3839 098c A873     		.sleb128 -1624
 3840 098e 00       		.byte	0
 3841 098f 00       		.byte	0
 3842 0990 15       		.uleb128 0x15
 3843 0991 58030000 		.4byte	.LBB40
 3844 0995 9E000000 		.4byte	.LBE40-.LBB40
 3845 0999 AA090000 		.4byte	0x9aa
 3846 099d 16       		.uleb128 0x16
 3847 099e 6900     		.ascii	"i\000"
 3848 09a0 01       		.byte	0x1
 3849 09a1 91       		.byte	0x91
 3850 09a2 25000000 		.4byte	0x25
 3851 09a6 02       		.uleb128 0x2
 3852 09a7 91       		.byte	0x91
 3853 09a8 64       		.sleb128 -28
ARM GAS  C:\Users\honet\AppData\Local\Temp\ccWT9Ujf.s 			page 77


 3854 09a9 00       		.byte	0
 3855 09aa 15       		.uleb128 0x15
 3856 09ab F6030000 		.4byte	.LBB41
 3857 09af 4A000000 		.4byte	.LBE41-.LBB41
 3858 09b3 FD090000 		.4byte	0x9fd
 3859 09b7 1A       		.uleb128 0x1a
 3860 09b8 59040000 		.4byte	.LASF86
 3861 09bc 01       		.byte	0x1
 3862 09bd 9A       		.byte	0x9a
 3863 09be F0000000 		.4byte	0xf0
 3864 09c2 03       		.uleb128 0x3
 3865 09c3 91       		.byte	0x91
 3866 09c4 E474     		.sleb128 -1436
 3867 09c6 16       		.uleb128 0x16
 3868 09c7 737A00   		.ascii	"sz\000"
 3869 09ca 01       		.byte	0x1
 3870 09cb 9A       		.byte	0x9a
 3871 09cc 2C000000 		.4byte	0x2c
 3872 09d0 03       		.uleb128 0x3
 3873 09d1 91       		.byte	0x91
 3874 09d2 B87F     		.sleb128 -72
 3875 09d4 16       		.uleb128 0x16
 3876 09d5 72657300 		.ascii	"res\000"
 3877 09d9 01       		.byte	0x1
 3878 09da 9A       		.byte	0x9a
 3879 09db 8D030000 		.4byte	0x38d
 3880 09df 03       		.uleb128 0x3
 3881 09e0 91       		.byte	0x91
 3882 09e1 B77F     		.sleb128 -73
 3883 09e3 17       		.uleb128 0x17
 3884 09e4 FC030000 		.4byte	.LBB42
 3885 09e8 22000000 		.4byte	.LBE42-.LBB42
 3886 09ec 16       		.uleb128 0x16
 3887 09ed 73747200 		.ascii	"str\000"
 3888 09f1 01       		.byte	0x1
 3889 09f2 9A       		.byte	0x9a
 3890 09f3 C7060000 		.4byte	0x6c7
 3891 09f7 03       		.uleb128 0x3
 3892 09f8 91       		.byte	0x91
 3893 09f9 A873     		.sleb128 -1624
 3894 09fb 00       		.byte	0
 3895 09fc 00       		.byte	0
 3896 09fd 15       		.uleb128 0x15
 3897 09fe C4040000 		.4byte	.LBB43
 3898 0a02 4A000000 		.4byte	.LBE43-.LBB43
 3899 0a06 500A0000 		.4byte	0xa50
 3900 0a0a 1A       		.uleb128 0x1a
 3901 0a0b 59040000 		.4byte	.LASF86
 3902 0a0f 01       		.byte	0x1
 3903 0a10 AA       		.byte	0xaa
 3904 0a11 F0000000 		.4byte	0xf0
 3905 0a15 03       		.uleb128 0x3
 3906 0a16 91       		.byte	0x91
 3907 0a17 E074     		.sleb128 -1440
 3908 0a19 16       		.uleb128 0x16
 3909 0a1a 737A00   		.ascii	"sz\000"
 3910 0a1d 01       		.byte	0x1
ARM GAS  C:\Users\honet\AppData\Local\Temp\ccWT9Ujf.s 			page 78


 3911 0a1e AA       		.byte	0xaa
 3912 0a1f 2C000000 		.4byte	0x2c
 3913 0a23 03       		.uleb128 0x3
 3914 0a24 91       		.byte	0x91
 3915 0a25 A87F     		.sleb128 -88
 3916 0a27 16       		.uleb128 0x16
 3917 0a28 72657300 		.ascii	"res\000"
 3918 0a2c 01       		.byte	0x1
 3919 0a2d AA       		.byte	0xaa
 3920 0a2e 8D030000 		.4byte	0x38d
 3921 0a32 03       		.uleb128 0x3
 3922 0a33 91       		.byte	0x91
 3923 0a34 A77F     		.sleb128 -89
 3924 0a36 17       		.uleb128 0x17
 3925 0a37 CA040000 		.4byte	.LBB44
 3926 0a3b 22000000 		.4byte	.LBE44-.LBB44
 3927 0a3f 16       		.uleb128 0x16
 3928 0a40 73747200 		.ascii	"str\000"
 3929 0a44 01       		.byte	0x1
 3930 0a45 AA       		.byte	0xaa
 3931 0a46 C7060000 		.4byte	0x6c7
 3932 0a4a 03       		.uleb128 0x3
 3933 0a4b 91       		.byte	0x91
 3934 0a4c A873     		.sleb128 -1624
 3935 0a4e 00       		.byte	0
 3936 0a4f 00       		.byte	0
 3937 0a50 15       		.uleb128 0x15
 3938 0a51 1E050000 		.4byte	.LBB45
 3939 0a55 4A000000 		.4byte	.LBE45-.LBB45
 3940 0a59 A30A0000 		.4byte	0xaa3
 3941 0a5d 1A       		.uleb128 0x1a
 3942 0a5e 59040000 		.4byte	.LASF86
 3943 0a62 01       		.byte	0x1
 3944 0a63 AD       		.byte	0xad
 3945 0a64 F0000000 		.4byte	0xf0
 3946 0a68 03       		.uleb128 0x3
 3947 0a69 91       		.byte	0x91
 3948 0a6a DC74     		.sleb128 -1444
 3949 0a6c 16       		.uleb128 0x16
 3950 0a6d 737A00   		.ascii	"sz\000"
 3951 0a70 01       		.byte	0x1
 3952 0a71 AD       		.byte	0xad
 3953 0a72 2C000000 		.4byte	0x2c
 3954 0a76 03       		.uleb128 0x3
 3955 0a77 91       		.byte	0x91
 3956 0a78 9C7F     		.sleb128 -100
 3957 0a7a 16       		.uleb128 0x16
 3958 0a7b 72657300 		.ascii	"res\000"
 3959 0a7f 01       		.byte	0x1
 3960 0a80 AD       		.byte	0xad
 3961 0a81 8D030000 		.4byte	0x38d
 3962 0a85 03       		.uleb128 0x3
 3963 0a86 91       		.byte	0x91
 3964 0a87 9B7F     		.sleb128 -101
 3965 0a89 17       		.uleb128 0x17
 3966 0a8a 24050000 		.4byte	.LBB46
 3967 0a8e 22000000 		.4byte	.LBE46-.LBB46
ARM GAS  C:\Users\honet\AppData\Local\Temp\ccWT9Ujf.s 			page 79


 3968 0a92 16       		.uleb128 0x16
 3969 0a93 73747200 		.ascii	"str\000"
 3970 0a97 01       		.byte	0x1
 3971 0a98 AD       		.byte	0xad
 3972 0a99 C7060000 		.4byte	0x6c7
 3973 0a9d 03       		.uleb128 0x3
 3974 0a9e 91       		.byte	0x91
 3975 0a9f A873     		.sleb128 -1624
 3976 0aa1 00       		.byte	0
 3977 0aa2 00       		.byte	0
 3978 0aa3 15       		.uleb128 0x15
 3979 0aa4 68050000 		.4byte	.LBB47
 3980 0aa8 4A000000 		.4byte	.LBE47-.LBB47
 3981 0aac F60A0000 		.4byte	0xaf6
 3982 0ab0 1A       		.uleb128 0x1a
 3983 0ab1 59040000 		.4byte	.LASF86
 3984 0ab5 01       		.byte	0x1
 3985 0ab6 B2       		.byte	0xb2
 3986 0ab7 F0000000 		.4byte	0xf0
 3987 0abb 03       		.uleb128 0x3
 3988 0abc 91       		.byte	0x91
 3989 0abd D874     		.sleb128 -1448
 3990 0abf 16       		.uleb128 0x16
 3991 0ac0 737A00   		.ascii	"sz\000"
 3992 0ac3 01       		.byte	0x1
 3993 0ac4 B2       		.byte	0xb2
 3994 0ac5 2C000000 		.4byte	0x2c
 3995 0ac9 03       		.uleb128 0x3
 3996 0aca 91       		.byte	0x91
 3997 0acb 947F     		.sleb128 -108
 3998 0acd 16       		.uleb128 0x16
 3999 0ace 72657300 		.ascii	"res\000"
 4000 0ad2 01       		.byte	0x1
 4001 0ad3 B2       		.byte	0xb2
 4002 0ad4 8D030000 		.4byte	0x38d
 4003 0ad8 03       		.uleb128 0x3
 4004 0ad9 91       		.byte	0x91
 4005 0ada 937F     		.sleb128 -109
 4006 0adc 17       		.uleb128 0x17
 4007 0add 6E050000 		.4byte	.LBB48
 4008 0ae1 22000000 		.4byte	.LBE48-.LBB48
 4009 0ae5 16       		.uleb128 0x16
 4010 0ae6 73747200 		.ascii	"str\000"
 4011 0aea 01       		.byte	0x1
 4012 0aeb B2       		.byte	0xb2
 4013 0aec C7060000 		.4byte	0x6c7
 4014 0af0 03       		.uleb128 0x3
 4015 0af1 91       		.byte	0x91
 4016 0af2 A873     		.sleb128 -1624
 4017 0af4 00       		.byte	0
 4018 0af5 00       		.byte	0
 4019 0af6 15       		.uleb128 0x15
 4020 0af7 46060000 		.4byte	.LBB49
 4021 0afb 4A000000 		.4byte	.LBE49-.LBB49
 4022 0aff 490B0000 		.4byte	0xb49
 4023 0b03 1A       		.uleb128 0x1a
 4024 0b04 59040000 		.4byte	.LASF86
ARM GAS  C:\Users\honet\AppData\Local\Temp\ccWT9Ujf.s 			page 80


 4025 0b08 01       		.byte	0x1
 4026 0b09 C4       		.byte	0xc4
 4027 0b0a F0000000 		.4byte	0xf0
 4028 0b0e 03       		.uleb128 0x3
 4029 0b0f 91       		.byte	0x91
 4030 0b10 D474     		.sleb128 -1452
 4031 0b12 16       		.uleb128 0x16
 4032 0b13 737A00   		.ascii	"sz\000"
 4033 0b16 01       		.byte	0x1
 4034 0b17 C4       		.byte	0xc4
 4035 0b18 2C000000 		.4byte	0x2c
 4036 0b1c 03       		.uleb128 0x3
 4037 0b1d 91       		.byte	0x91
 4038 0b1e 8C7F     		.sleb128 -116
 4039 0b20 16       		.uleb128 0x16
 4040 0b21 72657300 		.ascii	"res\000"
 4041 0b25 01       		.byte	0x1
 4042 0b26 C4       		.byte	0xc4
 4043 0b27 8D030000 		.4byte	0x38d
 4044 0b2b 03       		.uleb128 0x3
 4045 0b2c 91       		.byte	0x91
 4046 0b2d 8B7F     		.sleb128 -117
 4047 0b2f 17       		.uleb128 0x17
 4048 0b30 4C060000 		.4byte	.LBB50
 4049 0b34 22000000 		.4byte	.LBE50-.LBB50
 4050 0b38 16       		.uleb128 0x16
 4051 0b39 73747200 		.ascii	"str\000"
 4052 0b3d 01       		.byte	0x1
 4053 0b3e C4       		.byte	0xc4
 4054 0b3f C7060000 		.4byte	0x6c7
 4055 0b43 03       		.uleb128 0x3
 4056 0b44 91       		.byte	0x91
 4057 0b45 A873     		.sleb128 -1624
 4058 0b47 00       		.byte	0
 4059 0b48 00       		.byte	0
 4060 0b49 15       		.uleb128 0x15
 4061 0b4a 96060000 		.4byte	.LBB51
 4062 0b4e 56000000 		.4byte	.LBE51-.LBB51
 4063 0b52 630B0000 		.4byte	0xb63
 4064 0b56 16       		.uleb128 0x16
 4065 0b57 6900     		.ascii	"i\000"
 4066 0b59 01       		.byte	0x1
 4067 0b5a C7       		.byte	0xc7
 4068 0b5b 25000000 		.4byte	0x25
 4069 0b5f 02       		.uleb128 0x2
 4070 0b60 91       		.byte	0x91
 4071 0b61 5C       		.sleb128 -36
 4072 0b62 00       		.byte	0
 4073 0b63 15       		.uleb128 0x15
 4074 0b64 F4060000 		.4byte	.LBB52
 4075 0b68 46000000 		.4byte	.LBE52-.LBB52
 4076 0b6c B60B0000 		.4byte	0xbb6
 4077 0b70 1A       		.uleb128 0x1a
 4078 0b71 59040000 		.4byte	.LASF86
 4079 0b75 01       		.byte	0x1
 4080 0b76 CC       		.byte	0xcc
 4081 0b77 F0000000 		.4byte	0xf0
ARM GAS  C:\Users\honet\AppData\Local\Temp\ccWT9Ujf.s 			page 81


 4082 0b7b 03       		.uleb128 0x3
 4083 0b7c 91       		.byte	0x91
 4084 0b7d D074     		.sleb128 -1456
 4085 0b7f 16       		.uleb128 0x16
 4086 0b80 737A00   		.ascii	"sz\000"
 4087 0b83 01       		.byte	0x1
 4088 0b84 CC       		.byte	0xcc
 4089 0b85 2C000000 		.4byte	0x2c
 4090 0b89 03       		.uleb128 0x3
 4091 0b8a 91       		.byte	0x91
 4092 0b8b 847F     		.sleb128 -124
 4093 0b8d 16       		.uleb128 0x16
 4094 0b8e 72657300 		.ascii	"res\000"
 4095 0b92 01       		.byte	0x1
 4096 0b93 CC       		.byte	0xcc
 4097 0b94 8D030000 		.4byte	0x38d
 4098 0b98 03       		.uleb128 0x3
 4099 0b99 91       		.byte	0x91
 4100 0b9a 837F     		.sleb128 -125
 4101 0b9c 17       		.uleb128 0x17
 4102 0b9d FA060000 		.4byte	.LBB53
 4103 0ba1 1E000000 		.4byte	.LBE53-.LBB53
 4104 0ba5 16       		.uleb128 0x16
 4105 0ba6 73747200 		.ascii	"str\000"
 4106 0baa 01       		.byte	0x1
 4107 0bab CC       		.byte	0xcc
 4108 0bac C7060000 		.4byte	0x6c7
 4109 0bb0 03       		.uleb128 0x3
 4110 0bb1 91       		.byte	0x91
 4111 0bb2 A873     		.sleb128 -1624
 4112 0bb4 00       		.byte	0
 4113 0bb5 00       		.byte	0
 4114 0bb6 15       		.uleb128 0x15
 4115 0bb7 70070000 		.4byte	.LBB54
 4116 0bbb 50000000 		.4byte	.LBE54-.LBB54
 4117 0bbf 090C0000 		.4byte	0xc09
 4118 0bc3 1A       		.uleb128 0x1a
 4119 0bc4 59040000 		.4byte	.LASF86
 4120 0bc8 01       		.byte	0x1
 4121 0bc9 CE       		.byte	0xce
 4122 0bca F0000000 		.4byte	0xf0
 4123 0bce 03       		.uleb128 0x3
 4124 0bcf 91       		.byte	0x91
 4125 0bd0 CC74     		.sleb128 -1460
 4126 0bd2 16       		.uleb128 0x16
 4127 0bd3 737A00   		.ascii	"sz\000"
 4128 0bd6 01       		.byte	0x1
 4129 0bd7 CE       		.byte	0xce
 4130 0bd8 2C000000 		.4byte	0x2c
 4131 0bdc 03       		.uleb128 0x3
 4132 0bdd 91       		.byte	0x91
 4133 0bde FC7E     		.sleb128 -132
 4134 0be0 16       		.uleb128 0x16
 4135 0be1 72657300 		.ascii	"res\000"
 4136 0be5 01       		.byte	0x1
 4137 0be6 CE       		.byte	0xce
 4138 0be7 8D030000 		.4byte	0x38d
ARM GAS  C:\Users\honet\AppData\Local\Temp\ccWT9Ujf.s 			page 82


 4139 0beb 03       		.uleb128 0x3
 4140 0bec 91       		.byte	0x91
 4141 0bed FB7E     		.sleb128 -133
 4142 0bef 17       		.uleb128 0x17
 4143 0bf0 76070000 		.4byte	.LBB55
 4144 0bf4 28000000 		.4byte	.LBE55-.LBB55
 4145 0bf8 16       		.uleb128 0x16
 4146 0bf9 73747200 		.ascii	"str\000"
 4147 0bfd 01       		.byte	0x1
 4148 0bfe CE       		.byte	0xce
 4149 0bff C7060000 		.4byte	0x6c7
 4150 0c03 03       		.uleb128 0x3
 4151 0c04 91       		.byte	0x91
 4152 0c05 A873     		.sleb128 -1624
 4153 0c07 00       		.byte	0
 4154 0c08 00       		.byte	0
 4155 0c09 15       		.uleb128 0x15
 4156 0c0a D0070000 		.4byte	.LBB56
 4157 0c0e 4A000000 		.4byte	.LBE56-.LBB56
 4158 0c12 5C0C0000 		.4byte	0xc5c
 4159 0c16 1A       		.uleb128 0x1a
 4160 0c17 59040000 		.4byte	.LASF86
 4161 0c1b 01       		.byte	0x1
 4162 0c1c D1       		.byte	0xd1
 4163 0c1d F0000000 		.4byte	0xf0
 4164 0c21 03       		.uleb128 0x3
 4165 0c22 91       		.byte	0x91
 4166 0c23 C874     		.sleb128 -1464
 4167 0c25 16       		.uleb128 0x16
 4168 0c26 737A00   		.ascii	"sz\000"
 4169 0c29 01       		.byte	0x1
 4170 0c2a D1       		.byte	0xd1
 4171 0c2b 2C000000 		.4byte	0x2c
 4172 0c2f 03       		.uleb128 0x3
 4173 0c30 91       		.byte	0x91
 4174 0c31 F47E     		.sleb128 -140
 4175 0c33 16       		.uleb128 0x16
 4176 0c34 72657300 		.ascii	"res\000"
 4177 0c38 01       		.byte	0x1
 4178 0c39 D1       		.byte	0xd1
 4179 0c3a 8D030000 		.4byte	0x38d
 4180 0c3e 03       		.uleb128 0x3
 4181 0c3f 91       		.byte	0x91
 4182 0c40 F37E     		.sleb128 -141
 4183 0c42 17       		.uleb128 0x17
 4184 0c43 D6070000 		.4byte	.LBB57
 4185 0c47 22000000 		.4byte	.LBE57-.LBB57
 4186 0c4b 16       		.uleb128 0x16
 4187 0c4c 73747200 		.ascii	"str\000"
 4188 0c50 01       		.byte	0x1
 4189 0c51 D1       		.byte	0xd1
 4190 0c52 C7060000 		.4byte	0x6c7
 4191 0c56 03       		.uleb128 0x3
 4192 0c57 91       		.byte	0x91
 4193 0c58 A873     		.sleb128 -1624
 4194 0c5a 00       		.byte	0
 4195 0c5b 00       		.byte	0
ARM GAS  C:\Users\honet\AppData\Local\Temp\ccWT9Ujf.s 			page 83


 4196 0c5c 15       		.uleb128 0x15
 4197 0c5d 1A080000 		.4byte	.LBB58
 4198 0c61 28000000 		.4byte	.LBE58-.LBB58
 4199 0c65 790C0000 		.4byte	0xc79
 4200 0c69 16       		.uleb128 0x16
 4201 0c6a 73747200 		.ascii	"str\000"
 4202 0c6e 01       		.byte	0x1
 4203 0c6f D4       		.byte	0xd4
 4204 0c70 C7060000 		.4byte	0x6c7
 4205 0c74 03       		.uleb128 0x3
 4206 0c75 91       		.byte	0x91
 4207 0c76 A873     		.sleb128 -1624
 4208 0c78 00       		.byte	0
 4209 0c79 15       		.uleb128 0x15
 4210 0c7a 48080000 		.4byte	.LBB59
 4211 0c7e 5E040000 		.4byte	.LBE59-.LBB59
 4212 0c82 520F0000 		.4byte	0xf52
 4213 0c86 16       		.uleb128 0x16
 4214 0c87 6B00     		.ascii	"k\000"
 4215 0c89 01       		.byte	0x1
 4216 0c8a D8       		.byte	0xd8
 4217 0c8b 25000000 		.4byte	0x25
 4218 0c8f 02       		.uleb128 0x2
 4219 0c90 91       		.byte	0x91
 4220 0c91 58       		.sleb128 -40
 4221 0c92 15       		.uleb128 0x15
 4222 0c93 64080000 		.4byte	.LBB60
 4223 0c97 4A000000 		.4byte	.LBE60-.LBB60
 4224 0c9b E50C0000 		.4byte	0xce5
 4225 0c9f 1A       		.uleb128 0x1a
 4226 0ca0 59040000 		.4byte	.LASF86
 4227 0ca4 01       		.byte	0x1
 4228 0ca5 DB       		.byte	0xdb
 4229 0ca6 F0000000 		.4byte	0xf0
 4230 0caa 03       		.uleb128 0x3
 4231 0cab 91       		.byte	0x91
 4232 0cac C474     		.sleb128 -1468
 4233 0cae 16       		.uleb128 0x16
 4234 0caf 737A00   		.ascii	"sz\000"
 4235 0cb2 01       		.byte	0x1
 4236 0cb3 DB       		.byte	0xdb
 4237 0cb4 2C000000 		.4byte	0x2c
 4238 0cb8 03       		.uleb128 0x3
 4239 0cb9 91       		.byte	0x91
 4240 0cba EC7E     		.sleb128 -148
 4241 0cbc 16       		.uleb128 0x16
 4242 0cbd 72657300 		.ascii	"res\000"
 4243 0cc1 01       		.byte	0x1
 4244 0cc2 DB       		.byte	0xdb
 4245 0cc3 8D030000 		.4byte	0x38d
 4246 0cc7 03       		.uleb128 0x3
 4247 0cc8 91       		.byte	0x91
 4248 0cc9 EB7E     		.sleb128 -149
 4249 0ccb 17       		.uleb128 0x17
 4250 0ccc 6A080000 		.4byte	.LBB61
 4251 0cd0 22000000 		.4byte	.LBE61-.LBB61
 4252 0cd4 16       		.uleb128 0x16
ARM GAS  C:\Users\honet\AppData\Local\Temp\ccWT9Ujf.s 			page 84


 4253 0cd5 73747200 		.ascii	"str\000"
 4254 0cd9 01       		.byte	0x1
 4255 0cda DB       		.byte	0xdb
 4256 0cdb C7060000 		.4byte	0x6c7
 4257 0cdf 03       		.uleb128 0x3
 4258 0ce0 91       		.byte	0x91
 4259 0ce1 A873     		.sleb128 -1624
 4260 0ce3 00       		.byte	0
 4261 0ce4 00       		.byte	0
 4262 0ce5 15       		.uleb128 0x15
 4263 0ce6 32090000 		.4byte	.LBB62
 4264 0cea 4A000000 		.4byte	.LBE62-.LBB62
 4265 0cee 380D0000 		.4byte	0xd38
 4266 0cf2 1A       		.uleb128 0x1a
 4267 0cf3 59040000 		.4byte	.LASF86
 4268 0cf7 01       		.byte	0x1
 4269 0cf8 EA       		.byte	0xea
 4270 0cf9 F0000000 		.4byte	0xf0
 4271 0cfd 03       		.uleb128 0x3
 4272 0cfe 91       		.byte	0x91
 4273 0cff C074     		.sleb128 -1472
 4274 0d01 16       		.uleb128 0x16
 4275 0d02 737A00   		.ascii	"sz\000"
 4276 0d05 01       		.byte	0x1
 4277 0d06 EA       		.byte	0xea
 4278 0d07 2C000000 		.4byte	0x2c
 4279 0d0b 03       		.uleb128 0x3
 4280 0d0c 91       		.byte	0x91
 4281 0d0d E47E     		.sleb128 -156
 4282 0d0f 16       		.uleb128 0x16
 4283 0d10 72657300 		.ascii	"res\000"
 4284 0d14 01       		.byte	0x1
 4285 0d15 EA       		.byte	0xea
 4286 0d16 8D030000 		.4byte	0x38d
 4287 0d1a 03       		.uleb128 0x3
 4288 0d1b 91       		.byte	0x91
 4289 0d1c E37E     		.sleb128 -157
 4290 0d1e 17       		.uleb128 0x17
 4291 0d1f 38090000 		.4byte	.LBB63
 4292 0d23 22000000 		.4byte	.LBE63-.LBB63
 4293 0d27 16       		.uleb128 0x16
 4294 0d28 73747200 		.ascii	"str\000"
 4295 0d2c 01       		.byte	0x1
 4296 0d2d EA       		.byte	0xea
 4297 0d2e C7060000 		.4byte	0x6c7
 4298 0d32 03       		.uleb128 0x3
 4299 0d33 91       		.byte	0x91
 4300 0d34 A873     		.sleb128 -1624
 4301 0d36 00       		.byte	0
 4302 0d37 00       		.byte	0
 4303 0d38 15       		.uleb128 0x15
 4304 0d39 8C090000 		.4byte	.LBB64
 4305 0d3d 4A000000 		.4byte	.LBE64-.LBB64
 4306 0d41 8B0D0000 		.4byte	0xd8b
 4307 0d45 1A       		.uleb128 0x1a
 4308 0d46 59040000 		.4byte	.LASF86
 4309 0d4a 01       		.byte	0x1
ARM GAS  C:\Users\honet\AppData\Local\Temp\ccWT9Ujf.s 			page 85


 4310 0d4b ED       		.byte	0xed
 4311 0d4c F0000000 		.4byte	0xf0
 4312 0d50 03       		.uleb128 0x3
 4313 0d51 91       		.byte	0x91
 4314 0d52 BC74     		.sleb128 -1476
 4315 0d54 16       		.uleb128 0x16
 4316 0d55 737A00   		.ascii	"sz\000"
 4317 0d58 01       		.byte	0x1
 4318 0d59 ED       		.byte	0xed
 4319 0d5a 2C000000 		.4byte	0x2c
 4320 0d5e 03       		.uleb128 0x3
 4321 0d5f 91       		.byte	0x91
 4322 0d60 DC7E     		.sleb128 -164
 4323 0d62 16       		.uleb128 0x16
 4324 0d63 72657300 		.ascii	"res\000"
 4325 0d67 01       		.byte	0x1
 4326 0d68 ED       		.byte	0xed
 4327 0d69 8D030000 		.4byte	0x38d
 4328 0d6d 03       		.uleb128 0x3
 4329 0d6e 91       		.byte	0x91
 4330 0d6f DB7E     		.sleb128 -165
 4331 0d71 17       		.uleb128 0x17
 4332 0d72 92090000 		.4byte	.LBB65
 4333 0d76 22000000 		.4byte	.LBE65-.LBB65
 4334 0d7a 16       		.uleb128 0x16
 4335 0d7b 73747200 		.ascii	"str\000"
 4336 0d7f 01       		.byte	0x1
 4337 0d80 ED       		.byte	0xed
 4338 0d81 C7060000 		.4byte	0x6c7
 4339 0d85 03       		.uleb128 0x3
 4340 0d86 91       		.byte	0x91
 4341 0d87 A873     		.sleb128 -1624
 4342 0d89 00       		.byte	0
 4343 0d8a 00       		.byte	0
 4344 0d8b 15       		.uleb128 0x15
 4345 0d8c D6090000 		.4byte	.LBB66
 4346 0d90 4A000000 		.4byte	.LBE66-.LBB66
 4347 0d94 DE0D0000 		.4byte	0xdde
 4348 0d98 1A       		.uleb128 0x1a
 4349 0d99 59040000 		.4byte	.LASF86
 4350 0d9d 01       		.byte	0x1
 4351 0d9e F2       		.byte	0xf2
 4352 0d9f F0000000 		.4byte	0xf0
 4353 0da3 03       		.uleb128 0x3
 4354 0da4 91       		.byte	0x91
 4355 0da5 B874     		.sleb128 -1480
 4356 0da7 16       		.uleb128 0x16
 4357 0da8 737A00   		.ascii	"sz\000"
 4358 0dab 01       		.byte	0x1
 4359 0dac F2       		.byte	0xf2
 4360 0dad 2C000000 		.4byte	0x2c
 4361 0db1 03       		.uleb128 0x3
 4362 0db2 91       		.byte	0x91
 4363 0db3 D47E     		.sleb128 -172
 4364 0db5 16       		.uleb128 0x16
 4365 0db6 72657300 		.ascii	"res\000"
 4366 0dba 01       		.byte	0x1
ARM GAS  C:\Users\honet\AppData\Local\Temp\ccWT9Ujf.s 			page 86


 4367 0dbb F2       		.byte	0xf2
 4368 0dbc 8D030000 		.4byte	0x38d
 4369 0dc0 03       		.uleb128 0x3
 4370 0dc1 91       		.byte	0x91
 4371 0dc2 D37E     		.sleb128 -173
 4372 0dc4 17       		.uleb128 0x17
 4373 0dc5 DC090000 		.4byte	.LBB67
 4374 0dc9 22000000 		.4byte	.LBE67-.LBB67
 4375 0dcd 16       		.uleb128 0x16
 4376 0dce 73747200 		.ascii	"str\000"
 4377 0dd2 01       		.byte	0x1
 4378 0dd3 F2       		.byte	0xf2
 4379 0dd4 C7060000 		.4byte	0x6c7
 4380 0dd8 03       		.uleb128 0x3
 4381 0dd9 91       		.byte	0x91
 4382 0dda A873     		.sleb128 -1624
 4383 0ddc 00       		.byte	0
 4384 0ddd 00       		.byte	0
 4385 0dde 15       		.uleb128 0x15
 4386 0ddf B40A0000 		.4byte	.LBB68
 4387 0de3 4A000000 		.4byte	.LBE68-.LBB68
 4388 0de7 350E0000 		.4byte	0xe35
 4389 0deb 1C       		.uleb128 0x1c
 4390 0dec 59040000 		.4byte	.LASF86
 4391 0df0 01       		.byte	0x1
 4392 0df1 0401     		.2byte	0x104
 4393 0df3 F0000000 		.4byte	0xf0
 4394 0df7 03       		.uleb128 0x3
 4395 0df8 91       		.byte	0x91
 4396 0df9 B474     		.sleb128 -1484
 4397 0dfb 1D       		.uleb128 0x1d
 4398 0dfc 737A00   		.ascii	"sz\000"
 4399 0dff 01       		.byte	0x1
 4400 0e00 0401     		.2byte	0x104
 4401 0e02 2C000000 		.4byte	0x2c
 4402 0e06 03       		.uleb128 0x3
 4403 0e07 91       		.byte	0x91
 4404 0e08 CC7E     		.sleb128 -180
 4405 0e0a 1D       		.uleb128 0x1d
 4406 0e0b 72657300 		.ascii	"res\000"
 4407 0e0f 01       		.byte	0x1
 4408 0e10 0401     		.2byte	0x104
 4409 0e12 8D030000 		.4byte	0x38d
 4410 0e16 03       		.uleb128 0x3
 4411 0e17 91       		.byte	0x91
 4412 0e18 CB7E     		.sleb128 -181
 4413 0e1a 17       		.uleb128 0x17
 4414 0e1b BA0A0000 		.4byte	.LBB69
 4415 0e1f 22000000 		.4byte	.LBE69-.LBB69
 4416 0e23 1D       		.uleb128 0x1d
 4417 0e24 73747200 		.ascii	"str\000"
 4418 0e28 01       		.byte	0x1
 4419 0e29 0401     		.2byte	0x104
 4420 0e2b C7060000 		.4byte	0x6c7
 4421 0e2f 03       		.uleb128 0x3
 4422 0e30 91       		.byte	0x91
 4423 0e31 A873     		.sleb128 -1624
ARM GAS  C:\Users\honet\AppData\Local\Temp\ccWT9Ujf.s 			page 87


 4424 0e33 00       		.byte	0
 4425 0e34 00       		.byte	0
 4426 0e35 15       		.uleb128 0x15
 4427 0e36 040B0000 		.4byte	.LBB70
 4428 0e3a 56000000 		.4byte	.LBE70-.LBB70
 4429 0e3e 500E0000 		.4byte	0xe50
 4430 0e42 1D       		.uleb128 0x1d
 4431 0e43 6900     		.ascii	"i\000"
 4432 0e45 01       		.byte	0x1
 4433 0e46 0701     		.2byte	0x107
 4434 0e48 25000000 		.4byte	0x25
 4435 0e4c 02       		.uleb128 0x2
 4436 0e4d 91       		.byte	0x91
 4437 0e4e 54       		.sleb128 -44
 4438 0e4f 00       		.byte	0
 4439 0e50 15       		.uleb128 0x15
 4440 0e51 620B0000 		.4byte	.LBB71
 4441 0e55 46000000 		.4byte	.LBE71-.LBB71
 4442 0e59 A70E0000 		.4byte	0xea7
 4443 0e5d 1C       		.uleb128 0x1c
 4444 0e5e 59040000 		.4byte	.LASF86
 4445 0e62 01       		.byte	0x1
 4446 0e63 0C01     		.2byte	0x10c
 4447 0e65 F0000000 		.4byte	0xf0
 4448 0e69 03       		.uleb128 0x3
 4449 0e6a 91       		.byte	0x91
 4450 0e6b B074     		.sleb128 -1488
 4451 0e6d 1D       		.uleb128 0x1d
 4452 0e6e 737A00   		.ascii	"sz\000"
 4453 0e71 01       		.byte	0x1
 4454 0e72 0C01     		.2byte	0x10c
 4455 0e74 2C000000 		.4byte	0x2c
 4456 0e78 03       		.uleb128 0x3
 4457 0e79 91       		.byte	0x91
 4458 0e7a C47E     		.sleb128 -188
 4459 0e7c 1D       		.uleb128 0x1d
 4460 0e7d 72657300 		.ascii	"res\000"
 4461 0e81 01       		.byte	0x1
 4462 0e82 0C01     		.2byte	0x10c
 4463 0e84 8D030000 		.4byte	0x38d
 4464 0e88 03       		.uleb128 0x3
 4465 0e89 91       		.byte	0x91
 4466 0e8a C37E     		.sleb128 -189
 4467 0e8c 17       		.uleb128 0x17
 4468 0e8d 680B0000 		.4byte	.LBB72
 4469 0e91 1E000000 		.4byte	.LBE72-.LBB72
 4470 0e95 1D       		.uleb128 0x1d
 4471 0e96 73747200 		.ascii	"str\000"
 4472 0e9a 01       		.byte	0x1
 4473 0e9b 0C01     		.2byte	0x10c
 4474 0e9d C7060000 		.4byte	0x6c7
 4475 0ea1 03       		.uleb128 0x3
 4476 0ea2 91       		.byte	0x91
 4477 0ea3 A873     		.sleb128 -1624
 4478 0ea5 00       		.byte	0
 4479 0ea6 00       		.byte	0
 4480 0ea7 15       		.uleb128 0x15
ARM GAS  C:\Users\honet\AppData\Local\Temp\ccWT9Ujf.s 			page 88


 4481 0ea8 E00B0000 		.4byte	.LBB73
 4482 0eac 50000000 		.4byte	.LBE73-.LBB73
 4483 0eb0 FE0E0000 		.4byte	0xefe
 4484 0eb4 1C       		.uleb128 0x1c
 4485 0eb5 59040000 		.4byte	.LASF86
 4486 0eb9 01       		.byte	0x1
 4487 0eba 0E01     		.2byte	0x10e
 4488 0ebc F0000000 		.4byte	0xf0
 4489 0ec0 03       		.uleb128 0x3
 4490 0ec1 91       		.byte	0x91
 4491 0ec2 AC74     		.sleb128 -1492
 4492 0ec4 1D       		.uleb128 0x1d
 4493 0ec5 737A00   		.ascii	"sz\000"
 4494 0ec8 01       		.byte	0x1
 4495 0ec9 0E01     		.2byte	0x10e
 4496 0ecb 2C000000 		.4byte	0x2c
 4497 0ecf 03       		.uleb128 0x3
 4498 0ed0 91       		.byte	0x91
 4499 0ed1 BC7E     		.sleb128 -196
 4500 0ed3 1D       		.uleb128 0x1d
 4501 0ed4 72657300 		.ascii	"res\000"
 4502 0ed8 01       		.byte	0x1
 4503 0ed9 0E01     		.2byte	0x10e
 4504 0edb 8D030000 		.4byte	0x38d
 4505 0edf 03       		.uleb128 0x3
 4506 0ee0 91       		.byte	0x91
 4507 0ee1 BB7E     		.sleb128 -197
 4508 0ee3 17       		.uleb128 0x17
 4509 0ee4 E60B0000 		.4byte	.LBB74
 4510 0ee8 28000000 		.4byte	.LBE74-.LBB74
 4511 0eec 1D       		.uleb128 0x1d
 4512 0eed 73747200 		.ascii	"str\000"
 4513 0ef1 01       		.byte	0x1
 4514 0ef2 0E01     		.2byte	0x10e
 4515 0ef4 C7060000 		.4byte	0x6c7
 4516 0ef8 03       		.uleb128 0x3
 4517 0ef9 91       		.byte	0x91
 4518 0efa A873     		.sleb128 -1624
 4519 0efc 00       		.byte	0
 4520 0efd 00       		.byte	0
 4521 0efe 17       		.uleb128 0x17
 4522 0eff 400C0000 		.4byte	.LBB75
 4523 0f03 4A000000 		.4byte	.LBE75-.LBB75
 4524 0f07 1C       		.uleb128 0x1c
 4525 0f08 59040000 		.4byte	.LASF86
 4526 0f0c 01       		.byte	0x1
 4527 0f0d 1101     		.2byte	0x111
 4528 0f0f F0000000 		.4byte	0xf0
 4529 0f13 03       		.uleb128 0x3
 4530 0f14 91       		.byte	0x91
 4531 0f15 A874     		.sleb128 -1496
 4532 0f17 1D       		.uleb128 0x1d
 4533 0f18 737A00   		.ascii	"sz\000"
 4534 0f1b 01       		.byte	0x1
 4535 0f1c 1101     		.2byte	0x111
 4536 0f1e 2C000000 		.4byte	0x2c
 4537 0f22 03       		.uleb128 0x3
ARM GAS  C:\Users\honet\AppData\Local\Temp\ccWT9Ujf.s 			page 89


 4538 0f23 91       		.byte	0x91
 4539 0f24 B47E     		.sleb128 -204
 4540 0f26 1D       		.uleb128 0x1d
 4541 0f27 72657300 		.ascii	"res\000"
 4542 0f2b 01       		.byte	0x1
 4543 0f2c 1101     		.2byte	0x111
 4544 0f2e 8D030000 		.4byte	0x38d
 4545 0f32 03       		.uleb128 0x3
 4546 0f33 91       		.byte	0x91
 4547 0f34 B37E     		.sleb128 -205
 4548 0f36 17       		.uleb128 0x17
 4549 0f37 460C0000 		.4byte	.LBB76
 4550 0f3b 22000000 		.4byte	.LBE76-.LBB76
 4551 0f3f 1D       		.uleb128 0x1d
 4552 0f40 73747200 		.ascii	"str\000"
 4553 0f44 01       		.byte	0x1
 4554 0f45 1101     		.2byte	0x111
 4555 0f47 C7060000 		.4byte	0x6c7
 4556 0f4b 03       		.uleb128 0x3
 4557 0f4c 91       		.byte	0x91
 4558 0f4d A873     		.sleb128 -1624
 4559 0f4f 00       		.byte	0
 4560 0f50 00       		.byte	0
 4561 0f51 00       		.byte	0
 4562 0f52 17       		.uleb128 0x17
 4563 0f53 C40C0000 		.4byte	.LBB77
 4564 0f57 22000000 		.4byte	.LBE77-.LBB77
 4565 0f5b 1D       		.uleb128 0x1d
 4566 0f5c 73747200 		.ascii	"str\000"
 4567 0f60 01       		.byte	0x1
 4568 0f61 1C01     		.2byte	0x11c
 4569 0f63 C7060000 		.4byte	0x6c7
 4570 0f67 03       		.uleb128 0x3
 4571 0f68 91       		.byte	0x91
 4572 0f69 A873     		.sleb128 -1624
 4573 0f6b 00       		.byte	0
 4574 0f6c 00       		.byte	0
 4575 0f6d 09       		.uleb128 0x9
 4576 0f6e E9000000 		.4byte	0xe9
 4577 0f72 800F0000 		.4byte	0xf80
 4578 0f76 1E       		.uleb128 0x1e
 4579 0f77 A2000000 		.4byte	0xa2
 4580 0f7b 03       		.uleb128 0x3
 4581 0f7c 91       		.byte	0x91
 4582 0f7d 4C       		.sleb128 -52
 4583 0f7e 06       		.byte	0x6
 4584 0f7f 00       		.byte	0
 4585 0f80 09       		.uleb128 0x9
 4586 0f81 AF000000 		.4byte	0xaf
 4587 0f85 900F0000 		.4byte	0xf90
 4588 0f89 18       		.uleb128 0x18
 4589 0f8a A2000000 		.4byte	0xa2
 4590 0f8e 63       		.byte	0x63
 4591 0f8f 00       		.byte	0
 4592 0f90 1F       		.uleb128 0x1f
 4593 0f91 9B000000 		.4byte	.LASF96
 4594 0f95 01       		.byte	0x1
ARM GAS  C:\Users\honet\AppData\Local\Temp\ccWT9Ujf.s 			page 90


 4595 0f96 1F01     		.2byte	0x11f
 4596 0f98 25000000 		.4byte	0x25
 4597 0f9c 00000000 		.4byte	.LFB69
 4598 0fa0 C8000000 		.4byte	.LFE69-.LFB69
 4599 0fa4 01       		.uleb128 0x1
 4600 0fa5 9C       		.byte	0x9c
 4601 0fa6 FA0F0000 		.4byte	0xffa
 4602 0faa 15       		.uleb128 0x15
 4603 0fab 34000000 		.4byte	.LBB78
 4604 0faf 44000000 		.4byte	.LBE78-.LBB78
 4605 0fb3 DF0F0000 		.4byte	0xfdf
 4606 0fb7 1D       		.uleb128 0x1d
 4607 0fb8 6900     		.ascii	"i\000"
 4608 0fba 01       		.byte	0x1
 4609 0fbb 3001     		.2byte	0x130
 4610 0fbd 25000000 		.4byte	0x25
 4611 0fc1 02       		.uleb128 0x2
 4612 0fc2 91       		.byte	0x91
 4613 0fc3 74       		.sleb128 -12
 4614 0fc4 17       		.uleb128 0x17
 4615 0fc5 3C000000 		.4byte	.LBB79
 4616 0fc9 22000000 		.4byte	.LBE79-.LBB79
 4617 0fcd 1D       		.uleb128 0x1d
 4618 0fce 73747200 		.ascii	"str\000"
 4619 0fd2 01       		.byte	0x1
 4620 0fd3 3101     		.2byte	0x131
 4621 0fd5 C7060000 		.4byte	0x6c7
 4622 0fd9 03       		.uleb128 0x3
 4623 0fda 91       		.byte	0x91
 4624 0fdb F47E     		.sleb128 -140
 4625 0fdd 00       		.byte	0
 4626 0fde 00       		.byte	0
 4627 0fdf 17       		.uleb128 0x17
 4628 0fe0 78000000 		.4byte	.LBB80
 4629 0fe4 24000000 		.4byte	.LBE80-.LBB80
 4630 0fe8 1D       		.uleb128 0x1d
 4631 0fe9 73747200 		.ascii	"str\000"
 4632 0fed 01       		.byte	0x1
 4633 0fee 3401     		.2byte	0x134
 4634 0ff0 C7060000 		.4byte	0x6c7
 4635 0ff4 03       		.uleb128 0x3
 4636 0ff5 91       		.byte	0x91
 4637 0ff6 F47E     		.sleb128 -140
 4638 0ff8 00       		.byte	0
 4639 0ff9 00       		.byte	0
 4640 0ffa 20       		.uleb128 0x20
 4641 0ffb E2030000 		.4byte	.LASF97
 4642 0fff 06       		.byte	0x6
 4643 1000 9606     		.2byte	0x696
 4644 1002 06100000 		.4byte	0x1006
 4645 1006 21       		.uleb128 0x21
 4646 1007 CC000000 		.4byte	0xcc
 4647 100b 22       		.uleb128 0x22
 4648 100c A9030000 		.4byte	.LASF98
 4649 1010 01       		.byte	0x1
 4650 1011 12       		.byte	0x12
 4651 1012 1C100000 		.4byte	0x101c
ARM GAS  C:\Users\honet\AppData\Local\Temp\ccWT9Ujf.s 			page 91


 4652 1016 05       		.uleb128 0x5
 4653 1017 03       		.byte	0x3
 4654 1018 00000000 		.4byte	nmillis
 4655 101c 21       		.uleb128 0x21
 4656 101d 8D000000 		.4byte	0x8d
 4657 1021 22       		.uleb128 0x22
 4658 1022 66040000 		.4byte	.LASF99
 4659 1026 01       		.byte	0x1
 4660 1027 51       		.byte	0x51
 4661 1028 00030000 		.4byte	0x300
 4662 102c 05       		.uleb128 0x5
 4663 102d 03       		.byte	0x3
 4664 102e 00000000 		.4byte	File
 4665 1032 00       		.byte	0
 4666              		.section	.debug_abbrev,"",%progbits
 4667              	.Ldebug_abbrev0:
 4668 0000 01       		.uleb128 0x1
 4669 0001 11       		.uleb128 0x11
 4670 0002 01       		.byte	0x1
 4671 0003 25       		.uleb128 0x25
 4672 0004 0E       		.uleb128 0xe
 4673 0005 13       		.uleb128 0x13
 4674 0006 0B       		.uleb128 0xb
 4675 0007 03       		.uleb128 0x3
 4676 0008 0E       		.uleb128 0xe
 4677 0009 1B       		.uleb128 0x1b
 4678 000a 0E       		.uleb128 0xe
 4679 000b 55       		.uleb128 0x55
 4680 000c 17       		.uleb128 0x17
 4681 000d 11       		.uleb128 0x11
 4682 000e 01       		.uleb128 0x1
 4683 000f 10       		.uleb128 0x10
 4684 0010 17       		.uleb128 0x17
 4685 0011 00       		.byte	0
 4686 0012 00       		.byte	0
 4687 0013 02       		.uleb128 0x2
 4688 0014 24       		.uleb128 0x24
 4689 0015 00       		.byte	0
 4690 0016 0B       		.uleb128 0xb
 4691 0017 0B       		.uleb128 0xb
 4692 0018 3E       		.uleb128 0x3e
 4693 0019 0B       		.uleb128 0xb
 4694 001a 03       		.uleb128 0x3
 4695 001b 08       		.uleb128 0x8
 4696 001c 00       		.byte	0
 4697 001d 00       		.byte	0
 4698 001e 03       		.uleb128 0x3
 4699 001f 16       		.uleb128 0x16
 4700 0020 00       		.byte	0
 4701 0021 03       		.uleb128 0x3
 4702 0022 0E       		.uleb128 0xe
 4703 0023 3A       		.uleb128 0x3a
 4704 0024 0B       		.uleb128 0xb
 4705 0025 3B       		.uleb128 0x3b
 4706 0026 0B       		.uleb128 0xb
 4707 0027 49       		.uleb128 0x49
 4708 0028 13       		.uleb128 0x13
ARM GAS  C:\Users\honet\AppData\Local\Temp\ccWT9Ujf.s 			page 92


 4709 0029 00       		.byte	0
 4710 002a 00       		.byte	0
 4711 002b 04       		.uleb128 0x4
 4712 002c 24       		.uleb128 0x24
 4713 002d 00       		.byte	0
 4714 002e 0B       		.uleb128 0xb
 4715 002f 0B       		.uleb128 0xb
 4716 0030 3E       		.uleb128 0x3e
 4717 0031 0B       		.uleb128 0xb
 4718 0032 03       		.uleb128 0x3
 4719 0033 0E       		.uleb128 0xe
 4720 0034 00       		.byte	0
 4721 0035 00       		.byte	0
 4722 0036 05       		.uleb128 0x5
 4723 0037 0F       		.uleb128 0xf
 4724 0038 00       		.byte	0
 4725 0039 0B       		.uleb128 0xb
 4726 003a 0B       		.uleb128 0xb
 4727 003b 49       		.uleb128 0x49
 4728 003c 13       		.uleb128 0x13
 4729 003d 00       		.byte	0
 4730 003e 00       		.byte	0
 4731 003f 06       		.uleb128 0x6
 4732 0040 13       		.uleb128 0x13
 4733 0041 01       		.byte	0x1
 4734 0042 0B       		.uleb128 0xb
 4735 0043 05       		.uleb128 0x5
 4736 0044 3A       		.uleb128 0x3a
 4737 0045 0B       		.uleb128 0xb
 4738 0046 3B       		.uleb128 0x3b
 4739 0047 0B       		.uleb128 0xb
 4740 0048 01       		.uleb128 0x1
 4741 0049 13       		.uleb128 0x13
 4742 004a 00       		.byte	0
 4743 004b 00       		.byte	0
 4744 004c 07       		.uleb128 0x7
 4745 004d 0D       		.uleb128 0xd
 4746 004e 00       		.byte	0
 4747 004f 03       		.uleb128 0x3
 4748 0050 0E       		.uleb128 0xe
 4749 0051 3A       		.uleb128 0x3a
 4750 0052 0B       		.uleb128 0xb
 4751 0053 3B       		.uleb128 0x3b
 4752 0054 0B       		.uleb128 0xb
 4753 0055 49       		.uleb128 0x49
 4754 0056 13       		.uleb128 0x13
 4755 0057 38       		.uleb128 0x38
 4756 0058 0B       		.uleb128 0xb
 4757 0059 00       		.byte	0
 4758 005a 00       		.byte	0
 4759 005b 08       		.uleb128 0x8
 4760 005c 0D       		.uleb128 0xd
 4761 005d 00       		.byte	0
 4762 005e 03       		.uleb128 0x3
 4763 005f 08       		.uleb128 0x8
 4764 0060 3A       		.uleb128 0x3a
 4765 0061 0B       		.uleb128 0xb
ARM GAS  C:\Users\honet\AppData\Local\Temp\ccWT9Ujf.s 			page 93


 4766 0062 3B       		.uleb128 0x3b
 4767 0063 0B       		.uleb128 0xb
 4768 0064 49       		.uleb128 0x49
 4769 0065 13       		.uleb128 0x13
 4770 0066 38       		.uleb128 0x38
 4771 0067 0B       		.uleb128 0xb
 4772 0068 00       		.byte	0
 4773 0069 00       		.byte	0
 4774 006a 09       		.uleb128 0x9
 4775 006b 01       		.uleb128 0x1
 4776 006c 01       		.byte	0x1
 4777 006d 49       		.uleb128 0x49
 4778 006e 13       		.uleb128 0x13
 4779 006f 01       		.uleb128 0x1
 4780 0070 13       		.uleb128 0x13
 4781 0071 00       		.byte	0
 4782 0072 00       		.byte	0
 4783 0073 0A       		.uleb128 0xa
 4784 0074 21       		.uleb128 0x21
 4785 0075 00       		.byte	0
 4786 0076 49       		.uleb128 0x49
 4787 0077 13       		.uleb128 0x13
 4788 0078 2F       		.uleb128 0x2f
 4789 0079 05       		.uleb128 0x5
 4790 007a 00       		.byte	0
 4791 007b 00       		.byte	0
 4792 007c 0B       		.uleb128 0xb
 4793 007d 13       		.uleb128 0x13
 4794 007e 01       		.byte	0x1
 4795 007f 0B       		.uleb128 0xb
 4796 0080 0B       		.uleb128 0xb
 4797 0081 3A       		.uleb128 0x3a
 4798 0082 0B       		.uleb128 0xb
 4799 0083 3B       		.uleb128 0x3b
 4800 0084 0B       		.uleb128 0xb
 4801 0085 01       		.uleb128 0x1
 4802 0086 13       		.uleb128 0x13
 4803 0087 00       		.byte	0
 4804 0088 00       		.byte	0
 4805 0089 0C       		.uleb128 0xc
 4806 008a 16       		.uleb128 0x16
 4807 008b 00       		.byte	0
 4808 008c 03       		.uleb128 0x3
 4809 008d 08       		.uleb128 0x8
 4810 008e 3A       		.uleb128 0x3a
 4811 008f 0B       		.uleb128 0xb
 4812 0090 3B       		.uleb128 0x3b
 4813 0091 0B       		.uleb128 0xb
 4814 0092 49       		.uleb128 0x49
 4815 0093 13       		.uleb128 0x13
 4816 0094 00       		.byte	0
 4817 0095 00       		.byte	0
 4818 0096 0D       		.uleb128 0xd
 4819 0097 04       		.uleb128 0x4
 4820 0098 01       		.byte	0x1
 4821 0099 0B       		.uleb128 0xb
 4822 009a 0B       		.uleb128 0xb
ARM GAS  C:\Users\honet\AppData\Local\Temp\ccWT9Ujf.s 			page 94


 4823 009b 3A       		.uleb128 0x3a
 4824 009c 0B       		.uleb128 0xb
 4825 009d 3B       		.uleb128 0x3b
 4826 009e 05       		.uleb128 0x5
 4827 009f 01       		.uleb128 0x1
 4828 00a0 13       		.uleb128 0x13
 4829 00a1 00       		.byte	0
 4830 00a2 00       		.byte	0
 4831 00a3 0E       		.uleb128 0xe
 4832 00a4 28       		.uleb128 0x28
 4833 00a5 00       		.byte	0
 4834 00a6 03       		.uleb128 0x3
 4835 00a7 0E       		.uleb128 0xe
 4836 00a8 1C       		.uleb128 0x1c
 4837 00a9 0D       		.uleb128 0xd
 4838 00aa 00       		.byte	0
 4839 00ab 00       		.byte	0
 4840 00ac 0F       		.uleb128 0xf
 4841 00ad 16       		.uleb128 0x16
 4842 00ae 00       		.byte	0
 4843 00af 03       		.uleb128 0x3
 4844 00b0 0E       		.uleb128 0xe
 4845 00b1 3A       		.uleb128 0x3a
 4846 00b2 0B       		.uleb128 0xb
 4847 00b3 3B       		.uleb128 0x3b
 4848 00b4 05       		.uleb128 0x5
 4849 00b5 49       		.uleb128 0x49
 4850 00b6 13       		.uleb128 0x13
 4851 00b7 00       		.byte	0
 4852 00b8 00       		.byte	0
 4853 00b9 10       		.uleb128 0x10
 4854 00ba 2E       		.uleb128 0x2e
 4855 00bb 00       		.byte	0
 4856 00bc 3F       		.uleb128 0x3f
 4857 00bd 19       		.uleb128 0x19
 4858 00be 03       		.uleb128 0x3
 4859 00bf 0E       		.uleb128 0xe
 4860 00c0 3A       		.uleb128 0x3a
 4861 00c1 0B       		.uleb128 0xb
 4862 00c2 3B       		.uleb128 0x3b
 4863 00c3 0B       		.uleb128 0xb
 4864 00c4 11       		.uleb128 0x11
 4865 00c5 01       		.uleb128 0x1
 4866 00c6 12       		.uleb128 0x12
 4867 00c7 06       		.uleb128 0x6
 4868 00c8 40       		.uleb128 0x40
 4869 00c9 18       		.uleb128 0x18
 4870 00ca 9642     		.uleb128 0x2116
 4871 00cc 19       		.uleb128 0x19
 4872 00cd 00       		.byte	0
 4873 00ce 00       		.byte	0
 4874 00cf 11       		.uleb128 0x11
 4875 00d0 2E       		.uleb128 0x2e
 4876 00d1 01       		.byte	0x1
 4877 00d2 3F       		.uleb128 0x3f
 4878 00d3 19       		.uleb128 0x19
 4879 00d4 03       		.uleb128 0x3
ARM GAS  C:\Users\honet\AppData\Local\Temp\ccWT9Ujf.s 			page 95


 4880 00d5 0E       		.uleb128 0xe
 4881 00d6 3A       		.uleb128 0x3a
 4882 00d7 0B       		.uleb128 0xb
 4883 00d8 3B       		.uleb128 0x3b
 4884 00d9 0B       		.uleb128 0xb
 4885 00da 27       		.uleb128 0x27
 4886 00db 19       		.uleb128 0x19
 4887 00dc 11       		.uleb128 0x11
 4888 00dd 01       		.uleb128 0x1
 4889 00de 12       		.uleb128 0x12
 4890 00df 06       		.uleb128 0x6
 4891 00e0 40       		.uleb128 0x40
 4892 00e1 18       		.uleb128 0x18
 4893 00e2 9742     		.uleb128 0x2117
 4894 00e4 19       		.uleb128 0x19
 4895 00e5 01       		.uleb128 0x1
 4896 00e6 13       		.uleb128 0x13
 4897 00e7 00       		.byte	0
 4898 00e8 00       		.byte	0
 4899 00e9 12       		.uleb128 0x12
 4900 00ea 05       		.uleb128 0x5
 4901 00eb 00       		.byte	0
 4902 00ec 03       		.uleb128 0x3
 4903 00ed 0E       		.uleb128 0xe
 4904 00ee 3A       		.uleb128 0x3a
 4905 00ef 0B       		.uleb128 0xb
 4906 00f0 3B       		.uleb128 0x3b
 4907 00f1 0B       		.uleb128 0xb
 4908 00f2 49       		.uleb128 0x49
 4909 00f3 13       		.uleb128 0x13
 4910 00f4 02       		.uleb128 0x2
 4911 00f5 18       		.uleb128 0x18
 4912 00f6 00       		.byte	0
 4913 00f7 00       		.byte	0
 4914 00f8 13       		.uleb128 0x13
 4915 00f9 2E       		.uleb128 0x2e
 4916 00fa 01       		.byte	0x1
 4917 00fb 3F       		.uleb128 0x3f
 4918 00fc 19       		.uleb128 0x19
 4919 00fd 03       		.uleb128 0x3
 4920 00fe 0E       		.uleb128 0xe
 4921 00ff 3A       		.uleb128 0x3a
 4922 0100 0B       		.uleb128 0xb
 4923 0101 3B       		.uleb128 0x3b
 4924 0102 0B       		.uleb128 0xb
 4925 0103 27       		.uleb128 0x27
 4926 0104 19       		.uleb128 0x19
 4927 0105 11       		.uleb128 0x11
 4928 0106 01       		.uleb128 0x1
 4929 0107 12       		.uleb128 0x12
 4930 0108 06       		.uleb128 0x6
 4931 0109 40       		.uleb128 0x40
 4932 010a 18       		.uleb128 0x18
 4933 010b 9642     		.uleb128 0x2116
 4934 010d 19       		.uleb128 0x19
 4935 010e 01       		.uleb128 0x1
 4936 010f 13       		.uleb128 0x13
ARM GAS  C:\Users\honet\AppData\Local\Temp\ccWT9Ujf.s 			page 96


 4937 0110 00       		.byte	0
 4938 0111 00       		.byte	0
 4939 0112 14       		.uleb128 0x14
 4940 0113 05       		.uleb128 0x5
 4941 0114 00       		.byte	0
 4942 0115 03       		.uleb128 0x3
 4943 0116 08       		.uleb128 0x8
 4944 0117 3A       		.uleb128 0x3a
 4945 0118 0B       		.uleb128 0xb
 4946 0119 3B       		.uleb128 0x3b
 4947 011a 0B       		.uleb128 0xb
 4948 011b 49       		.uleb128 0x49
 4949 011c 13       		.uleb128 0x13
 4950 011d 02       		.uleb128 0x2
 4951 011e 18       		.uleb128 0x18
 4952 011f 00       		.byte	0
 4953 0120 00       		.byte	0
 4954 0121 15       		.uleb128 0x15
 4955 0122 0B       		.uleb128 0xb
 4956 0123 01       		.byte	0x1
 4957 0124 11       		.uleb128 0x11
 4958 0125 01       		.uleb128 0x1
 4959 0126 12       		.uleb128 0x12
 4960 0127 06       		.uleb128 0x6
 4961 0128 01       		.uleb128 0x1
 4962 0129 13       		.uleb128 0x13
 4963 012a 00       		.byte	0
 4964 012b 00       		.byte	0
 4965 012c 16       		.uleb128 0x16
 4966 012d 34       		.uleb128 0x34
 4967 012e 00       		.byte	0
 4968 012f 03       		.uleb128 0x3
 4969 0130 08       		.uleb128 0x8
 4970 0131 3A       		.uleb128 0x3a
 4971 0132 0B       		.uleb128 0xb
 4972 0133 3B       		.uleb128 0x3b
 4973 0134 0B       		.uleb128 0xb
 4974 0135 49       		.uleb128 0x49
 4975 0136 13       		.uleb128 0x13
 4976 0137 02       		.uleb128 0x2
 4977 0138 18       		.uleb128 0x18
 4978 0139 00       		.byte	0
 4979 013a 00       		.byte	0
 4980 013b 17       		.uleb128 0x17
 4981 013c 0B       		.uleb128 0xb
 4982 013d 01       		.byte	0x1
 4983 013e 11       		.uleb128 0x11
 4984 013f 01       		.uleb128 0x1
 4985 0140 12       		.uleb128 0x12
 4986 0141 06       		.uleb128 0x6
 4987 0142 00       		.byte	0
 4988 0143 00       		.byte	0
 4989 0144 18       		.uleb128 0x18
 4990 0145 21       		.uleb128 0x21
 4991 0146 00       		.byte	0
 4992 0147 49       		.uleb128 0x49
 4993 0148 13       		.uleb128 0x13
ARM GAS  C:\Users\honet\AppData\Local\Temp\ccWT9Ujf.s 			page 97


 4994 0149 2F       		.uleb128 0x2f
 4995 014a 0B       		.uleb128 0xb
 4996 014b 00       		.byte	0
 4997 014c 00       		.byte	0
 4998 014d 19       		.uleb128 0x19
 4999 014e 2E       		.uleb128 0x2e
 5000 014f 01       		.byte	0x1
 5001 0150 3F       		.uleb128 0x3f
 5002 0151 19       		.uleb128 0x19
 5003 0152 03       		.uleb128 0x3
 5004 0153 0E       		.uleb128 0xe
 5005 0154 3A       		.uleb128 0x3a
 5006 0155 0B       		.uleb128 0xb
 5007 0156 3B       		.uleb128 0x3b
 5008 0157 0B       		.uleb128 0xb
 5009 0158 11       		.uleb128 0x11
 5010 0159 01       		.uleb128 0x1
 5011 015a 12       		.uleb128 0x12
 5012 015b 06       		.uleb128 0x6
 5013 015c 40       		.uleb128 0x40
 5014 015d 18       		.uleb128 0x18
 5015 015e 9642     		.uleb128 0x2116
 5016 0160 19       		.uleb128 0x19
 5017 0161 01       		.uleb128 0x1
 5018 0162 13       		.uleb128 0x13
 5019 0163 00       		.byte	0
 5020 0164 00       		.byte	0
 5021 0165 1A       		.uleb128 0x1a
 5022 0166 34       		.uleb128 0x34
 5023 0167 00       		.byte	0
 5024 0168 03       		.uleb128 0x3
 5025 0169 0E       		.uleb128 0xe
 5026 016a 3A       		.uleb128 0x3a
 5027 016b 0B       		.uleb128 0xb
 5028 016c 3B       		.uleb128 0x3b
 5029 016d 0B       		.uleb128 0xb
 5030 016e 49       		.uleb128 0x49
 5031 016f 13       		.uleb128 0x13
 5032 0170 02       		.uleb128 0x2
 5033 0171 18       		.uleb128 0x18
 5034 0172 00       		.byte	0
 5035 0173 00       		.byte	0
 5036 0174 1B       		.uleb128 0x1b
 5037 0175 0A       		.uleb128 0xa
 5038 0176 00       		.byte	0
 5039 0177 03       		.uleb128 0x3
 5040 0178 0E       		.uleb128 0xe
 5041 0179 3A       		.uleb128 0x3a
 5042 017a 0B       		.uleb128 0xb
 5043 017b 3B       		.uleb128 0x3b
 5044 017c 05       		.uleb128 0x5
 5045 017d 11       		.uleb128 0x11
 5046 017e 01       		.uleb128 0x1
 5047 017f 00       		.byte	0
 5048 0180 00       		.byte	0
 5049 0181 1C       		.uleb128 0x1c
 5050 0182 34       		.uleb128 0x34
ARM GAS  C:\Users\honet\AppData\Local\Temp\ccWT9Ujf.s 			page 98


 5051 0183 00       		.byte	0
 5052 0184 03       		.uleb128 0x3
 5053 0185 0E       		.uleb128 0xe
 5054 0186 3A       		.uleb128 0x3a
 5055 0187 0B       		.uleb128 0xb
 5056 0188 3B       		.uleb128 0x3b
 5057 0189 05       		.uleb128 0x5
 5058 018a 49       		.uleb128 0x49
 5059 018b 13       		.uleb128 0x13
 5060 018c 02       		.uleb128 0x2
 5061 018d 18       		.uleb128 0x18
 5062 018e 00       		.byte	0
 5063 018f 00       		.byte	0
 5064 0190 1D       		.uleb128 0x1d
 5065 0191 34       		.uleb128 0x34
 5066 0192 00       		.byte	0
 5067 0193 03       		.uleb128 0x3
 5068 0194 08       		.uleb128 0x8
 5069 0195 3A       		.uleb128 0x3a
 5070 0196 0B       		.uleb128 0xb
 5071 0197 3B       		.uleb128 0x3b
 5072 0198 05       		.uleb128 0x5
 5073 0199 49       		.uleb128 0x49
 5074 019a 13       		.uleb128 0x13
 5075 019b 02       		.uleb128 0x2
 5076 019c 18       		.uleb128 0x18
 5077 019d 00       		.byte	0
 5078 019e 00       		.byte	0
 5079 019f 1E       		.uleb128 0x1e
 5080 01a0 21       		.uleb128 0x21
 5081 01a1 00       		.byte	0
 5082 01a2 49       		.uleb128 0x49
 5083 01a3 13       		.uleb128 0x13
 5084 01a4 2F       		.uleb128 0x2f
 5085 01a5 18       		.uleb128 0x18
 5086 01a6 00       		.byte	0
 5087 01a7 00       		.byte	0
 5088 01a8 1F       		.uleb128 0x1f
 5089 01a9 2E       		.uleb128 0x2e
 5090 01aa 01       		.byte	0x1
 5091 01ab 3F       		.uleb128 0x3f
 5092 01ac 19       		.uleb128 0x19
 5093 01ad 03       		.uleb128 0x3
 5094 01ae 0E       		.uleb128 0xe
 5095 01af 3A       		.uleb128 0x3a
 5096 01b0 0B       		.uleb128 0xb
 5097 01b1 3B       		.uleb128 0x3b
 5098 01b2 05       		.uleb128 0x5
 5099 01b3 49       		.uleb128 0x49
 5100 01b4 13       		.uleb128 0x13
 5101 01b5 11       		.uleb128 0x11
 5102 01b6 01       		.uleb128 0x1
 5103 01b7 12       		.uleb128 0x12
 5104 01b8 06       		.uleb128 0x6
 5105 01b9 40       		.uleb128 0x40
 5106 01ba 18       		.uleb128 0x18
 5107 01bb 9642     		.uleb128 0x2116
ARM GAS  C:\Users\honet\AppData\Local\Temp\ccWT9Ujf.s 			page 99


 5108 01bd 19       		.uleb128 0x19
 5109 01be 01       		.uleb128 0x1
 5110 01bf 13       		.uleb128 0x13
 5111 01c0 00       		.byte	0
 5112 01c1 00       		.byte	0
 5113 01c2 20       		.uleb128 0x20
 5114 01c3 34       		.uleb128 0x34
 5115 01c4 00       		.byte	0
 5116 01c5 03       		.uleb128 0x3
 5117 01c6 0E       		.uleb128 0xe
 5118 01c7 3A       		.uleb128 0x3a
 5119 01c8 0B       		.uleb128 0xb
 5120 01c9 3B       		.uleb128 0x3b
 5121 01ca 05       		.uleb128 0x5
 5122 01cb 49       		.uleb128 0x49
 5123 01cc 13       		.uleb128 0x13
 5124 01cd 3F       		.uleb128 0x3f
 5125 01ce 19       		.uleb128 0x19
 5126 01cf 3C       		.uleb128 0x3c
 5127 01d0 19       		.uleb128 0x19
 5128 01d1 00       		.byte	0
 5129 01d2 00       		.byte	0
 5130 01d3 21       		.uleb128 0x21
 5131 01d4 35       		.uleb128 0x35
 5132 01d5 00       		.byte	0
 5133 01d6 49       		.uleb128 0x49
 5134 01d7 13       		.uleb128 0x13
 5135 01d8 00       		.byte	0
 5136 01d9 00       		.byte	0
 5137 01da 22       		.uleb128 0x22
 5138 01db 34       		.uleb128 0x34
 5139 01dc 00       		.byte	0
 5140 01dd 03       		.uleb128 0x3
 5141 01de 0E       		.uleb128 0xe
 5142 01df 3A       		.uleb128 0x3a
 5143 01e0 0B       		.uleb128 0xb
 5144 01e1 3B       		.uleb128 0x3b
 5145 01e2 0B       		.uleb128 0xb
 5146 01e3 49       		.uleb128 0x49
 5147 01e4 13       		.uleb128 0x13
 5148 01e5 3F       		.uleb128 0x3f
 5149 01e6 19       		.uleb128 0x19
 5150 01e7 02       		.uleb128 0x2
 5151 01e8 18       		.uleb128 0x18
 5152 01e9 00       		.byte	0
 5153 01ea 00       		.byte	0
 5154 01eb 00       		.byte	0
 5155              		.section	.debug_aranges,"",%progbits
 5156 0000 4C000000 		.4byte	0x4c
 5157 0004 0200     		.2byte	0x2
 5158 0006 00000000 		.4byte	.Ldebug_info0
 5159 000a 04       		.byte	0x4
 5160 000b 00       		.byte	0
 5161 000c 0000     		.2byte	0
 5162 000e 0000     		.2byte	0
 5163 0010 00000000 		.4byte	.LFB63
 5164 0014 18000000 		.4byte	.LFE63-.LFB63
ARM GAS  C:\Users\honet\AppData\Local\Temp\ccWT9Ujf.s 			page 100


 5165 0018 00000000 		.4byte	.LFB64
 5166 001c 0E000000 		.4byte	.LFE64-.LFB64
 5167 0020 00000000 		.4byte	.LFB65
 5168 0024 0E000000 		.4byte	.LFE65-.LFB65
 5169 0028 00000000 		.4byte	.LFB66
 5170 002c 12000000 		.4byte	.LFE66-.LFB66
 5171 0030 00000000 		.4byte	.LFB67
 5172 0034 8C040000 		.4byte	.LFE67-.LFB67
 5173 0038 00000000 		.4byte	.LFB68
 5174 003c 0C0D0000 		.4byte	.LFE68-.LFB68
 5175 0040 00000000 		.4byte	.LFB69
 5176 0044 C8000000 		.4byte	.LFE69-.LFB69
 5177 0048 00000000 		.4byte	0
 5178 004c 00000000 		.4byte	0
 5179              		.section	.debug_ranges,"",%progbits
 5180              	.Ldebug_ranges0:
 5181 0000 00000000 		.4byte	.LFB63
 5182 0004 18000000 		.4byte	.LFE63
 5183 0008 00000000 		.4byte	.LFB64
 5184 000c 0E000000 		.4byte	.LFE64
 5185 0010 00000000 		.4byte	.LFB65
 5186 0014 0E000000 		.4byte	.LFE65
 5187 0018 00000000 		.4byte	.LFB66
 5188 001c 12000000 		.4byte	.LFE66
 5189 0020 00000000 		.4byte	.LFB67
 5190 0024 8C040000 		.4byte	.LFE67
 5191 0028 00000000 		.4byte	.LFB68
 5192 002c 0C0D0000 		.4byte	.LFE68
 5193 0030 00000000 		.4byte	.LFB69
 5194 0034 C8000000 		.4byte	.LFE69
 5195 0038 00000000 		.4byte	0
 5196 003c 00000000 		.4byte	0
 5197              		.section	.debug_line,"",%progbits
 5198              	.Ldebug_line0:
 5199 0000 CE060000 		.section	.debug_str,"MS",%progbits,1
 5199      0200CF01 
 5199      00000201 
 5199      FB0E0D00 
 5199      01010101 
 5200              	.LASF28:
 5201 0000 6E5F6661 		.ascii	"n_fats\000"
 5201      747300
 5202              	.LASF85:
 5203 0007 746D7063 		.ascii	"tmpchr\000"
 5203      687200
 5204              	.LASF61:
 5205 000e 46525F44 		.ascii	"FR_DENIED\000"
 5205      454E4945 
 5205      4400
 5206              	.LASF35:
 5207 0018 6E5F6661 		.ascii	"n_fatent\000"
 5207      74656E74 
 5207      00
 5208              	.LASF27:
 5209 0021 66735F74 		.ascii	"fs_type\000"
 5209      79706500 
 5210              	.LASF81:
ARM GAS  C:\Users\honet\AppData\Local\Temp\ccWT9Ujf.s 			page 101


 5211 0029 70537472 		.ascii	"pString\000"
 5211      696E6700 
 5212              	.LASF102:
 5213 0031 443A5C64 		.ascii	"D:\\develop\\projects\\SoundChipLogger\\firmware\\D"
 5213      6576656C 
 5213      6F705C70 
 5213      726F6A65 
 5213      6374735C 
 5214 005f 4D415344 		.ascii	"MASDSPITest\\DMASDSPITest.cydsn\000"
 5214      53504954 
 5214      6573745C 
 5214      444D4153 
 5214      44535049 
 5215              	.LASF94:
 5216 007e 6B627073 		.ascii	"kbps\000"
 5216      00
 5217              	.LASF5:
 5218 0083 73686F72 		.ascii	"short int\000"
 5218      7420696E 
 5218      7400
 5219              	.LASF90:
 5220 008d 6E526573 		.ascii	"nRes\000"
 5220      00
 5221              	.LASF14:
 5222 0092 73697A65 		.ascii	"sizetype\000"
 5222      74797065 
 5222      00
 5223              	.LASF96:
 5224 009b 6D61696E 		.ascii	"main\000"
 5224      00
 5225              	.LASF91:
 5226 00a0 6E437572 		.ascii	"nCurrentMillis\000"
 5226      72656E74 
 5226      4D696C6C 
 5226      697300
 5227              	.LASF59:
 5228 00af 46525F4E 		.ascii	"FR_NO_PATH\000"
 5228      4F5F5041 
 5228      544800
 5229              	.LASF10:
 5230 00ba 5F5F7569 		.ascii	"__uint32_t\000"
 5230      6E743332 
 5230      5F7400
 5231              	.LASF23:
 5232 00c5 42595445 		.ascii	"BYTE\000"
 5232      00
 5233              	.LASF6:
 5234 00ca 5F5F7569 		.ascii	"__uint16_t\000"
 5234      6E743136 
 5234      5F7400
 5235              	.LASF34:
 5236 00d5 66726565 		.ascii	"free_clst\000"
 5236      5F636C73 
 5236      7400
 5237              	.LASF92:
 5238 00df 42696E46 		.ascii	"BinFile\000"
 5238      696C6500 
ARM GAS  C:\Users\honet\AppData\Local\Temp\ccWT9Ujf.s 			page 102


 5239              	.LASF36:
 5240 00e7 6673697A 		.ascii	"fsize\000"
 5240      6500
 5241              	.LASF24:
 5242 00ed 574F5244 		.ascii	"WORD\000"
 5242      00
 5243              	.LASF63:
 5244 00f2 46525F49 		.ascii	"FR_INVALID_OBJECT\000"
 5244      4E56414C 
 5244      49445F4F 
 5244      424A4543 
 5244      5400
 5245              	.LASF54:
 5246 0104 46525F4F 		.ascii	"FR_OK\000"
 5246      4B00
 5247              	.LASF79:
 5248 010a 5072696E 		.ascii	"PrintFxn\000"
 5248      7446786E 
 5248      00
 5249              	.LASF83:
 5250 0113 6E76616C 		.ascii	"nvals\000"
 5250      7300
 5251              	.LASF49:
 5252 0119 66707472 		.ascii	"fptr\000"
 5252      00
 5253              	.LASF67:
 5254 011e 46525F4E 		.ascii	"FR_NO_FILESYSTEM\000"
 5254      4F5F4649 
 5254      4C455359 
 5254      5354454D 
 5254      00
 5255              	.LASF104:
 5256 012f 6572725F 		.ascii	"err_exit\000"
 5256      65786974 
 5256      00
 5257              	.LASF20:
 5258 0138 666C6F61 		.ascii	"float\000"
 5258      7400
 5259              	.LASF82:
 5260 013e 66756E63 		.ascii	"func\000"
 5260      00
 5261              	.LASF12:
 5262 0143 6C6F6E67 		.ascii	"long long int\000"
 5262      206C6F6E 
 5262      6720696E 
 5262      7400
 5263              	.LASF46:
 5264 0151 6F626A73 		.ascii	"objsize\000"
 5264      697A6500 
 5265              	.LASF9:
 5266 0159 6C6F6E67 		.ascii	"long int\000"
 5266      20696E74 
 5266      00
 5267              	.LASF103:
 5268 0162 73646265 		.ascii	"sdbench\000"
 5268      6E636800 
 5269              	.LASF32:
ARM GAS  C:\Users\honet\AppData\Local\Temp\ccWT9Ujf.s 			page 103


 5270 016a 6373697A 		.ascii	"csize\000"
 5270      6500
 5271              	.LASF47:
 5272 0170 5F464449 		.ascii	"_FDID\000"
 5272      4400
 5273              	.LASF3:
 5274 0176 5F5F7569 		.ascii	"__uint8_t\000"
 5274      6E74385F 
 5274      7400
 5275              	.LASF37:
 5276 0180 766F6C62 		.ascii	"volbase\000"
 5276      61736500 
 5277              	.LASF68:
 5278 0188 46525F4D 		.ascii	"FR_MKFS_ABORTED\000"
 5278      4B46535F 
 5278      41424F52 
 5278      54454400 
 5279              	.LASF57:
 5280 0198 46525F4E 		.ascii	"FR_NOT_READY\000"
 5280      4F545F52 
 5280      45414459 
 5280      00
 5281              	.LASF64:
 5282 01a5 46525F57 		.ascii	"FR_WRITE_PROTECTED\000"
 5282      52495445 
 5282      5F50524F 
 5282      54454354 
 5282      454400
 5283              	.LASF75:
 5284 01b8 44535441 		.ascii	"DSTATUS\000"
 5284      54555300 
 5285              	.LASF25:
 5286 01c0 44574F52 		.ascii	"DWORD\000"
 5286      4400
 5287              	.LASF30:
 5288 01c6 6673695F 		.ascii	"fsi_flag\000"
 5288      666C6167 
 5288      00
 5289              	.LASF88:
 5290 01cf 46696C65 		.ascii	"FileSys\000"
 5290      53797300 
 5291              	.LASF100:
 5292 01d7 474E5520 		.ascii	"GNU C 4.9.3 20150303 (release) [ARM/embedded-4_9-br"
 5292      4320342E 
 5292      392E3320 
 5292      32303135 
 5292      30333033 
 5293 020a 616E6368 		.ascii	"anch revision 221220] -mcpu=cortex-m3 -mthumb -g -O"
 5293      20726576 
 5293      6973696F 
 5293      6E203232 
 5293      31323230 
 5294 023d 30202D73 		.ascii	"0 -std=gnu99 -ffunction-sections -ffat-lto-objects\000"
 5294      74643D67 
 5294      6E753939 
 5294      202D6666 
 5294      756E6374 
ARM GAS  C:\Users\honet\AppData\Local\Temp\ccWT9Ujf.s 			page 104


 5295              	.LASF101:
 5296 0270 2E5C6D61 		.ascii	".\\main.c\000"
 5296      696E2E63 
 5296      00
 5297              	.LASF76:
 5298 0279 4D696C6C 		.ascii	"MillisISR\000"
 5298      69734953 
 5298      5200
 5299              	.LASF4:
 5300 0283 756E7369 		.ascii	"unsigned char\000"
 5300      676E6564 
 5300      20636861 
 5300      7200
 5301              	.LASF55:
 5302 0291 46525F44 		.ascii	"FR_DISK_ERR\000"
 5302      49534B5F 
 5302      45525200 
 5303              	.LASF50:
 5304 029d 636C7573 		.ascii	"clust\000"
 5304      7400
 5305              	.LASF29:
 5306 02a3 77666C61 		.ascii	"wflag\000"
 5306      6700
 5307              	.LASF51:
 5308 02a9 73656374 		.ascii	"sect\000"
 5308      00
 5309              	.LASF13:
 5310 02ae 6C6F6E67 		.ascii	"long long unsigned int\000"
 5310      206C6F6E 
 5310      6720756E 
 5310      7369676E 
 5310      65642069 
 5311              	.LASF19:
 5312 02c5 75696E74 		.ascii	"uint32_t\000"
 5312      33325F74 
 5312      00
 5313              	.LASF0:
 5314 02ce 756E7369 		.ascii	"unsigned int\000"
 5314      676E6564 
 5314      20696E74 
 5314      00
 5315              	.LASF72:
 5316 02db 46525F54 		.ascii	"FR_TOO_MANY_OPEN_FILES\000"
 5316      4F4F5F4D 
 5316      414E595F 
 5316      4F50454E 
 5316      5F46494C 
 5317              	.LASF40:
 5318 02f2 64617461 		.ascii	"database\000"
 5318      62617365 
 5318      00
 5319              	.LASF33:
 5320 02fb 6C617374 		.ascii	"last_clst\000"
 5320      5F636C73 
 5320      7400
 5321              	.LASF73:
 5322 0305 46525F49 		.ascii	"FR_INVALID_PARAMETER\000"
ARM GAS  C:\Users\honet\AppData\Local\Temp\ccWT9Ujf.s 			page 105


 5322      4E56414C 
 5322      49445F50 
 5322      4152414D 
 5322      45544552 
 5323              	.LASF66:
 5324 031a 46525F4E 		.ascii	"FR_NOT_ENABLED\000"
 5324      4F545F45 
 5324      4E41424C 
 5324      454400
 5325              	.LASF53:
 5326 0329 6469725F 		.ascii	"dir_ptr\000"
 5326      70747200 
 5327              	.LASF95:
 5328 0331 62566572 		.ascii	"bVerifyFail\000"
 5328      69667946 
 5328      61696C00 
 5329              	.LASF62:
 5330 033d 46525F45 		.ascii	"FR_EXIST\000"
 5330      58495354 
 5330      00
 5331              	.LASF15:
 5332 0346 63686172 		.ascii	"char\000"
 5332      00
 5333              	.LASF38:
 5334 034b 66617462 		.ascii	"fatbase\000"
 5334      61736500 
 5335              	.LASF22:
 5336 0353 55494E54 		.ascii	"UINT\000"
 5336      00
 5337              	.LASF18:
 5338 0358 696E7433 		.ascii	"int32_t\000"
 5338      325F7400 
 5339              	.LASF7:
 5340 0360 73686F72 		.ascii	"short unsigned int\000"
 5340      7420756E 
 5340      7369676E 
 5340      65642069 
 5340      6E7400
 5341              	.LASF78:
 5342 0373 53444341 		.ascii	"SDCARD_SLOW\000"
 5342      52445F53 
 5342      4C4F5700 
 5343              	.LASF2:
 5344 037f 73697A65 		.ascii	"size_t\000"
 5344      5F7400
 5345              	.LASF26:
 5346 0386 4653495A 		.ascii	"FSIZE_t\000"
 5346      455F7400 
 5347              	.LASF77:
 5348 038e 53444341 		.ascii	"SDCARD_FAST\000"
 5348      52445F46 
 5348      41535400 
 5349              	.LASF17:
 5350 039a 75696E74 		.ascii	"uint16_t\000"
 5350      31365F74 
 5350      00
 5351              	.LASF42:
ARM GAS  C:\Users\honet\AppData\Local\Temp\ccWT9Ujf.s 			page 106


 5352 03a3 46415446 		.ascii	"FATFS\000"
 5352      5300
 5353              	.LASF98:
 5354 03a9 6E6D696C 		.ascii	"nmillis\000"
 5354      6C697300 
 5355              	.LASF11:
 5356 03b1 6C6F6E67 		.ascii	"long unsigned int\000"
 5356      20756E73 
 5356      69676E65 
 5356      6420696E 
 5356      7400
 5357              	.LASF74:
 5358 03c3 46524553 		.ascii	"FRESULT\000"
 5358      554C5400 
 5359              	.LASF21:
 5360 03cb 646F7562 		.ascii	"double\000"
 5360      6C6500
 5361              	.LASF69:
 5362 03d2 46525F54 		.ascii	"FR_TIMEOUT\000"
 5362      494D454F 
 5362      555400
 5363              	.LASF89:
 5364 03dd 64726574 		.ascii	"dret\000"
 5364      00
 5365              	.LASF97:
 5366 03e2 49544D5F 		.ascii	"ITM_RxBuffer\000"
 5366      52784275 
 5366      66666572 
 5366      00
 5367              	.LASF58:
 5368 03ef 46525F4E 		.ascii	"FR_NO_FILE\000"
 5368      4F5F4649 
 5368      4C4500
 5369              	.LASF43:
 5370 03fa 61747472 		.ascii	"attr\000"
 5370      00
 5371              	.LASF31:
 5372 03ff 6E5F726F 		.ascii	"n_rootdir\000"
 5372      6F746469 
 5372      7200
 5373              	.LASF84:
 5374 0409 76616C73 		.ascii	"vals\000"
 5374      00
 5375              	.LASF56:
 5376 040e 46525F49 		.ascii	"FR_INT_ERR\000"
 5376      4E545F45 
 5376      525200
 5377              	.LASF8:
 5378 0419 5F5F696E 		.ascii	"__int32_t\000"
 5378      7433325F 
 5378      7400
 5379              	.LASF1:
 5380 0423 7369676E 		.ascii	"signed char\000"
 5380      65642063 
 5380      68617200 
 5381              	.LASF16:
 5382 042f 75696E74 		.ascii	"uint8_t\000"
ARM GAS  C:\Users\honet\AppData\Local\Temp\ccWT9Ujf.s 			page 107


 5382      385F7400 
 5383              	.LASF87:
 5384 0437 42797465 		.ascii	"BytesRead\000"
 5384      73526561 
 5384      6400
 5385              	.LASF45:
 5386 0441 73636C75 		.ascii	"sclust\000"
 5386      737400
 5387              	.LASF65:
 5388 0448 46525F49 		.ascii	"FR_INVALID_DRIVE\000"
 5388      4E56414C 
 5388      49445F44 
 5388      52495645 
 5388      00
 5389              	.LASF86:
 5390 0459 42797465 		.ascii	"BytesWritten\000"
 5390      73577269 
 5390      7474656E 
 5390      00
 5391              	.LASF99:
 5392 0466 46696C65 		.ascii	"File\000"
 5392      00
 5393              	.LASF93:
 5394 046b 6E54696D 		.ascii	"nTime\000"
 5394      6500
 5395              	.LASF48:
 5396 0471 666C6167 		.ascii	"flag\000"
 5396      00
 5397              	.LASF44:
 5398 0476 73746174 		.ascii	"stat\000"
 5398      00
 5399              	.LASF70:
 5400 047b 46525F4C 		.ascii	"FR_LOCKED\000"
 5400      4F434B45 
 5400      4400
 5401              	.LASF41:
 5402 0485 77696E73 		.ascii	"winsect\000"
 5402      65637400 
 5403              	.LASF80:
 5404 048d 63686B72 		.ascii	"chkres\000"
 5404      657300
 5405              	.LASF52:
 5406 0494 6469725F 		.ascii	"dir_sect\000"
 5406      73656374 
 5406      00
 5407              	.LASF71:
 5408 049d 46525F4E 		.ascii	"FR_NOT_ENOUGH_CORE\000"
 5408      4F545F45 
 5408      4E4F5547 
 5408      485F434F 
 5408      524500
 5409              	.LASF60:
 5410 04b0 46525F49 		.ascii	"FR_INVALID_NAME\000"
 5410      4E56414C 
 5410      49445F4E 
 5410      414D4500 
 5411              	.LASF39:
ARM GAS  C:\Users\honet\AppData\Local\Temp\ccWT9Ujf.s 			page 108


 5412 04c0 64697262 		.ascii	"dirbase\000"
 5412      61736500 
 5413              		.ident	"GCC: (GNU Tools for ARM Embedded Processors) 4.9.3 20150303 (release) [ARM/embedded-4_9-br
