ARM GAS  C:\Users\honet\AppData\Local\Temp\ccjVTVVZ.s 			page 1


   1              		.syntax unified
   2              		.cpu cortex-m3
   3              		.fpu softvfp
   4              		.eabi_attribute 20, 1
   5              		.eabi_attribute 21, 1
   6              		.eabi_attribute 23, 3
   7              		.eabi_attribute 24, 1
   8              		.eabi_attribute 25, 1
   9              		.eabi_attribute 26, 1
  10              		.eabi_attribute 30, 6
  11              		.eabi_attribute 34, 1
  12              		.eabi_attribute 18, 4
  13              		.thumb
  14              		.file	"SDSPI_api.c"
  15              		.text
  16              	.Ltext0:
  17              		.cfi_sections	.debug_frame
  18              		.bss
  19              	g_nTransferFlags:
  20 0000 00       		.space	1
  21              	g_nCtrlState:
  22 0001 00       		.space	1
  23              	bEnableDMA:
  24 0002 00       		.space	1
  25              	RXDMA_Channel:
  26 0003 00       		.space	1
  27              		.align	2
  28              	RXDMA_TD:
  29 0004 00       		.space	1
  30              	TXDMA_Channel:
  31 0005 00       		.space	1
  32 0006 0000     		.align	2
  33              	TXDMA_TD:
  34 0008 00       		.space	1
  35 0009 000000   		.data
  36              		.align	2
  37              		.type	dummy_data, %object
  38              		.size	dummy_data, 1
  39              	dummy_data:
  40 0000 FF       		.byte	-1
  41 0001 000000   		.section	.text.SDSPI_RX_DMA_ISR,"ax",%progbits
  42              		.align	2
  43              		.global	SDSPI_RX_DMA_ISR
  44              		.thumb
  45              		.thumb_func
  46              		.type	SDSPI_RX_DMA_ISR, %function
  47              	SDSPI_RX_DMA_ISR:
  48              	.LFB0:
  49              		.file 1 ".\\Generated_Source\\PSoC5\\SDSPI_api.c"
   1:.\Generated_Source\PSoC5/SDSPI_api.c **** /* ========================================
   2:.\Generated_Source\PSoC5/SDSPI_api.c ****  *
   3:.\Generated_Source\PSoC5/SDSPI_api.c ****  * Copyright YOUR COMPANY, THE YEAR
   4:.\Generated_Source\PSoC5/SDSPI_api.c ****  * All Rights Reserved
   5:.\Generated_Source\PSoC5/SDSPI_api.c ****  * UNPUBLISHED, LICENSED SOFTWARE.
   6:.\Generated_Source\PSoC5/SDSPI_api.c ****  *
   7:.\Generated_Source\PSoC5/SDSPI_api.c ****  * CONFIDENTIAL AND PROPRIETARY INFORMATION
   8:.\Generated_Source\PSoC5/SDSPI_api.c ****  * WHICH IS THE PROPERTY OF your company.
ARM GAS  C:\Users\honet\AppData\Local\Temp\ccjVTVVZ.s 			page 2


   9:.\Generated_Source\PSoC5/SDSPI_api.c ****  *
  10:.\Generated_Source\PSoC5/SDSPI_api.c ****  * ========================================
  11:.\Generated_Source\PSoC5/SDSPI_api.c **** */
  12:.\Generated_Source\PSoC5/SDSPI_api.c **** #include "SDSPI_api.h"
  13:.\Generated_Source\PSoC5/SDSPI_api.c **** #include "SDSPI_fatfs.h"
  14:.\Generated_Source\PSoC5/SDSPI_api.c **** 
  15:.\Generated_Source\PSoC5/SDSPI_api.c **** #include "SDSPI_SPIMaster.h"
  16:.\Generated_Source\PSoC5/SDSPI_api.c **** #include "SDSPI_CSControl.h"
  17:.\Generated_Source\PSoC5/SDSPI_api.c **** //#include "SDSPI_RX_IRQ.h"
  18:.\Generated_Source\PSoC5/SDSPI_api.c **** #include "SDSPI_RX_dma.h"
  19:.\Generated_Source\PSoC5/SDSPI_api.c **** #include "SDSPI_RX_DMA_IRQ.h"
  20:.\Generated_Source\PSoC5/SDSPI_api.c **** #include "SDSPI_TX_dma.h"
  21:.\Generated_Source\PSoC5/SDSPI_api.c **** //#include "SDSPI_TX_DMA_IRQ.h"
  22:.\Generated_Source\PSoC5/SDSPI_api.c **** 
  23:.\Generated_Source\PSoC5/SDSPI_api.c **** /* DMA Configuration for NSDSPI_RX */
  24:.\Generated_Source\PSoC5/SDSPI_api.c **** #define DMA_RX_BYTES_PER_BURST 1
  25:.\Generated_Source\PSoC5/SDSPI_api.c **** #define DMA_RX_REQUEST_PER_BURST 1
  26:.\Generated_Source\PSoC5/SDSPI_api.c **** #define DMA_RX_SRC_BASE (CYDEV_PERIPH_BASE)
  27:.\Generated_Source\PSoC5/SDSPI_api.c **** #define DMA_RX_DST_BASE (CYDEV_SRAM_BASE)
  28:.\Generated_Source\PSoC5/SDSPI_api.c **** 
  29:.\Generated_Source\PSoC5/SDSPI_api.c **** /* DMA Configuration for NSDSPI_TX */
  30:.\Generated_Source\PSoC5/SDSPI_api.c **** #define DMA_TX_BYTES_PER_BURST 1
  31:.\Generated_Source\PSoC5/SDSPI_api.c **** #define DMA_TX_REQUEST_PER_BURST 1
  32:.\Generated_Source\PSoC5/SDSPI_api.c **** #define DMA_TX_SRC_BASE (CYDEV_SRAM_BASE)
  33:.\Generated_Source\PSoC5/SDSPI_api.c **** #define DMA_TX_DST_BASE (CYDEV_PERIPH_BASE)
  34:.\Generated_Source\PSoC5/SDSPI_api.c **** 
  35:.\Generated_Source\PSoC5/SDSPI_api.c **** #define TRANSFER_WAIT_RXISR        1
  36:.\Generated_Source\PSoC5/SDSPI_api.c **** #define TRANSFER_WAIT_RXDMAISR     2
  37:.\Generated_Source\PSoC5/SDSPI_api.c **** #define TRANSFER_WAIT_TXDMAISR     4
  38:.\Generated_Source\PSoC5/SDSPI_api.c **** 
  39:.\Generated_Source\PSoC5/SDSPI_api.c **** 
  40:.\Generated_Source\PSoC5/SDSPI_api.c **** static volatile unsigned char g_nTransferFlags = 0;
  41:.\Generated_Source\PSoC5/SDSPI_api.c **** static volatile unsigned char g_nCtrlState = 0;
  42:.\Generated_Source\PSoC5/SDSPI_api.c **** 
  43:.\Generated_Source\PSoC5/SDSPI_api.c **** static uint8_t bEnableDMA = 0;
  44:.\Generated_Source\PSoC5/SDSPI_api.c ****     
  45:.\Generated_Source\PSoC5/SDSPI_api.c **** /* Variable declarations for DMA RX */
  46:.\Generated_Source\PSoC5/SDSPI_api.c **** static uint8_t RXDMA_Channel = 0;
  47:.\Generated_Source\PSoC5/SDSPI_api.c **** static uint8_t RXDMA_TD[1];
  48:.\Generated_Source\PSoC5/SDSPI_api.c **** /* Variable declarations for DMA TX */
  49:.\Generated_Source\PSoC5/SDSPI_api.c **** static uint8_t TXDMA_Channel = 0;
  50:.\Generated_Source\PSoC5/SDSPI_api.c **** static uint8_t TXDMA_TD[1];
  51:.\Generated_Source\PSoC5/SDSPI_api.c **** 
  52:.\Generated_Source\PSoC5/SDSPI_api.c **** static uint8_t dummy_data[1] = { 0xff };
  53:.\Generated_Source\PSoC5/SDSPI_api.c **** 
  54:.\Generated_Source\PSoC5/SDSPI_api.c **** //DMA termination ISRs
  55:.\Generated_Source\PSoC5/SDSPI_api.c **** void SDSPI_RX_DMA_ISR(){
  50              		.loc 1 55 0
  51              		.cfi_startproc
  52              		@ args = 0, pretend = 0, frame = 0
  53              		@ frame_needed = 1, uses_anonymous_args = 0
  54              		@ link register save eliminated.
  55 0000 80B4     		push	{r7}
  56              		.cfi_def_cfa_offset 4
  57              		.cfi_offset 7, -4
  58 0002 00AF     		add	r7, sp, #0
  59              		.cfi_def_cfa_register 7
ARM GAS  C:\Users\honet\AppData\Local\Temp\ccjVTVVZ.s 			page 3


  56:.\Generated_Source\PSoC5/SDSPI_api.c **** 	g_nTransferFlags &= ~TRANSFER_WAIT_RXDMAISR;
  60              		.loc 1 56 0
  61 0004 054B     		ldr	r3, .L2
  62 0006 1B78     		ldrb	r3, [r3]
  63 0008 DBB2     		uxtb	r3, r3
  64 000a 23F00203 		bic	r3, r3, #2
  65 000e DAB2     		uxtb	r2, r3
  66 0010 024B     		ldr	r3, .L2
  67 0012 1A70     		strb	r2, [r3]
  57:.\Generated_Source\PSoC5/SDSPI_api.c **** }
  68              		.loc 1 57 0
  69 0014 BD46     		mov	sp, r7
  70              		.cfi_def_cfa_register 13
  71              		@ sp needed
  72 0016 5DF8047B 		ldr	r7, [sp], #4
  73              		.cfi_restore 7
  74              		.cfi_def_cfa_offset 0
  75 001a 7047     		bx	lr
  76              	.L3:
  77              		.align	2
  78              	.L2:
  79 001c 00000000 		.word	g_nTransferFlags
  80              		.cfi_endproc
  81              	.LFE0:
  82              		.size	SDSPI_RX_DMA_ISR, .-SDSPI_RX_DMA_ISR
  83              		.section	.text.dma_setup,"ax",%progbits
  84              		.align	2
  85              		.global	dma_setup
  86              		.thumb
  87              		.thumb_func
  88              		.type	dma_setup, %function
  89              	dma_setup:
  90              	.LFB1:
  58:.\Generated_Source\PSoC5/SDSPI_api.c **** 
  59:.\Generated_Source\PSoC5/SDSPI_api.c **** //void SDSPI_TX_DMA_ISR(){
  60:.\Generated_Source\PSoC5/SDSPI_api.c **** //	g_nTransferFlags &= ~TRANSFER_WAIT_TXDMAISR;
  61:.\Generated_Source\PSoC5/SDSPI_api.c **** //}
  62:.\Generated_Source\PSoC5/SDSPI_api.c **** 
  63:.\Generated_Source\PSoC5/SDSPI_api.c **** 
  64:.\Generated_Source\PSoC5/SDSPI_api.c **** void dma_setup() {
  91              		.loc 1 64 0
  92              		.cfi_startproc
  93              		@ args = 0, pretend = 0, frame = 0
  94              		@ frame_needed = 1, uses_anonymous_args = 0
  95 0000 80B5     		push	{r7, lr}
  96              		.cfi_def_cfa_offset 8
  97              		.cfi_offset 7, -8
  98              		.cfi_offset 14, -4
  99 0002 00AF     		add	r7, sp, #0
 100              		.cfi_def_cfa_register 7
  65:.\Generated_Source\PSoC5/SDSPI_api.c **** 	SDSPI_RX_DMA_IRQ_StartEx(SDSPI_RX_DMA_ISR);
 101              		.loc 1 65 0
 102 0004 1848     		ldr	r0, .L5
 103 0006 FFF7FEFF 		bl	SDSPI_RX_DMA_IRQ_StartEx
  66:.\Generated_Source\PSoC5/SDSPI_api.c **** 
  67:.\Generated_Source\PSoC5/SDSPI_api.c **** 	RXDMA_Channel = SDSPI_RX_DmaInitialize(
 104              		.loc 1 67 0
ARM GAS  C:\Users\honet\AppData\Local\Temp\ccjVTVVZ.s 			page 4


 105 000a 0120     		movs	r0, #1
 106 000c 0121     		movs	r1, #1
 107 000e 4FF48042 		mov	r2, #16384
 108 0012 41F6FF73 		movw	r3, #8191
 109 0016 FFF7FEFF 		bl	SDSPI_RX_DmaInitialize
 110 001a 0346     		mov	r3, r0
 111 001c 1A46     		mov	r2, r3
 112 001e 134B     		ldr	r3, .L5+4
 113 0020 1A70     		strb	r2, [r3]
  68:.\Generated_Source\PSoC5/SDSPI_api.c **** 		DMA_RX_BYTES_PER_BURST, DMA_RX_REQUEST_PER_BURST,
  69:.\Generated_Source\PSoC5/SDSPI_api.c **** 		HI16(DMA_RX_SRC_BASE), HI16(DMA_RX_DST_BASE));
  70:.\Generated_Source\PSoC5/SDSPI_api.c **** 
  71:.\Generated_Source\PSoC5/SDSPI_api.c **** 	TXDMA_Channel = SDSPI_TX_DmaInitialize(
 114              		.loc 1 71 0
 115 0022 0120     		movs	r0, #1
 116 0024 0121     		movs	r1, #1
 117 0026 41F6FF72 		movw	r2, #8191
 118 002a 4FF48043 		mov	r3, #16384
 119 002e FFF7FEFF 		bl	SDSPI_TX_DmaInitialize
 120 0032 0346     		mov	r3, r0
 121 0034 1A46     		mov	r2, r3
 122 0036 0E4B     		ldr	r3, .L5+8
 123 0038 1A70     		strb	r2, [r3]
  72:.\Generated_Source\PSoC5/SDSPI_api.c **** 		DMA_TX_BYTES_PER_BURST, DMA_TX_REQUEST_PER_BURST,
  73:.\Generated_Source\PSoC5/SDSPI_api.c **** 		HI16(DMA_TX_SRC_BASE), HI16(DMA_TX_DST_BASE));
  74:.\Generated_Source\PSoC5/SDSPI_api.c **** 
  75:.\Generated_Source\PSoC5/SDSPI_api.c **** 	//allocate a TD
  76:.\Generated_Source\PSoC5/SDSPI_api.c **** 	TXDMA_TD[0] = CyDmaTdAllocate();
 124              		.loc 1 76 0
 125 003a FFF7FEFF 		bl	CyDmaTdAllocate
 126 003e 0346     		mov	r3, r0
 127 0040 1A46     		mov	r2, r3
 128 0042 0C4B     		ldr	r3, .L5+12
 129 0044 1A70     		strb	r2, [r3]
  77:.\Generated_Source\PSoC5/SDSPI_api.c **** 	RXDMA_TD[0] = CyDmaTdAllocate();
 130              		.loc 1 77 0
 131 0046 FFF7FEFF 		bl	CyDmaTdAllocate
 132 004a 0346     		mov	r3, r0
 133 004c 1A46     		mov	r2, r3
 134 004e 0A4B     		ldr	r3, .L5+16
 135 0050 1A70     		strb	r2, [r3]
  78:.\Generated_Source\PSoC5/SDSPI_api.c **** 
  79:.\Generated_Source\PSoC5/SDSPI_api.c **** 	CyDmaClearPendingDrq(RXDMA_Channel);
 136              		.loc 1 79 0
 137 0052 064B     		ldr	r3, .L5+4
 138 0054 1B78     		ldrb	r3, [r3]	@ zero_extendqisi2
 139 0056 1846     		mov	r0, r3
 140 0058 FFF7FEFF 		bl	CyDmaClearPendingDrq
  80:.\Generated_Source\PSoC5/SDSPI_api.c **** 	CyDmaClearPendingDrq(TXDMA_Channel);
 141              		.loc 1 80 0
 142 005c 044B     		ldr	r3, .L5+8
 143 005e 1B78     		ldrb	r3, [r3]	@ zero_extendqisi2
 144 0060 1846     		mov	r0, r3
 145 0062 FFF7FEFF 		bl	CyDmaClearPendingDrq
  81:.\Generated_Source\PSoC5/SDSPI_api.c **** 
  82:.\Generated_Source\PSoC5/SDSPI_api.c **** }
 146              		.loc 1 82 0
ARM GAS  C:\Users\honet\AppData\Local\Temp\ccjVTVVZ.s 			page 5


 147 0066 80BD     		pop	{r7, pc}
 148              	.L6:
 149              		.align	2
 150              	.L5:
 151 0068 00000000 		.word	SDSPI_RX_DMA_ISR
 152 006c 03000000 		.word	RXDMA_Channel
 153 0070 05000000 		.word	TXDMA_Channel
 154 0074 08000000 		.word	TXDMA_TD
 155 0078 04000000 		.word	RXDMA_TD
 156              		.cfi_endproc
 157              	.LFE1:
 158              		.size	dma_setup, .-dma_setup
 159              		.section	.text.dma_shutdown,"ax",%progbits
 160              		.align	2
 161              		.global	dma_shutdown
 162              		.thumb
 163              		.thumb_func
 164              		.type	dma_shutdown, %function
 165              	dma_shutdown:
 166              	.LFB2:
  83:.\Generated_Source\PSoC5/SDSPI_api.c **** void dma_shutdown() {
 167              		.loc 1 83 0
 168              		.cfi_startproc
 169              		@ args = 0, pretend = 0, frame = 0
 170              		@ frame_needed = 1, uses_anonymous_args = 0
 171 0000 80B5     		push	{r7, lr}
 172              		.cfi_def_cfa_offset 8
 173              		.cfi_offset 7, -8
 174              		.cfi_offset 14, -4
 175 0002 00AF     		add	r7, sp, #0
 176              		.cfi_def_cfa_register 7
  84:.\Generated_Source\PSoC5/SDSPI_api.c **** 	//Free Transfer Descriptor
  85:.\Generated_Source\PSoC5/SDSPI_api.c **** 	CyDmaTdFree(TXDMA_TD[0]);
 177              		.loc 1 85 0
 178 0004 084B     		ldr	r3, .L8
 179 0006 1B78     		ldrb	r3, [r3]	@ zero_extendqisi2
 180 0008 1846     		mov	r0, r3
 181 000a FFF7FEFF 		bl	CyDmaTdFree
  86:.\Generated_Source\PSoC5/SDSPI_api.c **** 	CyDmaTdFree(RXDMA_TD[0]);
 182              		.loc 1 86 0
 183 000e 074B     		ldr	r3, .L8+4
 184 0010 1B78     		ldrb	r3, [r3]	@ zero_extendqisi2
 185 0012 1846     		mov	r0, r3
 186 0014 FFF7FEFF 		bl	CyDmaTdFree
  87:.\Generated_Source\PSoC5/SDSPI_api.c **** 
  88:.\Generated_Source\PSoC5/SDSPI_api.c **** 	SDSPI_RX_DMA_IRQ_Stop();
 187              		.loc 1 88 0
 188 0018 FFF7FEFF 		bl	SDSPI_RX_DMA_IRQ_Stop
  89:.\Generated_Source\PSoC5/SDSPI_api.c **** 	//SDSPI_TX_DMA_IRQ_Stop();
  90:.\Generated_Source\PSoC5/SDSPI_api.c **** 	SDSPI_RX_DmaRelease();
 189              		.loc 1 90 0
 190 001c FFF7FEFF 		bl	SDSPI_RX_DmaRelease
  91:.\Generated_Source\PSoC5/SDSPI_api.c **** 	SDSPI_TX_DmaRelease();
 191              		.loc 1 91 0
 192 0020 FFF7FEFF 		bl	SDSPI_TX_DmaRelease
  92:.\Generated_Source\PSoC5/SDSPI_api.c **** }
 193              		.loc 1 92 0
ARM GAS  C:\Users\honet\AppData\Local\Temp\ccjVTVVZ.s 			page 6


 194 0024 80BD     		pop	{r7, pc}
 195              	.L9:
 196 0026 00BF     		.align	2
 197              	.L8:
 198 0028 08000000 		.word	TXDMA_TD
 199 002c 04000000 		.word	RXDMA_TD
 200              		.cfi_endproc
 201              	.LFE2:
 202              		.size	dma_shutdown, .-dma_shutdown
 203              		.section	.text.SDSPI_Start,"ax",%progbits
 204              		.align	2
 205              		.global	SDSPI_Start
 206              		.thumb
 207              		.thumb_func
 208              		.type	SDSPI_Start, %function
 209              	SDSPI_Start:
 210              	.LFB3:
  93:.\Generated_Source\PSoC5/SDSPI_api.c **** 
  94:.\Generated_Source\PSoC5/SDSPI_api.c **** void SDSPI_Start(SDSPI_VOIDFXN FnSelSlowCk, SDSPI_VOIDFXN FnSelFastCk, SDSPI_PRNTFXN FnPrint)
  95:.\Generated_Source\PSoC5/SDSPI_api.c **** {
 211              		.loc 1 95 0
 212              		.cfi_startproc
 213              		@ args = 0, pretend = 0, frame = 56
 214              		@ frame_needed = 1, uses_anonymous_args = 0
 215 0000 80B5     		push	{r7, lr}
 216              		.cfi_def_cfa_offset 8
 217              		.cfi_offset 7, -8
 218              		.cfi_offset 14, -4
 219 0002 8EB0     		sub	sp, sp, #56
 220              		.cfi_def_cfa_offset 64
 221 0004 00AF     		add	r7, sp, #0
 222              		.cfi_def_cfa_register 7
 223 0006 F860     		str	r0, [r7, #12]
 224 0008 B960     		str	r1, [r7, #8]
 225 000a 7A60     		str	r2, [r7, #4]
  96:.\Generated_Source\PSoC5/SDSPI_api.c **** 	SPI_FUNCTIONS SpiFuncs;
  97:.\Generated_Source\PSoC5/SDSPI_api.c **** 	SpiFuncs.SPSTART = SDSPI_StartInterface;
 226              		.loc 1 97 0
 227 000c 0D4B     		ldr	r3, .L11
 228 000e 3B62     		str	r3, [r7, #32]
  98:.\Generated_Source\PSoC5/SDSPI_api.c **** 	SpiFuncs.SPSTOP = SDSPI_Stop;
 229              		.loc 1 98 0
 230 0010 0D4B     		ldr	r3, .L11+4
 231 0012 7B62     		str	r3, [r7, #36]
  99:.\Generated_Source\PSoC5/SDSPI_api.c **** 	SpiFuncs.SPRXSTREAM = SDSPI_ReceiveData;
 232              		.loc 1 99 0
 233 0014 0D4B     		ldr	r3, .L11+8
 234 0016 FB62     		str	r3, [r7, #44]
 100:.\Generated_Source\PSoC5/SDSPI_api.c **** 	SpiFuncs.SPTXSTREAM = SDSPI_SendData;
 235              		.loc 1 100 0
 236 0018 0D4B     		ldr	r3, .L11+12
 237 001a 3B63     		str	r3, [r7, #48]
 101:.\Generated_Source\PSoC5/SDSPI_api.c **** 	SpiFuncs.SPEXCHANGE = SDSPI_SwapByte;
 238              		.loc 1 101 0
 239 001c 0D4B     		ldr	r3, .L11+16
 240 001e BB62     		str	r3, [r7, #40]
 102:.\Generated_Source\PSoC5/SDSPI_api.c **** 	SpiFuncs.SPSELECTCARD = SDSPI_SelectCard;
ARM GAS  C:\Users\honet\AppData\Local\Temp\ccjVTVVZ.s 			page 7


 241              		.loc 1 102 0
 242 0020 0D4B     		ldr	r3, .L11+20
 243 0022 3B61     		str	r3, [r7, #16]
 103:.\Generated_Source\PSoC5/SDSPI_api.c **** 	SpiFuncs.SPDESELECTCARD = SDSPI_DeselectCard;
 244              		.loc 1 103 0
 245 0024 0D4B     		ldr	r3, .L11+24
 246 0026 7B61     		str	r3, [r7, #20]
 104:.\Generated_Source\PSoC5/SDSPI_api.c **** 	SpiFuncs.SPFASTCK = FnSelFastCk;
 247              		.loc 1 104 0
 248 0028 BB68     		ldr	r3, [r7, #8]
 249 002a FB61     		str	r3, [r7, #28]
 105:.\Generated_Source\PSoC5/SDSPI_api.c **** 	SpiFuncs.SPSLOWCK = FnSelSlowCk;
 250              		.loc 1 105 0
 251 002c FB68     		ldr	r3, [r7, #12]
 252 002e BB61     		str	r3, [r7, #24]
 106:.\Generated_Source\PSoC5/SDSPI_api.c **** 
 107:.\Generated_Source\PSoC5/SDSPI_api.c **** 	SpiFuncs.PRINT = FnPrint;
 253              		.loc 1 107 0
 254 0030 7B68     		ldr	r3, [r7, #4]
 255 0032 7B63     		str	r3, [r7, #52]
 108:.\Generated_Source\PSoC5/SDSPI_api.c **** 	disk_attach_spifuncs(&SpiFuncs);
 256              		.loc 1 108 0
 257 0034 07F11003 		add	r3, r7, #16
 258 0038 1846     		mov	r0, r3
 259 003a FFF7FEFF 		bl	disk_attach_spifuncs
 109:.\Generated_Source\PSoC5/SDSPI_api.c **** }
 260              		.loc 1 109 0
 261 003e 3837     		adds	r7, r7, #56
 262              		.cfi_def_cfa_offset 8
 263 0040 BD46     		mov	sp, r7
 264              		.cfi_def_cfa_register 13
 265              		@ sp needed
 266 0042 80BD     		pop	{r7, pc}
 267              	.L12:
 268              		.align	2
 269              	.L11:
 270 0044 00000000 		.word	SDSPI_StartInterface
 271 0048 00000000 		.word	SDSPI_Stop
 272 004c 00000000 		.word	SDSPI_ReceiveData
 273 0050 00000000 		.word	SDSPI_SendData
 274 0054 00000000 		.word	SDSPI_SwapByte
 275 0058 00000000 		.word	SDSPI_SelectCard
 276 005c 00000000 		.word	SDSPI_DeselectCard
 277              		.cfi_endproc
 278              	.LFE3:
 279              		.size	SDSPI_Start, .-SDSPI_Start
 280              		.section	.text.SDSPI_StartInterface,"ax",%progbits
 281              		.align	2
 282              		.global	SDSPI_StartInterface
 283              		.thumb
 284              		.thumb_func
 285              		.type	SDSPI_StartInterface, %function
 286              	SDSPI_StartInterface:
 287              	.LFB4:
 110:.\Generated_Source\PSoC5/SDSPI_api.c **** 
 111:.\Generated_Source\PSoC5/SDSPI_api.c **** 
 112:.\Generated_Source\PSoC5/SDSPI_api.c **** //initialize component, attach ISRs, etc.
ARM GAS  C:\Users\honet\AppData\Local\Temp\ccjVTVVZ.s 			page 8


 113:.\Generated_Source\PSoC5/SDSPI_api.c **** void SDSPI_StartInterface(void)
 114:.\Generated_Source\PSoC5/SDSPI_api.c **** {
 288              		.loc 1 114 0
 289              		.cfi_startproc
 290              		@ args = 0, pretend = 0, frame = 0
 291              		@ frame_needed = 1, uses_anonymous_args = 0
 292 0000 80B5     		push	{r7, lr}
 293              		.cfi_def_cfa_offset 8
 294              		.cfi_offset 7, -8
 295              		.cfi_offset 14, -4
 296 0002 00AF     		add	r7, sp, #0
 297              		.cfi_def_cfa_register 7
 115:.\Generated_Source\PSoC5/SDSPI_api.c **** 	g_nTransferFlags = 0;
 298              		.loc 1 115 0
 299 0004 044B     		ldr	r3, .L14
 300 0006 0022     		movs	r2, #0
 301 0008 1A70     		strb	r2, [r3]
 116:.\Generated_Source\PSoC5/SDSPI_api.c **** 	
 117:.\Generated_Source\PSoC5/SDSPI_api.c **** 	SDSPI_SPIMaster_Start();
 302              		.loc 1 117 0
 303 000a FFF7FEFF 		bl	SDSPI_SPIMaster_Start
 118:.\Generated_Source\PSoC5/SDSPI_api.c **** 
 119:.\Generated_Source\PSoC5/SDSPI_api.c **** 	SDSPI_SetDMAMode(0);
 304              		.loc 1 119 0
 305 000e 0020     		movs	r0, #0
 306 0010 FFF7FEFF 		bl	SDSPI_SetDMAMode
 120:.\Generated_Source\PSoC5/SDSPI_api.c **** }
 307              		.loc 1 120 0
 308 0014 80BD     		pop	{r7, pc}
 309              	.L15:
 310 0016 00BF     		.align	2
 311              	.L14:
 312 0018 00000000 		.word	g_nTransferFlags
 313              		.cfi_endproc
 314              	.LFE4:
 315              		.size	SDSPI_StartInterface, .-SDSPI_StartInterface
 316              		.section	.text.SDSPI_Stop,"ax",%progbits
 317              		.align	2
 318              		.global	SDSPI_Stop
 319              		.thumb
 320              		.thumb_func
 321              		.type	SDSPI_Stop, %function
 322              	SDSPI_Stop:
 323              	.LFB5:
 121:.\Generated_Source\PSoC5/SDSPI_api.c **** 
 122:.\Generated_Source\PSoC5/SDSPI_api.c **** 
 123:.\Generated_Source\PSoC5/SDSPI_api.c **** void SDSPI_Stop()
 124:.\Generated_Source\PSoC5/SDSPI_api.c **** {
 324              		.loc 1 124 0
 325              		.cfi_startproc
 326              		@ args = 0, pretend = 0, frame = 0
 327              		@ frame_needed = 1, uses_anonymous_args = 0
 328 0000 80B5     		push	{r7, lr}
 329              		.cfi_def_cfa_offset 8
 330              		.cfi_offset 7, -8
 331              		.cfi_offset 14, -4
 332 0002 00AF     		add	r7, sp, #0
ARM GAS  C:\Users\honet\AppData\Local\Temp\ccjVTVVZ.s 			page 9


 333              		.cfi_def_cfa_register 7
 125:.\Generated_Source\PSoC5/SDSPI_api.c **** 	if(bEnableDMA) {
 334              		.loc 1 125 0
 335 0004 064B     		ldr	r3, .L18
 336 0006 1B78     		ldrb	r3, [r3]	@ zero_extendqisi2
 337 0008 002B     		cmp	r3, #0
 338 000a 04D0     		beq	.L17
 126:.\Generated_Source\PSoC5/SDSPI_api.c **** 		dma_shutdown();
 339              		.loc 1 126 0
 340 000c FFF7FEFF 		bl	dma_shutdown
 127:.\Generated_Source\PSoC5/SDSPI_api.c **** 		bEnableDMA = 0;
 341              		.loc 1 127 0
 342 0010 034B     		ldr	r3, .L18
 343 0012 0022     		movs	r2, #0
 344 0014 1A70     		strb	r2, [r3]
 345              	.L17:
 128:.\Generated_Source\PSoC5/SDSPI_api.c **** 	}
 129:.\Generated_Source\PSoC5/SDSPI_api.c **** 
 130:.\Generated_Source\PSoC5/SDSPI_api.c **** 	SDSPI_DeselectCard();
 346              		.loc 1 130 0
 347 0016 FFF7FEFF 		bl	SDSPI_DeselectCard
 131:.\Generated_Source\PSoC5/SDSPI_api.c **** 	SDSPI_SPIMaster_Stop();
 348              		.loc 1 131 0
 349 001a FFF7FEFF 		bl	SDSPI_SPIMaster_Stop
 132:.\Generated_Source\PSoC5/SDSPI_api.c **** }
 350              		.loc 1 132 0
 351 001e 80BD     		pop	{r7, pc}
 352              	.L19:
 353              		.align	2
 354              	.L18:
 355 0020 02000000 		.word	bEnableDMA
 356              		.cfi_endproc
 357              	.LFE5:
 358              		.size	SDSPI_Stop, .-SDSPI_Stop
 359              		.section	.text.SDSPI_SelectCard,"ax",%progbits
 360              		.align	2
 361              		.global	SDSPI_SelectCard
 362              		.thumb
 363              		.thumb_func
 364              		.type	SDSPI_SelectCard, %function
 365              	SDSPI_SelectCard:
 366              	.LFB6:
 133:.\Generated_Source\PSoC5/SDSPI_api.c **** 
 134:.\Generated_Source\PSoC5/SDSPI_api.c **** void SDSPI_SelectCard() {
 367              		.loc 1 134 0
 368              		.cfi_startproc
 369              		@ args = 0, pretend = 0, frame = 0
 370              		@ frame_needed = 1, uses_anonymous_args = 0
 371 0000 80B5     		push	{r7, lr}
 372              		.cfi_def_cfa_offset 8
 373              		.cfi_offset 7, -8
 374              		.cfi_offset 14, -4
 375 0002 00AF     		add	r7, sp, #0
 376              		.cfi_def_cfa_register 7
 135:.\Generated_Source\PSoC5/SDSPI_api.c **** 	SDSPI_CSControl_Write(0);
 377              		.loc 1 135 0
 378 0004 0020     		movs	r0, #0
ARM GAS  C:\Users\honet\AppData\Local\Temp\ccjVTVVZ.s 			page 10


 379 0006 FFF7FEFF 		bl	SDSPI_CSControl_Write
 136:.\Generated_Source\PSoC5/SDSPI_api.c **** }
 380              		.loc 1 136 0
 381 000a 80BD     		pop	{r7, pc}
 382              		.cfi_endproc
 383              	.LFE6:
 384              		.size	SDSPI_SelectCard, .-SDSPI_SelectCard
 385              		.section	.text.SDSPI_DeselectCard,"ax",%progbits
 386              		.align	2
 387              		.global	SDSPI_DeselectCard
 388              		.thumb
 389              		.thumb_func
 390              		.type	SDSPI_DeselectCard, %function
 391              	SDSPI_DeselectCard:
 392              	.LFB7:
 137:.\Generated_Source\PSoC5/SDSPI_api.c **** 
 138:.\Generated_Source\PSoC5/SDSPI_api.c **** void SDSPI_DeselectCard() {
 393              		.loc 1 138 0
 394              		.cfi_startproc
 395              		@ args = 0, pretend = 0, frame = 0
 396              		@ frame_needed = 1, uses_anonymous_args = 0
 397 0000 80B5     		push	{r7, lr}
 398              		.cfi_def_cfa_offset 8
 399              		.cfi_offset 7, -8
 400              		.cfi_offset 14, -4
 401 0002 00AF     		add	r7, sp, #0
 402              		.cfi_def_cfa_register 7
 139:.\Generated_Source\PSoC5/SDSPI_api.c **** 	SDSPI_CSControl_Write(1);
 403              		.loc 1 139 0
 404 0004 0120     		movs	r0, #1
 405 0006 FFF7FEFF 		bl	SDSPI_CSControl_Write
 140:.\Generated_Source\PSoC5/SDSPI_api.c **** }
 406              		.loc 1 140 0
 407 000a 80BD     		pop	{r7, pc}
 408              		.cfi_endproc
 409              	.LFE7:
 410              		.size	SDSPI_DeselectCard, .-SDSPI_DeselectCard
 411              		.section	.text.SDSPI_SendData,"ax",%progbits
 412              		.align	2
 413              		.global	SDSPI_SendData
 414              		.thumb
 415              		.thumb_func
 416              		.type	SDSPI_SendData, %function
 417              	SDSPI_SendData:
 418              	.LFB8:
 141:.\Generated_Source\PSoC5/SDSPI_api.c **** 
 142:.\Generated_Source\PSoC5/SDSPI_api.c **** //Send a block of data and discard received bytes.
 143:.\Generated_Source\PSoC5/SDSPI_api.c **** void SDSPI_SendData(const uint8_t* pBuffer, uint32_t nLength)
 144:.\Generated_Source\PSoC5/SDSPI_api.c **** {
 419              		.loc 1 144 0
 420              		.cfi_startproc
 421              		@ args = 0, pretend = 0, frame = 16
 422              		@ frame_needed = 1, uses_anonymous_args = 0
 423 0000 80B5     		push	{r7, lr}
 424              		.cfi_def_cfa_offset 8
 425              		.cfi_offset 7, -8
 426              		.cfi_offset 14, -4
ARM GAS  C:\Users\honet\AppData\Local\Temp\ccjVTVVZ.s 			page 11


 427 0002 84B0     		sub	sp, sp, #16
 428              		.cfi_def_cfa_offset 24
 429 0004 00AF     		add	r7, sp, #0
 430              		.cfi_def_cfa_register 7
 431 0006 7860     		str	r0, [r7, #4]
 432 0008 3960     		str	r1, [r7]
 145:.\Generated_Source\PSoC5/SDSPI_api.c **** 	if((nLength > 4095)||(nLength < 1)){
 433              		.loc 1 145 0
 434 000a 3B68     		ldr	r3, [r7]
 435 000c B3F5805F 		cmp	r3, #4096
 436 0010 02D2     		bcs	.L23
 437              		.loc 1 145 0 is_stmt 0 discriminator 1
 438 0012 3B68     		ldr	r3, [r7]
 439 0014 002B     		cmp	r3, #0
 440 0016 00D1     		bne	.L24
 441              	.L23:
 146:.\Generated_Source\PSoC5/SDSPI_api.c **** 		return; //this never happens - filesys transfers max. 512 bytes at a time
 442              		.loc 1 146 0 is_stmt 1
 443 0018 85E0     		b	.L22
 444              	.L24:
 147:.\Generated_Source\PSoC5/SDSPI_api.c **** 	}
 148:.\Generated_Source\PSoC5/SDSPI_api.c **** 
 149:.\Generated_Source\PSoC5/SDSPI_api.c **** 	if(bEnableDMA) {
 445              		.loc 1 149 0
 446 001a 444B     		ldr	r3, .L30
 447 001c 1B78     		ldrb	r3, [r3]	@ zero_extendqisi2
 448 001e 002B     		cmp	r3, #0
 449 0020 70D0     		beq	.L26
 150:.\Generated_Source\PSoC5/SDSPI_api.c **** 		// 送信DMA TD設定
 151:.\Generated_Source\PSoC5/SDSPI_api.c **** 		//  - single TD
 152:.\Generated_Source\PSoC5/SDSPI_api.c **** 		//  - pBuffer(アドレス自動加算) => SPI_TXDATA
 153:.\Generated_Source\PSoC5/SDSPI_api.c **** 		CyDmaTdSetConfiguration(TXDMA_TD[0], nLength, CY_DMA_DISABLE_TD, SDSPI_TX__TD_TERMOUT_EN | TD_INC
 450              		.loc 1 153 0
 451 0022 434B     		ldr	r3, .L30+4
 452 0024 1A78     		ldrb	r2, [r3]	@ zero_extendqisi2
 453 0026 3B68     		ldr	r3, [r7]
 454 0028 9BB2     		uxth	r3, r3
 455 002a 1046     		mov	r0, r2
 456 002c 1946     		mov	r1, r3
 457 002e FE22     		movs	r2, #254
 458 0030 0523     		movs	r3, #5
 459 0032 FFF7FEFF 		bl	CyDmaTdSetConfiguration
 154:.\Generated_Source\PSoC5/SDSPI_api.c **** 		CyDmaTdSetAddress(TXDMA_TD[0], LO16((uint32)pBuffer), LO16((uint32)SDSPI_SPIMaster_TXDATA_PTR));
 460              		.loc 1 154 0
 461 0036 3E4B     		ldr	r3, .L30+4
 462 0038 1A78     		ldrb	r2, [r3]	@ zero_extendqisi2
 463 003a 7B68     		ldr	r3, [r7, #4]
 464 003c 9BB2     		uxth	r3, r3
 465 003e 1046     		mov	r0, r2
 466 0040 1946     		mov	r1, r3
 467 0042 46F24E42 		movw	r2, #25678
 468 0046 FFF7FEFF 		bl	CyDmaTdSetAddress
 155:.\Generated_Source\PSoC5/SDSPI_api.c **** 		CyDmaChSetInitialTd(TXDMA_Channel, TXDMA_TD[0]);
 469              		.loc 1 155 0
 470 004a 3A4B     		ldr	r3, .L30+8
 471 004c 1A78     		ldrb	r2, [r3]	@ zero_extendqisi2
 472 004e 384B     		ldr	r3, .L30+4
ARM GAS  C:\Users\honet\AppData\Local\Temp\ccjVTVVZ.s 			page 12


 473 0050 1B78     		ldrb	r3, [r3]	@ zero_extendqisi2
 474 0052 1046     		mov	r0, r2
 475 0054 1946     		mov	r1, r3
 476 0056 FFF7FEFF 		bl	CyDmaChSetInitialTd
 156:.\Generated_Source\PSoC5/SDSPI_api.c **** 		
 157:.\Generated_Source\PSoC5/SDSPI_api.c **** 		// 受信DMA TD設定(ダミーリード)
 158:.\Generated_Source\PSoC5/SDSPI_api.c **** 		//  - single TD
 159:.\Generated_Source\PSoC5/SDSPI_api.c **** 		//  - SPI_RXDATA => dummy_data(アドレス加算無し)
 160:.\Generated_Source\PSoC5/SDSPI_api.c **** 		CyDmaTdSetConfiguration(RXDMA_TD[0], nLength, CY_DMA_DISABLE_TD, SDSPI_RX__TD_TERMOUT_EN);
 477              		.loc 1 160 0
 478 005a 374B     		ldr	r3, .L30+12
 479 005c 1A78     		ldrb	r2, [r3]	@ zero_extendqisi2
 480 005e 3B68     		ldr	r3, [r7]
 481 0060 9BB2     		uxth	r3, r3
 482 0062 1046     		mov	r0, r2
 483 0064 1946     		mov	r1, r3
 484 0066 FE22     		movs	r2, #254
 485 0068 0423     		movs	r3, #4
 486 006a FFF7FEFF 		bl	CyDmaTdSetConfiguration
 161:.\Generated_Source\PSoC5/SDSPI_api.c **** 		CyDmaTdSetAddress(RXDMA_TD[0], LO16((uint32)SDSPI_SPIMaster_RXDATA_PTR), LO16((uint32)(&dummy_dat
 487              		.loc 1 161 0
 488 006e 324B     		ldr	r3, .L30+12
 489 0070 1A78     		ldrb	r2, [r3]	@ zero_extendqisi2
 490 0072 324B     		ldr	r3, .L30+16
 491 0074 9BB2     		uxth	r3, r3
 492 0076 1046     		mov	r0, r2
 493 0078 46F25E41 		movw	r1, #25694
 494 007c 1A46     		mov	r2, r3
 495 007e FFF7FEFF 		bl	CyDmaTdSetAddress
 162:.\Generated_Source\PSoC5/SDSPI_api.c **** 		CyDmaChSetInitialTd(RXDMA_Channel, RXDMA_TD[0]);
 496              		.loc 1 162 0
 497 0082 2F4B     		ldr	r3, .L30+20
 498 0084 1A78     		ldrb	r2, [r3]	@ zero_extendqisi2
 499 0086 2C4B     		ldr	r3, .L30+12
 500 0088 1B78     		ldrb	r3, [r3]	@ zero_extendqisi2
 501 008a 1046     		mov	r0, r2
 502 008c 1946     		mov	r1, r3
 503 008e FFF7FEFF 		bl	CyDmaChSetInitialTd
 163:.\Generated_Source\PSoC5/SDSPI_api.c **** 
 164:.\Generated_Source\PSoC5/SDSPI_api.c **** 		//SDSPI_RX_DMA_IRQ_ClearPending();
 165:.\Generated_Source\PSoC5/SDSPI_api.c **** 		//SDSPI_TX_DMA_IRQ_ClearPending();
 166:.\Generated_Source\PSoC5/SDSPI_api.c **** 		CyDmaClearPendingDrq(TXDMA_Channel);
 504              		.loc 1 166 0
 505 0092 284B     		ldr	r3, .L30+8
 506 0094 1B78     		ldrb	r3, [r3]	@ zero_extendqisi2
 507 0096 1846     		mov	r0, r3
 508 0098 FFF7FEFF 		bl	CyDmaClearPendingDrq
 167:.\Generated_Source\PSoC5/SDSPI_api.c **** 		CyDmaClearPendingDrq(RXDMA_Channel);
 509              		.loc 1 167 0
 510 009c 284B     		ldr	r3, .L30+20
 511 009e 1B78     		ldrb	r3, [r3]	@ zero_extendqisi2
 512 00a0 1846     		mov	r0, r3
 513 00a2 FFF7FEFF 		bl	CyDmaClearPendingDrq
 168:.\Generated_Source\PSoC5/SDSPI_api.c **** 		//SDSPI_SPIMaster_ClearFIFO();
 169:.\Generated_Source\PSoC5/SDSPI_api.c **** 		
 170:.\Generated_Source\PSoC5/SDSPI_api.c **** 		//g_nTransferFlags |= TRANSFER_WAIT_TXDMAISR;   //set flag
 171:.\Generated_Source\PSoC5/SDSPI_api.c **** 		g_nTransferFlags |= TRANSFER_WAIT_RXDMAISR;   //Set flag
ARM GAS  C:\Users\honet\AppData\Local\Temp\ccjVTVVZ.s 			page 13


 514              		.loc 1 171 0
 515 00a6 274B     		ldr	r3, .L30+24
 516 00a8 1B78     		ldrb	r3, [r3]
 517 00aa DBB2     		uxtb	r3, r3
 518 00ac 43F00203 		orr	r3, r3, #2
 519 00b0 DAB2     		uxtb	r2, r3
 520 00b2 244B     		ldr	r3, .L30+24
 521 00b4 1A70     		strb	r2, [r3]
 172:.\Generated_Source\PSoC5/SDSPI_api.c **** 		
 173:.\Generated_Source\PSoC5/SDSPI_api.c **** 		CyDmaChEnable(RXDMA_Channel, 1);
 522              		.loc 1 173 0
 523 00b6 224B     		ldr	r3, .L30+20
 524 00b8 1B78     		ldrb	r3, [r3]	@ zero_extendqisi2
 525 00ba 1846     		mov	r0, r3
 526 00bc 0121     		movs	r1, #1
 527 00be FFF7FEFF 		bl	CyDmaChEnable
 174:.\Generated_Source\PSoC5/SDSPI_api.c **** 		CyDmaChEnable(TXDMA_Channel, 1);
 528              		.loc 1 174 0
 529 00c2 1C4B     		ldr	r3, .L30+8
 530 00c4 1B78     		ldrb	r3, [r3]	@ zero_extendqisi2
 531 00c6 1846     		mov	r0, r3
 532 00c8 0121     		movs	r1, #1
 533 00ca FFF7FEFF 		bl	CyDmaChEnable
 175:.\Generated_Source\PSoC5/SDSPI_api.c **** 		
 176:.\Generated_Source\PSoC5/SDSPI_api.c **** 		CyDmaChSetRequest(TXDMA_Channel, CPU_REQ);  //trigger transfer
 534              		.loc 1 176 0
 535 00ce 194B     		ldr	r3, .L30+8
 536 00d0 1B78     		ldrb	r3, [r3]	@ zero_extendqisi2
 537 00d2 1846     		mov	r0, r3
 538 00d4 0121     		movs	r1, #1
 539 00d6 FFF7FEFF 		bl	CyDmaChSetRequest
 177:.\Generated_Source\PSoC5/SDSPI_api.c **** 
 178:.\Generated_Source\PSoC5/SDSPI_api.c **** 		// wait for transfer
 179:.\Generated_Source\PSoC5/SDSPI_api.c **** 		while(g_nTransferFlags & TRANSFER_WAIT_RXDMAISR);
 540              		.loc 1 179 0
 541 00da 00BF     		nop
 542              	.L27:
 543              		.loc 1 179 0 is_stmt 0 discriminator 1
 544 00dc 194B     		ldr	r3, .L30+24
 545 00de 1B78     		ldrb	r3, [r3]
 546 00e0 DBB2     		uxtb	r3, r3
 547 00e2 03F00203 		and	r3, r3, #2
 548 00e6 002B     		cmp	r3, #0
 549 00e8 F8D1     		bne	.L27
 180:.\Generated_Source\PSoC5/SDSPI_api.c **** 
 181:.\Generated_Source\PSoC5/SDSPI_api.c **** 		//// stop DMA.
 182:.\Generated_Source\PSoC5/SDSPI_api.c **** 		CyDmaChSetRequest(TXDMA_Channel, CPU_TERM_CHAIN);
 550              		.loc 1 182 0 is_stmt 1
 551 00ea 124B     		ldr	r3, .L30+8
 552 00ec 1B78     		ldrb	r3, [r3]	@ zero_extendqisi2
 553 00ee 1846     		mov	r0, r3
 554 00f0 0421     		movs	r1, #4
 555 00f2 FFF7FEFF 		bl	CyDmaChSetRequest
 183:.\Generated_Source\PSoC5/SDSPI_api.c **** 		CyDmaChSetRequest(RXDMA_Channel, CPU_TERM_CHAIN);
 556              		.loc 1 183 0
 557 00f6 124B     		ldr	r3, .L30+20
 558 00f8 1B78     		ldrb	r3, [r3]	@ zero_extendqisi2
ARM GAS  C:\Users\honet\AppData\Local\Temp\ccjVTVVZ.s 			page 14


 559 00fa 1846     		mov	r0, r3
 560 00fc 0421     		movs	r1, #4
 561 00fe FFF7FEFF 		bl	CyDmaChSetRequest
 184:.\Generated_Source\PSoC5/SDSPI_api.c **** 		return;
 562              		.loc 1 184 0
 563 0102 10E0     		b	.L22
 564              	.L26:
 565              	.LBB2:
 185:.\Generated_Source\PSoC5/SDSPI_api.c **** 	}else{
 186:.\Generated_Source\PSoC5/SDSPI_api.c **** 		//Slow (non DMA) implementation...
 187:.\Generated_Source\PSoC5/SDSPI_api.c **** 		unsigned int i;
 188:.\Generated_Source\PSoC5/SDSPI_api.c **** 		for(i = 0; i < nLength; i++){
 566              		.loc 1 188 0
 567 0104 0023     		movs	r3, #0
 568 0106 FB60     		str	r3, [r7, #12]
 569 0108 09E0     		b	.L28
 570              	.L29:
 189:.\Generated_Source\PSoC5/SDSPI_api.c **** 			SDSPI_SwapByte(pBuffer[i]);
 571              		.loc 1 189 0 discriminator 3
 572 010a 7A68     		ldr	r2, [r7, #4]
 573 010c FB68     		ldr	r3, [r7, #12]
 574 010e 1344     		add	r3, r3, r2
 575 0110 1B78     		ldrb	r3, [r3]	@ zero_extendqisi2
 576 0112 1846     		mov	r0, r3
 577 0114 FFF7FEFF 		bl	SDSPI_SwapByte
 188:.\Generated_Source\PSoC5/SDSPI_api.c **** 			SDSPI_SwapByte(pBuffer[i]);
 578              		.loc 1 188 0 discriminator 3
 579 0118 FB68     		ldr	r3, [r7, #12]
 580 011a 0133     		adds	r3, r3, #1
 581 011c FB60     		str	r3, [r7, #12]
 582              	.L28:
 188:.\Generated_Source\PSoC5/SDSPI_api.c **** 			SDSPI_SwapByte(pBuffer[i]);
 583              		.loc 1 188 0 is_stmt 0 discriminator 1
 584 011e FA68     		ldr	r2, [r7, #12]
 585 0120 3B68     		ldr	r3, [r7]
 586 0122 9A42     		cmp	r2, r3
 587 0124 F1D3     		bcc	.L29
 588              	.L22:
 589              	.LBE2:
 190:.\Generated_Source\PSoC5/SDSPI_api.c **** 		}
 191:.\Generated_Source\PSoC5/SDSPI_api.c **** 	}
 192:.\Generated_Source\PSoC5/SDSPI_api.c **** }
 590              		.loc 1 192 0 is_stmt 1
 591 0126 1037     		adds	r7, r7, #16
 592              		.cfi_def_cfa_offset 8
 593 0128 BD46     		mov	sp, r7
 594              		.cfi_def_cfa_register 13
 595              		@ sp needed
 596 012a 80BD     		pop	{r7, pc}
 597              	.L31:
 598              		.align	2
 599              	.L30:
 600 012c 02000000 		.word	bEnableDMA
 601 0130 08000000 		.word	TXDMA_TD
 602 0134 05000000 		.word	TXDMA_Channel
 603 0138 04000000 		.word	RXDMA_TD
 604 013c 00000000 		.word	dummy_data
ARM GAS  C:\Users\honet\AppData\Local\Temp\ccjVTVVZ.s 			page 15


 605 0140 03000000 		.word	RXDMA_Channel
 606 0144 00000000 		.word	g_nTransferFlags
 607              		.cfi_endproc
 608              	.LFE8:
 609              		.size	SDSPI_SendData, .-SDSPI_SendData
 610              		.section	.text.SDSPI_ReceiveData,"ax",%progbits
 611              		.align	2
 612              		.global	SDSPI_ReceiveData
 613              		.thumb
 614              		.thumb_func
 615              		.type	SDSPI_ReceiveData, %function
 616              	SDSPI_ReceiveData:
 617              	.LFB9:
 193:.\Generated_Source\PSoC5/SDSPI_api.c **** 
 194:.\Generated_Source\PSoC5/SDSPI_api.c **** //Send a block of NULL data (default 0xFF) and place received bytes into buffer.
 195:.\Generated_Source\PSoC5/SDSPI_api.c **** void SDSPI_ReceiveData(uint8_t* pBuffer, uint32_t nLength)
 196:.\Generated_Source\PSoC5/SDSPI_api.c **** {
 618              		.loc 1 196 0
 619              		.cfi_startproc
 620              		@ args = 0, pretend = 0, frame = 16
 621              		@ frame_needed = 1, uses_anonymous_args = 0
 622 0000 90B5     		push	{r4, r7, lr}
 623              		.cfi_def_cfa_offset 12
 624              		.cfi_offset 4, -12
 625              		.cfi_offset 7, -8
 626              		.cfi_offset 14, -4
 627 0002 85B0     		sub	sp, sp, #20
 628              		.cfi_def_cfa_offset 32
 629 0004 00AF     		add	r7, sp, #0
 630              		.cfi_def_cfa_register 7
 631 0006 7860     		str	r0, [r7, #4]
 632 0008 3960     		str	r1, [r7]
 197:.\Generated_Source\PSoC5/SDSPI_api.c **** 	if((nLength > 4095)||(nLength < 1)){
 633              		.loc 1 197 0
 634 000a 3B68     		ldr	r3, [r7]
 635 000c B3F5805F 		cmp	r3, #4096
 636 0010 02D2     		bcs	.L33
 637              		.loc 1 197 0 is_stmt 0 discriminator 1
 638 0012 3B68     		ldr	r3, [r7]
 639 0014 002B     		cmp	r3, #0
 640 0016 00D1     		bne	.L34
 641              	.L33:
 198:.\Generated_Source\PSoC5/SDSPI_api.c **** 		return; //this never happens - filesys transfers max. 512 bytes at a time
 642              		.loc 1 198 0 is_stmt 1
 643 0018 89E0     		b	.L32
 644              	.L34:
 199:.\Generated_Source\PSoC5/SDSPI_api.c **** 	}
 200:.\Generated_Source\PSoC5/SDSPI_api.c **** 
 201:.\Generated_Source\PSoC5/SDSPI_api.c **** 	if(bEnableDMA) {
 645              		.loc 1 201 0
 646 001a 464B     		ldr	r3, .L40
 647 001c 1B78     		ldrb	r3, [r3]	@ zero_extendqisi2
 648 001e 002B     		cmp	r3, #0
 649 0020 73D0     		beq	.L36
 202:.\Generated_Source\PSoC5/SDSPI_api.c **** 		// 送信DMA TD設定(ダミーライト)
 203:.\Generated_Source\PSoC5/SDSPI_api.c **** 		//  - single TD
 204:.\Generated_Source\PSoC5/SDSPI_api.c **** 		//  - dummy_data(アドレス加算無し) => SPI_TXDATA
ARM GAS  C:\Users\honet\AppData\Local\Temp\ccjVTVVZ.s 			page 16


 205:.\Generated_Source\PSoC5/SDSPI_api.c **** 		CyDmaTdSetConfiguration(TXDMA_TD[0], nLength, CY_DMA_DISABLE_TD, SDSPI_TX__TD_TERMOUT_EN);
 650              		.loc 1 205 0
 651 0022 454B     		ldr	r3, .L40+4
 652 0024 1A78     		ldrb	r2, [r3]	@ zero_extendqisi2
 653 0026 3B68     		ldr	r3, [r7]
 654 0028 9BB2     		uxth	r3, r3
 655 002a 1046     		mov	r0, r2
 656 002c 1946     		mov	r1, r3
 657 002e FE22     		movs	r2, #254
 658 0030 0423     		movs	r3, #4
 659 0032 FFF7FEFF 		bl	CyDmaTdSetConfiguration
 206:.\Generated_Source\PSoC5/SDSPI_api.c **** 		CyDmaTdSetAddress(TXDMA_TD[0], LO16((uint32)(&dummy_data[0])), LO16((uint32)SDSPI_SPIMaster_TXDAT
 660              		.loc 1 206 0
 661 0036 404B     		ldr	r3, .L40+4
 662 0038 1A78     		ldrb	r2, [r3]	@ zero_extendqisi2
 663 003a 404B     		ldr	r3, .L40+8
 664 003c 9BB2     		uxth	r3, r3
 665 003e 1046     		mov	r0, r2
 666 0040 1946     		mov	r1, r3
 667 0042 46F24E42 		movw	r2, #25678
 668 0046 FFF7FEFF 		bl	CyDmaTdSetAddress
 207:.\Generated_Source\PSoC5/SDSPI_api.c **** 		CyDmaChSetInitialTd(TXDMA_Channel, TXDMA_TD[0]);
 669              		.loc 1 207 0
 670 004a 3D4B     		ldr	r3, .L40+12
 671 004c 1A78     		ldrb	r2, [r3]	@ zero_extendqisi2
 672 004e 3A4B     		ldr	r3, .L40+4
 673 0050 1B78     		ldrb	r3, [r3]	@ zero_extendqisi2
 674 0052 1046     		mov	r0, r2
 675 0054 1946     		mov	r1, r3
 676 0056 FFF7FEFF 		bl	CyDmaChSetInitialTd
 208:.\Generated_Source\PSoC5/SDSPI_api.c **** 		
 209:.\Generated_Source\PSoC5/SDSPI_api.c **** 		// 受信DMA TD設定
 210:.\Generated_Source\PSoC5/SDSPI_api.c **** 		//  - single TD
 211:.\Generated_Source\PSoC5/SDSPI_api.c **** 		//  - SPI_RXDATA => pBuffer(アドレス自動加算)
 212:.\Generated_Source\PSoC5/SDSPI_api.c **** 		CyDmaTdSetConfiguration(RXDMA_TD[0], nLength, CY_DMA_DISABLE_TD, SDSPI_RX__TD_TERMOUT_EN | TD_INC
 677              		.loc 1 212 0
 678 005a 3A4B     		ldr	r3, .L40+16
 679 005c 1A78     		ldrb	r2, [r3]	@ zero_extendqisi2
 680 005e 3B68     		ldr	r3, [r7]
 681 0060 9BB2     		uxth	r3, r3
 682 0062 1046     		mov	r0, r2
 683 0064 1946     		mov	r1, r3
 684 0066 FE22     		movs	r2, #254
 685 0068 0623     		movs	r3, #6
 686 006a FFF7FEFF 		bl	CyDmaTdSetConfiguration
 213:.\Generated_Source\PSoC5/SDSPI_api.c **** 		CyDmaTdSetAddress(RXDMA_TD[0], LO16((uint32)SDSPI_SPIMaster_RXDATA_PTR), LO16((uint32)pBuffer));
 687              		.loc 1 213 0
 688 006e 354B     		ldr	r3, .L40+16
 689 0070 1A78     		ldrb	r2, [r3]	@ zero_extendqisi2
 690 0072 7B68     		ldr	r3, [r7, #4]
 691 0074 9BB2     		uxth	r3, r3
 692 0076 1046     		mov	r0, r2
 693 0078 46F25E41 		movw	r1, #25694
 694 007c 1A46     		mov	r2, r3
 695 007e FFF7FEFF 		bl	CyDmaTdSetAddress
 214:.\Generated_Source\PSoC5/SDSPI_api.c **** 		CyDmaChSetInitialTd(RXDMA_Channel, RXDMA_TD[0]);
 696              		.loc 1 214 0
ARM GAS  C:\Users\honet\AppData\Local\Temp\ccjVTVVZ.s 			page 17


 697 0082 314B     		ldr	r3, .L40+20
 698 0084 1A78     		ldrb	r2, [r3]	@ zero_extendqisi2
 699 0086 2F4B     		ldr	r3, .L40+16
 700 0088 1B78     		ldrb	r3, [r3]	@ zero_extendqisi2
 701 008a 1046     		mov	r0, r2
 702 008c 1946     		mov	r1, r3
 703 008e FFF7FEFF 		bl	CyDmaChSetInitialTd
 215:.\Generated_Source\PSoC5/SDSPI_api.c **** 
 216:.\Generated_Source\PSoC5/SDSPI_api.c **** 		dummy_data[0] = 0xff;
 704              		.loc 1 216 0
 705 0092 2A4B     		ldr	r3, .L40+8
 706 0094 FF22     		movs	r2, #255
 707 0096 1A70     		strb	r2, [r3]
 217:.\Generated_Source\PSoC5/SDSPI_api.c **** 		g_nTransferFlags |= TRANSFER_WAIT_RXDMAISR;   //Set flag
 708              		.loc 1 217 0
 709 0098 2C4B     		ldr	r3, .L40+24
 710 009a 1B78     		ldrb	r3, [r3]
 711 009c DBB2     		uxtb	r3, r3
 712 009e 43F00203 		orr	r3, r3, #2
 713 00a2 DAB2     		uxtb	r2, r3
 714 00a4 294B     		ldr	r3, .L40+24
 715 00a6 1A70     		strb	r2, [r3]
 218:.\Generated_Source\PSoC5/SDSPI_api.c **** 		
 219:.\Generated_Source\PSoC5/SDSPI_api.c **** 		//SDSPI_RX_DMA_IRQ_ClearPending();
 220:.\Generated_Source\PSoC5/SDSPI_api.c **** 		//SDSPI_TX_DMA_IRQ_ClearPending();
 221:.\Generated_Source\PSoC5/SDSPI_api.c **** 		CyDmaClearPendingDrq(TXDMA_Channel);
 716              		.loc 1 221 0
 717 00a8 254B     		ldr	r3, .L40+12
 718 00aa 1B78     		ldrb	r3, [r3]	@ zero_extendqisi2
 719 00ac 1846     		mov	r0, r3
 720 00ae FFF7FEFF 		bl	CyDmaClearPendingDrq
 222:.\Generated_Source\PSoC5/SDSPI_api.c **** 		CyDmaClearPendingDrq(RXDMA_Channel);
 721              		.loc 1 222 0
 722 00b2 254B     		ldr	r3, .L40+20
 723 00b4 1B78     		ldrb	r3, [r3]	@ zero_extendqisi2
 724 00b6 1846     		mov	r0, r3
 725 00b8 FFF7FEFF 		bl	CyDmaClearPendingDrq
 223:.\Generated_Source\PSoC5/SDSPI_api.c **** 		//SDSPI_SPIMaster_ClearFIFO();
 224:.\Generated_Source\PSoC5/SDSPI_api.c **** 		
 225:.\Generated_Source\PSoC5/SDSPI_api.c **** 		CyDmaChEnable(RXDMA_Channel, 1);
 726              		.loc 1 225 0
 727 00bc 224B     		ldr	r3, .L40+20
 728 00be 1B78     		ldrb	r3, [r3]	@ zero_extendqisi2
 729 00c0 1846     		mov	r0, r3
 730 00c2 0121     		movs	r1, #1
 731 00c4 FFF7FEFF 		bl	CyDmaChEnable
 226:.\Generated_Source\PSoC5/SDSPI_api.c **** 		CyDmaChEnable(TXDMA_Channel, 1);
 732              		.loc 1 226 0
 733 00c8 1D4B     		ldr	r3, .L40+12
 734 00ca 1B78     		ldrb	r3, [r3]	@ zero_extendqisi2
 735 00cc 1846     		mov	r0, r3
 736 00ce 0121     		movs	r1, #1
 737 00d0 FFF7FEFF 		bl	CyDmaChEnable
 227:.\Generated_Source\PSoC5/SDSPI_api.c **** 
 228:.\Generated_Source\PSoC5/SDSPI_api.c **** 		CyDmaChSetRequest(TXDMA_Channel, CPU_REQ);  //trigger transfer
 738              		.loc 1 228 0
 739 00d4 1A4B     		ldr	r3, .L40+12
ARM GAS  C:\Users\honet\AppData\Local\Temp\ccjVTVVZ.s 			page 18


 740 00d6 1B78     		ldrb	r3, [r3]	@ zero_extendqisi2
 741 00d8 1846     		mov	r0, r3
 742 00da 0121     		movs	r1, #1
 743 00dc FFF7FEFF 		bl	CyDmaChSetRequest
 229:.\Generated_Source\PSoC5/SDSPI_api.c **** 
 230:.\Generated_Source\PSoC5/SDSPI_api.c **** 		//wait until done.
 231:.\Generated_Source\PSoC5/SDSPI_api.c **** 		while(g_nTransferFlags & TRANSFER_WAIT_RXDMAISR);
 744              		.loc 1 231 0
 745 00e0 00BF     		nop
 746              	.L37:
 747              		.loc 1 231 0 is_stmt 0 discriminator 1
 748 00e2 1A4B     		ldr	r3, .L40+24
 749 00e4 1B78     		ldrb	r3, [r3]
 750 00e6 DBB2     		uxtb	r3, r3
 751 00e8 03F00203 		and	r3, r3, #2
 752 00ec 002B     		cmp	r3, #0
 753 00ee F8D1     		bne	.L37
 232:.\Generated_Source\PSoC5/SDSPI_api.c **** 
 233:.\Generated_Source\PSoC5/SDSPI_api.c **** 		// stop DMA.
 234:.\Generated_Source\PSoC5/SDSPI_api.c **** 		CyDmaChSetRequest(TXDMA_Channel, CPU_TERM_CHAIN);
 754              		.loc 1 234 0 is_stmt 1
 755 00f0 134B     		ldr	r3, .L40+12
 756 00f2 1B78     		ldrb	r3, [r3]	@ zero_extendqisi2
 757 00f4 1846     		mov	r0, r3
 758 00f6 0421     		movs	r1, #4
 759 00f8 FFF7FEFF 		bl	CyDmaChSetRequest
 235:.\Generated_Source\PSoC5/SDSPI_api.c **** 		CyDmaChSetRequest(RXDMA_Channel, CPU_TERM_CHAIN);
 760              		.loc 1 235 0
 761 00fc 124B     		ldr	r3, .L40+20
 762 00fe 1B78     		ldrb	r3, [r3]	@ zero_extendqisi2
 763 0100 1846     		mov	r0, r3
 764 0102 0421     		movs	r1, #4
 765 0104 FFF7FEFF 		bl	CyDmaChSetRequest
 236:.\Generated_Source\PSoC5/SDSPI_api.c **** 		return;
 766              		.loc 1 236 0
 767 0108 11E0     		b	.L32
 768              	.L36:
 769              	.LBB3:
 237:.\Generated_Source\PSoC5/SDSPI_api.c **** 	} else {
 238:.\Generated_Source\PSoC5/SDSPI_api.c **** 		//Slow (non DMA) implementation...
 239:.\Generated_Source\PSoC5/SDSPI_api.c **** 		unsigned int i;
 240:.\Generated_Source\PSoC5/SDSPI_api.c **** 		for(i = 0; i < nLength; i++){
 770              		.loc 1 240 0
 771 010a 0023     		movs	r3, #0
 772 010c FB60     		str	r3, [r7, #12]
 773 010e 0AE0     		b	.L38
 774              	.L39:
 241:.\Generated_Source\PSoC5/SDSPI_api.c **** 			pBuffer[i] = SDSPI_SwapByte(0xFF);
 775              		.loc 1 241 0 discriminator 3
 776 0110 7A68     		ldr	r2, [r7, #4]
 777 0112 FB68     		ldr	r3, [r7, #12]
 778 0114 D418     		adds	r4, r2, r3
 779 0116 FF20     		movs	r0, #255
 780 0118 FFF7FEFF 		bl	SDSPI_SwapByte
 781 011c 0346     		mov	r3, r0
 782 011e 2370     		strb	r3, [r4]
 240:.\Generated_Source\PSoC5/SDSPI_api.c **** 			pBuffer[i] = SDSPI_SwapByte(0xFF);
ARM GAS  C:\Users\honet\AppData\Local\Temp\ccjVTVVZ.s 			page 19


 783              		.loc 1 240 0 discriminator 3
 784 0120 FB68     		ldr	r3, [r7, #12]
 785 0122 0133     		adds	r3, r3, #1
 786 0124 FB60     		str	r3, [r7, #12]
 787              	.L38:
 240:.\Generated_Source\PSoC5/SDSPI_api.c **** 			pBuffer[i] = SDSPI_SwapByte(0xFF);
 788              		.loc 1 240 0 is_stmt 0 discriminator 1
 789 0126 FA68     		ldr	r2, [r7, #12]
 790 0128 3B68     		ldr	r3, [r7]
 791 012a 9A42     		cmp	r2, r3
 792 012c F0D3     		bcc	.L39
 793              	.L32:
 794              	.LBE3:
 242:.\Generated_Source\PSoC5/SDSPI_api.c **** 		}
 243:.\Generated_Source\PSoC5/SDSPI_api.c **** 	}
 244:.\Generated_Source\PSoC5/SDSPI_api.c **** }
 795              		.loc 1 244 0 is_stmt 1
 796 012e 1437     		adds	r7, r7, #20
 797              		.cfi_def_cfa_offset 12
 798 0130 BD46     		mov	sp, r7
 799              		.cfi_def_cfa_register 13
 800              		@ sp needed
 801 0132 90BD     		pop	{r4, r7, pc}
 802              	.L41:
 803              		.align	2
 804              	.L40:
 805 0134 02000000 		.word	bEnableDMA
 806 0138 08000000 		.word	TXDMA_TD
 807 013c 00000000 		.word	dummy_data
 808 0140 05000000 		.word	TXDMA_Channel
 809 0144 04000000 		.word	RXDMA_TD
 810 0148 03000000 		.word	RXDMA_Channel
 811 014c 00000000 		.word	g_nTransferFlags
 812              		.cfi_endproc
 813              	.LFE9:
 814              		.size	SDSPI_ReceiveData, .-SDSPI_ReceiveData
 815              		.section	.text.SDSPI_SwapByte,"ax",%progbits
 816              		.align	2
 817              		.global	SDSPI_SwapByte
 818              		.thumb
 819              		.thumb_func
 820              		.type	SDSPI_SwapByte, %function
 821              	SDSPI_SwapByte:
 822              	.LFB10:
 245:.\Generated_Source\PSoC5/SDSPI_api.c **** 
 246:.\Generated_Source\PSoC5/SDSPI_api.c **** //Swap a single byte (send it, and receive RX byte / without DMA)
 247:.\Generated_Source\PSoC5/SDSPI_api.c **** uint8_t SDSPI_SwapByte(uint8_t data)
 248:.\Generated_Source\PSoC5/SDSPI_api.c **** {
 823              		.loc 1 248 0
 824              		.cfi_startproc
 825              		@ args = 0, pretend = 0, frame = 8
 826              		@ frame_needed = 1, uses_anonymous_args = 0
 827 0000 80B5     		push	{r7, lr}
 828              		.cfi_def_cfa_offset 8
 829              		.cfi_offset 7, -8
 830              		.cfi_offset 14, -4
 831 0002 82B0     		sub	sp, sp, #8
ARM GAS  C:\Users\honet\AppData\Local\Temp\ccjVTVVZ.s 			page 20


 832              		.cfi_def_cfa_offset 16
 833 0004 00AF     		add	r7, sp, #0
 834              		.cfi_def_cfa_register 7
 835 0006 0346     		mov	r3, r0
 836 0008 FB71     		strb	r3, [r7, #7]
 249:.\Generated_Source\PSoC5/SDSPI_api.c **** 	//write byte to TX
 250:.\Generated_Source\PSoC5/SDSPI_api.c **** 	SDSPI_SPIMaster_WriteTxData(data);
 837              		.loc 1 250 0
 838 000a FB79     		ldrb	r3, [r7, #7]	@ zero_extendqisi2
 839 000c 1846     		mov	r0, r3
 840 000e FFF7FEFF 		bl	SDSPI_SPIMaster_WriteTxData
 251:.\Generated_Source\PSoC5/SDSPI_api.c **** 	//wait for RX interrupt
 252:.\Generated_Source\PSoC5/SDSPI_api.c **** 	while(!(SDSPI_SPIMaster_ReadStatus() & SDSPI_SPIMaster_STS_BYTE_COMPLETE));
 841              		.loc 1 252 0
 842 0012 00BF     		nop
 843              	.L43:
 844              		.loc 1 252 0 is_stmt 0 discriminator 1
 845 0014 FFF7FEFF 		bl	SDSPI_SPIMaster_ReadStatus
 846 0018 0346     		mov	r3, r0
 847 001a 03F00803 		and	r3, r3, #8
 848 001e 002B     		cmp	r3, #0
 849 0020 F8D0     		beq	.L43
 253:.\Generated_Source\PSoC5/SDSPI_api.c **** 	//read byte from RX
 254:.\Generated_Source\PSoC5/SDSPI_api.c **** 	return SDSPI_SPIMaster_ReadRxData();
 850              		.loc 1 254 0 is_stmt 1
 851 0022 FFF7FEFF 		bl	SDSPI_SPIMaster_ReadRxData
 852 0026 0346     		mov	r3, r0
 255:.\Generated_Source\PSoC5/SDSPI_api.c **** }
 853              		.loc 1 255 0
 854 0028 1846     		mov	r0, r3
 855 002a 0837     		adds	r7, r7, #8
 856              		.cfi_def_cfa_offset 8
 857 002c BD46     		mov	sp, r7
 858              		.cfi_def_cfa_register 13
 859              		@ sp needed
 860 002e 80BD     		pop	{r7, pc}
 861              		.cfi_endproc
 862              	.LFE10:
 863              		.size	SDSPI_SwapByte, .-SDSPI_SwapByte
 864              		.section	.text.SDSPI_SetDMAMode,"ax",%progbits
 865              		.align	2
 866              		.global	SDSPI_SetDMAMode
 867              		.thumb
 868              		.thumb_func
 869              		.type	SDSPI_SetDMAMode, %function
 870              	SDSPI_SetDMAMode:
 871              	.LFB11:
 256:.\Generated_Source\PSoC5/SDSPI_api.c **** 
 257:.\Generated_Source\PSoC5/SDSPI_api.c **** void SDSPI_SetDMAMode(unsigned char enable)
 258:.\Generated_Source\PSoC5/SDSPI_api.c **** {
 872              		.loc 1 258 0
 873              		.cfi_startproc
 874              		@ args = 0, pretend = 0, frame = 8
 875              		@ frame_needed = 1, uses_anonymous_args = 0
 876 0000 80B5     		push	{r7, lr}
 877              		.cfi_def_cfa_offset 8
 878              		.cfi_offset 7, -8
ARM GAS  C:\Users\honet\AppData\Local\Temp\ccjVTVVZ.s 			page 21


 879              		.cfi_offset 14, -4
 880 0002 82B0     		sub	sp, sp, #8
 881              		.cfi_def_cfa_offset 16
 882 0004 00AF     		add	r7, sp, #0
 883              		.cfi_def_cfa_register 7
 884 0006 0346     		mov	r3, r0
 885 0008 FB71     		strb	r3, [r7, #7]
 259:.\Generated_Source\PSoC5/SDSPI_api.c **** 	while(g_nTransferFlags);   //make absolutely sure no transfers are in progress
 886              		.loc 1 259 0
 887 000a 00BF     		nop
 888              	.L46:
 889              		.loc 1 259 0 is_stmt 0 discriminator 1
 890 000c 0E4B     		ldr	r3, .L52
 891 000e 1B78     		ldrb	r3, [r3]
 892 0010 DBB2     		uxtb	r3, r3
 893 0012 002B     		cmp	r3, #0
 894 0014 FAD1     		bne	.L46
 260:.\Generated_Source\PSoC5/SDSPI_api.c **** 
 261:.\Generated_Source\PSoC5/SDSPI_api.c **** 	if(bEnableDMA == enable) return;
 895              		.loc 1 261 0 is_stmt 1
 896 0016 0D4B     		ldr	r3, .L52+4
 897 0018 1B78     		ldrb	r3, [r3]	@ zero_extendqisi2
 898 001a FA79     		ldrb	r2, [r7, #7]	@ zero_extendqisi2
 899 001c 9A42     		cmp	r2, r3
 900 001e 00D1     		bne	.L47
 901 0020 0EE0     		b	.L45
 902              	.L47:
 262:.\Generated_Source\PSoC5/SDSPI_api.c **** 
 263:.\Generated_Source\PSoC5/SDSPI_api.c **** 	if (enable) {
 903              		.loc 1 263 0
 904 0022 FB79     		ldrb	r3, [r7, #7]	@ zero_extendqisi2
 905 0024 002B     		cmp	r3, #0
 906 0026 06D0     		beq	.L49
 264:.\Generated_Source\PSoC5/SDSPI_api.c **** 		if (!bEnableDMA)
 907              		.loc 1 264 0
 908 0028 084B     		ldr	r3, .L52+4
 909 002a 1B78     		ldrb	r3, [r3]	@ zero_extendqisi2
 910 002c 002B     		cmp	r3, #0
 911 002e 04D1     		bne	.L51
 265:.\Generated_Source\PSoC5/SDSPI_api.c **** 			dma_setup();
 912              		.loc 1 265 0
 913 0030 FFF7FEFF 		bl	dma_setup
 914 0034 01E0     		b	.L51
 915              	.L49:
 266:.\Generated_Source\PSoC5/SDSPI_api.c **** 	} else {
 267:.\Generated_Source\PSoC5/SDSPI_api.c **** 		//if (bEnableDMA)
 268:.\Generated_Source\PSoC5/SDSPI_api.c **** 			dma_shutdown();
 916              		.loc 1 268 0
 917 0036 FFF7FEFF 		bl	dma_shutdown
 918              	.L51:
 269:.\Generated_Source\PSoC5/SDSPI_api.c **** 	}
 270:.\Generated_Source\PSoC5/SDSPI_api.c **** 	bEnableDMA = enable;
 919              		.loc 1 270 0
 920 003a 044A     		ldr	r2, .L52+4
 921 003c FB79     		ldrb	r3, [r7, #7]
 922 003e 1370     		strb	r3, [r2]
 923              	.L45:
ARM GAS  C:\Users\honet\AppData\Local\Temp\ccjVTVVZ.s 			page 22


 271:.\Generated_Source\PSoC5/SDSPI_api.c **** }
 924              		.loc 1 271 0
 925 0040 0837     		adds	r7, r7, #8
 926              		.cfi_def_cfa_offset 8
 927 0042 BD46     		mov	sp, r7
 928              		.cfi_def_cfa_register 13
 929              		@ sp needed
 930 0044 80BD     		pop	{r7, pc}
 931              	.L53:
 932 0046 00BF     		.align	2
 933              	.L52:
 934 0048 00000000 		.word	g_nTransferFlags
 935 004c 02000000 		.word	bEnableDMA
 936              		.cfi_endproc
 937              	.LFE11:
 938              		.size	SDSPI_SetDMAMode, .-SDSPI_SetDMAMode
 939              		.text
 940              	.Letext0:
 941              		.file 2 "c:\\program files (x86)\\cypress\\psoc creator\\3.3\\psoc creator\\import\\gnu\\arm\\4.9.
 942              		.file 3 "c:\\program files (x86)\\cypress\\psoc creator\\3.3\\psoc creator\\import\\gnu\\arm\\4.9.
 943              		.file 4 ".\\Generated_Source\\PSoC5\\SDSPI_api.h"
 944              		.file 5 ".\\Generated_Source\\PSoC5\\SDSPI_fatfs.h"
 945              		.file 6 ".\\Generated_Source\\PSoC5\\cytypes.h"
 946              		.section	.debug_info,"",%progbits
 947              	.Ldebug_info0:
 948 0000 6E040000 		.4byte	0x46e
 949 0004 0400     		.2byte	0x4
 950 0006 00000000 		.4byte	.Ldebug_abbrev0
 951 000a 04       		.byte	0x4
 952 000b 01       		.uleb128 0x1
 953 000c F9010000 		.4byte	.LASF62
 954 0010 01       		.byte	0x1
 955 0011 6A000000 		.4byte	.LASF63
 956 0015 36010000 		.4byte	.LASF64
 957 0019 00000000 		.4byte	.Ldebug_ranges0+0
 958 001d 00000000 		.4byte	0
 959 0021 00000000 		.4byte	.Ldebug_line0
 960 0025 02       		.uleb128 0x2
 961 0026 01       		.byte	0x1
 962 0027 06       		.byte	0x6
 963 0028 A0020000 		.4byte	.LASF0
 964 002c 03       		.uleb128 0x3
 965 002d D7030000 		.4byte	.LASF5
 966 0031 02       		.byte	0x2
 967 0032 1D       		.byte	0x1d
 968 0033 37000000 		.4byte	0x37
 969 0037 02       		.uleb128 0x2
 970 0038 01       		.byte	0x1
 971 0039 08       		.byte	0x8
 972 003a 92020000 		.4byte	.LASF1
 973 003e 02       		.uleb128 0x2
 974 003f 02       		.byte	0x2
 975 0040 05       		.byte	0x5
 976 0041 49000000 		.4byte	.LASF2
 977 0045 02       		.uleb128 0x2
 978 0046 02       		.byte	0x2
 979 0047 07       		.byte	0x7
ARM GAS  C:\Users\honet\AppData\Local\Temp\ccjVTVVZ.s 			page 23


 980 0048 03030000 		.4byte	.LASF3
 981 004c 02       		.uleb128 0x2
 982 004d 04       		.byte	0x4
 983 004e 05       		.byte	0x5
 984 004f 9C010000 		.4byte	.LASF4
 985 0053 03       		.uleb128 0x3
 986 0054 8F000000 		.4byte	.LASF6
 987 0058 02       		.byte	0x2
 988 0059 41       		.byte	0x41
 989 005a 5E000000 		.4byte	0x5e
 990 005e 02       		.uleb128 0x2
 991 005f 04       		.byte	0x4
 992 0060 07       		.byte	0x7
 993 0061 6F030000 		.4byte	.LASF7
 994 0065 02       		.uleb128 0x2
 995 0066 08       		.byte	0x8
 996 0067 05       		.byte	0x5
 997 0068 8E010000 		.4byte	.LASF8
 998 006c 02       		.uleb128 0x2
 999 006d 08       		.byte	0x8
 1000 006e 07       		.byte	0x7
 1001 006f AC020000 		.4byte	.LASF9
 1002 0073 04       		.uleb128 0x4
 1003 0074 04       		.byte	0x4
 1004 0075 05       		.byte	0x5
 1005 0076 696E7400 		.ascii	"int\000"
 1006 007a 02       		.uleb128 0x2
 1007 007b 04       		.byte	0x4
 1008 007c 07       		.byte	0x7
 1009 007d DF020000 		.4byte	.LASF10
 1010 0081 03       		.uleb128 0x3
 1011 0082 99030000 		.4byte	.LASF11
 1012 0086 03       		.byte	0x3
 1013 0087 15       		.byte	0x15
 1014 0088 2C000000 		.4byte	0x2c
 1015 008c 03       		.uleb128 0x3
 1016 008d C3020000 		.4byte	.LASF12
 1017 0091 03       		.byte	0x3
 1018 0092 2D       		.byte	0x2d
 1019 0093 53000000 		.4byte	0x53
 1020 0097 03       		.uleb128 0x3
 1021 0098 33000000 		.4byte	.LASF13
 1022 009c 04       		.byte	0x4
 1023 009d 11       		.byte	0x11
 1024 009e A2000000 		.4byte	0xa2
 1025 00a2 05       		.uleb128 0x5
 1026 00a3 04       		.byte	0x4
 1027 00a4 A8000000 		.4byte	0xa8
 1028 00a8 06       		.uleb128 0x6
 1029 00a9 03       		.uleb128 0x3
 1030 00aa D0010000 		.4byte	.LASF14
 1031 00ae 04       		.byte	0x4
 1032 00af 12       		.byte	0x12
 1033 00b0 B4000000 		.4byte	0xb4
 1034 00b4 05       		.uleb128 0x5
 1035 00b5 04       		.byte	0x4
 1036 00b6 BA000000 		.4byte	0xba
ARM GAS  C:\Users\honet\AppData\Local\Temp\ccjVTVVZ.s 			page 24


 1037 00ba 07       		.uleb128 0x7
 1038 00bb C5000000 		.4byte	0xc5
 1039 00bf 08       		.uleb128 0x8
 1040 00c0 C5000000 		.4byte	0xc5
 1041 00c4 00       		.byte	0
 1042 00c5 05       		.uleb128 0x5
 1043 00c6 04       		.byte	0x4
 1044 00c7 CB000000 		.4byte	0xcb
 1045 00cb 02       		.uleb128 0x2
 1046 00cc 01       		.byte	0x1
 1047 00cd 08       		.byte	0x8
 1048 00ce 16030000 		.4byte	.LASF15
 1049 00d2 03       		.uleb128 0x3
 1050 00d3 1B030000 		.4byte	.LASF16
 1051 00d7 05       		.byte	0x5
 1052 00d8 1F       		.byte	0x1f
 1053 00d9 8C000000 		.4byte	0x8c
 1054 00dd 03       		.uleb128 0x3
 1055 00de C0000000 		.4byte	.LASF17
 1056 00e2 05       		.byte	0x5
 1057 00e3 22       		.byte	0x22
 1058 00e4 81000000 		.4byte	0x81
 1059 00e8 02       		.uleb128 0x2
 1060 00e9 04       		.byte	0x4
 1061 00ea 07       		.byte	0x7
 1062 00eb 53000000 		.4byte	.LASF18
 1063 00ef 05       		.uleb128 0x5
 1064 00f0 04       		.byte	0x4
 1065 00f1 DD000000 		.4byte	0xdd
 1066 00f5 09       		.uleb128 0x9
 1067 00f6 5C000000 		.4byte	.LASF29
 1068 00fa 28       		.byte	0x28
 1069 00fb 05       		.byte	0x5
 1070 00fc D801     		.2byte	0x1d8
 1071 00fe 85010000 		.4byte	0x185
 1072 0102 0A       		.uleb128 0xa
 1073 0103 18010000 		.4byte	.LASF19
 1074 0107 05       		.byte	0x5
 1075 0108 D901     		.2byte	0x1d9
 1076 010a A2000000 		.4byte	0xa2
 1077 010e 00       		.byte	0
 1078 010f 0A       		.uleb128 0xa
 1079 0110 AE010000 		.4byte	.LASF20
 1080 0114 05       		.byte	0x5
 1081 0115 DA01     		.2byte	0x1da
 1082 0117 A2000000 		.4byte	0xa2
 1083 011b 04       		.byte	0x4
 1084 011c 0A       		.uleb128 0xa
 1085 011d 90030000 		.4byte	.LASF21
 1086 0121 05       		.byte	0x5
 1087 0122 DB01     		.2byte	0x1db
 1088 0124 A2000000 		.4byte	0xa2
 1089 0128 08       		.byte	0x8
 1090 0129 0A       		.uleb128 0xa
 1091 012a C4030000 		.4byte	.LASF22
 1092 012e 05       		.byte	0x5
 1093 012f DC01     		.2byte	0x1dc
ARM GAS  C:\Users\honet\AppData\Local\Temp\ccjVTVVZ.s 			page 25


 1094 0131 A2000000 		.4byte	0xa2
 1095 0135 0C       		.byte	0xc
 1096 0136 0A       		.uleb128 0xa
 1097 0137 41000000 		.4byte	.LASF23
 1098 013b 05       		.byte	0x5
 1099 013c DE01     		.2byte	0x1de
 1100 013e A2000000 		.4byte	0xa2
 1101 0142 10       		.byte	0x10
 1102 0143 0A       		.uleb128 0xa
 1103 0144 00000000 		.4byte	.LASF24
 1104 0148 05       		.byte	0x5
 1105 0149 DF01     		.2byte	0x1df
 1106 014b A2000000 		.4byte	0xa2
 1107 014f 14       		.byte	0x14
 1108 0150 0A       		.uleb128 0xa
 1109 0151 5F030000 		.4byte	.LASF25
 1110 0155 05       		.byte	0x5
 1111 0156 E101     		.2byte	0x1e1
 1112 0158 94010000 		.4byte	0x194
 1113 015c 18       		.byte	0x18
 1114 015d 0A       		.uleb128 0xa
 1115 015e C5000000 		.4byte	.LASF26
 1116 0162 05       		.byte	0x5
 1117 0163 E201     		.2byte	0x1e2
 1118 0165 AA010000 		.4byte	0x1aa
 1119 0169 1C       		.byte	0x1c
 1120 016a 0A       		.uleb128 0xa
 1121 016b 25010000 		.4byte	.LASF27
 1122 016f 05       		.byte	0x5
 1123 0170 E301     		.2byte	0x1e3
 1124 0172 CB010000 		.4byte	0x1cb
 1125 0176 20       		.byte	0x20
 1126 0177 0A       		.uleb128 0xa
 1127 0178 1C000000 		.4byte	.LASF28
 1128 017c 05       		.byte	0x5
 1129 017d E501     		.2byte	0x1e5
 1130 017f B4000000 		.4byte	0xb4
 1131 0183 24       		.byte	0x24
 1132 0184 00       		.byte	0
 1133 0185 0B       		.uleb128 0xb
 1134 0186 DD000000 		.4byte	0xdd
 1135 018a 94010000 		.4byte	0x194
 1136 018e 08       		.uleb128 0x8
 1137 018f DD000000 		.4byte	0xdd
 1138 0193 00       		.byte	0
 1139 0194 05       		.uleb128 0x5
 1140 0195 04       		.byte	0x4
 1141 0196 85010000 		.4byte	0x185
 1142 019a 07       		.uleb128 0x7
 1143 019b AA010000 		.4byte	0x1aa
 1144 019f 08       		.uleb128 0x8
 1145 01a0 EF000000 		.4byte	0xef
 1146 01a4 08       		.uleb128 0x8
 1147 01a5 D2000000 		.4byte	0xd2
 1148 01a9 00       		.byte	0
 1149 01aa 05       		.uleb128 0x5
 1150 01ab 04       		.byte	0x4
ARM GAS  C:\Users\honet\AppData\Local\Temp\ccjVTVVZ.s 			page 26


 1151 01ac 9A010000 		.4byte	0x19a
 1152 01b0 07       		.uleb128 0x7
 1153 01b1 C0010000 		.4byte	0x1c0
 1154 01b5 08       		.uleb128 0x8
 1155 01b6 C0010000 		.4byte	0x1c0
 1156 01ba 08       		.uleb128 0x8
 1157 01bb D2000000 		.4byte	0xd2
 1158 01bf 00       		.byte	0
 1159 01c0 05       		.uleb128 0x5
 1160 01c1 04       		.byte	0x4
 1161 01c2 C6010000 		.4byte	0x1c6
 1162 01c6 0C       		.uleb128 0xc
 1163 01c7 DD000000 		.4byte	0xdd
 1164 01cb 05       		.uleb128 0x5
 1165 01cc 04       		.byte	0x4
 1166 01cd B0010000 		.4byte	0x1b0
 1167 01d1 0D       		.uleb128 0xd
 1168 01d2 5C000000 		.4byte	.LASF29
 1169 01d6 05       		.byte	0x5
 1170 01d7 E601     		.2byte	0x1e6
 1171 01d9 F5000000 		.4byte	0xf5
 1172 01dd 0D       		.uleb128 0xd
 1173 01de FB000000 		.4byte	.LASF30
 1174 01e2 06       		.byte	0x6
 1175 01e3 9201     		.2byte	0x192
 1176 01e5 37000000 		.4byte	0x37
 1177 01e9 0D       		.uleb128 0xd
 1178 01ea ED000000 		.4byte	.LASF31
 1179 01ee 06       		.byte	0x6
 1180 01ef 9301     		.2byte	0x193
 1181 01f1 45000000 		.4byte	0x45
 1182 01f5 0D       		.uleb128 0xd
 1183 01f6 58030000 		.4byte	.LASF32
 1184 01fa 06       		.byte	0x6
 1185 01fb 9401     		.2byte	0x194
 1186 01fd 5E000000 		.4byte	0x5e
 1187 0201 02       		.uleb128 0x2
 1188 0202 04       		.byte	0x4
 1189 0203 04       		.byte	0x4
 1190 0204 30010000 		.4byte	.LASF33
 1191 0208 02       		.uleb128 0x2
 1192 0209 08       		.byte	0x8
 1193 020a 04       		.byte	0x4
 1194 020b 89030000 		.4byte	.LASF34
 1195 020f 0D       		.uleb128 0xd
 1196 0210 6A030000 		.4byte	.LASF35
 1197 0214 06       		.byte	0x6
 1198 0215 3C02     		.2byte	0x23c
 1199 0217 1B020000 		.4byte	0x21b
 1200 021b 0E       		.uleb128 0xe
 1201 021c DD010000 		.4byte	0x1dd
 1202 0220 0F       		.uleb128 0xf
 1203 0221 22000000 		.4byte	.LASF36
 1204 0225 01       		.byte	0x1
 1205 0226 37       		.byte	0x37
 1206 0227 00000000 		.4byte	.LFB0
 1207 022b 20000000 		.4byte	.LFE0-.LFB0
ARM GAS  C:\Users\honet\AppData\Local\Temp\ccjVTVVZ.s 			page 27


 1208 022f 01       		.uleb128 0x1
 1209 0230 9C       		.byte	0x9c
 1210 0231 10       		.uleb128 0x10
 1211 0232 CD030000 		.4byte	.LASF37
 1212 0236 01       		.byte	0x1
 1213 0237 40       		.byte	0x40
 1214 0238 00000000 		.4byte	.LFB1
 1215 023c 7C000000 		.4byte	.LFE1-.LFB1
 1216 0240 01       		.uleb128 0x1
 1217 0241 9C       		.byte	0x9c
 1218 0242 10       		.uleb128 0x10
 1219 0243 20030000 		.4byte	.LASF38
 1220 0247 01       		.byte	0x1
 1221 0248 53       		.byte	0x53
 1222 0249 00000000 		.4byte	.LFB2
 1223 024d 30000000 		.4byte	.LFE2-.LFB2
 1224 0251 01       		.uleb128 0x1
 1225 0252 9C       		.byte	0x9c
 1226 0253 11       		.uleb128 0x11
 1227 0254 D0000000 		.4byte	.LASF45
 1228 0258 01       		.byte	0x1
 1229 0259 5E       		.byte	0x5e
 1230 025a 00000000 		.4byte	.LFB3
 1231 025e 60000000 		.4byte	.LFE3-.LFB3
 1232 0262 01       		.uleb128 0x1
 1233 0263 9C       		.byte	0x9c
 1234 0264 A1020000 		.4byte	0x2a1
 1235 0268 12       		.uleb128 0x12
 1236 0269 DE010000 		.4byte	.LASF39
 1237 026d 01       		.byte	0x1
 1238 026e 5E       		.byte	0x5e
 1239 026f 97000000 		.4byte	0x97
 1240 0273 02       		.uleb128 0x2
 1241 0274 91       		.byte	0x91
 1242 0275 4C       		.sleb128 -52
 1243 0276 12       		.uleb128 0x12
 1244 0277 EC020000 		.4byte	.LASF40
 1245 027b 01       		.byte	0x1
 1246 027c 5E       		.byte	0x5e
 1247 027d 97000000 		.4byte	0x97
 1248 0281 02       		.uleb128 0x2
 1249 0282 91       		.byte	0x91
 1250 0283 48       		.sleb128 -56
 1251 0284 12       		.uleb128 0x12
 1252 0285 14000000 		.4byte	.LASF41
 1253 0289 01       		.byte	0x1
 1254 028a 5E       		.byte	0x5e
 1255 028b A9000000 		.4byte	0xa9
 1256 028f 02       		.uleb128 0x2
 1257 0290 91       		.byte	0x91
 1258 0291 44       		.sleb128 -60
 1259 0292 13       		.uleb128 0x13
 1260 0293 01010000 		.4byte	.LASF49
 1261 0297 01       		.byte	0x1
 1262 0298 60       		.byte	0x60
 1263 0299 D1010000 		.4byte	0x1d1
 1264 029d 02       		.uleb128 0x2
ARM GAS  C:\Users\honet\AppData\Local\Temp\ccjVTVVZ.s 			page 28


 1265 029e 91       		.byte	0x91
 1266 029f 50       		.sleb128 -48
 1267 02a0 00       		.byte	0
 1268 02a1 14       		.uleb128 0x14
 1269 02a2 9A000000 		.4byte	.LASF65
 1270 02a6 01       		.byte	0x1
 1271 02a7 71       		.byte	0x71
 1272 02a8 00000000 		.4byte	.LFB4
 1273 02ac 1C000000 		.4byte	.LFE4-.LFB4
 1274 02b0 01       		.uleb128 0x1
 1275 02b1 9C       		.byte	0x9c
 1276 02b2 10       		.uleb128 0x10
 1277 02b3 C5010000 		.4byte	.LASF42
 1278 02b7 01       		.byte	0x1
 1279 02b8 7B       		.byte	0x7b
 1280 02b9 00000000 		.4byte	.LFB5
 1281 02bd 24000000 		.4byte	.LFE5-.LFB5
 1282 02c1 01       		.uleb128 0x1
 1283 02c2 9C       		.byte	0x9c
 1284 02c3 10       		.uleb128 0x10
 1285 02c4 A1030000 		.4byte	.LASF43
 1286 02c8 01       		.byte	0x1
 1287 02c9 86       		.byte	0x86
 1288 02ca 00000000 		.4byte	.LFB6
 1289 02ce 0C000000 		.4byte	.LFE6-.LFB6
 1290 02d2 01       		.uleb128 0x1
 1291 02d3 9C       		.byte	0x9c
 1292 02d4 10       		.uleb128 0x10
 1293 02d5 CC020000 		.4byte	.LASF44
 1294 02d9 01       		.byte	0x1
 1295 02da 8A       		.byte	0x8a
 1296 02db 00000000 		.4byte	.LFB7
 1297 02df 0C000000 		.4byte	.LFE7-.LFB7
 1298 02e3 01       		.uleb128 0x1
 1299 02e4 9C       		.byte	0x9c
 1300 02e5 11       		.uleb128 0x11
 1301 02e6 EA010000 		.4byte	.LASF46
 1302 02ea 01       		.byte	0x1
 1303 02eb 8F       		.byte	0x8f
 1304 02ec 00000000 		.4byte	.LFB8
 1305 02f0 48010000 		.4byte	.LFE8-.LFB8
 1306 02f4 01       		.uleb128 0x1
 1307 02f5 9C       		.byte	0x9c
 1308 02f6 2D030000 		.4byte	0x32d
 1309 02fa 12       		.uleb128 0x12
 1310 02fb BD010000 		.4byte	.LASF47
 1311 02ff 01       		.byte	0x1
 1312 0300 8F       		.byte	0x8f
 1313 0301 2D030000 		.4byte	0x32d
 1314 0305 02       		.uleb128 0x2
 1315 0306 91       		.byte	0x91
 1316 0307 6C       		.sleb128 -20
 1317 0308 12       		.uleb128 0x12
 1318 0309 81030000 		.4byte	.LASF48
 1319 030d 01       		.byte	0x1
 1320 030e 8F       		.byte	0x8f
 1321 030f 8C000000 		.4byte	0x8c
ARM GAS  C:\Users\honet\AppData\Local\Temp\ccjVTVVZ.s 			page 29


 1322 0313 02       		.uleb128 0x2
 1323 0314 91       		.byte	0x91
 1324 0315 68       		.sleb128 -24
 1325 0316 15       		.uleb128 0x15
 1326 0317 04010000 		.4byte	.LBB2
 1327 031b 22000000 		.4byte	.LBE2-.LBB2
 1328 031f 16       		.uleb128 0x16
 1329 0320 6900     		.ascii	"i\000"
 1330 0322 01       		.byte	0x1
 1331 0323 BB       		.byte	0xbb
 1332 0324 7A000000 		.4byte	0x7a
 1333 0328 02       		.uleb128 0x2
 1334 0329 91       		.byte	0x91
 1335 032a 74       		.sleb128 -12
 1336 032b 00       		.byte	0
 1337 032c 00       		.byte	0
 1338 032d 05       		.uleb128 0x5
 1339 032e 04       		.byte	0x4
 1340 032f 33030000 		.4byte	0x333
 1341 0333 0C       		.uleb128 0xc
 1342 0334 81000000 		.4byte	0x81
 1343 0338 11       		.uleb128 0x11
 1344 0339 B2030000 		.4byte	.LASF50
 1345 033d 01       		.byte	0x1
 1346 033e C3       		.byte	0xc3
 1347 033f 00000000 		.4byte	.LFB9
 1348 0343 50010000 		.4byte	.LFE9-.LFB9
 1349 0347 01       		.uleb128 0x1
 1350 0348 9C       		.byte	0x9c
 1351 0349 80030000 		.4byte	0x380
 1352 034d 12       		.uleb128 0x12
 1353 034e BD010000 		.4byte	.LASF47
 1354 0352 01       		.byte	0x1
 1355 0353 C3       		.byte	0xc3
 1356 0354 80030000 		.4byte	0x380
 1357 0358 02       		.uleb128 0x2
 1358 0359 91       		.byte	0x91
 1359 035a 64       		.sleb128 -28
 1360 035b 12       		.uleb128 0x12
 1361 035c 81030000 		.4byte	.LASF48
 1362 0360 01       		.byte	0x1
 1363 0361 C3       		.byte	0xc3
 1364 0362 8C000000 		.4byte	0x8c
 1365 0366 02       		.uleb128 0x2
 1366 0367 91       		.byte	0x91
 1367 0368 60       		.sleb128 -32
 1368 0369 15       		.uleb128 0x15
 1369 036a 0A010000 		.4byte	.LBB3
 1370 036e 24000000 		.4byte	.LBE3-.LBB3
 1371 0372 16       		.uleb128 0x16
 1372 0373 6900     		.ascii	"i\000"
 1373 0375 01       		.byte	0x1
 1374 0376 EF       		.byte	0xef
 1375 0377 7A000000 		.4byte	0x7a
 1376 037b 02       		.uleb128 0x2
 1377 037c 91       		.byte	0x91
 1378 037d 6C       		.sleb128 -20
ARM GAS  C:\Users\honet\AppData\Local\Temp\ccjVTVVZ.s 			page 30


 1379 037e 00       		.byte	0
 1380 037f 00       		.byte	0
 1381 0380 05       		.uleb128 0x5
 1382 0381 04       		.byte	0x4
 1383 0382 81000000 		.4byte	0x81
 1384 0386 17       		.uleb128 0x17
 1385 0387 2D030000 		.4byte	.LASF66
 1386 038b 01       		.byte	0x1
 1387 038c F7       		.byte	0xf7
 1388 038d 81000000 		.4byte	0x81
 1389 0391 00000000 		.4byte	.LFB10
 1390 0395 30000000 		.4byte	.LFE10-.LFB10
 1391 0399 01       		.uleb128 0x1
 1392 039a 9C       		.byte	0x9c
 1393 039b AE030000 		.4byte	0x3ae
 1394 039f 12       		.uleb128 0x12
 1395 03a0 3C030000 		.4byte	.LASF51
 1396 03a4 01       		.byte	0x1
 1397 03a5 F7       		.byte	0xf7
 1398 03a6 81000000 		.4byte	0x81
 1399 03aa 02       		.uleb128 0x2
 1400 03ab 91       		.byte	0x91
 1401 03ac 77       		.sleb128 -9
 1402 03ad 00       		.byte	0
 1403 03ae 18       		.uleb128 0x18
 1404 03af DC000000 		.4byte	.LASF52
 1405 03b3 01       		.byte	0x1
 1406 03b4 0101     		.2byte	0x101
 1407 03b6 00000000 		.4byte	.LFB11
 1408 03ba 50000000 		.4byte	.LFE11-.LFB11
 1409 03be 01       		.uleb128 0x1
 1410 03bf 9C       		.byte	0x9c
 1411 03c0 D4030000 		.4byte	0x3d4
 1412 03c4 19       		.uleb128 0x19
 1413 03c5 F4000000 		.4byte	.LASF53
 1414 03c9 01       		.byte	0x1
 1415 03ca 0101     		.2byte	0x101
 1416 03cc 37000000 		.4byte	0x37
 1417 03d0 02       		.uleb128 0x2
 1418 03d1 91       		.byte	0x91
 1419 03d2 77       		.sleb128 -9
 1420 03d3 00       		.byte	0
 1421 03d4 13       		.uleb128 0x13
 1422 03d5 AF000000 		.4byte	.LASF54
 1423 03d9 01       		.byte	0x1
 1424 03da 28       		.byte	0x28
 1425 03db E5030000 		.4byte	0x3e5
 1426 03df 05       		.uleb128 0x5
 1427 03e0 03       		.byte	0x3
 1428 03e1 00000000 		.4byte	g_nTransferFlags
 1429 03e5 0E       		.uleb128 0xe
 1430 03e6 37000000 		.4byte	0x37
 1431 03ea 13       		.uleb128 0x13
 1432 03eb 07000000 		.4byte	.LASF55
 1433 03ef 01       		.byte	0x1
 1434 03f0 29       		.byte	0x29
 1435 03f1 E5030000 		.4byte	0x3e5
ARM GAS  C:\Users\honet\AppData\Local\Temp\ccjVTVVZ.s 			page 31


 1436 03f5 05       		.uleb128 0x5
 1437 03f6 03       		.byte	0x3
 1438 03f7 01000000 		.4byte	g_nCtrlState
 1439 03fb 13       		.uleb128 0x13
 1440 03fc 83010000 		.4byte	.LASF56
 1441 0400 01       		.byte	0x1
 1442 0401 2B       		.byte	0x2b
 1443 0402 81000000 		.4byte	0x81
 1444 0406 05       		.uleb128 0x5
 1445 0407 03       		.byte	0x3
 1446 0408 02000000 		.4byte	bEnableDMA
 1447 040c 13       		.uleb128 0x13
 1448 040d 41030000 		.4byte	.LASF57
 1449 0411 01       		.byte	0x1
 1450 0412 2E       		.byte	0x2e
 1451 0413 81000000 		.4byte	0x81
 1452 0417 05       		.uleb128 0x5
 1453 0418 03       		.byte	0x3
 1454 0419 03000000 		.4byte	RXDMA_Channel
 1455 041d 1A       		.uleb128 0x1a
 1456 041e 81000000 		.4byte	0x81
 1457 0422 2D040000 		.4byte	0x42d
 1458 0426 1B       		.uleb128 0x1b
 1459 0427 E8000000 		.4byte	0xe8
 1460 042b 00       		.byte	0
 1461 042c 00       		.byte	0
 1462 042d 13       		.uleb128 0x13
 1463 042e 4F030000 		.4byte	.LASF58
 1464 0432 01       		.byte	0x1
 1465 0433 2F       		.byte	0x2f
 1466 0434 1D040000 		.4byte	0x41d
 1467 0438 05       		.uleb128 0x5
 1468 0439 03       		.byte	0x3
 1469 043a 04000000 		.4byte	RXDMA_TD
 1470 043e 13       		.uleb128 0x13
 1471 043f 0A010000 		.4byte	.LASF59
 1472 0443 01       		.byte	0x1
 1473 0444 31       		.byte	0x31
 1474 0445 81000000 		.4byte	0x81
 1475 0449 05       		.uleb128 0x5
 1476 044a 03       		.byte	0x3
 1477 044b 05000000 		.4byte	TXDMA_Channel
 1478 044f 13       		.uleb128 0x13
 1479 0450 A5010000 		.4byte	.LASF60
 1480 0454 01       		.byte	0x1
 1481 0455 32       		.byte	0x32
 1482 0456 1D040000 		.4byte	0x41d
 1483 045a 05       		.uleb128 0x5
 1484 045b 03       		.byte	0x3
 1485 045c 08000000 		.4byte	TXDMA_TD
 1486 0460 13       		.uleb128 0x13
 1487 0461 F8020000 		.4byte	.LASF61
 1488 0465 01       		.byte	0x1
 1489 0466 34       		.byte	0x34
 1490 0467 1D040000 		.4byte	0x41d
 1491 046b 05       		.uleb128 0x5
 1492 046c 03       		.byte	0x3
ARM GAS  C:\Users\honet\AppData\Local\Temp\ccjVTVVZ.s 			page 32


 1493 046d 00000000 		.4byte	dummy_data
 1494 0471 00       		.byte	0
 1495              		.section	.debug_abbrev,"",%progbits
 1496              	.Ldebug_abbrev0:
 1497 0000 01       		.uleb128 0x1
 1498 0001 11       		.uleb128 0x11
 1499 0002 01       		.byte	0x1
 1500 0003 25       		.uleb128 0x25
 1501 0004 0E       		.uleb128 0xe
 1502 0005 13       		.uleb128 0x13
 1503 0006 0B       		.uleb128 0xb
 1504 0007 03       		.uleb128 0x3
 1505 0008 0E       		.uleb128 0xe
 1506 0009 1B       		.uleb128 0x1b
 1507 000a 0E       		.uleb128 0xe
 1508 000b 55       		.uleb128 0x55
 1509 000c 17       		.uleb128 0x17
 1510 000d 11       		.uleb128 0x11
 1511 000e 01       		.uleb128 0x1
 1512 000f 10       		.uleb128 0x10
 1513 0010 17       		.uleb128 0x17
 1514 0011 00       		.byte	0
 1515 0012 00       		.byte	0
 1516 0013 02       		.uleb128 0x2
 1517 0014 24       		.uleb128 0x24
 1518 0015 00       		.byte	0
 1519 0016 0B       		.uleb128 0xb
 1520 0017 0B       		.uleb128 0xb
 1521 0018 3E       		.uleb128 0x3e
 1522 0019 0B       		.uleb128 0xb
 1523 001a 03       		.uleb128 0x3
 1524 001b 0E       		.uleb128 0xe
 1525 001c 00       		.byte	0
 1526 001d 00       		.byte	0
 1527 001e 03       		.uleb128 0x3
 1528 001f 16       		.uleb128 0x16
 1529 0020 00       		.byte	0
 1530 0021 03       		.uleb128 0x3
 1531 0022 0E       		.uleb128 0xe
 1532 0023 3A       		.uleb128 0x3a
 1533 0024 0B       		.uleb128 0xb
 1534 0025 3B       		.uleb128 0x3b
 1535 0026 0B       		.uleb128 0xb
 1536 0027 49       		.uleb128 0x49
 1537 0028 13       		.uleb128 0x13
 1538 0029 00       		.byte	0
 1539 002a 00       		.byte	0
 1540 002b 04       		.uleb128 0x4
 1541 002c 24       		.uleb128 0x24
 1542 002d 00       		.byte	0
 1543 002e 0B       		.uleb128 0xb
 1544 002f 0B       		.uleb128 0xb
 1545 0030 3E       		.uleb128 0x3e
 1546 0031 0B       		.uleb128 0xb
 1547 0032 03       		.uleb128 0x3
 1548 0033 08       		.uleb128 0x8
 1549 0034 00       		.byte	0
ARM GAS  C:\Users\honet\AppData\Local\Temp\ccjVTVVZ.s 			page 33


 1550 0035 00       		.byte	0
 1551 0036 05       		.uleb128 0x5
 1552 0037 0F       		.uleb128 0xf
 1553 0038 00       		.byte	0
 1554 0039 0B       		.uleb128 0xb
 1555 003a 0B       		.uleb128 0xb
 1556 003b 49       		.uleb128 0x49
 1557 003c 13       		.uleb128 0x13
 1558 003d 00       		.byte	0
 1559 003e 00       		.byte	0
 1560 003f 06       		.uleb128 0x6
 1561 0040 15       		.uleb128 0x15
 1562 0041 00       		.byte	0
 1563 0042 27       		.uleb128 0x27
 1564 0043 19       		.uleb128 0x19
 1565 0044 00       		.byte	0
 1566 0045 00       		.byte	0
 1567 0046 07       		.uleb128 0x7
 1568 0047 15       		.uleb128 0x15
 1569 0048 01       		.byte	0x1
 1570 0049 27       		.uleb128 0x27
 1571 004a 19       		.uleb128 0x19
 1572 004b 01       		.uleb128 0x1
 1573 004c 13       		.uleb128 0x13
 1574 004d 00       		.byte	0
 1575 004e 00       		.byte	0
 1576 004f 08       		.uleb128 0x8
 1577 0050 05       		.uleb128 0x5
 1578 0051 00       		.byte	0
 1579 0052 49       		.uleb128 0x49
 1580 0053 13       		.uleb128 0x13
 1581 0054 00       		.byte	0
 1582 0055 00       		.byte	0
 1583 0056 09       		.uleb128 0x9
 1584 0057 13       		.uleb128 0x13
 1585 0058 01       		.byte	0x1
 1586 0059 03       		.uleb128 0x3
 1587 005a 0E       		.uleb128 0xe
 1588 005b 0B       		.uleb128 0xb
 1589 005c 0B       		.uleb128 0xb
 1590 005d 3A       		.uleb128 0x3a
 1591 005e 0B       		.uleb128 0xb
 1592 005f 3B       		.uleb128 0x3b
 1593 0060 05       		.uleb128 0x5
 1594 0061 01       		.uleb128 0x1
 1595 0062 13       		.uleb128 0x13
 1596 0063 00       		.byte	0
 1597 0064 00       		.byte	0
 1598 0065 0A       		.uleb128 0xa
 1599 0066 0D       		.uleb128 0xd
 1600 0067 00       		.byte	0
 1601 0068 03       		.uleb128 0x3
 1602 0069 0E       		.uleb128 0xe
 1603 006a 3A       		.uleb128 0x3a
 1604 006b 0B       		.uleb128 0xb
 1605 006c 3B       		.uleb128 0x3b
 1606 006d 05       		.uleb128 0x5
ARM GAS  C:\Users\honet\AppData\Local\Temp\ccjVTVVZ.s 			page 34


 1607 006e 49       		.uleb128 0x49
 1608 006f 13       		.uleb128 0x13
 1609 0070 38       		.uleb128 0x38
 1610 0071 0B       		.uleb128 0xb
 1611 0072 00       		.byte	0
 1612 0073 00       		.byte	0
 1613 0074 0B       		.uleb128 0xb
 1614 0075 15       		.uleb128 0x15
 1615 0076 01       		.byte	0x1
 1616 0077 27       		.uleb128 0x27
 1617 0078 19       		.uleb128 0x19
 1618 0079 49       		.uleb128 0x49
 1619 007a 13       		.uleb128 0x13
 1620 007b 01       		.uleb128 0x1
 1621 007c 13       		.uleb128 0x13
 1622 007d 00       		.byte	0
 1623 007e 00       		.byte	0
 1624 007f 0C       		.uleb128 0xc
 1625 0080 26       		.uleb128 0x26
 1626 0081 00       		.byte	0
 1627 0082 49       		.uleb128 0x49
 1628 0083 13       		.uleb128 0x13
 1629 0084 00       		.byte	0
 1630 0085 00       		.byte	0
 1631 0086 0D       		.uleb128 0xd
 1632 0087 16       		.uleb128 0x16
 1633 0088 00       		.byte	0
 1634 0089 03       		.uleb128 0x3
 1635 008a 0E       		.uleb128 0xe
 1636 008b 3A       		.uleb128 0x3a
 1637 008c 0B       		.uleb128 0xb
 1638 008d 3B       		.uleb128 0x3b
 1639 008e 05       		.uleb128 0x5
 1640 008f 49       		.uleb128 0x49
 1641 0090 13       		.uleb128 0x13
 1642 0091 00       		.byte	0
 1643 0092 00       		.byte	0
 1644 0093 0E       		.uleb128 0xe
 1645 0094 35       		.uleb128 0x35
 1646 0095 00       		.byte	0
 1647 0096 49       		.uleb128 0x49
 1648 0097 13       		.uleb128 0x13
 1649 0098 00       		.byte	0
 1650 0099 00       		.byte	0
 1651 009a 0F       		.uleb128 0xf
 1652 009b 2E       		.uleb128 0x2e
 1653 009c 00       		.byte	0
 1654 009d 3F       		.uleb128 0x3f
 1655 009e 19       		.uleb128 0x19
 1656 009f 03       		.uleb128 0x3
 1657 00a0 0E       		.uleb128 0xe
 1658 00a1 3A       		.uleb128 0x3a
 1659 00a2 0B       		.uleb128 0xb
 1660 00a3 3B       		.uleb128 0x3b
 1661 00a4 0B       		.uleb128 0xb
 1662 00a5 11       		.uleb128 0x11
 1663 00a6 01       		.uleb128 0x1
ARM GAS  C:\Users\honet\AppData\Local\Temp\ccjVTVVZ.s 			page 35


 1664 00a7 12       		.uleb128 0x12
 1665 00a8 06       		.uleb128 0x6
 1666 00a9 40       		.uleb128 0x40
 1667 00aa 18       		.uleb128 0x18
 1668 00ab 9742     		.uleb128 0x2117
 1669 00ad 19       		.uleb128 0x19
 1670 00ae 00       		.byte	0
 1671 00af 00       		.byte	0
 1672 00b0 10       		.uleb128 0x10
 1673 00b1 2E       		.uleb128 0x2e
 1674 00b2 00       		.byte	0
 1675 00b3 3F       		.uleb128 0x3f
 1676 00b4 19       		.uleb128 0x19
 1677 00b5 03       		.uleb128 0x3
 1678 00b6 0E       		.uleb128 0xe
 1679 00b7 3A       		.uleb128 0x3a
 1680 00b8 0B       		.uleb128 0xb
 1681 00b9 3B       		.uleb128 0x3b
 1682 00ba 0B       		.uleb128 0xb
 1683 00bb 11       		.uleb128 0x11
 1684 00bc 01       		.uleb128 0x1
 1685 00bd 12       		.uleb128 0x12
 1686 00be 06       		.uleb128 0x6
 1687 00bf 40       		.uleb128 0x40
 1688 00c0 18       		.uleb128 0x18
 1689 00c1 9642     		.uleb128 0x2116
 1690 00c3 19       		.uleb128 0x19
 1691 00c4 00       		.byte	0
 1692 00c5 00       		.byte	0
 1693 00c6 11       		.uleb128 0x11
 1694 00c7 2E       		.uleb128 0x2e
 1695 00c8 01       		.byte	0x1
 1696 00c9 3F       		.uleb128 0x3f
 1697 00ca 19       		.uleb128 0x19
 1698 00cb 03       		.uleb128 0x3
 1699 00cc 0E       		.uleb128 0xe
 1700 00cd 3A       		.uleb128 0x3a
 1701 00ce 0B       		.uleb128 0xb
 1702 00cf 3B       		.uleb128 0x3b
 1703 00d0 0B       		.uleb128 0xb
 1704 00d1 27       		.uleb128 0x27
 1705 00d2 19       		.uleb128 0x19
 1706 00d3 11       		.uleb128 0x11
 1707 00d4 01       		.uleb128 0x1
 1708 00d5 12       		.uleb128 0x12
 1709 00d6 06       		.uleb128 0x6
 1710 00d7 40       		.uleb128 0x40
 1711 00d8 18       		.uleb128 0x18
 1712 00d9 9642     		.uleb128 0x2116
 1713 00db 19       		.uleb128 0x19
 1714 00dc 01       		.uleb128 0x1
 1715 00dd 13       		.uleb128 0x13
 1716 00de 00       		.byte	0
 1717 00df 00       		.byte	0
 1718 00e0 12       		.uleb128 0x12
 1719 00e1 05       		.uleb128 0x5
 1720 00e2 00       		.byte	0
ARM GAS  C:\Users\honet\AppData\Local\Temp\ccjVTVVZ.s 			page 36


 1721 00e3 03       		.uleb128 0x3
 1722 00e4 0E       		.uleb128 0xe
 1723 00e5 3A       		.uleb128 0x3a
 1724 00e6 0B       		.uleb128 0xb
 1725 00e7 3B       		.uleb128 0x3b
 1726 00e8 0B       		.uleb128 0xb
 1727 00e9 49       		.uleb128 0x49
 1728 00ea 13       		.uleb128 0x13
 1729 00eb 02       		.uleb128 0x2
 1730 00ec 18       		.uleb128 0x18
 1731 00ed 00       		.byte	0
 1732 00ee 00       		.byte	0
 1733 00ef 13       		.uleb128 0x13
 1734 00f0 34       		.uleb128 0x34
 1735 00f1 00       		.byte	0
 1736 00f2 03       		.uleb128 0x3
 1737 00f3 0E       		.uleb128 0xe
 1738 00f4 3A       		.uleb128 0x3a
 1739 00f5 0B       		.uleb128 0xb
 1740 00f6 3B       		.uleb128 0x3b
 1741 00f7 0B       		.uleb128 0xb
 1742 00f8 49       		.uleb128 0x49
 1743 00f9 13       		.uleb128 0x13
 1744 00fa 02       		.uleb128 0x2
 1745 00fb 18       		.uleb128 0x18
 1746 00fc 00       		.byte	0
 1747 00fd 00       		.byte	0
 1748 00fe 14       		.uleb128 0x14
 1749 00ff 2E       		.uleb128 0x2e
 1750 0100 00       		.byte	0
 1751 0101 3F       		.uleb128 0x3f
 1752 0102 19       		.uleb128 0x19
 1753 0103 03       		.uleb128 0x3
 1754 0104 0E       		.uleb128 0xe
 1755 0105 3A       		.uleb128 0x3a
 1756 0106 0B       		.uleb128 0xb
 1757 0107 3B       		.uleb128 0x3b
 1758 0108 0B       		.uleb128 0xb
 1759 0109 27       		.uleb128 0x27
 1760 010a 19       		.uleb128 0x19
 1761 010b 11       		.uleb128 0x11
 1762 010c 01       		.uleb128 0x1
 1763 010d 12       		.uleb128 0x12
 1764 010e 06       		.uleb128 0x6
 1765 010f 40       		.uleb128 0x40
 1766 0110 18       		.uleb128 0x18
 1767 0111 9642     		.uleb128 0x2116
 1768 0113 19       		.uleb128 0x19
 1769 0114 00       		.byte	0
 1770 0115 00       		.byte	0
 1771 0116 15       		.uleb128 0x15
 1772 0117 0B       		.uleb128 0xb
 1773 0118 01       		.byte	0x1
 1774 0119 11       		.uleb128 0x11
 1775 011a 01       		.uleb128 0x1
 1776 011b 12       		.uleb128 0x12
 1777 011c 06       		.uleb128 0x6
ARM GAS  C:\Users\honet\AppData\Local\Temp\ccjVTVVZ.s 			page 37


 1778 011d 00       		.byte	0
 1779 011e 00       		.byte	0
 1780 011f 16       		.uleb128 0x16
 1781 0120 34       		.uleb128 0x34
 1782 0121 00       		.byte	0
 1783 0122 03       		.uleb128 0x3
 1784 0123 08       		.uleb128 0x8
 1785 0124 3A       		.uleb128 0x3a
 1786 0125 0B       		.uleb128 0xb
 1787 0126 3B       		.uleb128 0x3b
 1788 0127 0B       		.uleb128 0xb
 1789 0128 49       		.uleb128 0x49
 1790 0129 13       		.uleb128 0x13
 1791 012a 02       		.uleb128 0x2
 1792 012b 18       		.uleb128 0x18
 1793 012c 00       		.byte	0
 1794 012d 00       		.byte	0
 1795 012e 17       		.uleb128 0x17
 1796 012f 2E       		.uleb128 0x2e
 1797 0130 01       		.byte	0x1
 1798 0131 3F       		.uleb128 0x3f
 1799 0132 19       		.uleb128 0x19
 1800 0133 03       		.uleb128 0x3
 1801 0134 0E       		.uleb128 0xe
 1802 0135 3A       		.uleb128 0x3a
 1803 0136 0B       		.uleb128 0xb
 1804 0137 3B       		.uleb128 0x3b
 1805 0138 0B       		.uleb128 0xb
 1806 0139 27       		.uleb128 0x27
 1807 013a 19       		.uleb128 0x19
 1808 013b 49       		.uleb128 0x49
 1809 013c 13       		.uleb128 0x13
 1810 013d 11       		.uleb128 0x11
 1811 013e 01       		.uleb128 0x1
 1812 013f 12       		.uleb128 0x12
 1813 0140 06       		.uleb128 0x6
 1814 0141 40       		.uleb128 0x40
 1815 0142 18       		.uleb128 0x18
 1816 0143 9642     		.uleb128 0x2116
 1817 0145 19       		.uleb128 0x19
 1818 0146 01       		.uleb128 0x1
 1819 0147 13       		.uleb128 0x13
 1820 0148 00       		.byte	0
 1821 0149 00       		.byte	0
 1822 014a 18       		.uleb128 0x18
 1823 014b 2E       		.uleb128 0x2e
 1824 014c 01       		.byte	0x1
 1825 014d 3F       		.uleb128 0x3f
 1826 014e 19       		.uleb128 0x19
 1827 014f 03       		.uleb128 0x3
 1828 0150 0E       		.uleb128 0xe
 1829 0151 3A       		.uleb128 0x3a
 1830 0152 0B       		.uleb128 0xb
 1831 0153 3B       		.uleb128 0x3b
 1832 0154 05       		.uleb128 0x5
 1833 0155 27       		.uleb128 0x27
 1834 0156 19       		.uleb128 0x19
ARM GAS  C:\Users\honet\AppData\Local\Temp\ccjVTVVZ.s 			page 38


 1835 0157 11       		.uleb128 0x11
 1836 0158 01       		.uleb128 0x1
 1837 0159 12       		.uleb128 0x12
 1838 015a 06       		.uleb128 0x6
 1839 015b 40       		.uleb128 0x40
 1840 015c 18       		.uleb128 0x18
 1841 015d 9642     		.uleb128 0x2116
 1842 015f 19       		.uleb128 0x19
 1843 0160 01       		.uleb128 0x1
 1844 0161 13       		.uleb128 0x13
 1845 0162 00       		.byte	0
 1846 0163 00       		.byte	0
 1847 0164 19       		.uleb128 0x19
 1848 0165 05       		.uleb128 0x5
 1849 0166 00       		.byte	0
 1850 0167 03       		.uleb128 0x3
 1851 0168 0E       		.uleb128 0xe
 1852 0169 3A       		.uleb128 0x3a
 1853 016a 0B       		.uleb128 0xb
 1854 016b 3B       		.uleb128 0x3b
 1855 016c 05       		.uleb128 0x5
 1856 016d 49       		.uleb128 0x49
 1857 016e 13       		.uleb128 0x13
 1858 016f 02       		.uleb128 0x2
 1859 0170 18       		.uleb128 0x18
 1860 0171 00       		.byte	0
 1861 0172 00       		.byte	0
 1862 0173 1A       		.uleb128 0x1a
 1863 0174 01       		.uleb128 0x1
 1864 0175 01       		.byte	0x1
 1865 0176 49       		.uleb128 0x49
 1866 0177 13       		.uleb128 0x13
 1867 0178 01       		.uleb128 0x1
 1868 0179 13       		.uleb128 0x13
 1869 017a 00       		.byte	0
 1870 017b 00       		.byte	0
 1871 017c 1B       		.uleb128 0x1b
 1872 017d 21       		.uleb128 0x21
 1873 017e 00       		.byte	0
 1874 017f 49       		.uleb128 0x49
 1875 0180 13       		.uleb128 0x13
 1876 0181 2F       		.uleb128 0x2f
 1877 0182 0B       		.uleb128 0xb
 1878 0183 00       		.byte	0
 1879 0184 00       		.byte	0
 1880 0185 00       		.byte	0
 1881              		.section	.debug_aranges,"",%progbits
 1882 0000 74000000 		.4byte	0x74
 1883 0004 0200     		.2byte	0x2
 1884 0006 00000000 		.4byte	.Ldebug_info0
 1885 000a 04       		.byte	0x4
 1886 000b 00       		.byte	0
 1887 000c 0000     		.2byte	0
 1888 000e 0000     		.2byte	0
 1889 0010 00000000 		.4byte	.LFB0
 1890 0014 20000000 		.4byte	.LFE0-.LFB0
 1891 0018 00000000 		.4byte	.LFB1
ARM GAS  C:\Users\honet\AppData\Local\Temp\ccjVTVVZ.s 			page 39


 1892 001c 7C000000 		.4byte	.LFE1-.LFB1
 1893 0020 00000000 		.4byte	.LFB2
 1894 0024 30000000 		.4byte	.LFE2-.LFB2
 1895 0028 00000000 		.4byte	.LFB3
 1896 002c 60000000 		.4byte	.LFE3-.LFB3
 1897 0030 00000000 		.4byte	.LFB4
 1898 0034 1C000000 		.4byte	.LFE4-.LFB4
 1899 0038 00000000 		.4byte	.LFB5
 1900 003c 24000000 		.4byte	.LFE5-.LFB5
 1901 0040 00000000 		.4byte	.LFB6
 1902 0044 0C000000 		.4byte	.LFE6-.LFB6
 1903 0048 00000000 		.4byte	.LFB7
 1904 004c 0C000000 		.4byte	.LFE7-.LFB7
 1905 0050 00000000 		.4byte	.LFB8
 1906 0054 48010000 		.4byte	.LFE8-.LFB8
 1907 0058 00000000 		.4byte	.LFB9
 1908 005c 50010000 		.4byte	.LFE9-.LFB9
 1909 0060 00000000 		.4byte	.LFB10
 1910 0064 30000000 		.4byte	.LFE10-.LFB10
 1911 0068 00000000 		.4byte	.LFB11
 1912 006c 50000000 		.4byte	.LFE11-.LFB11
 1913 0070 00000000 		.4byte	0
 1914 0074 00000000 		.4byte	0
 1915              		.section	.debug_ranges,"",%progbits
 1916              	.Ldebug_ranges0:
 1917 0000 00000000 		.4byte	.LFB0
 1918 0004 20000000 		.4byte	.LFE0
 1919 0008 00000000 		.4byte	.LFB1
 1920 000c 7C000000 		.4byte	.LFE1
 1921 0010 00000000 		.4byte	.LFB2
 1922 0014 30000000 		.4byte	.LFE2
 1923 0018 00000000 		.4byte	.LFB3
 1924 001c 60000000 		.4byte	.LFE3
 1925 0020 00000000 		.4byte	.LFB4
 1926 0024 1C000000 		.4byte	.LFE4
 1927 0028 00000000 		.4byte	.LFB5
 1928 002c 24000000 		.4byte	.LFE5
 1929 0030 00000000 		.4byte	.LFB6
 1930 0034 0C000000 		.4byte	.LFE6
 1931 0038 00000000 		.4byte	.LFB7
 1932 003c 0C000000 		.4byte	.LFE7
 1933 0040 00000000 		.4byte	.LFB8
 1934 0044 48010000 		.4byte	.LFE8
 1935 0048 00000000 		.4byte	.LFB9
 1936 004c 50010000 		.4byte	.LFE9
 1937 0050 00000000 		.4byte	.LFB10
 1938 0054 30000000 		.4byte	.LFE10
 1939 0058 00000000 		.4byte	.LFB11
 1940 005c 50000000 		.4byte	.LFE11
 1941 0060 00000000 		.4byte	0
 1942 0064 00000000 		.4byte	0
 1943              		.section	.debug_line,"",%progbits
 1944              	.Ldebug_line0:
 1945 0000 CE020000 		.section	.debug_str,"MS",%progbits,1
 1945      02006001 
 1945      00000201 
 1945      FB0E0D00 
ARM GAS  C:\Users\honet\AppData\Local\Temp\ccjVTVVZ.s 			page 40


 1945      01010101 
 1946              	.LASF24:
 1947 0000 53505354 		.ascii	"SPSTOP\000"
 1947      4F5000
 1948              	.LASF55:
 1949 0007 675F6E43 		.ascii	"g_nCtrlState\000"
 1949      74726C53 
 1949      74617465 
 1949      00
 1950              	.LASF41:
 1951 0014 466E5072 		.ascii	"FnPrint\000"
 1951      696E7400 
 1952              	.LASF28:
 1953 001c 5052494E 		.ascii	"PRINT\000"
 1953      5400
 1954              	.LASF36:
 1955 0022 53445350 		.ascii	"SDSPI_RX_DMA_ISR\000"
 1955      495F5258 
 1955      5F444D41 
 1955      5F495352 
 1955      00
 1956              	.LASF13:
 1957 0033 53445350 		.ascii	"SDSPI_VOIDFXN\000"
 1957      495F564F 
 1957      49444658 
 1957      4E00
 1958              	.LASF23:
 1959 0041 53505354 		.ascii	"SPSTART\000"
 1959      41525400 
 1960              	.LASF2:
 1961 0049 73686F72 		.ascii	"short int\000"
 1961      7420696E 
 1961      7400
 1962              	.LASF18:
 1963 0053 73697A65 		.ascii	"sizetype\000"
 1963      74797065 
 1963      00
 1964              	.LASF29:
 1965 005c 5350495F 		.ascii	"SPI_FUNCTIONS\000"
 1965      46554E43 
 1965      54494F4E 
 1965      5300
 1966              	.LASF63:
 1967 006a 2E5C4765 		.ascii	".\\Generated_Source\\PSoC5\\SDSPI_api.c\000"
 1967      6E657261 
 1967      7465645F 
 1967      536F7572 
 1967      63655C50 
 1968              	.LASF6:
 1969 008f 5F5F7569 		.ascii	"__uint32_t\000"
 1969      6E743332 
 1969      5F7400
 1970              	.LASF65:
 1971 009a 53445350 		.ascii	"SDSPI_StartInterface\000"
 1971      495F5374 
 1971      61727449 
 1971      6E746572 
ARM GAS  C:\Users\honet\AppData\Local\Temp\ccjVTVVZ.s 			page 41


 1971      66616365 
 1972              	.LASF54:
 1973 00af 675F6E54 		.ascii	"g_nTransferFlags\000"
 1973      72616E73 
 1973      66657246 
 1973      6C616773 
 1973      00
 1974              	.LASF17:
 1975 00c0 42595445 		.ascii	"BYTE\000"
 1975      00
 1976              	.LASF26:
 1977 00c5 53505258 		.ascii	"SPRXSTREAM\000"
 1977      53545245 
 1977      414D00
 1978              	.LASF45:
 1979 00d0 53445350 		.ascii	"SDSPI_Start\000"
 1979      495F5374 
 1979      61727400 
 1980              	.LASF52:
 1981 00dc 53445350 		.ascii	"SDSPI_SetDMAMode\000"
 1981      495F5365 
 1981      74444D41 
 1981      4D6F6465 
 1981      00
 1982              	.LASF31:
 1983 00ed 75696E74 		.ascii	"uint16\000"
 1983      313600
 1984              	.LASF53:
 1985 00f4 656E6162 		.ascii	"enable\000"
 1985      6C6500
 1986              	.LASF30:
 1987 00fb 75696E74 		.ascii	"uint8\000"
 1987      3800
 1988              	.LASF49:
 1989 0101 53706946 		.ascii	"SpiFuncs\000"
 1989      756E6373 
 1989      00
 1990              	.LASF59:
 1991 010a 5458444D 		.ascii	"TXDMA_Channel\000"
 1991      415F4368 
 1991      616E6E65 
 1991      6C00
 1992              	.LASF19:
 1993 0118 53505345 		.ascii	"SPSELECTCARD\000"
 1993      4C454354 
 1993      43415244 
 1993      00
 1994              	.LASF27:
 1995 0125 53505458 		.ascii	"SPTXSTREAM\000"
 1995      53545245 
 1995      414D00
 1996              	.LASF33:
 1997 0130 666C6F61 		.ascii	"float\000"
 1997      7400
 1998              	.LASF64:
 1999 0136 443A5C64 		.ascii	"D:\\develop\\projects\\SoundChipLogger\\firmware\\D"
 1999      6576656C 
ARM GAS  C:\Users\honet\AppData\Local\Temp\ccjVTVVZ.s 			page 42


 1999      6F705C70 
 1999      726F6A65 
 1999      6374735C 
 2000 0164 4D415344 		.ascii	"MASDSPITest\\DMASDSPITest.cydsn\000"
 2000      53504954 
 2000      6573745C 
 2000      444D4153 
 2000      44535049 
 2001              	.LASF56:
 2002 0183 62456E61 		.ascii	"bEnableDMA\000"
 2002      626C6544 
 2002      4D4100
 2003              	.LASF8:
 2004 018e 6C6F6E67 		.ascii	"long long int\000"
 2004      206C6F6E 
 2004      6720696E 
 2004      7400
 2005              	.LASF4:
 2006 019c 6C6F6E67 		.ascii	"long int\000"
 2006      20696E74 
 2006      00
 2007              	.LASF60:
 2008 01a5 5458444D 		.ascii	"TXDMA_TD\000"
 2008      415F5444 
 2008      00
 2009              	.LASF20:
 2010 01ae 53504445 		.ascii	"SPDESELECTCARD\000"
 2010      53454C45 
 2010      43544341 
 2010      524400
 2011              	.LASF47:
 2012 01bd 70427566 		.ascii	"pBuffer\000"
 2012      66657200 
 2013              	.LASF42:
 2014 01c5 53445350 		.ascii	"SDSPI_Stop\000"
 2014      495F5374 
 2014      6F7000
 2015              	.LASF14:
 2016 01d0 53445350 		.ascii	"SDSPI_PRNTFXN\000"
 2016      495F5052 
 2016      4E544658 
 2016      4E00
 2017              	.LASF39:
 2018 01de 466E5365 		.ascii	"FnSelSlowCk\000"
 2018      6C536C6F 
 2018      77436B00 
 2019              	.LASF46:
 2020 01ea 53445350 		.ascii	"SDSPI_SendData\000"
 2020      495F5365 
 2020      6E644461 
 2020      746100
 2021              	.LASF62:
 2022 01f9 474E5520 		.ascii	"GNU C 4.9.3 20150303 (release) [ARM/embedded-4_9-br"
 2022      4320342E 
 2022      392E3320 
 2022      32303135 
 2022      30333033 
ARM GAS  C:\Users\honet\AppData\Local\Temp\ccjVTVVZ.s 			page 43


 2023 022c 616E6368 		.ascii	"anch revision 221220] -mcpu=cortex-m3 -mthumb -g -O"
 2023      20726576 
 2023      6973696F 
 2023      6E203232 
 2023      31323230 
 2024 025f 30202D73 		.ascii	"0 -std=gnu99 -ffunction-sections -ffat-lto-objects\000"
 2024      74643D67 
 2024      6E753939 
 2024      202D6666 
 2024      756E6374 
 2025              	.LASF1:
 2026 0292 756E7369 		.ascii	"unsigned char\000"
 2026      676E6564 
 2026      20636861 
 2026      7200
 2027              	.LASF0:
 2028 02a0 7369676E 		.ascii	"signed char\000"
 2028      65642063 
 2028      68617200 
 2029              	.LASF9:
 2030 02ac 6C6F6E67 		.ascii	"long long unsigned int\000"
 2030      206C6F6E 
 2030      6720756E 
 2030      7369676E 
 2030      65642069 
 2031              	.LASF12:
 2032 02c3 75696E74 		.ascii	"uint32_t\000"
 2032      33325F74 
 2032      00
 2033              	.LASF44:
 2034 02cc 53445350 		.ascii	"SDSPI_DeselectCard\000"
 2034      495F4465 
 2034      73656C65 
 2034      63744361 
 2034      726400
 2035              	.LASF10:
 2036 02df 756E7369 		.ascii	"unsigned int\000"
 2036      676E6564 
 2036      20696E74 
 2036      00
 2037              	.LASF40:
 2038 02ec 466E5365 		.ascii	"FnSelFastCk\000"
 2038      6C466173 
 2038      74436B00 
 2039              	.LASF61:
 2040 02f8 64756D6D 		.ascii	"dummy_data\000"
 2040      795F6461 
 2040      746100
 2041              	.LASF3:
 2042 0303 73686F72 		.ascii	"short unsigned int\000"
 2042      7420756E 
 2042      7369676E 
 2042      65642069 
 2042      6E7400
 2043              	.LASF15:
 2044 0316 63686172 		.ascii	"char\000"
 2044      00
ARM GAS  C:\Users\honet\AppData\Local\Temp\ccjVTVVZ.s 			page 44


 2045              	.LASF16:
 2046 031b 55494E54 		.ascii	"UINT\000"
 2046      00
 2047              	.LASF38:
 2048 0320 646D615F 		.ascii	"dma_shutdown\000"
 2048      73687574 
 2048      646F776E 
 2048      00
 2049              	.LASF66:
 2050 032d 53445350 		.ascii	"SDSPI_SwapByte\000"
 2050      495F5377 
 2050      61704279 
 2050      746500
 2051              	.LASF51:
 2052 033c 64617461 		.ascii	"data\000"
 2052      00
 2053              	.LASF57:
 2054 0341 5258444D 		.ascii	"RXDMA_Channel\000"
 2054      415F4368 
 2054      616E6E65 
 2054      6C00
 2055              	.LASF58:
 2056 034f 5258444D 		.ascii	"RXDMA_TD\000"
 2056      415F5444 
 2056      00
 2057              	.LASF32:
 2058 0358 75696E74 		.ascii	"uint32\000"
 2058      333200
 2059              	.LASF25:
 2060 035f 53504558 		.ascii	"SPEXCHANGE\000"
 2060      4348414E 
 2060      474500
 2061              	.LASF35:
 2062 036a 72656738 		.ascii	"reg8\000"
 2062      00
 2063              	.LASF7:
 2064 036f 6C6F6E67 		.ascii	"long unsigned int\000"
 2064      20756E73 
 2064      69676E65 
 2064      6420696E 
 2064      7400
 2065              	.LASF48:
 2066 0381 6E4C656E 		.ascii	"nLength\000"
 2066      67746800 
 2067              	.LASF34:
 2068 0389 646F7562 		.ascii	"double\000"
 2068      6C6500
 2069              	.LASF21:
 2070 0390 5350534C 		.ascii	"SPSLOWCK\000"
 2070      4F57434B 
 2070      00
 2071              	.LASF11:
 2072 0399 75696E74 		.ascii	"uint8_t\000"
 2072      385F7400 
 2073              	.LASF43:
 2074 03a1 53445350 		.ascii	"SDSPI_SelectCard\000"
 2074      495F5365 
ARM GAS  C:\Users\honet\AppData\Local\Temp\ccjVTVVZ.s 			page 45


 2074      6C656374 
 2074      43617264 
 2074      00
 2075              	.LASF50:
 2076 03b2 53445350 		.ascii	"SDSPI_ReceiveData\000"
 2076      495F5265 
 2076      63656976 
 2076      65446174 
 2076      6100
 2077              	.LASF22:
 2078 03c4 53504641 		.ascii	"SPFASTCK\000"
 2078      5354434B 
 2078      00
 2079              	.LASF37:
 2080 03cd 646D615F 		.ascii	"dma_setup\000"
 2080      73657475 
 2080      7000
 2081              	.LASF5:
 2082 03d7 5F5F7569 		.ascii	"__uint8_t\000"
 2082      6E74385F 
 2082      7400
 2083              		.ident	"GCC: (GNU Tools for ARM Embedded Processors) 4.9.3 20150303 (release) [ARM/embedded-4_9-br
