ARM GAS  C:\Users\honet\AppData\Local\Temp\ccmqrNIo.s 			page 1


   1              		.syntax unified
   2              		.cpu cortex-m3
   3              		.fpu softvfp
   4              		.eabi_attribute 20, 1
   5              		.eabi_attribute 21, 1
   6              		.eabi_attribute 23, 3
   7              		.eabi_attribute 24, 1
   8              		.eabi_attribute 25, 1
   9              		.eabi_attribute 26, 1
  10              		.eabi_attribute 30, 6
  11              		.eabi_attribute 34, 1
  12              		.eabi_attribute 18, 4
  13              		.thumb
  14              		.file	"SDSPI_SPIMaster.c"
  15              		.text
  16              	.Ltext0:
  17              		.cfi_sections	.debug_frame
  18              		.global	SDSPI_SPIMaster_initVar
  19              		.bss
  20              		.type	SDSPI_SPIMaster_initVar, %object
  21              		.size	SDSPI_SPIMaster_initVar, 1
  22              	SDSPI_SPIMaster_initVar:
  23 0000 00       		.space	1
  24              		.comm	SDSPI_SPIMaster_swStatusTx,1,1
  25              		.comm	SDSPI_SPIMaster_swStatusRx,1,1
  26              		.section	.text.SDSPI_SPIMaster_Init,"ax",%progbits
  27              		.align	2
  28              		.global	SDSPI_SPIMaster_Init
  29              		.thumb
  30              		.thumb_func
  31              		.type	SDSPI_SPIMaster_Init, %function
  32              	SDSPI_SPIMaster_Init:
  33              	.LFB0:
  34              		.file 1 ".\\Generated_Source\\PSoC5\\SDSPI_SPIMaster.c"
   1:.\Generated_Source\PSoC5/SDSPI_SPIMaster.c **** /*******************************************************************************
   2:.\Generated_Source\PSoC5/SDSPI_SPIMaster.c **** * File Name: SDSPI_SPIMaster.c
   3:.\Generated_Source\PSoC5/SDSPI_SPIMaster.c **** * Version 2.50
   4:.\Generated_Source\PSoC5/SDSPI_SPIMaster.c **** *
   5:.\Generated_Source\PSoC5/SDSPI_SPIMaster.c **** * Description:
   6:.\Generated_Source\PSoC5/SDSPI_SPIMaster.c **** *  This file provides all API functionality of the SPI Master component.
   7:.\Generated_Source\PSoC5/SDSPI_SPIMaster.c **** *
   8:.\Generated_Source\PSoC5/SDSPI_SPIMaster.c **** * Note:
   9:.\Generated_Source\PSoC5/SDSPI_SPIMaster.c **** *  None.
  10:.\Generated_Source\PSoC5/SDSPI_SPIMaster.c **** *
  11:.\Generated_Source\PSoC5/SDSPI_SPIMaster.c **** ********************************************************************************
  12:.\Generated_Source\PSoC5/SDSPI_SPIMaster.c **** * Copyright 2008-2015, Cypress Semiconductor Corporation.  All rights reserved.
  13:.\Generated_Source\PSoC5/SDSPI_SPIMaster.c **** * You may use this file only in accordance with the license, terms, conditions,
  14:.\Generated_Source\PSoC5/SDSPI_SPIMaster.c **** * disclaimers, and limitations in the end user license agreement accompanying
  15:.\Generated_Source\PSoC5/SDSPI_SPIMaster.c **** * the software package with which this file was provided.
  16:.\Generated_Source\PSoC5/SDSPI_SPIMaster.c **** *******************************************************************************/
  17:.\Generated_Source\PSoC5/SDSPI_SPIMaster.c **** 
  18:.\Generated_Source\PSoC5/SDSPI_SPIMaster.c **** #include "SDSPI_SPIMaster_PVT.h"
  19:.\Generated_Source\PSoC5/SDSPI_SPIMaster.c **** 
  20:.\Generated_Source\PSoC5/SDSPI_SPIMaster.c **** #if(SDSPI_SPIMaster_TX_SOFTWARE_BUF_ENABLED)
  21:.\Generated_Source\PSoC5/SDSPI_SPIMaster.c ****     volatile uint8 SDSPI_SPIMaster_txBuffer[SDSPI_SPIMaster_TX_BUFFER_SIZE];
  22:.\Generated_Source\PSoC5/SDSPI_SPIMaster.c ****     volatile uint8 SDSPI_SPIMaster_txBufferFull;
  23:.\Generated_Source\PSoC5/SDSPI_SPIMaster.c ****     volatile uint8 SDSPI_SPIMaster_txBufferRead;
ARM GAS  C:\Users\honet\AppData\Local\Temp\ccmqrNIo.s 			page 2


  24:.\Generated_Source\PSoC5/SDSPI_SPIMaster.c ****     volatile uint8 SDSPI_SPIMaster_txBufferWrite;
  25:.\Generated_Source\PSoC5/SDSPI_SPIMaster.c **** #endif /* (SDSPI_SPIMaster_TX_SOFTWARE_BUF_ENABLED) */
  26:.\Generated_Source\PSoC5/SDSPI_SPIMaster.c **** 
  27:.\Generated_Source\PSoC5/SDSPI_SPIMaster.c **** #if(SDSPI_SPIMaster_RX_SOFTWARE_BUF_ENABLED)
  28:.\Generated_Source\PSoC5/SDSPI_SPIMaster.c ****     volatile uint8 SDSPI_SPIMaster_rxBuffer[SDSPI_SPIMaster_RX_BUFFER_SIZE];
  29:.\Generated_Source\PSoC5/SDSPI_SPIMaster.c ****     volatile uint8 SDSPI_SPIMaster_rxBufferFull;
  30:.\Generated_Source\PSoC5/SDSPI_SPIMaster.c ****     volatile uint8 SDSPI_SPIMaster_rxBufferRead;
  31:.\Generated_Source\PSoC5/SDSPI_SPIMaster.c ****     volatile uint8 SDSPI_SPIMaster_rxBufferWrite;
  32:.\Generated_Source\PSoC5/SDSPI_SPIMaster.c **** #endif /* (SDSPI_SPIMaster_RX_SOFTWARE_BUF_ENABLED) */
  33:.\Generated_Source\PSoC5/SDSPI_SPIMaster.c **** 
  34:.\Generated_Source\PSoC5/SDSPI_SPIMaster.c **** uint8 SDSPI_SPIMaster_initVar = 0u;
  35:.\Generated_Source\PSoC5/SDSPI_SPIMaster.c **** 
  36:.\Generated_Source\PSoC5/SDSPI_SPIMaster.c **** volatile uint8 SDSPI_SPIMaster_swStatusTx;
  37:.\Generated_Source\PSoC5/SDSPI_SPIMaster.c **** volatile uint8 SDSPI_SPIMaster_swStatusRx;
  38:.\Generated_Source\PSoC5/SDSPI_SPIMaster.c **** 
  39:.\Generated_Source\PSoC5/SDSPI_SPIMaster.c **** 
  40:.\Generated_Source\PSoC5/SDSPI_SPIMaster.c **** /*******************************************************************************
  41:.\Generated_Source\PSoC5/SDSPI_SPIMaster.c **** * Function Name: SDSPI_SPIMaster_Init
  42:.\Generated_Source\PSoC5/SDSPI_SPIMaster.c **** ********************************************************************************
  43:.\Generated_Source\PSoC5/SDSPI_SPIMaster.c **** *
  44:.\Generated_Source\PSoC5/SDSPI_SPIMaster.c **** * Summary:
  45:.\Generated_Source\PSoC5/SDSPI_SPIMaster.c **** *  Inits/Restores default SPIM configuration provided with customizer.
  46:.\Generated_Source\PSoC5/SDSPI_SPIMaster.c **** *
  47:.\Generated_Source\PSoC5/SDSPI_SPIMaster.c **** * Parameters:
  48:.\Generated_Source\PSoC5/SDSPI_SPIMaster.c **** *  None.
  49:.\Generated_Source\PSoC5/SDSPI_SPIMaster.c **** *
  50:.\Generated_Source\PSoC5/SDSPI_SPIMaster.c **** * Return:
  51:.\Generated_Source\PSoC5/SDSPI_SPIMaster.c **** *  None.
  52:.\Generated_Source\PSoC5/SDSPI_SPIMaster.c **** *
  53:.\Generated_Source\PSoC5/SDSPI_SPIMaster.c **** * Side Effects:
  54:.\Generated_Source\PSoC5/SDSPI_SPIMaster.c **** *  When this function is called it initializes all of the necessary parameters
  55:.\Generated_Source\PSoC5/SDSPI_SPIMaster.c **** *  for execution. i.e. setting the initial interrupt mask, configuring the
  56:.\Generated_Source\PSoC5/SDSPI_SPIMaster.c **** *  interrupt service routine, configuring the bit-counter parameters and
  57:.\Generated_Source\PSoC5/SDSPI_SPIMaster.c **** *  clearing the FIFO and Status Register.
  58:.\Generated_Source\PSoC5/SDSPI_SPIMaster.c **** *
  59:.\Generated_Source\PSoC5/SDSPI_SPIMaster.c **** * Reentrant:
  60:.\Generated_Source\PSoC5/SDSPI_SPIMaster.c **** *  No.
  61:.\Generated_Source\PSoC5/SDSPI_SPIMaster.c **** *
  62:.\Generated_Source\PSoC5/SDSPI_SPIMaster.c **** *******************************************************************************/
  63:.\Generated_Source\PSoC5/SDSPI_SPIMaster.c **** void SDSPI_SPIMaster_Init(void) 
  64:.\Generated_Source\PSoC5/SDSPI_SPIMaster.c **** {
  35              		.loc 1 64 0
  36              		.cfi_startproc
  37              		@ args = 0, pretend = 0, frame = 0
  38              		@ frame_needed = 1, uses_anonymous_args = 0
  39 0000 80B5     		push	{r7, lr}
  40              		.cfi_def_cfa_offset 8
  41              		.cfi_offset 7, -8
  42              		.cfi_offset 14, -4
  43 0002 00AF     		add	r7, sp, #0
  44              		.cfi_def_cfa_register 7
  65:.\Generated_Source\PSoC5/SDSPI_SPIMaster.c ****     /* Initialize the Bit counter */
  66:.\Generated_Source\PSoC5/SDSPI_SPIMaster.c ****     SDSPI_SPIMaster_COUNTER_PERIOD_REG = SDSPI_SPIMaster_BITCTR_INIT;
  45              		.loc 1 66 0
  46 0004 074B     		ldr	r3, .L2
  47 0006 0F22     		movs	r2, #15
  48 0008 1A70     		strb	r2, [r3]
ARM GAS  C:\Users\honet\AppData\Local\Temp\ccmqrNIo.s 			page 3


  67:.\Generated_Source\PSoC5/SDSPI_SPIMaster.c **** 
  68:.\Generated_Source\PSoC5/SDSPI_SPIMaster.c ****     /* Init TX ISR  */
  69:.\Generated_Source\PSoC5/SDSPI_SPIMaster.c ****     #if(0u != SDSPI_SPIMaster_INTERNAL_TX_INT_ENABLED)
  70:.\Generated_Source\PSoC5/SDSPI_SPIMaster.c ****         CyIntDisable         (SDSPI_SPIMaster_TX_ISR_NUMBER);
  71:.\Generated_Source\PSoC5/SDSPI_SPIMaster.c ****         CyIntSetPriority     (SDSPI_SPIMaster_TX_ISR_NUMBER,  SDSPI_SPIMaster_TX_ISR_PRIORITY);
  72:.\Generated_Source\PSoC5/SDSPI_SPIMaster.c ****         (void) CyIntSetVector(SDSPI_SPIMaster_TX_ISR_NUMBER, &SDSPI_SPIMaster_TX_ISR);
  73:.\Generated_Source\PSoC5/SDSPI_SPIMaster.c ****     #endif /* (0u != SDSPI_SPIMaster_INTERNAL_TX_INT_ENABLED) */
  74:.\Generated_Source\PSoC5/SDSPI_SPIMaster.c **** 
  75:.\Generated_Source\PSoC5/SDSPI_SPIMaster.c ****     /* Init RX ISR  */
  76:.\Generated_Source\PSoC5/SDSPI_SPIMaster.c ****     #if(0u != SDSPI_SPIMaster_INTERNAL_RX_INT_ENABLED)
  77:.\Generated_Source\PSoC5/SDSPI_SPIMaster.c ****         CyIntDisable         (SDSPI_SPIMaster_RX_ISR_NUMBER);
  78:.\Generated_Source\PSoC5/SDSPI_SPIMaster.c ****         CyIntSetPriority     (SDSPI_SPIMaster_RX_ISR_NUMBER,  SDSPI_SPIMaster_RX_ISR_PRIORITY);
  79:.\Generated_Source\PSoC5/SDSPI_SPIMaster.c ****         (void) CyIntSetVector(SDSPI_SPIMaster_RX_ISR_NUMBER, &SDSPI_SPIMaster_RX_ISR);
  80:.\Generated_Source\PSoC5/SDSPI_SPIMaster.c ****     #endif /* (0u != SDSPI_SPIMaster_INTERNAL_RX_INT_ENABLED) */
  81:.\Generated_Source\PSoC5/SDSPI_SPIMaster.c **** 
  82:.\Generated_Source\PSoC5/SDSPI_SPIMaster.c ****     /* Clear any stray data from the RX and TX FIFO */
  83:.\Generated_Source\PSoC5/SDSPI_SPIMaster.c ****     SDSPI_SPIMaster_ClearFIFO();
  49              		.loc 1 83 0
  50 000a FFF7FEFF 		bl	SDSPI_SPIMaster_ClearFIFO
  84:.\Generated_Source\PSoC5/SDSPI_SPIMaster.c **** 
  85:.\Generated_Source\PSoC5/SDSPI_SPIMaster.c ****     #if(SDSPI_SPIMaster_RX_SOFTWARE_BUF_ENABLED)
  86:.\Generated_Source\PSoC5/SDSPI_SPIMaster.c ****         SDSPI_SPIMaster_rxBufferFull  = 0u;
  87:.\Generated_Source\PSoC5/SDSPI_SPIMaster.c ****         SDSPI_SPIMaster_rxBufferRead  = 0u;
  88:.\Generated_Source\PSoC5/SDSPI_SPIMaster.c ****         SDSPI_SPIMaster_rxBufferWrite = 0u;
  89:.\Generated_Source\PSoC5/SDSPI_SPIMaster.c ****     #endif /* (SDSPI_SPIMaster_RX_SOFTWARE_BUF_ENABLED) */
  90:.\Generated_Source\PSoC5/SDSPI_SPIMaster.c **** 
  91:.\Generated_Source\PSoC5/SDSPI_SPIMaster.c ****     #if(SDSPI_SPIMaster_TX_SOFTWARE_BUF_ENABLED)
  92:.\Generated_Source\PSoC5/SDSPI_SPIMaster.c ****         SDSPI_SPIMaster_txBufferFull  = 0u;
  93:.\Generated_Source\PSoC5/SDSPI_SPIMaster.c ****         SDSPI_SPIMaster_txBufferRead  = 0u;
  94:.\Generated_Source\PSoC5/SDSPI_SPIMaster.c ****         SDSPI_SPIMaster_txBufferWrite = 0u;
  95:.\Generated_Source\PSoC5/SDSPI_SPIMaster.c ****     #endif /* (SDSPI_SPIMaster_TX_SOFTWARE_BUF_ENABLED) */
  96:.\Generated_Source\PSoC5/SDSPI_SPIMaster.c **** 
  97:.\Generated_Source\PSoC5/SDSPI_SPIMaster.c ****     (void) SDSPI_SPIMaster_ReadTxStatus(); /* Clear Tx status and swStatusTx */
  51              		.loc 1 97 0
  52 000e FFF7FEFF 		bl	SDSPI_SPIMaster_ReadTxStatus
  98:.\Generated_Source\PSoC5/SDSPI_SPIMaster.c ****     (void) SDSPI_SPIMaster_ReadRxStatus(); /* Clear Rx status and swStatusRx */
  53              		.loc 1 98 0
  54 0012 FFF7FEFF 		bl	SDSPI_SPIMaster_ReadRxStatus
  99:.\Generated_Source\PSoC5/SDSPI_SPIMaster.c **** 
 100:.\Generated_Source\PSoC5/SDSPI_SPIMaster.c ****     /* Configure TX and RX interrupt mask */
 101:.\Generated_Source\PSoC5/SDSPI_SPIMaster.c ****     SDSPI_SPIMaster_TX_STATUS_MASK_REG = SDSPI_SPIMaster_TX_INIT_INTERRUPTS_MASK;
  55              		.loc 1 101 0
  56 0016 044B     		ldr	r3, .L2+4
  57 0018 0222     		movs	r2, #2
  58 001a 1A70     		strb	r2, [r3]
 102:.\Generated_Source\PSoC5/SDSPI_SPIMaster.c ****     SDSPI_SPIMaster_RX_STATUS_MASK_REG = SDSPI_SPIMaster_RX_INIT_INTERRUPTS_MASK;
  59              		.loc 1 102 0
  60 001c 034B     		ldr	r3, .L2+8
  61 001e 2022     		movs	r2, #32
  62 0020 1A70     		strb	r2, [r3]
 103:.\Generated_Source\PSoC5/SDSPI_SPIMaster.c **** }
  63              		.loc 1 103 0
  64 0022 80BD     		pop	{r7, pc}
  65              	.L3:
  66              		.align	2
  67              	.L2:
  68 0024 8F640040 		.word	1073767567
ARM GAS  C:\Users\honet\AppData\Local\Temp\ccmqrNIo.s 			page 4


  69 0028 8C640040 		.word	1073767564
  70 002c 8D640040 		.word	1073767565
  71              		.cfi_endproc
  72              	.LFE0:
  73              		.size	SDSPI_SPIMaster_Init, .-SDSPI_SPIMaster_Init
  74              		.section	.text.SDSPI_SPIMaster_Enable,"ax",%progbits
  75              		.align	2
  76              		.global	SDSPI_SPIMaster_Enable
  77              		.thumb
  78              		.thumb_func
  79              		.type	SDSPI_SPIMaster_Enable, %function
  80              	SDSPI_SPIMaster_Enable:
  81              	.LFB1:
 104:.\Generated_Source\PSoC5/SDSPI_SPIMaster.c **** 
 105:.\Generated_Source\PSoC5/SDSPI_SPIMaster.c **** 
 106:.\Generated_Source\PSoC5/SDSPI_SPIMaster.c **** /*******************************************************************************
 107:.\Generated_Source\PSoC5/SDSPI_SPIMaster.c **** * Function Name: SDSPI_SPIMaster_Enable
 108:.\Generated_Source\PSoC5/SDSPI_SPIMaster.c **** ********************************************************************************
 109:.\Generated_Source\PSoC5/SDSPI_SPIMaster.c **** *
 110:.\Generated_Source\PSoC5/SDSPI_SPIMaster.c **** * Summary:
 111:.\Generated_Source\PSoC5/SDSPI_SPIMaster.c **** *  Enable SPIM component.
 112:.\Generated_Source\PSoC5/SDSPI_SPIMaster.c **** *
 113:.\Generated_Source\PSoC5/SDSPI_SPIMaster.c **** * Parameters:
 114:.\Generated_Source\PSoC5/SDSPI_SPIMaster.c **** *  None.
 115:.\Generated_Source\PSoC5/SDSPI_SPIMaster.c **** *
 116:.\Generated_Source\PSoC5/SDSPI_SPIMaster.c **** * Return:
 117:.\Generated_Source\PSoC5/SDSPI_SPIMaster.c **** *  None.
 118:.\Generated_Source\PSoC5/SDSPI_SPIMaster.c **** *
 119:.\Generated_Source\PSoC5/SDSPI_SPIMaster.c **** *******************************************************************************/
 120:.\Generated_Source\PSoC5/SDSPI_SPIMaster.c **** void SDSPI_SPIMaster_Enable(void) 
 121:.\Generated_Source\PSoC5/SDSPI_SPIMaster.c **** {
  82              		.loc 1 121 0
  83              		.cfi_startproc
  84              		@ args = 0, pretend = 0, frame = 8
  85              		@ frame_needed = 1, uses_anonymous_args = 0
  86 0000 80B5     		push	{r7, lr}
  87              		.cfi_def_cfa_offset 8
  88              		.cfi_offset 7, -8
  89              		.cfi_offset 14, -4
  90 0002 82B0     		sub	sp, sp, #8
  91              		.cfi_def_cfa_offset 16
  92 0004 00AF     		add	r7, sp, #0
  93              		.cfi_def_cfa_register 7
 122:.\Generated_Source\PSoC5/SDSPI_SPIMaster.c ****     uint8 enableInterrupts;
 123:.\Generated_Source\PSoC5/SDSPI_SPIMaster.c **** 
 124:.\Generated_Source\PSoC5/SDSPI_SPIMaster.c ****     enableInterrupts = CyEnterCriticalSection();
  94              		.loc 1 124 0
  95 0006 FFF7FEFF 		bl	CyEnterCriticalSection
  96 000a 0346     		mov	r3, r0
  97 000c FB71     		strb	r3, [r7, #7]
 125:.\Generated_Source\PSoC5/SDSPI_SPIMaster.c ****     SDSPI_SPIMaster_COUNTER_CONTROL_REG |= SDSPI_SPIMaster_CNTR_ENABLE;
  98              		.loc 1 125 0
  99 000e 114A     		ldr	r2, .L5
 100 0010 104B     		ldr	r3, .L5
 101 0012 1B78     		ldrb	r3, [r3]
 102 0014 DBB2     		uxtb	r3, r3
 103 0016 43F02003 		orr	r3, r3, #32
ARM GAS  C:\Users\honet\AppData\Local\Temp\ccmqrNIo.s 			page 5


 104 001a DBB2     		uxtb	r3, r3
 105 001c 1370     		strb	r3, [r2]
 126:.\Generated_Source\PSoC5/SDSPI_SPIMaster.c ****     SDSPI_SPIMaster_TX_STATUS_ACTL_REG  |= SDSPI_SPIMaster_INT_ENABLE;
 106              		.loc 1 126 0
 107 001e 0E4A     		ldr	r2, .L5+4
 108 0020 0D4B     		ldr	r3, .L5+4
 109 0022 1B78     		ldrb	r3, [r3]
 110 0024 DBB2     		uxtb	r3, r3
 111 0026 43F01003 		orr	r3, r3, #16
 112 002a DBB2     		uxtb	r3, r3
 113 002c 1370     		strb	r3, [r2]
 127:.\Generated_Source\PSoC5/SDSPI_SPIMaster.c ****     SDSPI_SPIMaster_RX_STATUS_ACTL_REG  |= SDSPI_SPIMaster_INT_ENABLE;
 114              		.loc 1 127 0
 115 002e 0B4A     		ldr	r2, .L5+8
 116 0030 0A4B     		ldr	r3, .L5+8
 117 0032 1B78     		ldrb	r3, [r3]
 118 0034 DBB2     		uxtb	r3, r3
 119 0036 43F01003 		orr	r3, r3, #16
 120 003a DBB2     		uxtb	r3, r3
 121 003c 1370     		strb	r3, [r2]
 128:.\Generated_Source\PSoC5/SDSPI_SPIMaster.c ****     CyExitCriticalSection(enableInterrupts);
 122              		.loc 1 128 0
 123 003e FB79     		ldrb	r3, [r7, #7]	@ zero_extendqisi2
 124 0040 1846     		mov	r0, r3
 125 0042 FFF7FEFF 		bl	CyExitCriticalSection
 129:.\Generated_Source\PSoC5/SDSPI_SPIMaster.c **** 
 130:.\Generated_Source\PSoC5/SDSPI_SPIMaster.c ****     #if(0u != SDSPI_SPIMaster_INTERNAL_CLOCK)
 131:.\Generated_Source\PSoC5/SDSPI_SPIMaster.c ****         SDSPI_SPIMaster_IntClock_Enable();
 132:.\Generated_Source\PSoC5/SDSPI_SPIMaster.c ****     #endif /* (0u != SDSPI_SPIMaster_INTERNAL_CLOCK) */
 133:.\Generated_Source\PSoC5/SDSPI_SPIMaster.c **** 
 134:.\Generated_Source\PSoC5/SDSPI_SPIMaster.c ****     SDSPI_SPIMaster_EnableTxInt();
 126              		.loc 1 134 0
 127 0046 FFF7FEFF 		bl	SDSPI_SPIMaster_EnableTxInt
 135:.\Generated_Source\PSoC5/SDSPI_SPIMaster.c ****     SDSPI_SPIMaster_EnableRxInt();
 128              		.loc 1 135 0
 129 004a FFF7FEFF 		bl	SDSPI_SPIMaster_EnableRxInt
 136:.\Generated_Source\PSoC5/SDSPI_SPIMaster.c **** }
 130              		.loc 1 136 0
 131 004e 0837     		adds	r7, r7, #8
 132              		.cfi_def_cfa_offset 8
 133 0050 BD46     		mov	sp, r7
 134              		.cfi_def_cfa_register 13
 135              		@ sp needed
 136 0052 80BD     		pop	{r7, pc}
 137              	.L6:
 138              		.align	2
 139              	.L5:
 140 0054 9F640040 		.word	1073767583
 141 0058 9C640040 		.word	1073767580
 142 005c 9D640040 		.word	1073767581
 143              		.cfi_endproc
 144              	.LFE1:
 145              		.size	SDSPI_SPIMaster_Enable, .-SDSPI_SPIMaster_Enable
 146              		.section	.text.SDSPI_SPIMaster_Start,"ax",%progbits
 147              		.align	2
 148              		.global	SDSPI_SPIMaster_Start
 149              		.thumb
ARM GAS  C:\Users\honet\AppData\Local\Temp\ccmqrNIo.s 			page 6


 150              		.thumb_func
 151              		.type	SDSPI_SPIMaster_Start, %function
 152              	SDSPI_SPIMaster_Start:
 153              	.LFB2:
 137:.\Generated_Source\PSoC5/SDSPI_SPIMaster.c **** 
 138:.\Generated_Source\PSoC5/SDSPI_SPIMaster.c **** 
 139:.\Generated_Source\PSoC5/SDSPI_SPIMaster.c **** /*******************************************************************************
 140:.\Generated_Source\PSoC5/SDSPI_SPIMaster.c **** * Function Name: SDSPI_SPIMaster_Start
 141:.\Generated_Source\PSoC5/SDSPI_SPIMaster.c **** ********************************************************************************
 142:.\Generated_Source\PSoC5/SDSPI_SPIMaster.c **** *
 143:.\Generated_Source\PSoC5/SDSPI_SPIMaster.c **** * Summary:
 144:.\Generated_Source\PSoC5/SDSPI_SPIMaster.c **** *  Initialize and Enable the SPI Master component.
 145:.\Generated_Source\PSoC5/SDSPI_SPIMaster.c **** *
 146:.\Generated_Source\PSoC5/SDSPI_SPIMaster.c **** * Parameters:
 147:.\Generated_Source\PSoC5/SDSPI_SPIMaster.c **** *  None.
 148:.\Generated_Source\PSoC5/SDSPI_SPIMaster.c **** *
 149:.\Generated_Source\PSoC5/SDSPI_SPIMaster.c **** * Return:
 150:.\Generated_Source\PSoC5/SDSPI_SPIMaster.c **** *  None.
 151:.\Generated_Source\PSoC5/SDSPI_SPIMaster.c **** *
 152:.\Generated_Source\PSoC5/SDSPI_SPIMaster.c **** * Global variables:
 153:.\Generated_Source\PSoC5/SDSPI_SPIMaster.c **** *  SDSPI_SPIMaster_initVar - used to check initial configuration, modified on
 154:.\Generated_Source\PSoC5/SDSPI_SPIMaster.c **** *  first function call.
 155:.\Generated_Source\PSoC5/SDSPI_SPIMaster.c **** *
 156:.\Generated_Source\PSoC5/SDSPI_SPIMaster.c **** * Theory:
 157:.\Generated_Source\PSoC5/SDSPI_SPIMaster.c **** *  Enable the clock input to enable operation.
 158:.\Generated_Source\PSoC5/SDSPI_SPIMaster.c **** *
 159:.\Generated_Source\PSoC5/SDSPI_SPIMaster.c **** * Reentrant:
 160:.\Generated_Source\PSoC5/SDSPI_SPIMaster.c **** *  No.
 161:.\Generated_Source\PSoC5/SDSPI_SPIMaster.c **** *
 162:.\Generated_Source\PSoC5/SDSPI_SPIMaster.c **** *******************************************************************************/
 163:.\Generated_Source\PSoC5/SDSPI_SPIMaster.c **** void SDSPI_SPIMaster_Start(void) 
 164:.\Generated_Source\PSoC5/SDSPI_SPIMaster.c **** {
 154              		.loc 1 164 0
 155              		.cfi_startproc
 156              		@ args = 0, pretend = 0, frame = 0
 157              		@ frame_needed = 1, uses_anonymous_args = 0
 158 0000 80B5     		push	{r7, lr}
 159              		.cfi_def_cfa_offset 8
 160              		.cfi_offset 7, -8
 161              		.cfi_offset 14, -4
 162 0002 00AF     		add	r7, sp, #0
 163              		.cfi_def_cfa_register 7
 165:.\Generated_Source\PSoC5/SDSPI_SPIMaster.c ****     if(0u == SDSPI_SPIMaster_initVar)
 164              		.loc 1 165 0
 165 0004 054B     		ldr	r3, .L9
 166 0006 1B78     		ldrb	r3, [r3]	@ zero_extendqisi2
 167 0008 002B     		cmp	r3, #0
 168 000a 04D1     		bne	.L8
 166:.\Generated_Source\PSoC5/SDSPI_SPIMaster.c ****     {
 167:.\Generated_Source\PSoC5/SDSPI_SPIMaster.c ****         SDSPI_SPIMaster_Init();
 169              		.loc 1 167 0
 170 000c FFF7FEFF 		bl	SDSPI_SPIMaster_Init
 168:.\Generated_Source\PSoC5/SDSPI_SPIMaster.c ****         SDSPI_SPIMaster_initVar = 1u;
 171              		.loc 1 168 0
 172 0010 024B     		ldr	r3, .L9
 173 0012 0122     		movs	r2, #1
 174 0014 1A70     		strb	r2, [r3]
ARM GAS  C:\Users\honet\AppData\Local\Temp\ccmqrNIo.s 			page 7


 175              	.L8:
 169:.\Generated_Source\PSoC5/SDSPI_SPIMaster.c ****     }
 170:.\Generated_Source\PSoC5/SDSPI_SPIMaster.c **** 
 171:.\Generated_Source\PSoC5/SDSPI_SPIMaster.c ****     SDSPI_SPIMaster_Enable();
 176              		.loc 1 171 0
 177 0016 FFF7FEFF 		bl	SDSPI_SPIMaster_Enable
 172:.\Generated_Source\PSoC5/SDSPI_SPIMaster.c **** }
 178              		.loc 1 172 0
 179 001a 80BD     		pop	{r7, pc}
 180              	.L10:
 181              		.align	2
 182              	.L9:
 183 001c 00000000 		.word	SDSPI_SPIMaster_initVar
 184              		.cfi_endproc
 185              	.LFE2:
 186              		.size	SDSPI_SPIMaster_Start, .-SDSPI_SPIMaster_Start
 187              		.section	.text.SDSPI_SPIMaster_Stop,"ax",%progbits
 188              		.align	2
 189              		.global	SDSPI_SPIMaster_Stop
 190              		.thumb
 191              		.thumb_func
 192              		.type	SDSPI_SPIMaster_Stop, %function
 193              	SDSPI_SPIMaster_Stop:
 194              	.LFB3:
 173:.\Generated_Source\PSoC5/SDSPI_SPIMaster.c **** 
 174:.\Generated_Source\PSoC5/SDSPI_SPIMaster.c **** 
 175:.\Generated_Source\PSoC5/SDSPI_SPIMaster.c **** /*******************************************************************************
 176:.\Generated_Source\PSoC5/SDSPI_SPIMaster.c **** * Function Name: SDSPI_SPIMaster_Stop
 177:.\Generated_Source\PSoC5/SDSPI_SPIMaster.c **** ********************************************************************************
 178:.\Generated_Source\PSoC5/SDSPI_SPIMaster.c **** *
 179:.\Generated_Source\PSoC5/SDSPI_SPIMaster.c **** * Summary:
 180:.\Generated_Source\PSoC5/SDSPI_SPIMaster.c **** *  Disable the SPI Master component.
 181:.\Generated_Source\PSoC5/SDSPI_SPIMaster.c **** *
 182:.\Generated_Source\PSoC5/SDSPI_SPIMaster.c **** * Parameters:
 183:.\Generated_Source\PSoC5/SDSPI_SPIMaster.c **** *  None.
 184:.\Generated_Source\PSoC5/SDSPI_SPIMaster.c **** *
 185:.\Generated_Source\PSoC5/SDSPI_SPIMaster.c **** * Return:
 186:.\Generated_Source\PSoC5/SDSPI_SPIMaster.c **** *  None.
 187:.\Generated_Source\PSoC5/SDSPI_SPIMaster.c **** *
 188:.\Generated_Source\PSoC5/SDSPI_SPIMaster.c **** * Theory:
 189:.\Generated_Source\PSoC5/SDSPI_SPIMaster.c **** *  Disable the clock input to enable operation.
 190:.\Generated_Source\PSoC5/SDSPI_SPIMaster.c **** *
 191:.\Generated_Source\PSoC5/SDSPI_SPIMaster.c **** *******************************************************************************/
 192:.\Generated_Source\PSoC5/SDSPI_SPIMaster.c **** void SDSPI_SPIMaster_Stop(void) 
 193:.\Generated_Source\PSoC5/SDSPI_SPIMaster.c **** {
 195              		.loc 1 193 0
 196              		.cfi_startproc
 197              		@ args = 0, pretend = 0, frame = 8
 198              		@ frame_needed = 1, uses_anonymous_args = 0
 199 0000 80B5     		push	{r7, lr}
 200              		.cfi_def_cfa_offset 8
 201              		.cfi_offset 7, -8
 202              		.cfi_offset 14, -4
 203 0002 82B0     		sub	sp, sp, #8
 204              		.cfi_def_cfa_offset 16
 205 0004 00AF     		add	r7, sp, #0
 206              		.cfi_def_cfa_register 7
ARM GAS  C:\Users\honet\AppData\Local\Temp\ccmqrNIo.s 			page 8


 194:.\Generated_Source\PSoC5/SDSPI_SPIMaster.c ****     uint8 enableInterrupts;
 195:.\Generated_Source\PSoC5/SDSPI_SPIMaster.c **** 
 196:.\Generated_Source\PSoC5/SDSPI_SPIMaster.c ****     enableInterrupts = CyEnterCriticalSection();
 207              		.loc 1 196 0
 208 0006 FFF7FEFF 		bl	CyEnterCriticalSection
 209 000a 0346     		mov	r3, r0
 210 000c FB71     		strb	r3, [r7, #7]
 197:.\Generated_Source\PSoC5/SDSPI_SPIMaster.c ****     SDSPI_SPIMaster_TX_STATUS_ACTL_REG &= ((uint8) ~SDSPI_SPIMaster_INT_ENABLE);
 211              		.loc 1 197 0
 212 000e 0D4A     		ldr	r2, .L12
 213 0010 0C4B     		ldr	r3, .L12
 214 0012 1B78     		ldrb	r3, [r3]
 215 0014 DBB2     		uxtb	r3, r3
 216 0016 23F01003 		bic	r3, r3, #16
 217 001a DBB2     		uxtb	r3, r3
 218 001c 1370     		strb	r3, [r2]
 198:.\Generated_Source\PSoC5/SDSPI_SPIMaster.c ****     SDSPI_SPIMaster_RX_STATUS_ACTL_REG &= ((uint8) ~SDSPI_SPIMaster_INT_ENABLE);
 219              		.loc 1 198 0
 220 001e 0A4A     		ldr	r2, .L12+4
 221 0020 094B     		ldr	r3, .L12+4
 222 0022 1B78     		ldrb	r3, [r3]
 223 0024 DBB2     		uxtb	r3, r3
 224 0026 23F01003 		bic	r3, r3, #16
 225 002a DBB2     		uxtb	r3, r3
 226 002c 1370     		strb	r3, [r2]
 199:.\Generated_Source\PSoC5/SDSPI_SPIMaster.c ****     CyExitCriticalSection(enableInterrupts);
 227              		.loc 1 199 0
 228 002e FB79     		ldrb	r3, [r7, #7]	@ zero_extendqisi2
 229 0030 1846     		mov	r0, r3
 230 0032 FFF7FEFF 		bl	CyExitCriticalSection
 200:.\Generated_Source\PSoC5/SDSPI_SPIMaster.c **** 
 201:.\Generated_Source\PSoC5/SDSPI_SPIMaster.c ****     #if(0u != SDSPI_SPIMaster_INTERNAL_CLOCK)
 202:.\Generated_Source\PSoC5/SDSPI_SPIMaster.c ****         SDSPI_SPIMaster_IntClock_Disable();
 203:.\Generated_Source\PSoC5/SDSPI_SPIMaster.c ****     #endif /* (0u != SDSPI_SPIMaster_INTERNAL_CLOCK) */
 204:.\Generated_Source\PSoC5/SDSPI_SPIMaster.c **** 
 205:.\Generated_Source\PSoC5/SDSPI_SPIMaster.c ****     SDSPI_SPIMaster_DisableTxInt();
 231              		.loc 1 205 0
 232 0036 FFF7FEFF 		bl	SDSPI_SPIMaster_DisableTxInt
 206:.\Generated_Source\PSoC5/SDSPI_SPIMaster.c ****     SDSPI_SPIMaster_DisableRxInt();
 233              		.loc 1 206 0
 234 003a FFF7FEFF 		bl	SDSPI_SPIMaster_DisableRxInt
 207:.\Generated_Source\PSoC5/SDSPI_SPIMaster.c **** }
 235              		.loc 1 207 0
 236 003e 0837     		adds	r7, r7, #8
 237              		.cfi_def_cfa_offset 8
 238 0040 BD46     		mov	sp, r7
 239              		.cfi_def_cfa_register 13
 240              		@ sp needed
 241 0042 80BD     		pop	{r7, pc}
 242              	.L13:
 243              		.align	2
 244              	.L12:
 245 0044 9C640040 		.word	1073767580
 246 0048 9D640040 		.word	1073767581
 247              		.cfi_endproc
 248              	.LFE3:
 249              		.size	SDSPI_SPIMaster_Stop, .-SDSPI_SPIMaster_Stop
ARM GAS  C:\Users\honet\AppData\Local\Temp\ccmqrNIo.s 			page 9


 250              		.section	.text.SDSPI_SPIMaster_EnableTxInt,"ax",%progbits
 251              		.align	2
 252              		.global	SDSPI_SPIMaster_EnableTxInt
 253              		.thumb
 254              		.thumb_func
 255              		.type	SDSPI_SPIMaster_EnableTxInt, %function
 256              	SDSPI_SPIMaster_EnableTxInt:
 257              	.LFB4:
 208:.\Generated_Source\PSoC5/SDSPI_SPIMaster.c **** 
 209:.\Generated_Source\PSoC5/SDSPI_SPIMaster.c **** 
 210:.\Generated_Source\PSoC5/SDSPI_SPIMaster.c **** /*******************************************************************************
 211:.\Generated_Source\PSoC5/SDSPI_SPIMaster.c **** * Function Name: SDSPI_SPIMaster_EnableTxInt
 212:.\Generated_Source\PSoC5/SDSPI_SPIMaster.c **** ********************************************************************************
 213:.\Generated_Source\PSoC5/SDSPI_SPIMaster.c **** *
 214:.\Generated_Source\PSoC5/SDSPI_SPIMaster.c **** * Summary:
 215:.\Generated_Source\PSoC5/SDSPI_SPIMaster.c **** *  Enable internal Tx interrupt generation.
 216:.\Generated_Source\PSoC5/SDSPI_SPIMaster.c **** *
 217:.\Generated_Source\PSoC5/SDSPI_SPIMaster.c **** * Parameters:
 218:.\Generated_Source\PSoC5/SDSPI_SPIMaster.c **** *  None.
 219:.\Generated_Source\PSoC5/SDSPI_SPIMaster.c **** *
 220:.\Generated_Source\PSoC5/SDSPI_SPIMaster.c **** * Return:
 221:.\Generated_Source\PSoC5/SDSPI_SPIMaster.c **** *  None.
 222:.\Generated_Source\PSoC5/SDSPI_SPIMaster.c **** *
 223:.\Generated_Source\PSoC5/SDSPI_SPIMaster.c **** * Theory:
 224:.\Generated_Source\PSoC5/SDSPI_SPIMaster.c **** *  Enable the internal Tx interrupt output -or- the interrupt component itself.
 225:.\Generated_Source\PSoC5/SDSPI_SPIMaster.c **** *
 226:.\Generated_Source\PSoC5/SDSPI_SPIMaster.c **** *******************************************************************************/
 227:.\Generated_Source\PSoC5/SDSPI_SPIMaster.c **** void SDSPI_SPIMaster_EnableTxInt(void) 
 228:.\Generated_Source\PSoC5/SDSPI_SPIMaster.c **** {
 258              		.loc 1 228 0
 259              		.cfi_startproc
 260              		@ args = 0, pretend = 0, frame = 0
 261              		@ frame_needed = 1, uses_anonymous_args = 0
 262              		@ link register save eliminated.
 263 0000 80B4     		push	{r7}
 264              		.cfi_def_cfa_offset 4
 265              		.cfi_offset 7, -4
 266 0002 00AF     		add	r7, sp, #0
 267              		.cfi_def_cfa_register 7
 229:.\Generated_Source\PSoC5/SDSPI_SPIMaster.c ****     #if(0u != SDSPI_SPIMaster_INTERNAL_TX_INT_ENABLED)
 230:.\Generated_Source\PSoC5/SDSPI_SPIMaster.c ****         CyIntEnable(SDSPI_SPIMaster_TX_ISR_NUMBER);
 231:.\Generated_Source\PSoC5/SDSPI_SPIMaster.c ****     #endif /* (0u != SDSPI_SPIMaster_INTERNAL_TX_INT_ENABLED) */
 232:.\Generated_Source\PSoC5/SDSPI_SPIMaster.c **** }
 268              		.loc 1 232 0
 269 0004 BD46     		mov	sp, r7
 270              		.cfi_def_cfa_register 13
 271              		@ sp needed
 272 0006 5DF8047B 		ldr	r7, [sp], #4
 273              		.cfi_restore 7
 274              		.cfi_def_cfa_offset 0
 275 000a 7047     		bx	lr
 276              		.cfi_endproc
 277              	.LFE4:
 278              		.size	SDSPI_SPIMaster_EnableTxInt, .-SDSPI_SPIMaster_EnableTxInt
 279              		.section	.text.SDSPI_SPIMaster_EnableRxInt,"ax",%progbits
 280              		.align	2
 281              		.global	SDSPI_SPIMaster_EnableRxInt
ARM GAS  C:\Users\honet\AppData\Local\Temp\ccmqrNIo.s 			page 10


 282              		.thumb
 283              		.thumb_func
 284              		.type	SDSPI_SPIMaster_EnableRxInt, %function
 285              	SDSPI_SPIMaster_EnableRxInt:
 286              	.LFB5:
 233:.\Generated_Source\PSoC5/SDSPI_SPIMaster.c **** 
 234:.\Generated_Source\PSoC5/SDSPI_SPIMaster.c **** 
 235:.\Generated_Source\PSoC5/SDSPI_SPIMaster.c **** /*******************************************************************************
 236:.\Generated_Source\PSoC5/SDSPI_SPIMaster.c **** * Function Name: SDSPI_SPIMaster_EnableRxInt
 237:.\Generated_Source\PSoC5/SDSPI_SPIMaster.c **** ********************************************************************************
 238:.\Generated_Source\PSoC5/SDSPI_SPIMaster.c **** *
 239:.\Generated_Source\PSoC5/SDSPI_SPIMaster.c **** * Summary:
 240:.\Generated_Source\PSoC5/SDSPI_SPIMaster.c **** *  Enable internal Rx interrupt generation.
 241:.\Generated_Source\PSoC5/SDSPI_SPIMaster.c **** *
 242:.\Generated_Source\PSoC5/SDSPI_SPIMaster.c **** * Parameters:
 243:.\Generated_Source\PSoC5/SDSPI_SPIMaster.c **** *  None.
 244:.\Generated_Source\PSoC5/SDSPI_SPIMaster.c **** *
 245:.\Generated_Source\PSoC5/SDSPI_SPIMaster.c **** * Return:
 246:.\Generated_Source\PSoC5/SDSPI_SPIMaster.c **** *  None.
 247:.\Generated_Source\PSoC5/SDSPI_SPIMaster.c **** *
 248:.\Generated_Source\PSoC5/SDSPI_SPIMaster.c **** * Theory:
 249:.\Generated_Source\PSoC5/SDSPI_SPIMaster.c **** *  Enable the internal Rx interrupt output -or- the interrupt component itself.
 250:.\Generated_Source\PSoC5/SDSPI_SPIMaster.c **** *
 251:.\Generated_Source\PSoC5/SDSPI_SPIMaster.c **** *******************************************************************************/
 252:.\Generated_Source\PSoC5/SDSPI_SPIMaster.c **** void SDSPI_SPIMaster_EnableRxInt(void) 
 253:.\Generated_Source\PSoC5/SDSPI_SPIMaster.c **** {
 287              		.loc 1 253 0
 288              		.cfi_startproc
 289              		@ args = 0, pretend = 0, frame = 0
 290              		@ frame_needed = 1, uses_anonymous_args = 0
 291              		@ link register save eliminated.
 292 0000 80B4     		push	{r7}
 293              		.cfi_def_cfa_offset 4
 294              		.cfi_offset 7, -4
 295 0002 00AF     		add	r7, sp, #0
 296              		.cfi_def_cfa_register 7
 254:.\Generated_Source\PSoC5/SDSPI_SPIMaster.c ****     #if(0u != SDSPI_SPIMaster_INTERNAL_RX_INT_ENABLED)
 255:.\Generated_Source\PSoC5/SDSPI_SPIMaster.c ****         CyIntEnable(SDSPI_SPIMaster_RX_ISR_NUMBER);
 256:.\Generated_Source\PSoC5/SDSPI_SPIMaster.c ****     #endif /* (0u != SDSPI_SPIMaster_INTERNAL_RX_INT_ENABLED) */
 257:.\Generated_Source\PSoC5/SDSPI_SPIMaster.c **** }
 297              		.loc 1 257 0
 298 0004 BD46     		mov	sp, r7
 299              		.cfi_def_cfa_register 13
 300              		@ sp needed
 301 0006 5DF8047B 		ldr	r7, [sp], #4
 302              		.cfi_restore 7
 303              		.cfi_def_cfa_offset 0
 304 000a 7047     		bx	lr
 305              		.cfi_endproc
 306              	.LFE5:
 307              		.size	SDSPI_SPIMaster_EnableRxInt, .-SDSPI_SPIMaster_EnableRxInt
 308              		.section	.text.SDSPI_SPIMaster_DisableTxInt,"ax",%progbits
 309              		.align	2
 310              		.global	SDSPI_SPIMaster_DisableTxInt
 311              		.thumb
 312              		.thumb_func
 313              		.type	SDSPI_SPIMaster_DisableTxInt, %function
ARM GAS  C:\Users\honet\AppData\Local\Temp\ccmqrNIo.s 			page 11


 314              	SDSPI_SPIMaster_DisableTxInt:
 315              	.LFB6:
 258:.\Generated_Source\PSoC5/SDSPI_SPIMaster.c **** 
 259:.\Generated_Source\PSoC5/SDSPI_SPIMaster.c **** 
 260:.\Generated_Source\PSoC5/SDSPI_SPIMaster.c **** /*******************************************************************************
 261:.\Generated_Source\PSoC5/SDSPI_SPIMaster.c **** * Function Name: SDSPI_SPIMaster_DisableTxInt
 262:.\Generated_Source\PSoC5/SDSPI_SPIMaster.c **** ********************************************************************************
 263:.\Generated_Source\PSoC5/SDSPI_SPIMaster.c **** *
 264:.\Generated_Source\PSoC5/SDSPI_SPIMaster.c **** * Summary:
 265:.\Generated_Source\PSoC5/SDSPI_SPIMaster.c **** *  Disable internal Tx interrupt generation.
 266:.\Generated_Source\PSoC5/SDSPI_SPIMaster.c **** *
 267:.\Generated_Source\PSoC5/SDSPI_SPIMaster.c **** * Parameters:
 268:.\Generated_Source\PSoC5/SDSPI_SPIMaster.c **** *  None.
 269:.\Generated_Source\PSoC5/SDSPI_SPIMaster.c **** *
 270:.\Generated_Source\PSoC5/SDSPI_SPIMaster.c **** * Return:
 271:.\Generated_Source\PSoC5/SDSPI_SPIMaster.c **** *  None.
 272:.\Generated_Source\PSoC5/SDSPI_SPIMaster.c **** *
 273:.\Generated_Source\PSoC5/SDSPI_SPIMaster.c **** * Theory:
 274:.\Generated_Source\PSoC5/SDSPI_SPIMaster.c **** *  Disable the internal Tx interrupt output -or- the interrupt component itself.
 275:.\Generated_Source\PSoC5/SDSPI_SPIMaster.c **** *
 276:.\Generated_Source\PSoC5/SDSPI_SPIMaster.c **** *******************************************************************************/
 277:.\Generated_Source\PSoC5/SDSPI_SPIMaster.c **** void SDSPI_SPIMaster_DisableTxInt(void) 
 278:.\Generated_Source\PSoC5/SDSPI_SPIMaster.c **** {
 316              		.loc 1 278 0
 317              		.cfi_startproc
 318              		@ args = 0, pretend = 0, frame = 0
 319              		@ frame_needed = 1, uses_anonymous_args = 0
 320              		@ link register save eliminated.
 321 0000 80B4     		push	{r7}
 322              		.cfi_def_cfa_offset 4
 323              		.cfi_offset 7, -4
 324 0002 00AF     		add	r7, sp, #0
 325              		.cfi_def_cfa_register 7
 279:.\Generated_Source\PSoC5/SDSPI_SPIMaster.c ****     #if(0u != SDSPI_SPIMaster_INTERNAL_TX_INT_ENABLED)
 280:.\Generated_Source\PSoC5/SDSPI_SPIMaster.c ****         CyIntDisable(SDSPI_SPIMaster_TX_ISR_NUMBER);
 281:.\Generated_Source\PSoC5/SDSPI_SPIMaster.c ****     #endif /* (0u != SDSPI_SPIMaster_INTERNAL_TX_INT_ENABLED) */
 282:.\Generated_Source\PSoC5/SDSPI_SPIMaster.c **** }
 326              		.loc 1 282 0
 327 0004 BD46     		mov	sp, r7
 328              		.cfi_def_cfa_register 13
 329              		@ sp needed
 330 0006 5DF8047B 		ldr	r7, [sp], #4
 331              		.cfi_restore 7
 332              		.cfi_def_cfa_offset 0
 333 000a 7047     		bx	lr
 334              		.cfi_endproc
 335              	.LFE6:
 336              		.size	SDSPI_SPIMaster_DisableTxInt, .-SDSPI_SPIMaster_DisableTxInt
 337              		.section	.text.SDSPI_SPIMaster_DisableRxInt,"ax",%progbits
 338              		.align	2
 339              		.global	SDSPI_SPIMaster_DisableRxInt
 340              		.thumb
 341              		.thumb_func
 342              		.type	SDSPI_SPIMaster_DisableRxInt, %function
 343              	SDSPI_SPIMaster_DisableRxInt:
 344              	.LFB7:
 283:.\Generated_Source\PSoC5/SDSPI_SPIMaster.c **** 
ARM GAS  C:\Users\honet\AppData\Local\Temp\ccmqrNIo.s 			page 12


 284:.\Generated_Source\PSoC5/SDSPI_SPIMaster.c **** 
 285:.\Generated_Source\PSoC5/SDSPI_SPIMaster.c **** /*******************************************************************************
 286:.\Generated_Source\PSoC5/SDSPI_SPIMaster.c **** * Function Name: SDSPI_SPIMaster_DisableRxInt
 287:.\Generated_Source\PSoC5/SDSPI_SPIMaster.c **** ********************************************************************************
 288:.\Generated_Source\PSoC5/SDSPI_SPIMaster.c **** *
 289:.\Generated_Source\PSoC5/SDSPI_SPIMaster.c **** * Summary:
 290:.\Generated_Source\PSoC5/SDSPI_SPIMaster.c **** *  Disable internal Rx interrupt generation.
 291:.\Generated_Source\PSoC5/SDSPI_SPIMaster.c **** *
 292:.\Generated_Source\PSoC5/SDSPI_SPIMaster.c **** * Parameters:
 293:.\Generated_Source\PSoC5/SDSPI_SPIMaster.c **** *  None.
 294:.\Generated_Source\PSoC5/SDSPI_SPIMaster.c **** *
 295:.\Generated_Source\PSoC5/SDSPI_SPIMaster.c **** * Return:
 296:.\Generated_Source\PSoC5/SDSPI_SPIMaster.c **** *  None.
 297:.\Generated_Source\PSoC5/SDSPI_SPIMaster.c **** *
 298:.\Generated_Source\PSoC5/SDSPI_SPIMaster.c **** * Theory:
 299:.\Generated_Source\PSoC5/SDSPI_SPIMaster.c **** *  Disable the internal Rx interrupt output -or- the interrupt component itself.
 300:.\Generated_Source\PSoC5/SDSPI_SPIMaster.c **** *
 301:.\Generated_Source\PSoC5/SDSPI_SPIMaster.c **** *******************************************************************************/
 302:.\Generated_Source\PSoC5/SDSPI_SPIMaster.c **** void SDSPI_SPIMaster_DisableRxInt(void) 
 303:.\Generated_Source\PSoC5/SDSPI_SPIMaster.c **** {
 345              		.loc 1 303 0
 346              		.cfi_startproc
 347              		@ args = 0, pretend = 0, frame = 0
 348              		@ frame_needed = 1, uses_anonymous_args = 0
 349              		@ link register save eliminated.
 350 0000 80B4     		push	{r7}
 351              		.cfi_def_cfa_offset 4
 352              		.cfi_offset 7, -4
 353 0002 00AF     		add	r7, sp, #0
 354              		.cfi_def_cfa_register 7
 304:.\Generated_Source\PSoC5/SDSPI_SPIMaster.c ****     #if(0u != SDSPI_SPIMaster_INTERNAL_RX_INT_ENABLED)
 305:.\Generated_Source\PSoC5/SDSPI_SPIMaster.c ****         CyIntDisable(SDSPI_SPIMaster_RX_ISR_NUMBER);
 306:.\Generated_Source\PSoC5/SDSPI_SPIMaster.c ****     #endif /* (0u != SDSPI_SPIMaster_INTERNAL_RX_INT_ENABLED) */
 307:.\Generated_Source\PSoC5/SDSPI_SPIMaster.c **** }
 355              		.loc 1 307 0
 356 0004 BD46     		mov	sp, r7
 357              		.cfi_def_cfa_register 13
 358              		@ sp needed
 359 0006 5DF8047B 		ldr	r7, [sp], #4
 360              		.cfi_restore 7
 361              		.cfi_def_cfa_offset 0
 362 000a 7047     		bx	lr
 363              		.cfi_endproc
 364              	.LFE7:
 365              		.size	SDSPI_SPIMaster_DisableRxInt, .-SDSPI_SPIMaster_DisableRxInt
 366              		.section	.text.SDSPI_SPIMaster_SetTxInterruptMode,"ax",%progbits
 367              		.align	2
 368              		.global	SDSPI_SPIMaster_SetTxInterruptMode
 369              		.thumb
 370              		.thumb_func
 371              		.type	SDSPI_SPIMaster_SetTxInterruptMode, %function
 372              	SDSPI_SPIMaster_SetTxInterruptMode:
 373              	.LFB8:
 308:.\Generated_Source\PSoC5/SDSPI_SPIMaster.c **** 
 309:.\Generated_Source\PSoC5/SDSPI_SPIMaster.c **** 
 310:.\Generated_Source\PSoC5/SDSPI_SPIMaster.c **** /*******************************************************************************
 311:.\Generated_Source\PSoC5/SDSPI_SPIMaster.c **** * Function Name: SDSPI_SPIMaster_SetTxInterruptMode
ARM GAS  C:\Users\honet\AppData\Local\Temp\ccmqrNIo.s 			page 13


 312:.\Generated_Source\PSoC5/SDSPI_SPIMaster.c **** ********************************************************************************
 313:.\Generated_Source\PSoC5/SDSPI_SPIMaster.c **** *
 314:.\Generated_Source\PSoC5/SDSPI_SPIMaster.c **** * Summary:
 315:.\Generated_Source\PSoC5/SDSPI_SPIMaster.c **** *  Configure which status bits trigger an interrupt event.
 316:.\Generated_Source\PSoC5/SDSPI_SPIMaster.c **** *
 317:.\Generated_Source\PSoC5/SDSPI_SPIMaster.c **** * Parameters:
 318:.\Generated_Source\PSoC5/SDSPI_SPIMaster.c **** *  intSrc: An or'd combination of the desired status bit masks (defined in the
 319:.\Generated_Source\PSoC5/SDSPI_SPIMaster.c **** *  header file).
 320:.\Generated_Source\PSoC5/SDSPI_SPIMaster.c **** *
 321:.\Generated_Source\PSoC5/SDSPI_SPIMaster.c **** * Return:
 322:.\Generated_Source\PSoC5/SDSPI_SPIMaster.c **** *  None.
 323:.\Generated_Source\PSoC5/SDSPI_SPIMaster.c **** *
 324:.\Generated_Source\PSoC5/SDSPI_SPIMaster.c **** * Theory:
 325:.\Generated_Source\PSoC5/SDSPI_SPIMaster.c **** *  Enables the output of specific status bits to the interrupt controller.
 326:.\Generated_Source\PSoC5/SDSPI_SPIMaster.c **** *
 327:.\Generated_Source\PSoC5/SDSPI_SPIMaster.c **** *******************************************************************************/
 328:.\Generated_Source\PSoC5/SDSPI_SPIMaster.c **** void SDSPI_SPIMaster_SetTxInterruptMode(uint8 intSrc) 
 329:.\Generated_Source\PSoC5/SDSPI_SPIMaster.c **** {
 374              		.loc 1 329 0
 375              		.cfi_startproc
 376              		@ args = 0, pretend = 0, frame = 8
 377              		@ frame_needed = 1, uses_anonymous_args = 0
 378              		@ link register save eliminated.
 379 0000 80B4     		push	{r7}
 380              		.cfi_def_cfa_offset 4
 381              		.cfi_offset 7, -4
 382 0002 83B0     		sub	sp, sp, #12
 383              		.cfi_def_cfa_offset 16
 384 0004 00AF     		add	r7, sp, #0
 385              		.cfi_def_cfa_register 7
 386 0006 0346     		mov	r3, r0
 387 0008 FB71     		strb	r3, [r7, #7]
 330:.\Generated_Source\PSoC5/SDSPI_SPIMaster.c ****     SDSPI_SPIMaster_TX_STATUS_MASK_REG = intSrc;
 388              		.loc 1 330 0
 389 000a 044A     		ldr	r2, .L19
 390 000c FB79     		ldrb	r3, [r7, #7]
 391 000e 1370     		strb	r3, [r2]
 331:.\Generated_Source\PSoC5/SDSPI_SPIMaster.c **** }
 392              		.loc 1 331 0
 393 0010 0C37     		adds	r7, r7, #12
 394              		.cfi_def_cfa_offset 4
 395 0012 BD46     		mov	sp, r7
 396              		.cfi_def_cfa_register 13
 397              		@ sp needed
 398 0014 5DF8047B 		ldr	r7, [sp], #4
 399              		.cfi_restore 7
 400              		.cfi_def_cfa_offset 0
 401 0018 7047     		bx	lr
 402              	.L20:
 403 001a 00BF     		.align	2
 404              	.L19:
 405 001c 8C640040 		.word	1073767564
 406              		.cfi_endproc
 407              	.LFE8:
 408              		.size	SDSPI_SPIMaster_SetTxInterruptMode, .-SDSPI_SPIMaster_SetTxInterruptMode
 409              		.section	.text.SDSPI_SPIMaster_SetRxInterruptMode,"ax",%progbits
 410              		.align	2
ARM GAS  C:\Users\honet\AppData\Local\Temp\ccmqrNIo.s 			page 14


 411              		.global	SDSPI_SPIMaster_SetRxInterruptMode
 412              		.thumb
 413              		.thumb_func
 414              		.type	SDSPI_SPIMaster_SetRxInterruptMode, %function
 415              	SDSPI_SPIMaster_SetRxInterruptMode:
 416              	.LFB9:
 332:.\Generated_Source\PSoC5/SDSPI_SPIMaster.c **** 
 333:.\Generated_Source\PSoC5/SDSPI_SPIMaster.c **** 
 334:.\Generated_Source\PSoC5/SDSPI_SPIMaster.c **** /*******************************************************************************
 335:.\Generated_Source\PSoC5/SDSPI_SPIMaster.c **** * Function Name: SDSPI_SPIMaster_SetRxInterruptMode
 336:.\Generated_Source\PSoC5/SDSPI_SPIMaster.c **** ********************************************************************************
 337:.\Generated_Source\PSoC5/SDSPI_SPIMaster.c **** *
 338:.\Generated_Source\PSoC5/SDSPI_SPIMaster.c **** * Summary:
 339:.\Generated_Source\PSoC5/SDSPI_SPIMaster.c **** *  Configure which status bits trigger an interrupt event.
 340:.\Generated_Source\PSoC5/SDSPI_SPIMaster.c **** *
 341:.\Generated_Source\PSoC5/SDSPI_SPIMaster.c **** * Parameters:
 342:.\Generated_Source\PSoC5/SDSPI_SPIMaster.c **** *  intSrc: An or'd combination of the desired status bit masks (defined in the
 343:.\Generated_Source\PSoC5/SDSPI_SPIMaster.c **** *  header file).
 344:.\Generated_Source\PSoC5/SDSPI_SPIMaster.c **** *
 345:.\Generated_Source\PSoC5/SDSPI_SPIMaster.c **** * Return:
 346:.\Generated_Source\PSoC5/SDSPI_SPIMaster.c **** *  None.
 347:.\Generated_Source\PSoC5/SDSPI_SPIMaster.c **** *
 348:.\Generated_Source\PSoC5/SDSPI_SPIMaster.c **** * Theory:
 349:.\Generated_Source\PSoC5/SDSPI_SPIMaster.c **** *  Enables the output of specific status bits to the interrupt controller.
 350:.\Generated_Source\PSoC5/SDSPI_SPIMaster.c **** *
 351:.\Generated_Source\PSoC5/SDSPI_SPIMaster.c **** *******************************************************************************/
 352:.\Generated_Source\PSoC5/SDSPI_SPIMaster.c **** void SDSPI_SPIMaster_SetRxInterruptMode(uint8 intSrc) 
 353:.\Generated_Source\PSoC5/SDSPI_SPIMaster.c **** {
 417              		.loc 1 353 0
 418              		.cfi_startproc
 419              		@ args = 0, pretend = 0, frame = 8
 420              		@ frame_needed = 1, uses_anonymous_args = 0
 421              		@ link register save eliminated.
 422 0000 80B4     		push	{r7}
 423              		.cfi_def_cfa_offset 4
 424              		.cfi_offset 7, -4
 425 0002 83B0     		sub	sp, sp, #12
 426              		.cfi_def_cfa_offset 16
 427 0004 00AF     		add	r7, sp, #0
 428              		.cfi_def_cfa_register 7
 429 0006 0346     		mov	r3, r0
 430 0008 FB71     		strb	r3, [r7, #7]
 354:.\Generated_Source\PSoC5/SDSPI_SPIMaster.c ****     SDSPI_SPIMaster_RX_STATUS_MASK_REG  = intSrc;
 431              		.loc 1 354 0
 432 000a 044A     		ldr	r2, .L22
 433 000c FB79     		ldrb	r3, [r7, #7]
 434 000e 1370     		strb	r3, [r2]
 355:.\Generated_Source\PSoC5/SDSPI_SPIMaster.c **** }
 435              		.loc 1 355 0
 436 0010 0C37     		adds	r7, r7, #12
 437              		.cfi_def_cfa_offset 4
 438 0012 BD46     		mov	sp, r7
 439              		.cfi_def_cfa_register 13
 440              		@ sp needed
 441 0014 5DF8047B 		ldr	r7, [sp], #4
 442              		.cfi_restore 7
 443              		.cfi_def_cfa_offset 0
ARM GAS  C:\Users\honet\AppData\Local\Temp\ccmqrNIo.s 			page 15


 444 0018 7047     		bx	lr
 445              	.L23:
 446 001a 00BF     		.align	2
 447              	.L22:
 448 001c 8D640040 		.word	1073767565
 449              		.cfi_endproc
 450              	.LFE9:
 451              		.size	SDSPI_SPIMaster_SetRxInterruptMode, .-SDSPI_SPIMaster_SetRxInterruptMode
 452              		.section	.text.SDSPI_SPIMaster_ReadTxStatus,"ax",%progbits
 453              		.align	2
 454              		.global	SDSPI_SPIMaster_ReadTxStatus
 455              		.thumb
 456              		.thumb_func
 457              		.type	SDSPI_SPIMaster_ReadTxStatus, %function
 458              	SDSPI_SPIMaster_ReadTxStatus:
 459              	.LFB10:
 356:.\Generated_Source\PSoC5/SDSPI_SPIMaster.c **** 
 357:.\Generated_Source\PSoC5/SDSPI_SPIMaster.c **** 
 358:.\Generated_Source\PSoC5/SDSPI_SPIMaster.c **** /*******************************************************************************
 359:.\Generated_Source\PSoC5/SDSPI_SPIMaster.c **** * Function Name: SDSPI_SPIMaster_ReadTxStatus
 360:.\Generated_Source\PSoC5/SDSPI_SPIMaster.c **** ********************************************************************************
 361:.\Generated_Source\PSoC5/SDSPI_SPIMaster.c **** *
 362:.\Generated_Source\PSoC5/SDSPI_SPIMaster.c **** * Summary:
 363:.\Generated_Source\PSoC5/SDSPI_SPIMaster.c **** *  Read the Tx status register for the component.
 364:.\Generated_Source\PSoC5/SDSPI_SPIMaster.c **** *
 365:.\Generated_Source\PSoC5/SDSPI_SPIMaster.c **** * Parameters:
 366:.\Generated_Source\PSoC5/SDSPI_SPIMaster.c **** *  None.
 367:.\Generated_Source\PSoC5/SDSPI_SPIMaster.c **** *
 368:.\Generated_Source\PSoC5/SDSPI_SPIMaster.c **** * Return:
 369:.\Generated_Source\PSoC5/SDSPI_SPIMaster.c **** *  Contents of the Tx status register.
 370:.\Generated_Source\PSoC5/SDSPI_SPIMaster.c **** *
 371:.\Generated_Source\PSoC5/SDSPI_SPIMaster.c **** * Global variables:
 372:.\Generated_Source\PSoC5/SDSPI_SPIMaster.c **** *  SDSPI_SPIMaster_swStatusTx - used to store in software status register,
 373:.\Generated_Source\PSoC5/SDSPI_SPIMaster.c **** *  modified every function call - resets to zero.
 374:.\Generated_Source\PSoC5/SDSPI_SPIMaster.c **** *
 375:.\Generated_Source\PSoC5/SDSPI_SPIMaster.c **** * Theory:
 376:.\Generated_Source\PSoC5/SDSPI_SPIMaster.c **** *  Allows the user and the API to read the Tx status register for error
 377:.\Generated_Source\PSoC5/SDSPI_SPIMaster.c **** *  detection and flow control.
 378:.\Generated_Source\PSoC5/SDSPI_SPIMaster.c **** *
 379:.\Generated_Source\PSoC5/SDSPI_SPIMaster.c **** * Side Effects:
 380:.\Generated_Source\PSoC5/SDSPI_SPIMaster.c **** *  Clear Tx status register of the component.
 381:.\Generated_Source\PSoC5/SDSPI_SPIMaster.c **** *
 382:.\Generated_Source\PSoC5/SDSPI_SPIMaster.c **** * Reentrant:
 383:.\Generated_Source\PSoC5/SDSPI_SPIMaster.c **** *  No.
 384:.\Generated_Source\PSoC5/SDSPI_SPIMaster.c **** *
 385:.\Generated_Source\PSoC5/SDSPI_SPIMaster.c **** *******************************************************************************/
 386:.\Generated_Source\PSoC5/SDSPI_SPIMaster.c **** uint8 SDSPI_SPIMaster_ReadTxStatus(void) 
 387:.\Generated_Source\PSoC5/SDSPI_SPIMaster.c **** {
 460              		.loc 1 387 0
 461              		.cfi_startproc
 462              		@ args = 0, pretend = 0, frame = 8
 463              		@ frame_needed = 1, uses_anonymous_args = 0
 464              		@ link register save eliminated.
 465 0000 80B4     		push	{r7}
 466              		.cfi_def_cfa_offset 4
 467              		.cfi_offset 7, -4
 468 0002 83B0     		sub	sp, sp, #12
ARM GAS  C:\Users\honet\AppData\Local\Temp\ccmqrNIo.s 			page 16


 469              		.cfi_def_cfa_offset 16
 470 0004 00AF     		add	r7, sp, #0
 471              		.cfi_def_cfa_register 7
 388:.\Generated_Source\PSoC5/SDSPI_SPIMaster.c ****     uint8 tmpStatus;
 389:.\Generated_Source\PSoC5/SDSPI_SPIMaster.c **** 
 390:.\Generated_Source\PSoC5/SDSPI_SPIMaster.c ****     #if(SDSPI_SPIMaster_TX_SOFTWARE_BUF_ENABLED)
 391:.\Generated_Source\PSoC5/SDSPI_SPIMaster.c ****         /* Disable TX interrupt to protect global veriables */
 392:.\Generated_Source\PSoC5/SDSPI_SPIMaster.c ****         SDSPI_SPIMaster_DisableTxInt();
 393:.\Generated_Source\PSoC5/SDSPI_SPIMaster.c **** 
 394:.\Generated_Source\PSoC5/SDSPI_SPIMaster.c ****         tmpStatus = SDSPI_SPIMaster_GET_STATUS_TX(SDSPI_SPIMaster_swStatusTx);
 395:.\Generated_Source\PSoC5/SDSPI_SPIMaster.c ****         SDSPI_SPIMaster_swStatusTx = 0u;
 396:.\Generated_Source\PSoC5/SDSPI_SPIMaster.c **** 
 397:.\Generated_Source\PSoC5/SDSPI_SPIMaster.c ****         SDSPI_SPIMaster_EnableTxInt();
 398:.\Generated_Source\PSoC5/SDSPI_SPIMaster.c **** 
 399:.\Generated_Source\PSoC5/SDSPI_SPIMaster.c ****     #else
 400:.\Generated_Source\PSoC5/SDSPI_SPIMaster.c **** 
 401:.\Generated_Source\PSoC5/SDSPI_SPIMaster.c ****         tmpStatus = SDSPI_SPIMaster_TX_STATUS_REG;
 472              		.loc 1 401 0
 473 0006 054B     		ldr	r3, .L26
 474 0008 1B78     		ldrb	r3, [r3]
 475 000a FB71     		strb	r3, [r7, #7]
 402:.\Generated_Source\PSoC5/SDSPI_SPIMaster.c **** 
 403:.\Generated_Source\PSoC5/SDSPI_SPIMaster.c ****     #endif /* (SDSPI_SPIMaster_TX_SOFTWARE_BUF_ENABLED) */
 404:.\Generated_Source\PSoC5/SDSPI_SPIMaster.c **** 
 405:.\Generated_Source\PSoC5/SDSPI_SPIMaster.c ****     return(tmpStatus);
 476              		.loc 1 405 0
 477 000c FB79     		ldrb	r3, [r7, #7]	@ zero_extendqisi2
 406:.\Generated_Source\PSoC5/SDSPI_SPIMaster.c **** }
 478              		.loc 1 406 0
 479 000e 1846     		mov	r0, r3
 480 0010 0C37     		adds	r7, r7, #12
 481              		.cfi_def_cfa_offset 4
 482 0012 BD46     		mov	sp, r7
 483              		.cfi_def_cfa_register 13
 484              		@ sp needed
 485 0014 5DF8047B 		ldr	r7, [sp], #4
 486              		.cfi_restore 7
 487              		.cfi_def_cfa_offset 0
 488 0018 7047     		bx	lr
 489              	.L27:
 490 001a 00BF     		.align	2
 491              	.L26:
 492 001c 6C640040 		.word	1073767532
 493              		.cfi_endproc
 494              	.LFE10:
 495              		.size	SDSPI_SPIMaster_ReadTxStatus, .-SDSPI_SPIMaster_ReadTxStatus
 496              		.section	.text.SDSPI_SPIMaster_ReadRxStatus,"ax",%progbits
 497              		.align	2
 498              		.global	SDSPI_SPIMaster_ReadRxStatus
 499              		.thumb
 500              		.thumb_func
 501              		.type	SDSPI_SPIMaster_ReadRxStatus, %function
 502              	SDSPI_SPIMaster_ReadRxStatus:
 503              	.LFB11:
 407:.\Generated_Source\PSoC5/SDSPI_SPIMaster.c **** 
 408:.\Generated_Source\PSoC5/SDSPI_SPIMaster.c **** 
 409:.\Generated_Source\PSoC5/SDSPI_SPIMaster.c **** /*******************************************************************************
ARM GAS  C:\Users\honet\AppData\Local\Temp\ccmqrNIo.s 			page 17


 410:.\Generated_Source\PSoC5/SDSPI_SPIMaster.c **** * Function Name: SDSPI_SPIMaster_ReadRxStatus
 411:.\Generated_Source\PSoC5/SDSPI_SPIMaster.c **** ********************************************************************************
 412:.\Generated_Source\PSoC5/SDSPI_SPIMaster.c **** *
 413:.\Generated_Source\PSoC5/SDSPI_SPIMaster.c **** * Summary:
 414:.\Generated_Source\PSoC5/SDSPI_SPIMaster.c **** *  Read the Rx status register for the component.
 415:.\Generated_Source\PSoC5/SDSPI_SPIMaster.c **** *
 416:.\Generated_Source\PSoC5/SDSPI_SPIMaster.c **** * Parameters:
 417:.\Generated_Source\PSoC5/SDSPI_SPIMaster.c **** *  None.
 418:.\Generated_Source\PSoC5/SDSPI_SPIMaster.c **** *
 419:.\Generated_Source\PSoC5/SDSPI_SPIMaster.c **** * Return:
 420:.\Generated_Source\PSoC5/SDSPI_SPIMaster.c **** *  Contents of the Rx status register.
 421:.\Generated_Source\PSoC5/SDSPI_SPIMaster.c **** *
 422:.\Generated_Source\PSoC5/SDSPI_SPIMaster.c **** * Global variables:
 423:.\Generated_Source\PSoC5/SDSPI_SPIMaster.c **** *  SDSPI_SPIMaster_swStatusRx - used to store in software Rx status register,
 424:.\Generated_Source\PSoC5/SDSPI_SPIMaster.c **** *  modified every function call - resets to zero.
 425:.\Generated_Source\PSoC5/SDSPI_SPIMaster.c **** *
 426:.\Generated_Source\PSoC5/SDSPI_SPIMaster.c **** * Theory:
 427:.\Generated_Source\PSoC5/SDSPI_SPIMaster.c **** *  Allows the user and the API to read the Rx status register for error
 428:.\Generated_Source\PSoC5/SDSPI_SPIMaster.c **** *  detection and flow control.
 429:.\Generated_Source\PSoC5/SDSPI_SPIMaster.c **** *
 430:.\Generated_Source\PSoC5/SDSPI_SPIMaster.c **** * Side Effects:
 431:.\Generated_Source\PSoC5/SDSPI_SPIMaster.c **** *  Clear Rx status register of the component.
 432:.\Generated_Source\PSoC5/SDSPI_SPIMaster.c **** *
 433:.\Generated_Source\PSoC5/SDSPI_SPIMaster.c **** * Reentrant:
 434:.\Generated_Source\PSoC5/SDSPI_SPIMaster.c **** *  No.
 435:.\Generated_Source\PSoC5/SDSPI_SPIMaster.c **** *
 436:.\Generated_Source\PSoC5/SDSPI_SPIMaster.c **** *******************************************************************************/
 437:.\Generated_Source\PSoC5/SDSPI_SPIMaster.c **** uint8 SDSPI_SPIMaster_ReadRxStatus(void) 
 438:.\Generated_Source\PSoC5/SDSPI_SPIMaster.c **** {
 504              		.loc 1 438 0
 505              		.cfi_startproc
 506              		@ args = 0, pretend = 0, frame = 8
 507              		@ frame_needed = 1, uses_anonymous_args = 0
 508              		@ link register save eliminated.
 509 0000 80B4     		push	{r7}
 510              		.cfi_def_cfa_offset 4
 511              		.cfi_offset 7, -4
 512 0002 83B0     		sub	sp, sp, #12
 513              		.cfi_def_cfa_offset 16
 514 0004 00AF     		add	r7, sp, #0
 515              		.cfi_def_cfa_register 7
 439:.\Generated_Source\PSoC5/SDSPI_SPIMaster.c ****     uint8 tmpStatus;
 440:.\Generated_Source\PSoC5/SDSPI_SPIMaster.c **** 
 441:.\Generated_Source\PSoC5/SDSPI_SPIMaster.c ****     #if(SDSPI_SPIMaster_RX_SOFTWARE_BUF_ENABLED)
 442:.\Generated_Source\PSoC5/SDSPI_SPIMaster.c ****         /* Disable RX interrupt to protect global veriables */
 443:.\Generated_Source\PSoC5/SDSPI_SPIMaster.c ****         SDSPI_SPIMaster_DisableRxInt();
 444:.\Generated_Source\PSoC5/SDSPI_SPIMaster.c **** 
 445:.\Generated_Source\PSoC5/SDSPI_SPIMaster.c ****         tmpStatus = SDSPI_SPIMaster_GET_STATUS_RX(SDSPI_SPIMaster_swStatusRx);
 446:.\Generated_Source\PSoC5/SDSPI_SPIMaster.c ****         SDSPI_SPIMaster_swStatusRx = 0u;
 447:.\Generated_Source\PSoC5/SDSPI_SPIMaster.c **** 
 448:.\Generated_Source\PSoC5/SDSPI_SPIMaster.c ****         SDSPI_SPIMaster_EnableRxInt();
 449:.\Generated_Source\PSoC5/SDSPI_SPIMaster.c **** 
 450:.\Generated_Source\PSoC5/SDSPI_SPIMaster.c ****     #else
 451:.\Generated_Source\PSoC5/SDSPI_SPIMaster.c **** 
 452:.\Generated_Source\PSoC5/SDSPI_SPIMaster.c ****         tmpStatus = SDSPI_SPIMaster_RX_STATUS_REG;
 516              		.loc 1 452 0
 517 0006 054B     		ldr	r3, .L30
ARM GAS  C:\Users\honet\AppData\Local\Temp\ccmqrNIo.s 			page 18


 518 0008 1B78     		ldrb	r3, [r3]
 519 000a FB71     		strb	r3, [r7, #7]
 453:.\Generated_Source\PSoC5/SDSPI_SPIMaster.c **** 
 454:.\Generated_Source\PSoC5/SDSPI_SPIMaster.c ****     #endif /* (SDSPI_SPIMaster_RX_SOFTWARE_BUF_ENABLED) */
 455:.\Generated_Source\PSoC5/SDSPI_SPIMaster.c **** 
 456:.\Generated_Source\PSoC5/SDSPI_SPIMaster.c ****     return(tmpStatus);
 520              		.loc 1 456 0
 521 000c FB79     		ldrb	r3, [r7, #7]	@ zero_extendqisi2
 457:.\Generated_Source\PSoC5/SDSPI_SPIMaster.c **** }
 522              		.loc 1 457 0
 523 000e 1846     		mov	r0, r3
 524 0010 0C37     		adds	r7, r7, #12
 525              		.cfi_def_cfa_offset 4
 526 0012 BD46     		mov	sp, r7
 527              		.cfi_def_cfa_register 13
 528              		@ sp needed
 529 0014 5DF8047B 		ldr	r7, [sp], #4
 530              		.cfi_restore 7
 531              		.cfi_def_cfa_offset 0
 532 0018 7047     		bx	lr
 533              	.L31:
 534 001a 00BF     		.align	2
 535              	.L30:
 536 001c 6D640040 		.word	1073767533
 537              		.cfi_endproc
 538              	.LFE11:
 539              		.size	SDSPI_SPIMaster_ReadRxStatus, .-SDSPI_SPIMaster_ReadRxStatus
 540              		.section	.text.SDSPI_SPIMaster_WriteTxData,"ax",%progbits
 541              		.align	2
 542              		.global	SDSPI_SPIMaster_WriteTxData
 543              		.thumb
 544              		.thumb_func
 545              		.type	SDSPI_SPIMaster_WriteTxData, %function
 546              	SDSPI_SPIMaster_WriteTxData:
 547              	.LFB12:
 458:.\Generated_Source\PSoC5/SDSPI_SPIMaster.c **** 
 459:.\Generated_Source\PSoC5/SDSPI_SPIMaster.c **** 
 460:.\Generated_Source\PSoC5/SDSPI_SPIMaster.c **** /*******************************************************************************
 461:.\Generated_Source\PSoC5/SDSPI_SPIMaster.c **** * Function Name: SDSPI_SPIMaster_WriteTxData
 462:.\Generated_Source\PSoC5/SDSPI_SPIMaster.c **** ********************************************************************************
 463:.\Generated_Source\PSoC5/SDSPI_SPIMaster.c **** *
 464:.\Generated_Source\PSoC5/SDSPI_SPIMaster.c **** * Summary:
 465:.\Generated_Source\PSoC5/SDSPI_SPIMaster.c **** *  Write a byte of data to be sent across the SPI.
 466:.\Generated_Source\PSoC5/SDSPI_SPIMaster.c **** *
 467:.\Generated_Source\PSoC5/SDSPI_SPIMaster.c **** * Parameters:
 468:.\Generated_Source\PSoC5/SDSPI_SPIMaster.c **** *  txDataByte: The data value to send across the SPI.
 469:.\Generated_Source\PSoC5/SDSPI_SPIMaster.c **** *
 470:.\Generated_Source\PSoC5/SDSPI_SPIMaster.c **** * Return:
 471:.\Generated_Source\PSoC5/SDSPI_SPIMaster.c **** *  None.
 472:.\Generated_Source\PSoC5/SDSPI_SPIMaster.c **** *
 473:.\Generated_Source\PSoC5/SDSPI_SPIMaster.c **** * Global variables:
 474:.\Generated_Source\PSoC5/SDSPI_SPIMaster.c **** *  SDSPI_SPIMaster_txBufferWrite - used for the account of the bytes which
 475:.\Generated_Source\PSoC5/SDSPI_SPIMaster.c **** *  have been written down in the TX software buffer, modified every function
 476:.\Generated_Source\PSoC5/SDSPI_SPIMaster.c **** *  call if TX Software Buffer is used.
 477:.\Generated_Source\PSoC5/SDSPI_SPIMaster.c **** *  SDSPI_SPIMaster_txBufferRead - used for the account of the bytes which
 478:.\Generated_Source\PSoC5/SDSPI_SPIMaster.c **** *  have been read from the TX software buffer.
 479:.\Generated_Source\PSoC5/SDSPI_SPIMaster.c **** *  SDSPI_SPIMaster_txBuffer[SDSPI_SPIMaster_TX_BUFFER_SIZE] - used to store
ARM GAS  C:\Users\honet\AppData\Local\Temp\ccmqrNIo.s 			page 19


 480:.\Generated_Source\PSoC5/SDSPI_SPIMaster.c **** *  data to sending, modified every function call if TX Software Buffer is used.
 481:.\Generated_Source\PSoC5/SDSPI_SPIMaster.c **** *
 482:.\Generated_Source\PSoC5/SDSPI_SPIMaster.c **** * Theory:
 483:.\Generated_Source\PSoC5/SDSPI_SPIMaster.c **** *  Allows the user to transmit any byte of data in a single transfer.
 484:.\Generated_Source\PSoC5/SDSPI_SPIMaster.c **** *
 485:.\Generated_Source\PSoC5/SDSPI_SPIMaster.c **** * Side Effects:
 486:.\Generated_Source\PSoC5/SDSPI_SPIMaster.c **** *  If this function is called again before the previous byte is finished then
 487:.\Generated_Source\PSoC5/SDSPI_SPIMaster.c **** *  the next byte will be appended to the transfer with no time between
 488:.\Generated_Source\PSoC5/SDSPI_SPIMaster.c **** *  the byte transfers. Clear Tx status register of the component.
 489:.\Generated_Source\PSoC5/SDSPI_SPIMaster.c **** *
 490:.\Generated_Source\PSoC5/SDSPI_SPIMaster.c **** * Reentrant:
 491:.\Generated_Source\PSoC5/SDSPI_SPIMaster.c **** *  No.
 492:.\Generated_Source\PSoC5/SDSPI_SPIMaster.c **** *
 493:.\Generated_Source\PSoC5/SDSPI_SPIMaster.c **** *******************************************************************************/
 494:.\Generated_Source\PSoC5/SDSPI_SPIMaster.c **** void SDSPI_SPIMaster_WriteTxData(uint8 txData) 
 495:.\Generated_Source\PSoC5/SDSPI_SPIMaster.c **** {
 548              		.loc 1 495 0
 549              		.cfi_startproc
 550              		@ args = 0, pretend = 0, frame = 8
 551              		@ frame_needed = 1, uses_anonymous_args = 0
 552              		@ link register save eliminated.
 553 0000 80B4     		push	{r7}
 554              		.cfi_def_cfa_offset 4
 555              		.cfi_offset 7, -4
 556 0002 83B0     		sub	sp, sp, #12
 557              		.cfi_def_cfa_offset 16
 558 0004 00AF     		add	r7, sp, #0
 559              		.cfi_def_cfa_register 7
 560 0006 0346     		mov	r3, r0
 561 0008 FB71     		strb	r3, [r7, #7]
 496:.\Generated_Source\PSoC5/SDSPI_SPIMaster.c ****     #if(SDSPI_SPIMaster_TX_SOFTWARE_BUF_ENABLED)
 497:.\Generated_Source\PSoC5/SDSPI_SPIMaster.c **** 
 498:.\Generated_Source\PSoC5/SDSPI_SPIMaster.c ****         uint8 tempStatus;
 499:.\Generated_Source\PSoC5/SDSPI_SPIMaster.c ****         uint8 tmpTxBufferRead;
 500:.\Generated_Source\PSoC5/SDSPI_SPIMaster.c **** 
 501:.\Generated_Source\PSoC5/SDSPI_SPIMaster.c ****         /* Block if TX buffer is FULL: don't overwrite */
 502:.\Generated_Source\PSoC5/SDSPI_SPIMaster.c ****         do
 503:.\Generated_Source\PSoC5/SDSPI_SPIMaster.c ****         {
 504:.\Generated_Source\PSoC5/SDSPI_SPIMaster.c ****             tmpTxBufferRead = SDSPI_SPIMaster_txBufferRead;
 505:.\Generated_Source\PSoC5/SDSPI_SPIMaster.c ****             if(0u == tmpTxBufferRead)
 506:.\Generated_Source\PSoC5/SDSPI_SPIMaster.c ****             {
 507:.\Generated_Source\PSoC5/SDSPI_SPIMaster.c ****                 tmpTxBufferRead = (SDSPI_SPIMaster_TX_BUFFER_SIZE - 1u);
 508:.\Generated_Source\PSoC5/SDSPI_SPIMaster.c ****             }
 509:.\Generated_Source\PSoC5/SDSPI_SPIMaster.c ****             else
 510:.\Generated_Source\PSoC5/SDSPI_SPIMaster.c ****             {
 511:.\Generated_Source\PSoC5/SDSPI_SPIMaster.c ****                 tmpTxBufferRead--;
 512:.\Generated_Source\PSoC5/SDSPI_SPIMaster.c ****             }
 513:.\Generated_Source\PSoC5/SDSPI_SPIMaster.c **** 
 514:.\Generated_Source\PSoC5/SDSPI_SPIMaster.c ****         }while(tmpTxBufferRead == SDSPI_SPIMaster_txBufferWrite);
 515:.\Generated_Source\PSoC5/SDSPI_SPIMaster.c **** 
 516:.\Generated_Source\PSoC5/SDSPI_SPIMaster.c ****         /* Disable TX interrupt to protect global veriables */
 517:.\Generated_Source\PSoC5/SDSPI_SPIMaster.c ****         SDSPI_SPIMaster_DisableTxInt();
 518:.\Generated_Source\PSoC5/SDSPI_SPIMaster.c **** 
 519:.\Generated_Source\PSoC5/SDSPI_SPIMaster.c ****         tempStatus = SDSPI_SPIMaster_GET_STATUS_TX(SDSPI_SPIMaster_swStatusTx);
 520:.\Generated_Source\PSoC5/SDSPI_SPIMaster.c ****         SDSPI_SPIMaster_swStatusTx = tempStatus;
 521:.\Generated_Source\PSoC5/SDSPI_SPIMaster.c **** 
 522:.\Generated_Source\PSoC5/SDSPI_SPIMaster.c **** 
ARM GAS  C:\Users\honet\AppData\Local\Temp\ccmqrNIo.s 			page 20


 523:.\Generated_Source\PSoC5/SDSPI_SPIMaster.c ****         if((SDSPI_SPIMaster_txBufferRead == SDSPI_SPIMaster_txBufferWrite) &&
 524:.\Generated_Source\PSoC5/SDSPI_SPIMaster.c ****            (0u != (SDSPI_SPIMaster_swStatusTx & SDSPI_SPIMaster_STS_TX_FIFO_NOT_FULL)))
 525:.\Generated_Source\PSoC5/SDSPI_SPIMaster.c ****         {
 526:.\Generated_Source\PSoC5/SDSPI_SPIMaster.c ****             /* Put data element into the TX FIFO */
 527:.\Generated_Source\PSoC5/SDSPI_SPIMaster.c ****             CY_SET_REG8(SDSPI_SPIMaster_TXDATA_PTR, txData);
 528:.\Generated_Source\PSoC5/SDSPI_SPIMaster.c ****         }
 529:.\Generated_Source\PSoC5/SDSPI_SPIMaster.c ****         else
 530:.\Generated_Source\PSoC5/SDSPI_SPIMaster.c ****         {
 531:.\Generated_Source\PSoC5/SDSPI_SPIMaster.c ****             /* Add to the TX software buffer */
 532:.\Generated_Source\PSoC5/SDSPI_SPIMaster.c ****             SDSPI_SPIMaster_txBufferWrite++;
 533:.\Generated_Source\PSoC5/SDSPI_SPIMaster.c ****             if(SDSPI_SPIMaster_txBufferWrite >= SDSPI_SPIMaster_TX_BUFFER_SIZE)
 534:.\Generated_Source\PSoC5/SDSPI_SPIMaster.c ****             {
 535:.\Generated_Source\PSoC5/SDSPI_SPIMaster.c ****                 SDSPI_SPIMaster_txBufferWrite = 0u;
 536:.\Generated_Source\PSoC5/SDSPI_SPIMaster.c ****             }
 537:.\Generated_Source\PSoC5/SDSPI_SPIMaster.c **** 
 538:.\Generated_Source\PSoC5/SDSPI_SPIMaster.c ****             if(SDSPI_SPIMaster_txBufferWrite == SDSPI_SPIMaster_txBufferRead)
 539:.\Generated_Source\PSoC5/SDSPI_SPIMaster.c ****             {
 540:.\Generated_Source\PSoC5/SDSPI_SPIMaster.c ****                 SDSPI_SPIMaster_txBufferRead++;
 541:.\Generated_Source\PSoC5/SDSPI_SPIMaster.c ****                 if(SDSPI_SPIMaster_txBufferRead >= SDSPI_SPIMaster_TX_BUFFER_SIZE)
 542:.\Generated_Source\PSoC5/SDSPI_SPIMaster.c ****                 {
 543:.\Generated_Source\PSoC5/SDSPI_SPIMaster.c ****                     SDSPI_SPIMaster_txBufferRead = 0u;
 544:.\Generated_Source\PSoC5/SDSPI_SPIMaster.c ****                 }
 545:.\Generated_Source\PSoC5/SDSPI_SPIMaster.c ****                 SDSPI_SPIMaster_txBufferFull = 1u;
 546:.\Generated_Source\PSoC5/SDSPI_SPIMaster.c ****             }
 547:.\Generated_Source\PSoC5/SDSPI_SPIMaster.c **** 
 548:.\Generated_Source\PSoC5/SDSPI_SPIMaster.c ****             SDSPI_SPIMaster_txBuffer[SDSPI_SPIMaster_txBufferWrite] = txData;
 549:.\Generated_Source\PSoC5/SDSPI_SPIMaster.c **** 
 550:.\Generated_Source\PSoC5/SDSPI_SPIMaster.c ****             SDSPI_SPIMaster_TX_STATUS_MASK_REG |= SDSPI_SPIMaster_STS_TX_FIFO_NOT_FULL;
 551:.\Generated_Source\PSoC5/SDSPI_SPIMaster.c ****         }
 552:.\Generated_Source\PSoC5/SDSPI_SPIMaster.c **** 
 553:.\Generated_Source\PSoC5/SDSPI_SPIMaster.c ****         SDSPI_SPIMaster_EnableTxInt();
 554:.\Generated_Source\PSoC5/SDSPI_SPIMaster.c **** 
 555:.\Generated_Source\PSoC5/SDSPI_SPIMaster.c ****     #else
 556:.\Generated_Source\PSoC5/SDSPI_SPIMaster.c ****         /* Wait until TX FIFO has a place */
 557:.\Generated_Source\PSoC5/SDSPI_SPIMaster.c ****         while(0u == (SDSPI_SPIMaster_TX_STATUS_REG & SDSPI_SPIMaster_STS_TX_FIFO_NOT_FULL))
 562              		.loc 1 557 0
 563 000a 00BF     		nop
 564              	.L33:
 565              		.loc 1 557 0 is_stmt 0 discriminator 1
 566 000c 074B     		ldr	r3, .L34
 567 000e 1B78     		ldrb	r3, [r3]
 568 0010 DBB2     		uxtb	r3, r3
 569 0012 03F00403 		and	r3, r3, #4
 570 0016 002B     		cmp	r3, #0
 571 0018 F8D0     		beq	.L33
 558:.\Generated_Source\PSoC5/SDSPI_SPIMaster.c ****         {
 559:.\Generated_Source\PSoC5/SDSPI_SPIMaster.c ****         }
 560:.\Generated_Source\PSoC5/SDSPI_SPIMaster.c **** 
 561:.\Generated_Source\PSoC5/SDSPI_SPIMaster.c ****         /* Put data element into the TX FIFO */
 562:.\Generated_Source\PSoC5/SDSPI_SPIMaster.c ****         CY_SET_REG8(SDSPI_SPIMaster_TXDATA_PTR, txData);
 572              		.loc 1 562 0 is_stmt 1
 573 001a 054A     		ldr	r2, .L34+4
 574 001c FB79     		ldrb	r3, [r7, #7]
 575 001e 1370     		strb	r3, [r2]
 563:.\Generated_Source\PSoC5/SDSPI_SPIMaster.c **** 
 564:.\Generated_Source\PSoC5/SDSPI_SPIMaster.c ****     #endif /* (SDSPI_SPIMaster_TX_SOFTWARE_BUF_ENABLED) */
 565:.\Generated_Source\PSoC5/SDSPI_SPIMaster.c **** }
ARM GAS  C:\Users\honet\AppData\Local\Temp\ccmqrNIo.s 			page 21


 576              		.loc 1 565 0
 577 0020 0C37     		adds	r7, r7, #12
 578              		.cfi_def_cfa_offset 4
 579 0022 BD46     		mov	sp, r7
 580              		.cfi_def_cfa_register 13
 581              		@ sp needed
 582 0024 5DF8047B 		ldr	r7, [sp], #4
 583              		.cfi_restore 7
 584              		.cfi_def_cfa_offset 0
 585 0028 7047     		bx	lr
 586              	.L35:
 587 002a 00BF     		.align	2
 588              	.L34:
 589 002c 6C640040 		.word	1073767532
 590 0030 4E640040 		.word	1073767502
 591              		.cfi_endproc
 592              	.LFE12:
 593              		.size	SDSPI_SPIMaster_WriteTxData, .-SDSPI_SPIMaster_WriteTxData
 594              		.section	.text.SDSPI_SPIMaster_ReadRxData,"ax",%progbits
 595              		.align	2
 596              		.global	SDSPI_SPIMaster_ReadRxData
 597              		.thumb
 598              		.thumb_func
 599              		.type	SDSPI_SPIMaster_ReadRxData, %function
 600              	SDSPI_SPIMaster_ReadRxData:
 601              	.LFB13:
 566:.\Generated_Source\PSoC5/SDSPI_SPIMaster.c **** 
 567:.\Generated_Source\PSoC5/SDSPI_SPIMaster.c **** 
 568:.\Generated_Source\PSoC5/SDSPI_SPIMaster.c **** /*******************************************************************************
 569:.\Generated_Source\PSoC5/SDSPI_SPIMaster.c **** * Function Name: SDSPI_SPIMaster_ReadRxData
 570:.\Generated_Source\PSoC5/SDSPI_SPIMaster.c **** ********************************************************************************
 571:.\Generated_Source\PSoC5/SDSPI_SPIMaster.c **** *
 572:.\Generated_Source\PSoC5/SDSPI_SPIMaster.c **** * Summary:
 573:.\Generated_Source\PSoC5/SDSPI_SPIMaster.c **** *  Read the next byte of data received across the SPI.
 574:.\Generated_Source\PSoC5/SDSPI_SPIMaster.c **** *
 575:.\Generated_Source\PSoC5/SDSPI_SPIMaster.c **** * Parameters:
 576:.\Generated_Source\PSoC5/SDSPI_SPIMaster.c **** *  None.
 577:.\Generated_Source\PSoC5/SDSPI_SPIMaster.c **** *
 578:.\Generated_Source\PSoC5/SDSPI_SPIMaster.c **** * Return:
 579:.\Generated_Source\PSoC5/SDSPI_SPIMaster.c **** *  The next byte of data read from the FIFO.
 580:.\Generated_Source\PSoC5/SDSPI_SPIMaster.c **** *
 581:.\Generated_Source\PSoC5/SDSPI_SPIMaster.c **** * Global variables:
 582:.\Generated_Source\PSoC5/SDSPI_SPIMaster.c **** *  SDSPI_SPIMaster_rxBufferWrite - used for the account of the bytes which
 583:.\Generated_Source\PSoC5/SDSPI_SPIMaster.c **** *  have been written down in the RX software buffer.
 584:.\Generated_Source\PSoC5/SDSPI_SPIMaster.c **** *  SDSPI_SPIMaster_rxBufferRead - used for the account of the bytes which
 585:.\Generated_Source\PSoC5/SDSPI_SPIMaster.c **** *  have been read from the RX software buffer, modified every function
 586:.\Generated_Source\PSoC5/SDSPI_SPIMaster.c **** *  call if RX Software Buffer is used.
 587:.\Generated_Source\PSoC5/SDSPI_SPIMaster.c **** *  SDSPI_SPIMaster_rxBuffer[SDSPI_SPIMaster_RX_BUFFER_SIZE] - used to store
 588:.\Generated_Source\PSoC5/SDSPI_SPIMaster.c **** *  received data.
 589:.\Generated_Source\PSoC5/SDSPI_SPIMaster.c **** *
 590:.\Generated_Source\PSoC5/SDSPI_SPIMaster.c **** * Theory:
 591:.\Generated_Source\PSoC5/SDSPI_SPIMaster.c **** *  Allows the user to read a byte of data received.
 592:.\Generated_Source\PSoC5/SDSPI_SPIMaster.c **** *
 593:.\Generated_Source\PSoC5/SDSPI_SPIMaster.c **** * Side Effects:
 594:.\Generated_Source\PSoC5/SDSPI_SPIMaster.c **** *  Will return invalid data if the FIFO is empty. The user should Call
 595:.\Generated_Source\PSoC5/SDSPI_SPIMaster.c **** *  GetRxBufferSize() and if it returns a non-zero value then it is safe to call
 596:.\Generated_Source\PSoC5/SDSPI_SPIMaster.c **** *  ReadByte() function.
ARM GAS  C:\Users\honet\AppData\Local\Temp\ccmqrNIo.s 			page 22


 597:.\Generated_Source\PSoC5/SDSPI_SPIMaster.c **** *
 598:.\Generated_Source\PSoC5/SDSPI_SPIMaster.c **** * Reentrant:
 599:.\Generated_Source\PSoC5/SDSPI_SPIMaster.c **** *  No.
 600:.\Generated_Source\PSoC5/SDSPI_SPIMaster.c **** *
 601:.\Generated_Source\PSoC5/SDSPI_SPIMaster.c **** *******************************************************************************/
 602:.\Generated_Source\PSoC5/SDSPI_SPIMaster.c **** uint8 SDSPI_SPIMaster_ReadRxData(void) 
 603:.\Generated_Source\PSoC5/SDSPI_SPIMaster.c **** {
 602              		.loc 1 603 0
 603              		.cfi_startproc
 604              		@ args = 0, pretend = 0, frame = 8
 605              		@ frame_needed = 1, uses_anonymous_args = 0
 606              		@ link register save eliminated.
 607 0000 80B4     		push	{r7}
 608              		.cfi_def_cfa_offset 4
 609              		.cfi_offset 7, -4
 610 0002 83B0     		sub	sp, sp, #12
 611              		.cfi_def_cfa_offset 16
 612 0004 00AF     		add	r7, sp, #0
 613              		.cfi_def_cfa_register 7
 604:.\Generated_Source\PSoC5/SDSPI_SPIMaster.c ****     uint8 rxData;
 605:.\Generated_Source\PSoC5/SDSPI_SPIMaster.c **** 
 606:.\Generated_Source\PSoC5/SDSPI_SPIMaster.c ****     #if(SDSPI_SPIMaster_RX_SOFTWARE_BUF_ENABLED)
 607:.\Generated_Source\PSoC5/SDSPI_SPIMaster.c **** 
 608:.\Generated_Source\PSoC5/SDSPI_SPIMaster.c ****         /* Disable RX interrupt to protect global veriables */
 609:.\Generated_Source\PSoC5/SDSPI_SPIMaster.c ****         SDSPI_SPIMaster_DisableRxInt();
 610:.\Generated_Source\PSoC5/SDSPI_SPIMaster.c **** 
 611:.\Generated_Source\PSoC5/SDSPI_SPIMaster.c ****         if(SDSPI_SPIMaster_rxBufferRead != SDSPI_SPIMaster_rxBufferWrite)
 612:.\Generated_Source\PSoC5/SDSPI_SPIMaster.c ****         {
 613:.\Generated_Source\PSoC5/SDSPI_SPIMaster.c ****             if(0u == SDSPI_SPIMaster_rxBufferFull)
 614:.\Generated_Source\PSoC5/SDSPI_SPIMaster.c ****             {
 615:.\Generated_Source\PSoC5/SDSPI_SPIMaster.c ****                 SDSPI_SPIMaster_rxBufferRead++;
 616:.\Generated_Source\PSoC5/SDSPI_SPIMaster.c ****                 if(SDSPI_SPIMaster_rxBufferRead >= SDSPI_SPIMaster_RX_BUFFER_SIZE)
 617:.\Generated_Source\PSoC5/SDSPI_SPIMaster.c ****                 {
 618:.\Generated_Source\PSoC5/SDSPI_SPIMaster.c ****                     SDSPI_SPIMaster_rxBufferRead = 0u;
 619:.\Generated_Source\PSoC5/SDSPI_SPIMaster.c ****                 }
 620:.\Generated_Source\PSoC5/SDSPI_SPIMaster.c ****             }
 621:.\Generated_Source\PSoC5/SDSPI_SPIMaster.c ****             else
 622:.\Generated_Source\PSoC5/SDSPI_SPIMaster.c ****             {
 623:.\Generated_Source\PSoC5/SDSPI_SPIMaster.c ****                 SDSPI_SPIMaster_rxBufferFull = 0u;
 624:.\Generated_Source\PSoC5/SDSPI_SPIMaster.c ****             }
 625:.\Generated_Source\PSoC5/SDSPI_SPIMaster.c ****         }
 626:.\Generated_Source\PSoC5/SDSPI_SPIMaster.c **** 
 627:.\Generated_Source\PSoC5/SDSPI_SPIMaster.c ****         rxData = SDSPI_SPIMaster_rxBuffer[SDSPI_SPIMaster_rxBufferRead];
 628:.\Generated_Source\PSoC5/SDSPI_SPIMaster.c **** 
 629:.\Generated_Source\PSoC5/SDSPI_SPIMaster.c ****         SDSPI_SPIMaster_EnableRxInt();
 630:.\Generated_Source\PSoC5/SDSPI_SPIMaster.c **** 
 631:.\Generated_Source\PSoC5/SDSPI_SPIMaster.c ****     #else
 632:.\Generated_Source\PSoC5/SDSPI_SPIMaster.c **** 
 633:.\Generated_Source\PSoC5/SDSPI_SPIMaster.c ****         rxData = CY_GET_REG8(SDSPI_SPIMaster_RXDATA_PTR);
 614              		.loc 1 633 0
 615 0006 054B     		ldr	r3, .L38
 616 0008 1B78     		ldrb	r3, [r3]
 617 000a FB71     		strb	r3, [r7, #7]
 634:.\Generated_Source\PSoC5/SDSPI_SPIMaster.c **** 
 635:.\Generated_Source\PSoC5/SDSPI_SPIMaster.c ****     #endif /* (SDSPI_SPIMaster_RX_SOFTWARE_BUF_ENABLED) */
 636:.\Generated_Source\PSoC5/SDSPI_SPIMaster.c **** 
 637:.\Generated_Source\PSoC5/SDSPI_SPIMaster.c ****     return(rxData);
ARM GAS  C:\Users\honet\AppData\Local\Temp\ccmqrNIo.s 			page 23


 618              		.loc 1 637 0
 619 000c FB79     		ldrb	r3, [r7, #7]	@ zero_extendqisi2
 638:.\Generated_Source\PSoC5/SDSPI_SPIMaster.c **** }
 620              		.loc 1 638 0
 621 000e 1846     		mov	r0, r3
 622 0010 0C37     		adds	r7, r7, #12
 623              		.cfi_def_cfa_offset 4
 624 0012 BD46     		mov	sp, r7
 625              		.cfi_def_cfa_register 13
 626              		@ sp needed
 627 0014 5DF8047B 		ldr	r7, [sp], #4
 628              		.cfi_restore 7
 629              		.cfi_def_cfa_offset 0
 630 0018 7047     		bx	lr
 631              	.L39:
 632 001a 00BF     		.align	2
 633              	.L38:
 634 001c 5E640040 		.word	1073767518
 635              		.cfi_endproc
 636              	.LFE13:
 637              		.size	SDSPI_SPIMaster_ReadRxData, .-SDSPI_SPIMaster_ReadRxData
 638              		.section	.text.SDSPI_SPIMaster_GetRxBufferSize,"ax",%progbits
 639              		.align	2
 640              		.global	SDSPI_SPIMaster_GetRxBufferSize
 641              		.thumb
 642              		.thumb_func
 643              		.type	SDSPI_SPIMaster_GetRxBufferSize, %function
 644              	SDSPI_SPIMaster_GetRxBufferSize:
 645              	.LFB14:
 639:.\Generated_Source\PSoC5/SDSPI_SPIMaster.c **** 
 640:.\Generated_Source\PSoC5/SDSPI_SPIMaster.c **** 
 641:.\Generated_Source\PSoC5/SDSPI_SPIMaster.c **** /*******************************************************************************
 642:.\Generated_Source\PSoC5/SDSPI_SPIMaster.c **** * Function Name: SDSPI_SPIMaster_GetRxBufferSize
 643:.\Generated_Source\PSoC5/SDSPI_SPIMaster.c **** ********************************************************************************
 644:.\Generated_Source\PSoC5/SDSPI_SPIMaster.c **** *
 645:.\Generated_Source\PSoC5/SDSPI_SPIMaster.c **** * Summary:
 646:.\Generated_Source\PSoC5/SDSPI_SPIMaster.c **** *  Returns the number of bytes/words of data currently held in the RX buffer.
 647:.\Generated_Source\PSoC5/SDSPI_SPIMaster.c **** *  If RX Software Buffer not used then function return 0 if FIFO empty or 1 if
 648:.\Generated_Source\PSoC5/SDSPI_SPIMaster.c **** *  FIFO not empty. In another case function return size of RX Software Buffer.
 649:.\Generated_Source\PSoC5/SDSPI_SPIMaster.c **** *
 650:.\Generated_Source\PSoC5/SDSPI_SPIMaster.c **** * Parameters:
 651:.\Generated_Source\PSoC5/SDSPI_SPIMaster.c **** *  None.
 652:.\Generated_Source\PSoC5/SDSPI_SPIMaster.c **** *
 653:.\Generated_Source\PSoC5/SDSPI_SPIMaster.c **** * Return:
 654:.\Generated_Source\PSoC5/SDSPI_SPIMaster.c **** *  Integer count of the number of bytes/words in the RX buffer.
 655:.\Generated_Source\PSoC5/SDSPI_SPIMaster.c **** *
 656:.\Generated_Source\PSoC5/SDSPI_SPIMaster.c **** * Global variables:
 657:.\Generated_Source\PSoC5/SDSPI_SPIMaster.c **** *  SDSPI_SPIMaster_rxBufferWrite - used for the account of the bytes which
 658:.\Generated_Source\PSoC5/SDSPI_SPIMaster.c **** *  have been written down in the RX software buffer.
 659:.\Generated_Source\PSoC5/SDSPI_SPIMaster.c **** *  SDSPI_SPIMaster_rxBufferRead - used for the account of the bytes which
 660:.\Generated_Source\PSoC5/SDSPI_SPIMaster.c **** *  have been read from the RX software buffer.
 661:.\Generated_Source\PSoC5/SDSPI_SPIMaster.c **** *
 662:.\Generated_Source\PSoC5/SDSPI_SPIMaster.c **** * Side Effects:
 663:.\Generated_Source\PSoC5/SDSPI_SPIMaster.c **** *  Clear status register of the component.
 664:.\Generated_Source\PSoC5/SDSPI_SPIMaster.c **** *
 665:.\Generated_Source\PSoC5/SDSPI_SPIMaster.c **** *******************************************************************************/
 666:.\Generated_Source\PSoC5/SDSPI_SPIMaster.c **** uint8 SDSPI_SPIMaster_GetRxBufferSize(void) 
ARM GAS  C:\Users\honet\AppData\Local\Temp\ccmqrNIo.s 			page 24


 667:.\Generated_Source\PSoC5/SDSPI_SPIMaster.c **** {
 646              		.loc 1 667 0
 647              		.cfi_startproc
 648              		@ args = 0, pretend = 0, frame = 8
 649              		@ frame_needed = 1, uses_anonymous_args = 0
 650              		@ link register save eliminated.
 651 0000 80B4     		push	{r7}
 652              		.cfi_def_cfa_offset 4
 653              		.cfi_offset 7, -4
 654 0002 83B0     		sub	sp, sp, #12
 655              		.cfi_def_cfa_offset 16
 656 0004 00AF     		add	r7, sp, #0
 657              		.cfi_def_cfa_register 7
 668:.\Generated_Source\PSoC5/SDSPI_SPIMaster.c ****     uint8 size;
 669:.\Generated_Source\PSoC5/SDSPI_SPIMaster.c **** 
 670:.\Generated_Source\PSoC5/SDSPI_SPIMaster.c ****     #if(SDSPI_SPIMaster_RX_SOFTWARE_BUF_ENABLED)
 671:.\Generated_Source\PSoC5/SDSPI_SPIMaster.c **** 
 672:.\Generated_Source\PSoC5/SDSPI_SPIMaster.c ****         /* Disable RX interrupt to protect global veriables */
 673:.\Generated_Source\PSoC5/SDSPI_SPIMaster.c ****         SDSPI_SPIMaster_DisableRxInt();
 674:.\Generated_Source\PSoC5/SDSPI_SPIMaster.c **** 
 675:.\Generated_Source\PSoC5/SDSPI_SPIMaster.c ****         if(SDSPI_SPIMaster_rxBufferRead == SDSPI_SPIMaster_rxBufferWrite)
 676:.\Generated_Source\PSoC5/SDSPI_SPIMaster.c ****         {
 677:.\Generated_Source\PSoC5/SDSPI_SPIMaster.c ****             size = 0u;
 678:.\Generated_Source\PSoC5/SDSPI_SPIMaster.c ****         }
 679:.\Generated_Source\PSoC5/SDSPI_SPIMaster.c ****         else if(SDSPI_SPIMaster_rxBufferRead < SDSPI_SPIMaster_rxBufferWrite)
 680:.\Generated_Source\PSoC5/SDSPI_SPIMaster.c ****         {
 681:.\Generated_Source\PSoC5/SDSPI_SPIMaster.c ****             size = (SDSPI_SPIMaster_rxBufferWrite - SDSPI_SPIMaster_rxBufferRead);
 682:.\Generated_Source\PSoC5/SDSPI_SPIMaster.c ****         }
 683:.\Generated_Source\PSoC5/SDSPI_SPIMaster.c ****         else
 684:.\Generated_Source\PSoC5/SDSPI_SPIMaster.c ****         {
 685:.\Generated_Source\PSoC5/SDSPI_SPIMaster.c ****             size = (SDSPI_SPIMaster_RX_BUFFER_SIZE - SDSPI_SPIMaster_rxBufferRead) + SDSPI_SPIMaste
 686:.\Generated_Source\PSoC5/SDSPI_SPIMaster.c ****         }
 687:.\Generated_Source\PSoC5/SDSPI_SPIMaster.c **** 
 688:.\Generated_Source\PSoC5/SDSPI_SPIMaster.c ****         SDSPI_SPIMaster_EnableRxInt();
 689:.\Generated_Source\PSoC5/SDSPI_SPIMaster.c **** 
 690:.\Generated_Source\PSoC5/SDSPI_SPIMaster.c ****     #else
 691:.\Generated_Source\PSoC5/SDSPI_SPIMaster.c **** 
 692:.\Generated_Source\PSoC5/SDSPI_SPIMaster.c ****         /* We can only know if there is data in the RX FIFO */
 693:.\Generated_Source\PSoC5/SDSPI_SPIMaster.c ****         size = (0u != (SDSPI_SPIMaster_RX_STATUS_REG & SDSPI_SPIMaster_STS_RX_FIFO_NOT_EMPTY)) ? 1u
 658              		.loc 1 693 0
 659 0006 094B     		ldr	r3, .L44
 660 0008 1B78     		ldrb	r3, [r3]
 661 000a DBB2     		uxtb	r3, r3
 662 000c 03F02003 		and	r3, r3, #32
 663 0010 002B     		cmp	r3, #0
 664 0012 01D0     		beq	.L41
 665              		.loc 1 693 0 is_stmt 0 discriminator 1
 666 0014 0123     		movs	r3, #1
 667 0016 00E0     		b	.L42
 668              	.L41:
 669              		.loc 1 693 0 discriminator 2
 670 0018 0023     		movs	r3, #0
 671              	.L42:
 672              		.loc 1 693 0 discriminator 4
 673 001a FB71     		strb	r3, [r7, #7]
 694:.\Generated_Source\PSoC5/SDSPI_SPIMaster.c **** 
 695:.\Generated_Source\PSoC5/SDSPI_SPIMaster.c ****     #endif /* (SDSPI_SPIMaster_TX_SOFTWARE_BUF_ENABLED) */
ARM GAS  C:\Users\honet\AppData\Local\Temp\ccmqrNIo.s 			page 25


 696:.\Generated_Source\PSoC5/SDSPI_SPIMaster.c **** 
 697:.\Generated_Source\PSoC5/SDSPI_SPIMaster.c ****     return(size);
 674              		.loc 1 697 0 is_stmt 1 discriminator 4
 675 001c FB79     		ldrb	r3, [r7, #7]	@ zero_extendqisi2
 698:.\Generated_Source\PSoC5/SDSPI_SPIMaster.c **** }
 676              		.loc 1 698 0 discriminator 4
 677 001e 1846     		mov	r0, r3
 678 0020 0C37     		adds	r7, r7, #12
 679              		.cfi_def_cfa_offset 4
 680 0022 BD46     		mov	sp, r7
 681              		.cfi_def_cfa_register 13
 682              		@ sp needed
 683 0024 5DF8047B 		ldr	r7, [sp], #4
 684              		.cfi_restore 7
 685              		.cfi_def_cfa_offset 0
 686 0028 7047     		bx	lr
 687              	.L45:
 688 002a 00BF     		.align	2
 689              	.L44:
 690 002c 6D640040 		.word	1073767533
 691              		.cfi_endproc
 692              	.LFE14:
 693              		.size	SDSPI_SPIMaster_GetRxBufferSize, .-SDSPI_SPIMaster_GetRxBufferSize
 694              		.section	.text.SDSPI_SPIMaster_GetTxBufferSize,"ax",%progbits
 695              		.align	2
 696              		.global	SDSPI_SPIMaster_GetTxBufferSize
 697              		.thumb
 698              		.thumb_func
 699              		.type	SDSPI_SPIMaster_GetTxBufferSize, %function
 700              	SDSPI_SPIMaster_GetTxBufferSize:
 701              	.LFB15:
 699:.\Generated_Source\PSoC5/SDSPI_SPIMaster.c **** 
 700:.\Generated_Source\PSoC5/SDSPI_SPIMaster.c **** 
 701:.\Generated_Source\PSoC5/SDSPI_SPIMaster.c **** /*******************************************************************************
 702:.\Generated_Source\PSoC5/SDSPI_SPIMaster.c **** * Function Name: SDSPI_SPIMaster_GetTxBufferSize
 703:.\Generated_Source\PSoC5/SDSPI_SPIMaster.c **** ********************************************************************************
 704:.\Generated_Source\PSoC5/SDSPI_SPIMaster.c **** *
 705:.\Generated_Source\PSoC5/SDSPI_SPIMaster.c **** * Summary:
 706:.\Generated_Source\PSoC5/SDSPI_SPIMaster.c **** *  Returns the number of bytes/words of data currently held in the TX buffer.
 707:.\Generated_Source\PSoC5/SDSPI_SPIMaster.c **** *  If TX Software Buffer not used then function return 0 - if FIFO empty, 1 - if
 708:.\Generated_Source\PSoC5/SDSPI_SPIMaster.c **** *  FIFO not full, 4 - if FIFO full. In another case function return size of TX
 709:.\Generated_Source\PSoC5/SDSPI_SPIMaster.c **** *  Software Buffer.
 710:.\Generated_Source\PSoC5/SDSPI_SPIMaster.c **** *
 711:.\Generated_Source\PSoC5/SDSPI_SPIMaster.c **** * Parameters:
 712:.\Generated_Source\PSoC5/SDSPI_SPIMaster.c **** *  None.
 713:.\Generated_Source\PSoC5/SDSPI_SPIMaster.c **** *
 714:.\Generated_Source\PSoC5/SDSPI_SPIMaster.c **** * Return:
 715:.\Generated_Source\PSoC5/SDSPI_SPIMaster.c **** *  Integer count of the number of bytes/words in the TX buffer.
 716:.\Generated_Source\PSoC5/SDSPI_SPIMaster.c **** *
 717:.\Generated_Source\PSoC5/SDSPI_SPIMaster.c **** * Global variables:
 718:.\Generated_Source\PSoC5/SDSPI_SPIMaster.c **** *  SDSPI_SPIMaster_txBufferWrite - used for the account of the bytes which
 719:.\Generated_Source\PSoC5/SDSPI_SPIMaster.c **** *  have been written down in the TX software buffer.
 720:.\Generated_Source\PSoC5/SDSPI_SPIMaster.c **** *  SDSPI_SPIMaster_txBufferRead - used for the account of the bytes which
 721:.\Generated_Source\PSoC5/SDSPI_SPIMaster.c **** *  have been read from the TX software buffer.
 722:.\Generated_Source\PSoC5/SDSPI_SPIMaster.c **** *
 723:.\Generated_Source\PSoC5/SDSPI_SPIMaster.c **** * Side Effects:
 724:.\Generated_Source\PSoC5/SDSPI_SPIMaster.c **** *  Clear status register of the component.
ARM GAS  C:\Users\honet\AppData\Local\Temp\ccmqrNIo.s 			page 26


 725:.\Generated_Source\PSoC5/SDSPI_SPIMaster.c **** *
 726:.\Generated_Source\PSoC5/SDSPI_SPIMaster.c **** *******************************************************************************/
 727:.\Generated_Source\PSoC5/SDSPI_SPIMaster.c **** uint8  SDSPI_SPIMaster_GetTxBufferSize(void) 
 728:.\Generated_Source\PSoC5/SDSPI_SPIMaster.c **** {
 702              		.loc 1 728 0
 703              		.cfi_startproc
 704              		@ args = 0, pretend = 0, frame = 8
 705              		@ frame_needed = 1, uses_anonymous_args = 0
 706              		@ link register save eliminated.
 707 0000 80B4     		push	{r7}
 708              		.cfi_def_cfa_offset 4
 709              		.cfi_offset 7, -4
 710 0002 83B0     		sub	sp, sp, #12
 711              		.cfi_def_cfa_offset 16
 712 0004 00AF     		add	r7, sp, #0
 713              		.cfi_def_cfa_register 7
 729:.\Generated_Source\PSoC5/SDSPI_SPIMaster.c ****     uint8 size;
 730:.\Generated_Source\PSoC5/SDSPI_SPIMaster.c **** 
 731:.\Generated_Source\PSoC5/SDSPI_SPIMaster.c ****     #if(SDSPI_SPIMaster_TX_SOFTWARE_BUF_ENABLED)
 732:.\Generated_Source\PSoC5/SDSPI_SPIMaster.c ****         /* Disable TX interrupt to protect global veriables */
 733:.\Generated_Source\PSoC5/SDSPI_SPIMaster.c ****         SDSPI_SPIMaster_DisableTxInt();
 734:.\Generated_Source\PSoC5/SDSPI_SPIMaster.c **** 
 735:.\Generated_Source\PSoC5/SDSPI_SPIMaster.c ****         if(SDSPI_SPIMaster_txBufferRead == SDSPI_SPIMaster_txBufferWrite)
 736:.\Generated_Source\PSoC5/SDSPI_SPIMaster.c ****         {
 737:.\Generated_Source\PSoC5/SDSPI_SPIMaster.c ****             size = 0u;
 738:.\Generated_Source\PSoC5/SDSPI_SPIMaster.c ****         }
 739:.\Generated_Source\PSoC5/SDSPI_SPIMaster.c ****         else if(SDSPI_SPIMaster_txBufferRead < SDSPI_SPIMaster_txBufferWrite)
 740:.\Generated_Source\PSoC5/SDSPI_SPIMaster.c ****         {
 741:.\Generated_Source\PSoC5/SDSPI_SPIMaster.c ****             size = (SDSPI_SPIMaster_txBufferWrite - SDSPI_SPIMaster_txBufferRead);
 742:.\Generated_Source\PSoC5/SDSPI_SPIMaster.c ****         }
 743:.\Generated_Source\PSoC5/SDSPI_SPIMaster.c ****         else
 744:.\Generated_Source\PSoC5/SDSPI_SPIMaster.c ****         {
 745:.\Generated_Source\PSoC5/SDSPI_SPIMaster.c ****             size = (SDSPI_SPIMaster_TX_BUFFER_SIZE - SDSPI_SPIMaster_txBufferRead) + SDSPI_SPIMaste
 746:.\Generated_Source\PSoC5/SDSPI_SPIMaster.c ****         }
 747:.\Generated_Source\PSoC5/SDSPI_SPIMaster.c **** 
 748:.\Generated_Source\PSoC5/SDSPI_SPIMaster.c ****         SDSPI_SPIMaster_EnableTxInt();
 749:.\Generated_Source\PSoC5/SDSPI_SPIMaster.c **** 
 750:.\Generated_Source\PSoC5/SDSPI_SPIMaster.c ****     #else
 751:.\Generated_Source\PSoC5/SDSPI_SPIMaster.c **** 
 752:.\Generated_Source\PSoC5/SDSPI_SPIMaster.c ****         size = SDSPI_SPIMaster_TX_STATUS_REG;
 714              		.loc 1 752 0
 715 0006 0E4B     		ldr	r3, .L51
 716 0008 1B78     		ldrb	r3, [r3]
 717 000a FB71     		strb	r3, [r7, #7]
 753:.\Generated_Source\PSoC5/SDSPI_SPIMaster.c **** 
 754:.\Generated_Source\PSoC5/SDSPI_SPIMaster.c ****         if(0u != (size & SDSPI_SPIMaster_STS_TX_FIFO_EMPTY))
 718              		.loc 1 754 0
 719 000c FB79     		ldrb	r3, [r7, #7]	@ zero_extendqisi2
 720 000e 03F00203 		and	r3, r3, #2
 721 0012 002B     		cmp	r3, #0
 722 0014 02D0     		beq	.L47
 755:.\Generated_Source\PSoC5/SDSPI_SPIMaster.c ****         {
 756:.\Generated_Source\PSoC5/SDSPI_SPIMaster.c ****             size = 0u;
 723              		.loc 1 756 0
 724 0016 0023     		movs	r3, #0
 725 0018 FB71     		strb	r3, [r7, #7]
 726 001a 09E0     		b	.L48
ARM GAS  C:\Users\honet\AppData\Local\Temp\ccmqrNIo.s 			page 27


 727              	.L47:
 757:.\Generated_Source\PSoC5/SDSPI_SPIMaster.c ****         }
 758:.\Generated_Source\PSoC5/SDSPI_SPIMaster.c ****         else if(0u != (size & SDSPI_SPIMaster_STS_TX_FIFO_NOT_FULL))
 728              		.loc 1 758 0
 729 001c FB79     		ldrb	r3, [r7, #7]	@ zero_extendqisi2
 730 001e 03F00403 		and	r3, r3, #4
 731 0022 002B     		cmp	r3, #0
 732 0024 02D0     		beq	.L49
 759:.\Generated_Source\PSoC5/SDSPI_SPIMaster.c ****         {
 760:.\Generated_Source\PSoC5/SDSPI_SPIMaster.c ****             size = 1u;
 733              		.loc 1 760 0
 734 0026 0123     		movs	r3, #1
 735 0028 FB71     		strb	r3, [r7, #7]
 736 002a 01E0     		b	.L48
 737              	.L49:
 761:.\Generated_Source\PSoC5/SDSPI_SPIMaster.c ****         }
 762:.\Generated_Source\PSoC5/SDSPI_SPIMaster.c ****         else
 763:.\Generated_Source\PSoC5/SDSPI_SPIMaster.c ****         {
 764:.\Generated_Source\PSoC5/SDSPI_SPIMaster.c ****             size = SDSPI_SPIMaster_FIFO_SIZE;
 738              		.loc 1 764 0
 739 002c 0423     		movs	r3, #4
 740 002e FB71     		strb	r3, [r7, #7]
 741              	.L48:
 765:.\Generated_Source\PSoC5/SDSPI_SPIMaster.c ****         }
 766:.\Generated_Source\PSoC5/SDSPI_SPIMaster.c **** 
 767:.\Generated_Source\PSoC5/SDSPI_SPIMaster.c ****     #endif /* (SDSPI_SPIMaster_TX_SOFTWARE_BUF_ENABLED) */
 768:.\Generated_Source\PSoC5/SDSPI_SPIMaster.c **** 
 769:.\Generated_Source\PSoC5/SDSPI_SPIMaster.c ****     return(size);
 742              		.loc 1 769 0
 743 0030 FB79     		ldrb	r3, [r7, #7]	@ zero_extendqisi2
 770:.\Generated_Source\PSoC5/SDSPI_SPIMaster.c **** }
 744              		.loc 1 770 0
 745 0032 1846     		mov	r0, r3
 746 0034 0C37     		adds	r7, r7, #12
 747              		.cfi_def_cfa_offset 4
 748 0036 BD46     		mov	sp, r7
 749              		.cfi_def_cfa_register 13
 750              		@ sp needed
 751 0038 5DF8047B 		ldr	r7, [sp], #4
 752              		.cfi_restore 7
 753              		.cfi_def_cfa_offset 0
 754 003c 7047     		bx	lr
 755              	.L52:
 756 003e 00BF     		.align	2
 757              	.L51:
 758 0040 6C640040 		.word	1073767532
 759              		.cfi_endproc
 760              	.LFE15:
 761              		.size	SDSPI_SPIMaster_GetTxBufferSize, .-SDSPI_SPIMaster_GetTxBufferSize
 762              		.section	.text.SDSPI_SPIMaster_ClearRxBuffer,"ax",%progbits
 763              		.align	2
 764              		.global	SDSPI_SPIMaster_ClearRxBuffer
 765              		.thumb
 766              		.thumb_func
 767              		.type	SDSPI_SPIMaster_ClearRxBuffer, %function
 768              	SDSPI_SPIMaster_ClearRxBuffer:
 769              	.LFB16:
ARM GAS  C:\Users\honet\AppData\Local\Temp\ccmqrNIo.s 			page 28


 771:.\Generated_Source\PSoC5/SDSPI_SPIMaster.c **** 
 772:.\Generated_Source\PSoC5/SDSPI_SPIMaster.c **** 
 773:.\Generated_Source\PSoC5/SDSPI_SPIMaster.c **** /*******************************************************************************
 774:.\Generated_Source\PSoC5/SDSPI_SPIMaster.c **** * Function Name: SDSPI_SPIMaster_ClearRxBuffer
 775:.\Generated_Source\PSoC5/SDSPI_SPIMaster.c **** ********************************************************************************
 776:.\Generated_Source\PSoC5/SDSPI_SPIMaster.c **** *
 777:.\Generated_Source\PSoC5/SDSPI_SPIMaster.c **** * Summary:
 778:.\Generated_Source\PSoC5/SDSPI_SPIMaster.c **** *  Clear the RX RAM buffer by setting the read and write pointers both to zero.
 779:.\Generated_Source\PSoC5/SDSPI_SPIMaster.c **** *
 780:.\Generated_Source\PSoC5/SDSPI_SPIMaster.c **** * Parameters:
 781:.\Generated_Source\PSoC5/SDSPI_SPIMaster.c **** *  None.
 782:.\Generated_Source\PSoC5/SDSPI_SPIMaster.c **** *
 783:.\Generated_Source\PSoC5/SDSPI_SPIMaster.c **** * Return:
 784:.\Generated_Source\PSoC5/SDSPI_SPIMaster.c **** *  None.
 785:.\Generated_Source\PSoC5/SDSPI_SPIMaster.c **** *
 786:.\Generated_Source\PSoC5/SDSPI_SPIMaster.c **** * Global variables:
 787:.\Generated_Source\PSoC5/SDSPI_SPIMaster.c **** *  SDSPI_SPIMaster_rxBufferWrite - used for the account of the bytes which
 788:.\Generated_Source\PSoC5/SDSPI_SPIMaster.c **** *  have been written down in the RX software buffer, modified every function
 789:.\Generated_Source\PSoC5/SDSPI_SPIMaster.c **** *  call - resets to zero.
 790:.\Generated_Source\PSoC5/SDSPI_SPIMaster.c **** *  SDSPI_SPIMaster_rxBufferRead - used for the account of the bytes which
 791:.\Generated_Source\PSoC5/SDSPI_SPIMaster.c **** *  have been read from the RX software buffer, modified every function call -
 792:.\Generated_Source\PSoC5/SDSPI_SPIMaster.c **** *  resets to zero.
 793:.\Generated_Source\PSoC5/SDSPI_SPIMaster.c **** *
 794:.\Generated_Source\PSoC5/SDSPI_SPIMaster.c **** * Theory:
 795:.\Generated_Source\PSoC5/SDSPI_SPIMaster.c **** *  Setting the pointers to zero makes the system believe there is no data to
 796:.\Generated_Source\PSoC5/SDSPI_SPIMaster.c **** *  read and writing will resume at address 0 overwriting any data that may have
 797:.\Generated_Source\PSoC5/SDSPI_SPIMaster.c **** *  remained in the RAM.
 798:.\Generated_Source\PSoC5/SDSPI_SPIMaster.c **** *
 799:.\Generated_Source\PSoC5/SDSPI_SPIMaster.c **** * Side Effects:
 800:.\Generated_Source\PSoC5/SDSPI_SPIMaster.c **** *  Any received data not read from the RAM buffer will be lost when overwritten.
 801:.\Generated_Source\PSoC5/SDSPI_SPIMaster.c **** *
 802:.\Generated_Source\PSoC5/SDSPI_SPIMaster.c **** * Reentrant:
 803:.\Generated_Source\PSoC5/SDSPI_SPIMaster.c **** *  No.
 804:.\Generated_Source\PSoC5/SDSPI_SPIMaster.c **** *
 805:.\Generated_Source\PSoC5/SDSPI_SPIMaster.c **** *******************************************************************************/
 806:.\Generated_Source\PSoC5/SDSPI_SPIMaster.c **** void SDSPI_SPIMaster_ClearRxBuffer(void) 
 807:.\Generated_Source\PSoC5/SDSPI_SPIMaster.c **** {
 770              		.loc 1 807 0
 771              		.cfi_startproc
 772              		@ args = 0, pretend = 0, frame = 0
 773              		@ frame_needed = 1, uses_anonymous_args = 0
 774              		@ link register save eliminated.
 775 0000 80B4     		push	{r7}
 776              		.cfi_def_cfa_offset 4
 777              		.cfi_offset 7, -4
 778 0002 00AF     		add	r7, sp, #0
 779              		.cfi_def_cfa_register 7
 808:.\Generated_Source\PSoC5/SDSPI_SPIMaster.c ****     /* Clear Hardware RX FIFO */
 809:.\Generated_Source\PSoC5/SDSPI_SPIMaster.c ****     while(0u !=(SDSPI_SPIMaster_RX_STATUS_REG & SDSPI_SPIMaster_STS_RX_FIFO_NOT_EMPTY))
 780              		.loc 1 809 0
 781 0004 01E0     		b	.L54
 782              	.L55:
 810:.\Generated_Source\PSoC5/SDSPI_SPIMaster.c ****     {
 811:.\Generated_Source\PSoC5/SDSPI_SPIMaster.c ****         (void) CY_GET_REG8(SDSPI_SPIMaster_RXDATA_PTR);
 783              		.loc 1 811 0
 784 0006 064B     		ldr	r3, .L56
 785 0008 1B78     		ldrb	r3, [r3]
ARM GAS  C:\Users\honet\AppData\Local\Temp\ccmqrNIo.s 			page 29


 786              	.L54:
 809:.\Generated_Source\PSoC5/SDSPI_SPIMaster.c ****     {
 787              		.loc 1 809 0
 788 000a 064B     		ldr	r3, .L56+4
 789 000c 1B78     		ldrb	r3, [r3]
 790 000e DBB2     		uxtb	r3, r3
 791 0010 03F02003 		and	r3, r3, #32
 792 0014 002B     		cmp	r3, #0
 793 0016 F6D1     		bne	.L55
 812:.\Generated_Source\PSoC5/SDSPI_SPIMaster.c ****     }
 813:.\Generated_Source\PSoC5/SDSPI_SPIMaster.c **** 
 814:.\Generated_Source\PSoC5/SDSPI_SPIMaster.c ****     #if(SDSPI_SPIMaster_RX_SOFTWARE_BUF_ENABLED)
 815:.\Generated_Source\PSoC5/SDSPI_SPIMaster.c ****         /* Disable RX interrupt to protect global veriables */
 816:.\Generated_Source\PSoC5/SDSPI_SPIMaster.c ****         SDSPI_SPIMaster_DisableRxInt();
 817:.\Generated_Source\PSoC5/SDSPI_SPIMaster.c **** 
 818:.\Generated_Source\PSoC5/SDSPI_SPIMaster.c ****         SDSPI_SPIMaster_rxBufferFull  = 0u;
 819:.\Generated_Source\PSoC5/SDSPI_SPIMaster.c ****         SDSPI_SPIMaster_rxBufferRead  = 0u;
 820:.\Generated_Source\PSoC5/SDSPI_SPIMaster.c ****         SDSPI_SPIMaster_rxBufferWrite = 0u;
 821:.\Generated_Source\PSoC5/SDSPI_SPIMaster.c **** 
 822:.\Generated_Source\PSoC5/SDSPI_SPIMaster.c ****         SDSPI_SPIMaster_EnableRxInt();
 823:.\Generated_Source\PSoC5/SDSPI_SPIMaster.c ****     #endif /* (SDSPI_SPIMaster_RX_SOFTWARE_BUF_ENABLED) */
 824:.\Generated_Source\PSoC5/SDSPI_SPIMaster.c **** }
 794              		.loc 1 824 0
 795 0018 BD46     		mov	sp, r7
 796              		.cfi_def_cfa_register 13
 797              		@ sp needed
 798 001a 5DF8047B 		ldr	r7, [sp], #4
 799              		.cfi_restore 7
 800              		.cfi_def_cfa_offset 0
 801 001e 7047     		bx	lr
 802              	.L57:
 803              		.align	2
 804              	.L56:
 805 0020 5E640040 		.word	1073767518
 806 0024 6D640040 		.word	1073767533
 807              		.cfi_endproc
 808              	.LFE16:
 809              		.size	SDSPI_SPIMaster_ClearRxBuffer, .-SDSPI_SPIMaster_ClearRxBuffer
 810              		.section	.text.SDSPI_SPIMaster_ClearTxBuffer,"ax",%progbits
 811              		.align	2
 812              		.global	SDSPI_SPIMaster_ClearTxBuffer
 813              		.thumb
 814              		.thumb_func
 815              		.type	SDSPI_SPIMaster_ClearTxBuffer, %function
 816              	SDSPI_SPIMaster_ClearTxBuffer:
 817              	.LFB17:
 825:.\Generated_Source\PSoC5/SDSPI_SPIMaster.c **** 
 826:.\Generated_Source\PSoC5/SDSPI_SPIMaster.c **** 
 827:.\Generated_Source\PSoC5/SDSPI_SPIMaster.c **** /*******************************************************************************
 828:.\Generated_Source\PSoC5/SDSPI_SPIMaster.c **** * Function Name: SDSPI_SPIMaster_ClearTxBuffer
 829:.\Generated_Source\PSoC5/SDSPI_SPIMaster.c **** ********************************************************************************
 830:.\Generated_Source\PSoC5/SDSPI_SPIMaster.c **** *
 831:.\Generated_Source\PSoC5/SDSPI_SPIMaster.c **** * Summary:
 832:.\Generated_Source\PSoC5/SDSPI_SPIMaster.c **** *  Clear the TX RAM buffer by setting the read and write pointers both to zero.
 833:.\Generated_Source\PSoC5/SDSPI_SPIMaster.c **** *
 834:.\Generated_Source\PSoC5/SDSPI_SPIMaster.c **** * Parameters:
 835:.\Generated_Source\PSoC5/SDSPI_SPIMaster.c **** *  None.
ARM GAS  C:\Users\honet\AppData\Local\Temp\ccmqrNIo.s 			page 30


 836:.\Generated_Source\PSoC5/SDSPI_SPIMaster.c **** *
 837:.\Generated_Source\PSoC5/SDSPI_SPIMaster.c **** * Return:
 838:.\Generated_Source\PSoC5/SDSPI_SPIMaster.c **** *  None.
 839:.\Generated_Source\PSoC5/SDSPI_SPIMaster.c **** *
 840:.\Generated_Source\PSoC5/SDSPI_SPIMaster.c **** * Global variables:
 841:.\Generated_Source\PSoC5/SDSPI_SPIMaster.c **** *  SDSPI_SPIMaster_txBufferWrite - used for the account of the bytes which
 842:.\Generated_Source\PSoC5/SDSPI_SPIMaster.c **** *  have been written down in the TX software buffer, modified every function
 843:.\Generated_Source\PSoC5/SDSPI_SPIMaster.c **** *  call - resets to zero.
 844:.\Generated_Source\PSoC5/SDSPI_SPIMaster.c **** *  SDSPI_SPIMaster_txBufferRead - used for the account of the bytes which
 845:.\Generated_Source\PSoC5/SDSPI_SPIMaster.c **** *  have been read from the TX software buffer, modified every function call -
 846:.\Generated_Source\PSoC5/SDSPI_SPIMaster.c **** *  resets to zero.
 847:.\Generated_Source\PSoC5/SDSPI_SPIMaster.c **** *
 848:.\Generated_Source\PSoC5/SDSPI_SPIMaster.c **** * Theory:
 849:.\Generated_Source\PSoC5/SDSPI_SPIMaster.c **** *  Setting the pointers to zero makes the system believe there is no data to
 850:.\Generated_Source\PSoC5/SDSPI_SPIMaster.c **** *  read and writing will resume at address 0 overwriting any data that may have
 851:.\Generated_Source\PSoC5/SDSPI_SPIMaster.c **** *  remained in the RAM.
 852:.\Generated_Source\PSoC5/SDSPI_SPIMaster.c **** *
 853:.\Generated_Source\PSoC5/SDSPI_SPIMaster.c **** * Side Effects:
 854:.\Generated_Source\PSoC5/SDSPI_SPIMaster.c **** *  Any data not yet transmitted from the RAM buffer will be lost when
 855:.\Generated_Source\PSoC5/SDSPI_SPIMaster.c **** *  overwritten.
 856:.\Generated_Source\PSoC5/SDSPI_SPIMaster.c **** *
 857:.\Generated_Source\PSoC5/SDSPI_SPIMaster.c **** * Reentrant:
 858:.\Generated_Source\PSoC5/SDSPI_SPIMaster.c **** *  No.
 859:.\Generated_Source\PSoC5/SDSPI_SPIMaster.c **** *
 860:.\Generated_Source\PSoC5/SDSPI_SPIMaster.c **** *******************************************************************************/
 861:.\Generated_Source\PSoC5/SDSPI_SPIMaster.c **** void SDSPI_SPIMaster_ClearTxBuffer(void) 
 862:.\Generated_Source\PSoC5/SDSPI_SPIMaster.c **** {
 818              		.loc 1 862 0
 819              		.cfi_startproc
 820              		@ args = 0, pretend = 0, frame = 8
 821              		@ frame_needed = 1, uses_anonymous_args = 0
 822 0000 80B5     		push	{r7, lr}
 823              		.cfi_def_cfa_offset 8
 824              		.cfi_offset 7, -8
 825              		.cfi_offset 14, -4
 826 0002 82B0     		sub	sp, sp, #8
 827              		.cfi_def_cfa_offset 16
 828 0004 00AF     		add	r7, sp, #0
 829              		.cfi_def_cfa_register 7
 863:.\Generated_Source\PSoC5/SDSPI_SPIMaster.c ****     uint8 enableInterrupts;
 864:.\Generated_Source\PSoC5/SDSPI_SPIMaster.c **** 
 865:.\Generated_Source\PSoC5/SDSPI_SPIMaster.c ****     enableInterrupts = CyEnterCriticalSection();
 830              		.loc 1 865 0
 831 0006 FFF7FEFF 		bl	CyEnterCriticalSection
 832 000a 0346     		mov	r3, r0
 833 000c FB71     		strb	r3, [r7, #7]
 866:.\Generated_Source\PSoC5/SDSPI_SPIMaster.c ****     /* Clear TX FIFO */
 867:.\Generated_Source\PSoC5/SDSPI_SPIMaster.c ****     SDSPI_SPIMaster_AUX_CONTROL_DP0_REG |= ((uint8)  SDSPI_SPIMaster_TX_FIFO_CLR);
 834              		.loc 1 867 0
 835 000e 0B4A     		ldr	r2, .L59
 836 0010 0A4B     		ldr	r3, .L59
 837 0012 1B78     		ldrb	r3, [r3]
 838 0014 DBB2     		uxtb	r3, r3
 839 0016 43F00103 		orr	r3, r3, #1
 840 001a DBB2     		uxtb	r3, r3
 841 001c 1370     		strb	r3, [r2]
 868:.\Generated_Source\PSoC5/SDSPI_SPIMaster.c ****     SDSPI_SPIMaster_AUX_CONTROL_DP0_REG &= ((uint8) ~SDSPI_SPIMaster_TX_FIFO_CLR);
ARM GAS  C:\Users\honet\AppData\Local\Temp\ccmqrNIo.s 			page 31


 842              		.loc 1 868 0
 843 001e 074A     		ldr	r2, .L59
 844 0020 064B     		ldr	r3, .L59
 845 0022 1B78     		ldrb	r3, [r3]
 846 0024 DBB2     		uxtb	r3, r3
 847 0026 23F00103 		bic	r3, r3, #1
 848 002a DBB2     		uxtb	r3, r3
 849 002c 1370     		strb	r3, [r2]
 869:.\Generated_Source\PSoC5/SDSPI_SPIMaster.c **** 
 870:.\Generated_Source\PSoC5/SDSPI_SPIMaster.c ****     #if(SDSPI_SPIMaster_USE_SECOND_DATAPATH)
 871:.\Generated_Source\PSoC5/SDSPI_SPIMaster.c ****         /* Clear TX FIFO for 2nd Datapath */
 872:.\Generated_Source\PSoC5/SDSPI_SPIMaster.c ****         SDSPI_SPIMaster_AUX_CONTROL_DP1_REG |= ((uint8)  SDSPI_SPIMaster_TX_FIFO_CLR);
 873:.\Generated_Source\PSoC5/SDSPI_SPIMaster.c ****         SDSPI_SPIMaster_AUX_CONTROL_DP1_REG &= ((uint8) ~SDSPI_SPIMaster_TX_FIFO_CLR);
 874:.\Generated_Source\PSoC5/SDSPI_SPIMaster.c ****     #endif /* (SDSPI_SPIMaster_USE_SECOND_DATAPATH) */
 875:.\Generated_Source\PSoC5/SDSPI_SPIMaster.c ****     CyExitCriticalSection(enableInterrupts);
 850              		.loc 1 875 0
 851 002e FB79     		ldrb	r3, [r7, #7]	@ zero_extendqisi2
 852 0030 1846     		mov	r0, r3
 853 0032 FFF7FEFF 		bl	CyExitCriticalSection
 876:.\Generated_Source\PSoC5/SDSPI_SPIMaster.c **** 
 877:.\Generated_Source\PSoC5/SDSPI_SPIMaster.c ****     #if(SDSPI_SPIMaster_TX_SOFTWARE_BUF_ENABLED)
 878:.\Generated_Source\PSoC5/SDSPI_SPIMaster.c ****         /* Disable TX interrupt to protect global veriables */
 879:.\Generated_Source\PSoC5/SDSPI_SPIMaster.c ****         SDSPI_SPIMaster_DisableTxInt();
 880:.\Generated_Source\PSoC5/SDSPI_SPIMaster.c **** 
 881:.\Generated_Source\PSoC5/SDSPI_SPIMaster.c ****         SDSPI_SPIMaster_txBufferFull  = 0u;
 882:.\Generated_Source\PSoC5/SDSPI_SPIMaster.c ****         SDSPI_SPIMaster_txBufferRead  = 0u;
 883:.\Generated_Source\PSoC5/SDSPI_SPIMaster.c ****         SDSPI_SPIMaster_txBufferWrite = 0u;
 884:.\Generated_Source\PSoC5/SDSPI_SPIMaster.c **** 
 885:.\Generated_Source\PSoC5/SDSPI_SPIMaster.c ****         /* Buffer is EMPTY: disable TX FIFO NOT FULL interrupt */
 886:.\Generated_Source\PSoC5/SDSPI_SPIMaster.c ****         SDSPI_SPIMaster_TX_STATUS_MASK_REG &= ((uint8) ~SDSPI_SPIMaster_STS_TX_FIFO_NOT_FULL);
 887:.\Generated_Source\PSoC5/SDSPI_SPIMaster.c **** 
 888:.\Generated_Source\PSoC5/SDSPI_SPIMaster.c ****         SDSPI_SPIMaster_EnableTxInt();
 889:.\Generated_Source\PSoC5/SDSPI_SPIMaster.c ****     #endif /* (SDSPI_SPIMaster_TX_SOFTWARE_BUF_ENABLED) */
 890:.\Generated_Source\PSoC5/SDSPI_SPIMaster.c **** }
 854              		.loc 1 890 0
 855 0036 0837     		adds	r7, r7, #8
 856              		.cfi_def_cfa_offset 8
 857 0038 BD46     		mov	sp, r7
 858              		.cfi_def_cfa_register 13
 859              		@ sp needed
 860 003a 80BD     		pop	{r7, pc}
 861              	.L60:
 862              		.align	2
 863              	.L59:
 864 003c 9E640040 		.word	1073767582
 865              		.cfi_endproc
 866              	.LFE17:
 867              		.size	SDSPI_SPIMaster_ClearTxBuffer, .-SDSPI_SPIMaster_ClearTxBuffer
 868              		.section	.text.SDSPI_SPIMaster_PutArray,"ax",%progbits
 869              		.align	2
 870              		.global	SDSPI_SPIMaster_PutArray
 871              		.thumb
 872              		.thumb_func
 873              		.type	SDSPI_SPIMaster_PutArray, %function
 874              	SDSPI_SPIMaster_PutArray:
 875              	.LFB18:
 891:.\Generated_Source\PSoC5/SDSPI_SPIMaster.c **** 
ARM GAS  C:\Users\honet\AppData\Local\Temp\ccmqrNIo.s 			page 32


 892:.\Generated_Source\PSoC5/SDSPI_SPIMaster.c **** 
 893:.\Generated_Source\PSoC5/SDSPI_SPIMaster.c **** #if(0u != SDSPI_SPIMaster_BIDIRECTIONAL_MODE)
 894:.\Generated_Source\PSoC5/SDSPI_SPIMaster.c ****     /*******************************************************************************
 895:.\Generated_Source\PSoC5/SDSPI_SPIMaster.c ****     * Function Name: SDSPI_SPIMaster_TxEnable
 896:.\Generated_Source\PSoC5/SDSPI_SPIMaster.c ****     ********************************************************************************
 897:.\Generated_Source\PSoC5/SDSPI_SPIMaster.c ****     *
 898:.\Generated_Source\PSoC5/SDSPI_SPIMaster.c ****     * Summary:
 899:.\Generated_Source\PSoC5/SDSPI_SPIMaster.c ****     *  If the SPI master is configured to use a single bi-directional pin then this
 900:.\Generated_Source\PSoC5/SDSPI_SPIMaster.c ****     *  will set the bi-directional pin to transmit.
 901:.\Generated_Source\PSoC5/SDSPI_SPIMaster.c ****     *
 902:.\Generated_Source\PSoC5/SDSPI_SPIMaster.c ****     * Parameters:
 903:.\Generated_Source\PSoC5/SDSPI_SPIMaster.c ****     *  None.
 904:.\Generated_Source\PSoC5/SDSPI_SPIMaster.c ****     *
 905:.\Generated_Source\PSoC5/SDSPI_SPIMaster.c ****     * Return:
 906:.\Generated_Source\PSoC5/SDSPI_SPIMaster.c ****     *  None.
 907:.\Generated_Source\PSoC5/SDSPI_SPIMaster.c ****     *
 908:.\Generated_Source\PSoC5/SDSPI_SPIMaster.c ****     *******************************************************************************/
 909:.\Generated_Source\PSoC5/SDSPI_SPIMaster.c ****     void SDSPI_SPIMaster_TxEnable(void) 
 910:.\Generated_Source\PSoC5/SDSPI_SPIMaster.c ****     {
 911:.\Generated_Source\PSoC5/SDSPI_SPIMaster.c ****         SDSPI_SPIMaster_CONTROL_REG |= SDSPI_SPIMaster_CTRL_TX_SIGNAL_EN;
 912:.\Generated_Source\PSoC5/SDSPI_SPIMaster.c ****     }
 913:.\Generated_Source\PSoC5/SDSPI_SPIMaster.c **** 
 914:.\Generated_Source\PSoC5/SDSPI_SPIMaster.c **** 
 915:.\Generated_Source\PSoC5/SDSPI_SPIMaster.c ****     /*******************************************************************************
 916:.\Generated_Source\PSoC5/SDSPI_SPIMaster.c ****     * Function Name: SDSPI_SPIMaster_TxDisable
 917:.\Generated_Source\PSoC5/SDSPI_SPIMaster.c ****     ********************************************************************************
 918:.\Generated_Source\PSoC5/SDSPI_SPIMaster.c ****     *
 919:.\Generated_Source\PSoC5/SDSPI_SPIMaster.c ****     * Summary:
 920:.\Generated_Source\PSoC5/SDSPI_SPIMaster.c ****     *  If the SPI master is configured to use a single bi-directional pin then this
 921:.\Generated_Source\PSoC5/SDSPI_SPIMaster.c ****     *  will set the bi-directional pin to receive.
 922:.\Generated_Source\PSoC5/SDSPI_SPIMaster.c ****     *
 923:.\Generated_Source\PSoC5/SDSPI_SPIMaster.c ****     * Parameters:
 924:.\Generated_Source\PSoC5/SDSPI_SPIMaster.c ****     *  None.
 925:.\Generated_Source\PSoC5/SDSPI_SPIMaster.c ****     *
 926:.\Generated_Source\PSoC5/SDSPI_SPIMaster.c ****     * Return:
 927:.\Generated_Source\PSoC5/SDSPI_SPIMaster.c ****     *  None.
 928:.\Generated_Source\PSoC5/SDSPI_SPIMaster.c ****     *
 929:.\Generated_Source\PSoC5/SDSPI_SPIMaster.c ****     *******************************************************************************/
 930:.\Generated_Source\PSoC5/SDSPI_SPIMaster.c ****     void SDSPI_SPIMaster_TxDisable(void) 
 931:.\Generated_Source\PSoC5/SDSPI_SPIMaster.c ****     {
 932:.\Generated_Source\PSoC5/SDSPI_SPIMaster.c ****         SDSPI_SPIMaster_CONTROL_REG &= ((uint8) ~SDSPI_SPIMaster_CTRL_TX_SIGNAL_EN);
 933:.\Generated_Source\PSoC5/SDSPI_SPIMaster.c ****     }
 934:.\Generated_Source\PSoC5/SDSPI_SPIMaster.c **** 
 935:.\Generated_Source\PSoC5/SDSPI_SPIMaster.c **** #endif /* (0u != SDSPI_SPIMaster_BIDIRECTIONAL_MODE) */
 936:.\Generated_Source\PSoC5/SDSPI_SPIMaster.c **** 
 937:.\Generated_Source\PSoC5/SDSPI_SPIMaster.c **** 
 938:.\Generated_Source\PSoC5/SDSPI_SPIMaster.c **** /*******************************************************************************
 939:.\Generated_Source\PSoC5/SDSPI_SPIMaster.c **** * Function Name: SDSPI_SPIMaster_PutArray
 940:.\Generated_Source\PSoC5/SDSPI_SPIMaster.c **** ********************************************************************************
 941:.\Generated_Source\PSoC5/SDSPI_SPIMaster.c **** *
 942:.\Generated_Source\PSoC5/SDSPI_SPIMaster.c **** * Summary:
 943:.\Generated_Source\PSoC5/SDSPI_SPIMaster.c **** *  Write available data from ROM/RAM to the TX buffer while space is available
 944:.\Generated_Source\PSoC5/SDSPI_SPIMaster.c **** *  in the TX buffer. Keep trying until all data is passed to the TX buffer.
 945:.\Generated_Source\PSoC5/SDSPI_SPIMaster.c **** *
 946:.\Generated_Source\PSoC5/SDSPI_SPIMaster.c **** * Parameters:
 947:.\Generated_Source\PSoC5/SDSPI_SPIMaster.c **** *  *buffer: Pointer to the location in RAM containing the data to send
 948:.\Generated_Source\PSoC5/SDSPI_SPIMaster.c **** *  byteCount: The number of bytes to move to the transmit buffer.
ARM GAS  C:\Users\honet\AppData\Local\Temp\ccmqrNIo.s 			page 33


 949:.\Generated_Source\PSoC5/SDSPI_SPIMaster.c **** *
 950:.\Generated_Source\PSoC5/SDSPI_SPIMaster.c **** * Return:
 951:.\Generated_Source\PSoC5/SDSPI_SPIMaster.c **** *  None.
 952:.\Generated_Source\PSoC5/SDSPI_SPIMaster.c **** *
 953:.\Generated_Source\PSoC5/SDSPI_SPIMaster.c **** * Side Effects:
 954:.\Generated_Source\PSoC5/SDSPI_SPIMaster.c **** *  Will stay in this routine until all data has been sent.  May get locked in
 955:.\Generated_Source\PSoC5/SDSPI_SPIMaster.c **** *  this loop if data is not being initiated by the master if there is not
 956:.\Generated_Source\PSoC5/SDSPI_SPIMaster.c **** *  enough room in the TX FIFO.
 957:.\Generated_Source\PSoC5/SDSPI_SPIMaster.c **** *
 958:.\Generated_Source\PSoC5/SDSPI_SPIMaster.c **** * Reentrant:
 959:.\Generated_Source\PSoC5/SDSPI_SPIMaster.c **** *  No.
 960:.\Generated_Source\PSoC5/SDSPI_SPIMaster.c **** *
 961:.\Generated_Source\PSoC5/SDSPI_SPIMaster.c **** *******************************************************************************/
 962:.\Generated_Source\PSoC5/SDSPI_SPIMaster.c **** void SDSPI_SPIMaster_PutArray(const uint8 buffer[], uint8 byteCount)
 963:.\Generated_Source\PSoC5/SDSPI_SPIMaster.c ****                                                                           
 964:.\Generated_Source\PSoC5/SDSPI_SPIMaster.c **** {
 876              		.loc 1 964 0
 877              		.cfi_startproc
 878              		@ args = 0, pretend = 0, frame = 16
 879              		@ frame_needed = 1, uses_anonymous_args = 0
 880 0000 80B5     		push	{r7, lr}
 881              		.cfi_def_cfa_offset 8
 882              		.cfi_offset 7, -8
 883              		.cfi_offset 14, -4
 884 0002 84B0     		sub	sp, sp, #16
 885              		.cfi_def_cfa_offset 24
 886 0004 00AF     		add	r7, sp, #0
 887              		.cfi_def_cfa_register 7
 888 0006 7860     		str	r0, [r7, #4]
 889 0008 0B46     		mov	r3, r1
 890 000a FB70     		strb	r3, [r7, #3]
 965:.\Generated_Source\PSoC5/SDSPI_SPIMaster.c ****     uint8 bufIndex;
 966:.\Generated_Source\PSoC5/SDSPI_SPIMaster.c **** 
 967:.\Generated_Source\PSoC5/SDSPI_SPIMaster.c ****     bufIndex = 0u;
 891              		.loc 1 967 0
 892 000c 0023     		movs	r3, #0
 893 000e FB73     		strb	r3, [r7, #15]
 968:.\Generated_Source\PSoC5/SDSPI_SPIMaster.c **** 
 969:.\Generated_Source\PSoC5/SDSPI_SPIMaster.c ****     while(byteCount > 0u)
 894              		.loc 1 969 0
 895 0010 0CE0     		b	.L62
 896              	.L63:
 970:.\Generated_Source\PSoC5/SDSPI_SPIMaster.c ****     {
 971:.\Generated_Source\PSoC5/SDSPI_SPIMaster.c ****         SDSPI_SPIMaster_WriteTxData(buffer[bufIndex]);
 897              		.loc 1 971 0
 898 0012 FB7B     		ldrb	r3, [r7, #15]	@ zero_extendqisi2
 899 0014 7A68     		ldr	r2, [r7, #4]
 900 0016 1344     		add	r3, r3, r2
 901 0018 1B78     		ldrb	r3, [r3]	@ zero_extendqisi2
 902 001a 1846     		mov	r0, r3
 903 001c FFF7FEFF 		bl	SDSPI_SPIMaster_WriteTxData
 972:.\Generated_Source\PSoC5/SDSPI_SPIMaster.c ****         bufIndex++;
 904              		.loc 1 972 0
 905 0020 FB7B     		ldrb	r3, [r7, #15]	@ zero_extendqisi2
 906 0022 0133     		adds	r3, r3, #1
 907 0024 FB73     		strb	r3, [r7, #15]
 973:.\Generated_Source\PSoC5/SDSPI_SPIMaster.c ****         byteCount--;
ARM GAS  C:\Users\honet\AppData\Local\Temp\ccmqrNIo.s 			page 34


 908              		.loc 1 973 0
 909 0026 FB78     		ldrb	r3, [r7, #3]	@ zero_extendqisi2
 910 0028 013B     		subs	r3, r3, #1
 911 002a FB70     		strb	r3, [r7, #3]
 912              	.L62:
 969:.\Generated_Source\PSoC5/SDSPI_SPIMaster.c ****     {
 913              		.loc 1 969 0
 914 002c FB78     		ldrb	r3, [r7, #3]	@ zero_extendqisi2
 915 002e 002B     		cmp	r3, #0
 916 0030 EFD1     		bne	.L63
 974:.\Generated_Source\PSoC5/SDSPI_SPIMaster.c ****     }
 975:.\Generated_Source\PSoC5/SDSPI_SPIMaster.c **** }
 917              		.loc 1 975 0
 918 0032 1037     		adds	r7, r7, #16
 919              		.cfi_def_cfa_offset 8
 920 0034 BD46     		mov	sp, r7
 921              		.cfi_def_cfa_register 13
 922              		@ sp needed
 923 0036 80BD     		pop	{r7, pc}
 924              		.cfi_endproc
 925              	.LFE18:
 926              		.size	SDSPI_SPIMaster_PutArray, .-SDSPI_SPIMaster_PutArray
 927              		.section	.text.SDSPI_SPIMaster_ClearFIFO,"ax",%progbits
 928              		.align	2
 929              		.global	SDSPI_SPIMaster_ClearFIFO
 930              		.thumb
 931              		.thumb_func
 932              		.type	SDSPI_SPIMaster_ClearFIFO, %function
 933              	SDSPI_SPIMaster_ClearFIFO:
 934              	.LFB19:
 976:.\Generated_Source\PSoC5/SDSPI_SPIMaster.c **** 
 977:.\Generated_Source\PSoC5/SDSPI_SPIMaster.c **** 
 978:.\Generated_Source\PSoC5/SDSPI_SPIMaster.c **** /*******************************************************************************
 979:.\Generated_Source\PSoC5/SDSPI_SPIMaster.c **** * Function Name: SDSPI_SPIMaster_ClearFIFO
 980:.\Generated_Source\PSoC5/SDSPI_SPIMaster.c **** ********************************************************************************
 981:.\Generated_Source\PSoC5/SDSPI_SPIMaster.c **** *
 982:.\Generated_Source\PSoC5/SDSPI_SPIMaster.c **** * Summary:
 983:.\Generated_Source\PSoC5/SDSPI_SPIMaster.c **** *  Clear the RX and TX FIFO's of all data for a fresh start.
 984:.\Generated_Source\PSoC5/SDSPI_SPIMaster.c **** *
 985:.\Generated_Source\PSoC5/SDSPI_SPIMaster.c **** * Parameters:
 986:.\Generated_Source\PSoC5/SDSPI_SPIMaster.c **** *  None.
 987:.\Generated_Source\PSoC5/SDSPI_SPIMaster.c **** *
 988:.\Generated_Source\PSoC5/SDSPI_SPIMaster.c **** * Return:
 989:.\Generated_Source\PSoC5/SDSPI_SPIMaster.c **** *  None.
 990:.\Generated_Source\PSoC5/SDSPI_SPIMaster.c **** *
 991:.\Generated_Source\PSoC5/SDSPI_SPIMaster.c **** * Side Effects:
 992:.\Generated_Source\PSoC5/SDSPI_SPIMaster.c **** *  Clear status register of the component.
 993:.\Generated_Source\PSoC5/SDSPI_SPIMaster.c **** *
 994:.\Generated_Source\PSoC5/SDSPI_SPIMaster.c **** *******************************************************************************/
 995:.\Generated_Source\PSoC5/SDSPI_SPIMaster.c **** void SDSPI_SPIMaster_ClearFIFO(void) 
 996:.\Generated_Source\PSoC5/SDSPI_SPIMaster.c **** {
 935              		.loc 1 996 0
 936              		.cfi_startproc
 937              		@ args = 0, pretend = 0, frame = 8
 938              		@ frame_needed = 1, uses_anonymous_args = 0
 939 0000 80B5     		push	{r7, lr}
 940              		.cfi_def_cfa_offset 8
ARM GAS  C:\Users\honet\AppData\Local\Temp\ccmqrNIo.s 			page 35


 941              		.cfi_offset 7, -8
 942              		.cfi_offset 14, -4
 943 0002 82B0     		sub	sp, sp, #8
 944              		.cfi_def_cfa_offset 16
 945 0004 00AF     		add	r7, sp, #0
 946              		.cfi_def_cfa_register 7
 997:.\Generated_Source\PSoC5/SDSPI_SPIMaster.c ****     uint8 enableInterrupts;
 998:.\Generated_Source\PSoC5/SDSPI_SPIMaster.c **** 
 999:.\Generated_Source\PSoC5/SDSPI_SPIMaster.c ****     /* Clear Hardware RX FIFO */
1000:.\Generated_Source\PSoC5/SDSPI_SPIMaster.c ****     while(0u !=(SDSPI_SPIMaster_RX_STATUS_REG & SDSPI_SPIMaster_STS_RX_FIFO_NOT_EMPTY))
 947              		.loc 1 1000 0
 948 0006 01E0     		b	.L65
 949              	.L66:
1001:.\Generated_Source\PSoC5/SDSPI_SPIMaster.c ****     {
1002:.\Generated_Source\PSoC5/SDSPI_SPIMaster.c ****         (void) CY_GET_REG8(SDSPI_SPIMaster_RXDATA_PTR);
 950              		.loc 1 1002 0
 951 0008 114B     		ldr	r3, .L67
 952 000a 1B78     		ldrb	r3, [r3]
 953              	.L65:
1000:.\Generated_Source\PSoC5/SDSPI_SPIMaster.c ****     {
 954              		.loc 1 1000 0
 955 000c 114B     		ldr	r3, .L67+4
 956 000e 1B78     		ldrb	r3, [r3]
 957 0010 DBB2     		uxtb	r3, r3
 958 0012 03F02003 		and	r3, r3, #32
 959 0016 002B     		cmp	r3, #0
 960 0018 F6D1     		bne	.L66
1003:.\Generated_Source\PSoC5/SDSPI_SPIMaster.c ****     }
1004:.\Generated_Source\PSoC5/SDSPI_SPIMaster.c **** 
1005:.\Generated_Source\PSoC5/SDSPI_SPIMaster.c ****     enableInterrupts = CyEnterCriticalSection();
 961              		.loc 1 1005 0
 962 001a FFF7FEFF 		bl	CyEnterCriticalSection
 963 001e 0346     		mov	r3, r0
 964 0020 FB71     		strb	r3, [r7, #7]
1006:.\Generated_Source\PSoC5/SDSPI_SPIMaster.c ****     /* Clear TX FIFO */
1007:.\Generated_Source\PSoC5/SDSPI_SPIMaster.c ****     SDSPI_SPIMaster_AUX_CONTROL_DP0_REG |= ((uint8)  SDSPI_SPIMaster_TX_FIFO_CLR);
 965              		.loc 1 1007 0
 966 0022 0D4A     		ldr	r2, .L67+8
 967 0024 0C4B     		ldr	r3, .L67+8
 968 0026 1B78     		ldrb	r3, [r3]
 969 0028 DBB2     		uxtb	r3, r3
 970 002a 43F00103 		orr	r3, r3, #1
 971 002e DBB2     		uxtb	r3, r3
 972 0030 1370     		strb	r3, [r2]
1008:.\Generated_Source\PSoC5/SDSPI_SPIMaster.c ****     SDSPI_SPIMaster_AUX_CONTROL_DP0_REG &= ((uint8) ~SDSPI_SPIMaster_TX_FIFO_CLR);
 973              		.loc 1 1008 0
 974 0032 094A     		ldr	r2, .L67+8
 975 0034 084B     		ldr	r3, .L67+8
 976 0036 1B78     		ldrb	r3, [r3]
 977 0038 DBB2     		uxtb	r3, r3
 978 003a 23F00103 		bic	r3, r3, #1
 979 003e DBB2     		uxtb	r3, r3
 980 0040 1370     		strb	r3, [r2]
1009:.\Generated_Source\PSoC5/SDSPI_SPIMaster.c **** 
1010:.\Generated_Source\PSoC5/SDSPI_SPIMaster.c ****     #if(SDSPI_SPIMaster_USE_SECOND_DATAPATH)
1011:.\Generated_Source\PSoC5/SDSPI_SPIMaster.c ****         /* Clear TX FIFO for 2nd Datapath */
1012:.\Generated_Source\PSoC5/SDSPI_SPIMaster.c ****         SDSPI_SPIMaster_AUX_CONTROL_DP1_REG |= ((uint8)  SDSPI_SPIMaster_TX_FIFO_CLR);
ARM GAS  C:\Users\honet\AppData\Local\Temp\ccmqrNIo.s 			page 36


1013:.\Generated_Source\PSoC5/SDSPI_SPIMaster.c ****         SDSPI_SPIMaster_AUX_CONTROL_DP1_REG &= ((uint8) ~SDSPI_SPIMaster_TX_FIFO_CLR);
1014:.\Generated_Source\PSoC5/SDSPI_SPIMaster.c ****     #endif /* (SDSPI_SPIMaster_USE_SECOND_DATAPATH) */
1015:.\Generated_Source\PSoC5/SDSPI_SPIMaster.c ****     CyExitCriticalSection(enableInterrupts);
 981              		.loc 1 1015 0
 982 0042 FB79     		ldrb	r3, [r7, #7]	@ zero_extendqisi2
 983 0044 1846     		mov	r0, r3
 984 0046 FFF7FEFF 		bl	CyExitCriticalSection
1016:.\Generated_Source\PSoC5/SDSPI_SPIMaster.c **** }
 985              		.loc 1 1016 0
 986 004a 0837     		adds	r7, r7, #8
 987              		.cfi_def_cfa_offset 8
 988 004c BD46     		mov	sp, r7
 989              		.cfi_def_cfa_register 13
 990              		@ sp needed
 991 004e 80BD     		pop	{r7, pc}
 992              	.L68:
 993              		.align	2
 994              	.L67:
 995 0050 5E640040 		.word	1073767518
 996 0054 6D640040 		.word	1073767533
 997 0058 9E640040 		.word	1073767582
 998              		.cfi_endproc
 999              	.LFE19:
 1000              		.size	SDSPI_SPIMaster_ClearFIFO, .-SDSPI_SPIMaster_ClearFIFO
 1001              		.section	.text.SDSPI_SPIMaster_EnableInt,"ax",%progbits
 1002              		.align	2
 1003              		.global	SDSPI_SPIMaster_EnableInt
 1004              		.thumb
 1005              		.thumb_func
 1006              		.type	SDSPI_SPIMaster_EnableInt, %function
 1007              	SDSPI_SPIMaster_EnableInt:
 1008              	.LFB20:
1017:.\Generated_Source\PSoC5/SDSPI_SPIMaster.c **** 
1018:.\Generated_Source\PSoC5/SDSPI_SPIMaster.c **** 
1019:.\Generated_Source\PSoC5/SDSPI_SPIMaster.c **** /* Following functions are for version Compatibility, they are obsolete.
1020:.\Generated_Source\PSoC5/SDSPI_SPIMaster.c **** *  Please do not use it in new projects.
1021:.\Generated_Source\PSoC5/SDSPI_SPIMaster.c **** */
1022:.\Generated_Source\PSoC5/SDSPI_SPIMaster.c **** 
1023:.\Generated_Source\PSoC5/SDSPI_SPIMaster.c **** 
1024:.\Generated_Source\PSoC5/SDSPI_SPIMaster.c **** /*******************************************************************************
1025:.\Generated_Source\PSoC5/SDSPI_SPIMaster.c **** * Function Name: SDSPI_SPIMaster_EnableInt
1026:.\Generated_Source\PSoC5/SDSPI_SPIMaster.c **** ********************************************************************************
1027:.\Generated_Source\PSoC5/SDSPI_SPIMaster.c **** *
1028:.\Generated_Source\PSoC5/SDSPI_SPIMaster.c **** * Summary:
1029:.\Generated_Source\PSoC5/SDSPI_SPIMaster.c **** *  Enable internal interrupt generation.
1030:.\Generated_Source\PSoC5/SDSPI_SPIMaster.c **** *
1031:.\Generated_Source\PSoC5/SDSPI_SPIMaster.c **** * Parameters:
1032:.\Generated_Source\PSoC5/SDSPI_SPIMaster.c **** *  None.
1033:.\Generated_Source\PSoC5/SDSPI_SPIMaster.c **** *
1034:.\Generated_Source\PSoC5/SDSPI_SPIMaster.c **** * Return:
1035:.\Generated_Source\PSoC5/SDSPI_SPIMaster.c **** *  None.
1036:.\Generated_Source\PSoC5/SDSPI_SPIMaster.c **** *
1037:.\Generated_Source\PSoC5/SDSPI_SPIMaster.c **** * Theory:
1038:.\Generated_Source\PSoC5/SDSPI_SPIMaster.c **** *  Enable the internal interrupt output -or- the interrupt component itself.
1039:.\Generated_Source\PSoC5/SDSPI_SPIMaster.c **** *
1040:.\Generated_Source\PSoC5/SDSPI_SPIMaster.c **** *******************************************************************************/
1041:.\Generated_Source\PSoC5/SDSPI_SPIMaster.c **** void SDSPI_SPIMaster_EnableInt(void) 
ARM GAS  C:\Users\honet\AppData\Local\Temp\ccmqrNIo.s 			page 37


1042:.\Generated_Source\PSoC5/SDSPI_SPIMaster.c **** {
 1009              		.loc 1 1042 0
 1010              		.cfi_startproc
 1011              		@ args = 0, pretend = 0, frame = 0
 1012              		@ frame_needed = 1, uses_anonymous_args = 0
 1013 0000 80B5     		push	{r7, lr}
 1014              		.cfi_def_cfa_offset 8
 1015              		.cfi_offset 7, -8
 1016              		.cfi_offset 14, -4
 1017 0002 00AF     		add	r7, sp, #0
 1018              		.cfi_def_cfa_register 7
1043:.\Generated_Source\PSoC5/SDSPI_SPIMaster.c ****     SDSPI_SPIMaster_EnableRxInt();
 1019              		.loc 1 1043 0
 1020 0004 FFF7FEFF 		bl	SDSPI_SPIMaster_EnableRxInt
1044:.\Generated_Source\PSoC5/SDSPI_SPIMaster.c ****     SDSPI_SPIMaster_EnableTxInt();
 1021              		.loc 1 1044 0
 1022 0008 FFF7FEFF 		bl	SDSPI_SPIMaster_EnableTxInt
1045:.\Generated_Source\PSoC5/SDSPI_SPIMaster.c **** }
 1023              		.loc 1 1045 0
 1024 000c 80BD     		pop	{r7, pc}
 1025              		.cfi_endproc
 1026              	.LFE20:
 1027              		.size	SDSPI_SPIMaster_EnableInt, .-SDSPI_SPIMaster_EnableInt
 1028 000e 00BF     		.section	.text.SDSPI_SPIMaster_DisableInt,"ax",%progbits
 1029              		.align	2
 1030              		.global	SDSPI_SPIMaster_DisableInt
 1031              		.thumb
 1032              		.thumb_func
 1033              		.type	SDSPI_SPIMaster_DisableInt, %function
 1034              	SDSPI_SPIMaster_DisableInt:
 1035              	.LFB21:
1046:.\Generated_Source\PSoC5/SDSPI_SPIMaster.c **** 
1047:.\Generated_Source\PSoC5/SDSPI_SPIMaster.c **** 
1048:.\Generated_Source\PSoC5/SDSPI_SPIMaster.c **** /*******************************************************************************
1049:.\Generated_Source\PSoC5/SDSPI_SPIMaster.c **** * Function Name: SDSPI_SPIMaster_DisableInt
1050:.\Generated_Source\PSoC5/SDSPI_SPIMaster.c **** ********************************************************************************
1051:.\Generated_Source\PSoC5/SDSPI_SPIMaster.c **** *
1052:.\Generated_Source\PSoC5/SDSPI_SPIMaster.c **** * Summary:
1053:.\Generated_Source\PSoC5/SDSPI_SPIMaster.c **** *  Disable internal interrupt generation.
1054:.\Generated_Source\PSoC5/SDSPI_SPIMaster.c **** *
1055:.\Generated_Source\PSoC5/SDSPI_SPIMaster.c **** * Parameters:
1056:.\Generated_Source\PSoC5/SDSPI_SPIMaster.c **** *  None.
1057:.\Generated_Source\PSoC5/SDSPI_SPIMaster.c **** *
1058:.\Generated_Source\PSoC5/SDSPI_SPIMaster.c **** * Return:
1059:.\Generated_Source\PSoC5/SDSPI_SPIMaster.c **** *  None.
1060:.\Generated_Source\PSoC5/SDSPI_SPIMaster.c **** *
1061:.\Generated_Source\PSoC5/SDSPI_SPIMaster.c **** * Theory:
1062:.\Generated_Source\PSoC5/SDSPI_SPIMaster.c **** *  Disable the internal interrupt output -or- the interrupt component itself.
1063:.\Generated_Source\PSoC5/SDSPI_SPIMaster.c **** *
1064:.\Generated_Source\PSoC5/SDSPI_SPIMaster.c **** *******************************************************************************/
1065:.\Generated_Source\PSoC5/SDSPI_SPIMaster.c **** void SDSPI_SPIMaster_DisableInt(void) 
1066:.\Generated_Source\PSoC5/SDSPI_SPIMaster.c **** {
 1036              		.loc 1 1066 0
 1037              		.cfi_startproc
 1038              		@ args = 0, pretend = 0, frame = 0
 1039              		@ frame_needed = 1, uses_anonymous_args = 0
 1040 0000 80B5     		push	{r7, lr}
ARM GAS  C:\Users\honet\AppData\Local\Temp\ccmqrNIo.s 			page 38


 1041              		.cfi_def_cfa_offset 8
 1042              		.cfi_offset 7, -8
 1043              		.cfi_offset 14, -4
 1044 0002 00AF     		add	r7, sp, #0
 1045              		.cfi_def_cfa_register 7
1067:.\Generated_Source\PSoC5/SDSPI_SPIMaster.c ****     SDSPI_SPIMaster_DisableTxInt();
 1046              		.loc 1 1067 0
 1047 0004 FFF7FEFF 		bl	SDSPI_SPIMaster_DisableTxInt
1068:.\Generated_Source\PSoC5/SDSPI_SPIMaster.c ****     SDSPI_SPIMaster_DisableRxInt();
 1048              		.loc 1 1068 0
 1049 0008 FFF7FEFF 		bl	SDSPI_SPIMaster_DisableRxInt
1069:.\Generated_Source\PSoC5/SDSPI_SPIMaster.c **** }
 1050              		.loc 1 1069 0
 1051 000c 80BD     		pop	{r7, pc}
 1052              		.cfi_endproc
 1053              	.LFE21:
 1054              		.size	SDSPI_SPIMaster_DisableInt, .-SDSPI_SPIMaster_DisableInt
 1055 000e 00BF     		.section	.text.SDSPI_SPIMaster_SetInterruptMode,"ax",%progbits
 1056              		.align	2
 1057              		.global	SDSPI_SPIMaster_SetInterruptMode
 1058              		.thumb
 1059              		.thumb_func
 1060              		.type	SDSPI_SPIMaster_SetInterruptMode, %function
 1061              	SDSPI_SPIMaster_SetInterruptMode:
 1062              	.LFB22:
1070:.\Generated_Source\PSoC5/SDSPI_SPIMaster.c **** 
1071:.\Generated_Source\PSoC5/SDSPI_SPIMaster.c **** 
1072:.\Generated_Source\PSoC5/SDSPI_SPIMaster.c **** /*******************************************************************************
1073:.\Generated_Source\PSoC5/SDSPI_SPIMaster.c **** * Function Name: SDSPI_SPIMaster_SetInterruptMode
1074:.\Generated_Source\PSoC5/SDSPI_SPIMaster.c **** ********************************************************************************
1075:.\Generated_Source\PSoC5/SDSPI_SPIMaster.c **** *
1076:.\Generated_Source\PSoC5/SDSPI_SPIMaster.c **** * Summary:
1077:.\Generated_Source\PSoC5/SDSPI_SPIMaster.c **** *  Configure which status bits trigger an interrupt event.
1078:.\Generated_Source\PSoC5/SDSPI_SPIMaster.c **** *
1079:.\Generated_Source\PSoC5/SDSPI_SPIMaster.c **** * Parameters:
1080:.\Generated_Source\PSoC5/SDSPI_SPIMaster.c **** *  intSrc: An or'd combination of the desired status bit masks (defined in the
1081:.\Generated_Source\PSoC5/SDSPI_SPIMaster.c **** *  header file).
1082:.\Generated_Source\PSoC5/SDSPI_SPIMaster.c **** *
1083:.\Generated_Source\PSoC5/SDSPI_SPIMaster.c **** * Return:
1084:.\Generated_Source\PSoC5/SDSPI_SPIMaster.c **** *  None.
1085:.\Generated_Source\PSoC5/SDSPI_SPIMaster.c **** *
1086:.\Generated_Source\PSoC5/SDSPI_SPIMaster.c **** * Theory:
1087:.\Generated_Source\PSoC5/SDSPI_SPIMaster.c **** *  Enables the output of specific status bits to the interrupt controller.
1088:.\Generated_Source\PSoC5/SDSPI_SPIMaster.c **** *
1089:.\Generated_Source\PSoC5/SDSPI_SPIMaster.c **** *******************************************************************************/
1090:.\Generated_Source\PSoC5/SDSPI_SPIMaster.c **** void SDSPI_SPIMaster_SetInterruptMode(uint8 intSrc) 
1091:.\Generated_Source\PSoC5/SDSPI_SPIMaster.c **** {
 1063              		.loc 1 1091 0
 1064              		.cfi_startproc
 1065              		@ args = 0, pretend = 0, frame = 8
 1066              		@ frame_needed = 1, uses_anonymous_args = 0
 1067              		@ link register save eliminated.
 1068 0000 80B4     		push	{r7}
 1069              		.cfi_def_cfa_offset 4
 1070              		.cfi_offset 7, -4
 1071 0002 83B0     		sub	sp, sp, #12
 1072              		.cfi_def_cfa_offset 16
ARM GAS  C:\Users\honet\AppData\Local\Temp\ccmqrNIo.s 			page 39


 1073 0004 00AF     		add	r7, sp, #0
 1074              		.cfi_def_cfa_register 7
 1075 0006 0346     		mov	r3, r0
 1076 0008 FB71     		strb	r3, [r7, #7]
1092:.\Generated_Source\PSoC5/SDSPI_SPIMaster.c ****     SDSPI_SPIMaster_TX_STATUS_MASK_REG  = (intSrc & ((uint8) ~SDSPI_SPIMaster_STS_SPI_IDLE));
 1077              		.loc 1 1092 0
 1078 000a 074A     		ldr	r2, .L72
 1079 000c FB79     		ldrb	r3, [r7, #7]
 1080 000e 23F01003 		bic	r3, r3, #16
 1081 0012 DBB2     		uxtb	r3, r3
 1082 0014 1370     		strb	r3, [r2]
1093:.\Generated_Source\PSoC5/SDSPI_SPIMaster.c ****     SDSPI_SPIMaster_RX_STATUS_MASK_REG  =  intSrc;
 1083              		.loc 1 1093 0
 1084 0016 054A     		ldr	r2, .L72+4
 1085 0018 FB79     		ldrb	r3, [r7, #7]
 1086 001a 1370     		strb	r3, [r2]
1094:.\Generated_Source\PSoC5/SDSPI_SPIMaster.c **** }
 1087              		.loc 1 1094 0
 1088 001c 0C37     		adds	r7, r7, #12
 1089              		.cfi_def_cfa_offset 4
 1090 001e BD46     		mov	sp, r7
 1091              		.cfi_def_cfa_register 13
 1092              		@ sp needed
 1093 0020 5DF8047B 		ldr	r7, [sp], #4
 1094              		.cfi_restore 7
 1095              		.cfi_def_cfa_offset 0
 1096 0024 7047     		bx	lr
 1097              	.L73:
 1098 0026 00BF     		.align	2
 1099              	.L72:
 1100 0028 8C640040 		.word	1073767564
 1101 002c 8D640040 		.word	1073767565
 1102              		.cfi_endproc
 1103              	.LFE22:
 1104              		.size	SDSPI_SPIMaster_SetInterruptMode, .-SDSPI_SPIMaster_SetInterruptMode
 1105              		.section	.text.SDSPI_SPIMaster_ReadStatus,"ax",%progbits
 1106              		.align	2
 1107              		.global	SDSPI_SPIMaster_ReadStatus
 1108              		.thumb
 1109              		.thumb_func
 1110              		.type	SDSPI_SPIMaster_ReadStatus, %function
 1111              	SDSPI_SPIMaster_ReadStatus:
 1112              	.LFB23:
1095:.\Generated_Source\PSoC5/SDSPI_SPIMaster.c **** 
1096:.\Generated_Source\PSoC5/SDSPI_SPIMaster.c **** 
1097:.\Generated_Source\PSoC5/SDSPI_SPIMaster.c **** /*******************************************************************************
1098:.\Generated_Source\PSoC5/SDSPI_SPIMaster.c **** * Function Name: SDSPI_SPIMaster_ReadStatus
1099:.\Generated_Source\PSoC5/SDSPI_SPIMaster.c **** ********************************************************************************
1100:.\Generated_Source\PSoC5/SDSPI_SPIMaster.c **** *
1101:.\Generated_Source\PSoC5/SDSPI_SPIMaster.c **** * Summary:
1102:.\Generated_Source\PSoC5/SDSPI_SPIMaster.c **** *  Read the status register for the component.
1103:.\Generated_Source\PSoC5/SDSPI_SPIMaster.c **** *
1104:.\Generated_Source\PSoC5/SDSPI_SPIMaster.c **** * Parameters:
1105:.\Generated_Source\PSoC5/SDSPI_SPIMaster.c **** *  None.
1106:.\Generated_Source\PSoC5/SDSPI_SPIMaster.c **** *
1107:.\Generated_Source\PSoC5/SDSPI_SPIMaster.c **** * Return:
1108:.\Generated_Source\PSoC5/SDSPI_SPIMaster.c **** *  Contents of the status register.
ARM GAS  C:\Users\honet\AppData\Local\Temp\ccmqrNIo.s 			page 40


1109:.\Generated_Source\PSoC5/SDSPI_SPIMaster.c **** *
1110:.\Generated_Source\PSoC5/SDSPI_SPIMaster.c **** * Global variables:
1111:.\Generated_Source\PSoC5/SDSPI_SPIMaster.c **** *  SDSPI_SPIMaster_swStatus - used to store in software status register,
1112:.\Generated_Source\PSoC5/SDSPI_SPIMaster.c **** *  modified every function call - resets to zero.
1113:.\Generated_Source\PSoC5/SDSPI_SPIMaster.c **** *
1114:.\Generated_Source\PSoC5/SDSPI_SPIMaster.c **** * Theory:
1115:.\Generated_Source\PSoC5/SDSPI_SPIMaster.c **** *  Allows the user and the API to read the status register for error detection
1116:.\Generated_Source\PSoC5/SDSPI_SPIMaster.c **** *  and flow control.
1117:.\Generated_Source\PSoC5/SDSPI_SPIMaster.c **** *
1118:.\Generated_Source\PSoC5/SDSPI_SPIMaster.c **** * Side Effects:
1119:.\Generated_Source\PSoC5/SDSPI_SPIMaster.c **** *  Clear status register of the component.
1120:.\Generated_Source\PSoC5/SDSPI_SPIMaster.c **** *
1121:.\Generated_Source\PSoC5/SDSPI_SPIMaster.c **** * Reentrant:
1122:.\Generated_Source\PSoC5/SDSPI_SPIMaster.c **** *  No.
1123:.\Generated_Source\PSoC5/SDSPI_SPIMaster.c **** *
1124:.\Generated_Source\PSoC5/SDSPI_SPIMaster.c **** *******************************************************************************/
1125:.\Generated_Source\PSoC5/SDSPI_SPIMaster.c **** uint8 SDSPI_SPIMaster_ReadStatus(void) 
1126:.\Generated_Source\PSoC5/SDSPI_SPIMaster.c **** {
 1113              		.loc 1 1126 0
 1114              		.cfi_startproc
 1115              		@ args = 0, pretend = 0, frame = 8
 1116              		@ frame_needed = 1, uses_anonymous_args = 0
 1117              		@ link register save eliminated.
 1118 0000 80B4     		push	{r7}
 1119              		.cfi_def_cfa_offset 4
 1120              		.cfi_offset 7, -4
 1121 0002 83B0     		sub	sp, sp, #12
 1122              		.cfi_def_cfa_offset 16
 1123 0004 00AF     		add	r7, sp, #0
 1124              		.cfi_def_cfa_register 7
1127:.\Generated_Source\PSoC5/SDSPI_SPIMaster.c ****     uint8 tmpStatus;
1128:.\Generated_Source\PSoC5/SDSPI_SPIMaster.c **** 
1129:.\Generated_Source\PSoC5/SDSPI_SPIMaster.c ****     #if(SDSPI_SPIMaster_TX_SOFTWARE_BUF_ENABLED || SDSPI_SPIMaster_RX_SOFTWARE_BUF_ENABLED)
1130:.\Generated_Source\PSoC5/SDSPI_SPIMaster.c **** 
1131:.\Generated_Source\PSoC5/SDSPI_SPIMaster.c ****         SDSPI_SPIMaster_DisableInt();
1132:.\Generated_Source\PSoC5/SDSPI_SPIMaster.c **** 
1133:.\Generated_Source\PSoC5/SDSPI_SPIMaster.c ****         tmpStatus  = SDSPI_SPIMaster_GET_STATUS_RX(SDSPI_SPIMaster_swStatusRx);
1134:.\Generated_Source\PSoC5/SDSPI_SPIMaster.c ****         tmpStatus |= SDSPI_SPIMaster_GET_STATUS_TX(SDSPI_SPIMaster_swStatusTx);
1135:.\Generated_Source\PSoC5/SDSPI_SPIMaster.c ****         tmpStatus &= ((uint8) ~SDSPI_SPIMaster_STS_SPI_IDLE);
1136:.\Generated_Source\PSoC5/SDSPI_SPIMaster.c **** 
1137:.\Generated_Source\PSoC5/SDSPI_SPIMaster.c ****         SDSPI_SPIMaster_swStatusTx = 0u;
1138:.\Generated_Source\PSoC5/SDSPI_SPIMaster.c ****         SDSPI_SPIMaster_swStatusRx = 0u;
1139:.\Generated_Source\PSoC5/SDSPI_SPIMaster.c **** 
1140:.\Generated_Source\PSoC5/SDSPI_SPIMaster.c ****         SDSPI_SPIMaster_EnableInt();
1141:.\Generated_Source\PSoC5/SDSPI_SPIMaster.c **** 
1142:.\Generated_Source\PSoC5/SDSPI_SPIMaster.c ****     #else
1143:.\Generated_Source\PSoC5/SDSPI_SPIMaster.c **** 
1144:.\Generated_Source\PSoC5/SDSPI_SPIMaster.c ****         tmpStatus  = SDSPI_SPIMaster_RX_STATUS_REG;
 1125              		.loc 1 1144 0
 1126 0006 0A4B     		ldr	r3, .L76
 1127 0008 1B78     		ldrb	r3, [r3]
 1128 000a FB71     		strb	r3, [r7, #7]
1145:.\Generated_Source\PSoC5/SDSPI_SPIMaster.c ****         tmpStatus |= SDSPI_SPIMaster_TX_STATUS_REG;
 1129              		.loc 1 1145 0
 1130 000c 094B     		ldr	r3, .L76+4
 1131 000e 1B78     		ldrb	r3, [r3]
 1132 0010 DAB2     		uxtb	r2, r3
ARM GAS  C:\Users\honet\AppData\Local\Temp\ccmqrNIo.s 			page 41


 1133 0012 FB79     		ldrb	r3, [r7, #7]
 1134 0014 1343     		orrs	r3, r3, r2
 1135 0016 FB71     		strb	r3, [r7, #7]
1146:.\Generated_Source\PSoC5/SDSPI_SPIMaster.c ****         tmpStatus &= ((uint8) ~SDSPI_SPIMaster_STS_SPI_IDLE);
 1136              		.loc 1 1146 0
 1137 0018 FB79     		ldrb	r3, [r7, #7]
 1138 001a 23F01003 		bic	r3, r3, #16
 1139 001e FB71     		strb	r3, [r7, #7]
1147:.\Generated_Source\PSoC5/SDSPI_SPIMaster.c **** 
1148:.\Generated_Source\PSoC5/SDSPI_SPIMaster.c ****     #endif /* (SDSPI_SPIMaster_TX_SOFTWARE_BUF_ENABLED || SDSPI_SPIMaster_RX_SOFTWARE_BUF_ENABLED) 
1149:.\Generated_Source\PSoC5/SDSPI_SPIMaster.c **** 
1150:.\Generated_Source\PSoC5/SDSPI_SPIMaster.c ****     return(tmpStatus);
 1140              		.loc 1 1150 0
 1141 0020 FB79     		ldrb	r3, [r7, #7]	@ zero_extendqisi2
1151:.\Generated_Source\PSoC5/SDSPI_SPIMaster.c **** }
 1142              		.loc 1 1151 0
 1143 0022 1846     		mov	r0, r3
 1144 0024 0C37     		adds	r7, r7, #12
 1145              		.cfi_def_cfa_offset 4
 1146 0026 BD46     		mov	sp, r7
 1147              		.cfi_def_cfa_register 13
 1148              		@ sp needed
 1149 0028 5DF8047B 		ldr	r7, [sp], #4
 1150              		.cfi_restore 7
 1151              		.cfi_def_cfa_offset 0
 1152 002c 7047     		bx	lr
 1153              	.L77:
 1154 002e 00BF     		.align	2
 1155              	.L76:
 1156 0030 6D640040 		.word	1073767533
 1157 0034 6C640040 		.word	1073767532
 1158              		.cfi_endproc
 1159              	.LFE23:
 1160              		.size	SDSPI_SPIMaster_ReadStatus, .-SDSPI_SPIMaster_ReadStatus
 1161              		.text
 1162              	.Letext0:
 1163              		.file 2 ".\\Generated_Source\\PSoC5\\cytypes.h"