ARM GAS  C:\Users\honet\AppData\Local\Temp\ccjVTVVZ.s 			page 1


   1              		.syntax unified
   2              		.cpu cortex-m3
   3              		.fpu softvfp
   4              		.eabi_attribute 20, 1
   5              		.eabi_attribute 21, 1
   6              		.eabi_attribute 23, 3
   7              		.eabi_attribute 24, 1
   8              		.eabi_attribute 25, 1
   9              		.eabi_attribute 26, 1
  10              		.eabi_attribute 30, 6
  11              		.eabi_attribute 34, 1
  12              		.eabi_attribute 18, 4
  13              		.thumb
  14              		.file	"SDSPI_api.c"
  15              		.text
  16              	.Ltext0:
  17              		.cfi_sections	.debug_frame
  18              		.bss
  19              	g_nTransferFlags:
  20 0000 00       		.space	1
  21              	g_nCtrlState:
  22 0001 00       		.space	1
  23              	bEnableDMA:
  24 0002 00       		.space	1
  25              	RXDMA_Channel:
  26 0003 00       		.space	1
  27              		.align	2
  28              	RXDMA_TD:
  29 0004 00       		.space	1
  30              	TXDMA_Channel:
  31 0005 00       		.space	1
  32 0006 0000     		.align	2
  33              	TXDMA_TD:
  34 0008 00       		.space	1
  35 0009 000000   		.data
  36              		.align	2
  37              		.type	dummy_data, %object
  38              		.size	dummy_data, 1
  39              	dummy_data:
  40 0000 FF       		.byte	-1
  41 0001 000000   		.section	.text.SDSPI_RX_DMA_ISR,"ax",%progbits
  42              		.align	2
  43              		.global	SDSPI_RX_DMA_ISR
  44              		.thumb
  45              		.thumb_func
  46              		.type	SDSPI_RX_DMA_ISR, %function
  47              	SDSPI_RX_DMA_ISR:
  48              	.LFB0:
  49              		.file 1 ".\\Generated_Source\\PSoC5\\SDSPI_api.c"
   1:.\Generated_Source\PSoC5/SDSPI_api.c **** /* ========================================
   2:.\Generated_Source\PSoC5/SDSPI_api.c ****  *
   3:.\Generated_Source\PSoC5/SDSPI_api.c ****  * Copyright YOUR COMPANY, THE YEAR
   4:.\Generated_Source\PSoC5/SDSPI_api.c ****  * All Rights Reserved
   5:.\Generated_Source\PSoC5/SDSPI_api.c ****  * UNPUBLISHED, LICENSED SOFTWARE.
   6:.\Generated_Source\PSoC5/SDSPI_api.c ****  *
   7:.\Generated_Source\PSoC5/SDSPI_api.c ****  * CONFIDENTIAL AND PROPRIETARY INFORMATION
   8:.\Generated_Source\PSoC5/SDSPI_api.c ****  * WHICH IS THE PROPERTY OF your company.
ARM GAS  C:\Users\honet\AppData\Local\Temp\ccjVTVVZ.s 			page 2


   9:.\Generated_Source\PSoC5/SDSPI_api.c ****  *
  10:.\Generated_Source\PSoC5/SDSPI_api.c ****  * ========================================
  11:.\Generated_Source\PSoC5/SDSPI_api.c **** */
  12:.\Generated_Source\PSoC5/SDSPI_api.c **** #include "SDSPI_api.h"
  13:.\Generated_Source\PSoC5/SDSPI_api.c **** #include "SDSPI_fatfs.h"
  14:.\Generated_Source\PSoC5/SDSPI_api.c **** 
  15:.\Generated_Source\PSoC5/SDSPI_api.c **** #include "SDSPI_SPIMaster.h"
  16:.\Generated_Source\PSoC5/SDSPI_api.c **** #include "SDSPI_CSControl.h"
  17:.\Generated_Source\PSoC5/SDSPI_api.c **** //#include "SDSPI_RX_IRQ.h"
  18:.\Generated_Source\PSoC5/SDSPI_api.c **** #include "SDSPI_RX_dma.h"
  19:.\Generated_Source\PSoC5/SDSPI_api.c **** #include "SDSPI_RX_DMA_IRQ.h"
  20:.\Generated_Source\PSoC5/SDSPI_api.c **** #include "SDSPI_TX_dma.h"
  21:.\Generated_Source\PSoC5/SDSPI_api.c **** //#include "SDSPI_TX_DMA_IRQ.h"
  22:.\Generated_Source\PSoC5/SDSPI_api.c **** 
  23:.\Generated_Source\PSoC5/SDSPI_api.c **** /* DMA Configuration for NSDSPI_RX */
  24:.\Generated_Source\PSoC5/SDSPI_api.c **** #define DMA_RX_BYTES_PER_BURST 1
  25:.\Generated_Source\PSoC5/SDSPI_api.c **** #define DMA_RX_REQUEST_PER_BURST 1
  26:.\Generated_Source\PSoC5/SDSPI_api.c **** #define DMA_RX_SRC_BASE (CYDEV_PERIPH_BASE)
  27:.\Generated_Source\PSoC5/SDSPI_api.c **** #define DMA_RX_DST_BASE (CYDEV_SRAM_BASE)
  28:.\Generated_Source\PSoC5/SDSPI_api.c **** 
  29:.\Generated_Source\PSoC5/SDSPI_api.c **** /* DMA Configuration for NSDSPI_TX */
  30:.\Generated_Source\PSoC5/SDSPI_api.c **** #define DMA_TX_BYTES_PER_BURST 1
  31:.\Generated_Source\PSoC5/SDSPI_api.c **** #define DMA_TX_REQUEST_PER_BURST 1
  32:.\Generated_Source\PSoC5/SDSPI_api.c **** #define DMA_TX_SRC_BASE (CYDEV_SRAM_BASE)
  33:.\Generated_Source\PSoC5/SDSPI_api.c **** #define DMA_TX_DST_BASE (CYDEV_PERIPH_BASE)
  34:.\Generated_Source\PSoC5/SDSPI_api.c **** 
  35:.\Generated_Source\PSoC5/SDSPI_api.c **** #define TRANSFER_WAIT_RXISR        1
  36:.\Generated_Source\PSoC5/SDSPI_api.c **** #define TRANSFER_WAIT_RXDMAISR     2
  37:.\Generated_Source\PSoC5/SDSPI_api.c **** #define TRANSFER_WAIT_TXDMAISR     4
  38:.\Generated_Source\PSoC5/SDSPI_api.c **** 
  39:.\Generated_Source\PSoC5/SDSPI_api.c **** 
  40:.\Generated_Source\PSoC5/SDSPI_api.c **** static volatile unsigned char g_nTransferFlags = 0;
  41:.\Generated_Source\PSoC5/SDSPI_api.c **** static volatile unsigned char g_nCtrlState = 0;
  42:.\Generated_Source\PSoC5/SDSPI_api.c **** 
  43:.\Generated_Source\PSoC5/SDSPI_api.c **** static uint8_t bEnableDMA = 0;
  44:.\Generated_Source\PSoC5/SDSPI_api.c ****     
  45:.\Generated_Source\PSoC5/SDSPI_api.c **** /* Variable declarations for DMA RX */
  46:.\Generated_Source\PSoC5/SDSPI_api.c **** static uint8_t RXDMA_Channel = 0;
  47:.\Generated_Source\PSoC5/SDSPI_api.c **** static uint8_t RXDMA_TD[1];
  48:.\Generated_Source\PSoC5/SDSPI_api.c **** /* Variable declarations for DMA TX */
  49:.\Generated_Source\PSoC5/SDSPI_api.c **** static uint8_t TXDMA_Channel = 0;
  50:.\Generated_Source\PSoC5/SDSPI_api.c **** static uint8_t TXDMA_TD[1];
  51:.\Generated_Source\PSoC5/SDSPI_api.c **** 
  52:.\Generated_Source\PSoC5/SDSPI_api.c **** static uint8_t dummy_data[1] = { 0xff };
  53:.\Generated_Source\PSoC5/SDSPI_api.c **** 
  54:.\Generated_Source\PSoC5/SDSPI_api.c **** //DMA termination ISRs
  55:.\Generated_Source\PSoC5/SDSPI_api.c **** void SDSPI_RX_DMA_ISR(){
  50              		.loc 1 55 0
  51              		.cfi_startproc
  52              		@ args = 0, pretend = 0, frame = 0
  53              		@ frame_needed = 1, uses_anonymous_args = 0
  54              		@ link register save eliminated.
  55 0000 80B4     		push	{r7}
  56              		.cfi_def_cfa_offset 4
  57              		.cfi_offset 7, -4
  58 0002 00AF     		add	r7, sp, #0
  59              		.cfi_def_cfa_register 7
ARM GAS  C:\Users\honet\AppData\Local\Temp\ccjVTVVZ.s 			page 3


  56:.\Generated_Source\PSoC5/SDSPI_api.c **** 	g_nTransferFlags &= ~TRANSFER_WAIT_RXDMAISR;
  60              		.loc 1 56 0
  61 0004 054B     		ldr	r3, .L2
  62 0006 1B78     		ldrb	r3, [r3]
  63 0008 DBB2     		uxtb	r3, r3
  64 000a 23F00203 		bic	r3, r3, #2
  65 000e DAB2     		uxtb	r2, r3
  66 0010 024B     		ldr	r3, .L2
  67 0012 1A70     		strb	r2, [r3]
  57:.\Generated_Source\PSoC5/SDSPI_api.c **** }
  68              		.loc 1 57 0
  69 0014 BD46     		mov	sp, r7
  70              		.cfi_def_cfa_register 13
  71              		@ sp needed
  72 0016 5DF8047B 		ldr	r7, [sp], #4
  73              		.cfi_restore 7
  74              		.cfi_def_cfa_offset 0
  75 001a 7047     		bx	lr
  76              	.L3:
  77              		.align	2
  78              	.L2:
  79 001c 00000000 		.word	g_nTransferFlags
  80              		.cfi_endproc
  81              	.LFE0:
  82              		.size	SDSPI_RX_DMA_ISR, .-SDSPI_RX_DMA_ISR
  83              		.section	.text.dma_setup,"ax",%progbits
  84              		.align	2
  85              		.global	dma_setup
  86              		.thumb
  87              		.thumb_func
  88              		.type	dma_setup, %function
  89              	dma_setup:
  90              	.LFB1:
  58:.\Generated_Source\PSoC5/SDSPI_api.c **** 
  59:.\Generated_Source\PSoC5/SDSPI_api.c **** //void SDSPI_TX_DMA_ISR(){
  60:.\Generated_Source\PSoC5/SDSPI_api.c **** //	g_nTransferFlags &= ~TRANSFER_WAIT_TXDMAISR;
  61:.\Generated_Source\PSoC5/SDSPI_api.c **** //}
  62:.\Generated_Source\PSoC5/SDSPI_api.c **** 
  63:.\Generated_Source\PSoC5/SDSPI_api.c **** 
  64:.\Generated_Source\PSoC5/SDSPI_api.c **** void dma_setup() {
  91              		.loc 1 64 0
  92              		.cfi_startproc
  93              		@ args = 0, pretend = 0, frame = 0
  94              		@ frame_needed = 1, uses_anonymous_args = 0
  95 0000 80B5     		push	{r7, lr}
  96              		.cfi_def_cfa_offset 8
  97              		.cfi_offset 7, -8
  98              		.cfi_offset 14, -4
  99 0002 00AF     		add	r7, sp, #0
 100              		.cfi_def_cfa_register 7
  65:.\Generated_Source\PSoC5/SDSPI_api.c **** 	SDSPI_RX_DMA_IRQ_StartEx(SDSPI_RX_DMA_ISR);
 101              		.loc 1 65 0
 102 0004 1848     		ldr	r0, .L5
 103 0006 FFF7FEFF 		bl	SDSPI_RX_DMA_IRQ_StartEx
  66:.\Generated_Source\PSoC5/SDSPI_api.c **** 
  67:.\Generated_Source\PSoC5/SDSPI_api.c **** 	RXDMA_Channel = SDSPI_RX_DmaInitialize(
 104              		.loc 1 67 0
ARM GAS  C:\Users\honet\AppData\Local\Temp\ccjVTVVZ.s 			page 4


 105 000a 0120     		movs	r0, #1
 106 000c 0121     		movs	r1, #1
 107 000e 4FF48042 		mov	r2, #16384
 108 0012 41F6FF73 		movw	r3, #8191
 109 0016 FFF7FEFF 		bl	SDSPI_RX_DmaInitialize
 110 001a 0346     		mov	r3, r0
 111 001c 1A46     		mov	r2, r3
 112 001e 134B     		ldr	r3, .L5+4
 113 0020 1A70     		strb	r2, [r3]
  68:.\Generated_Source\PSoC5/SDSPI_api.c **** 		DMA_RX_BYTES_PER_BURST, DMA_RX_REQUEST_PER_BURST,
  69:.\Generated_Source\PSoC5/SDSPI_api.c **** 		HI16(DMA_RX_SRC_BASE), HI16(DMA_RX_DST_BASE));
  70:.\Generated_Source\PSoC5/SDSPI_api.c **** 
  71:.\Generated_Source\PSoC5/SDSPI_api.c **** 	TXDMA_Channel = SDSPI_TX_DmaInitialize(
 114              		.loc 1 71 0
 115 0022 0120     		movs	r0, #1
 116 0024 0121     		movs	r1, #1
 117 0026 41F6FF72 		movw	r2, #8191
 118 002a 4FF48043 		mov	r3, #16384
 119 002e FFF7FEFF 		bl	SDSPI_TX_DmaInitialize
 120 0032 0346     		mov	r3, r0
 121 0034 1A46     		mov	r2, r3
 122 0036 0E4B     		ldr	r3, .L5+8
 123 0038 1A70     		strb	r2, [r3]
  72:.\Generated_Source\PSoC5/SDSPI_api.c **** 		DMA_TX_BYTES_PER_BURST, DMA_TX_REQUEST_PER_BURST,
  73:.\Generated_Source\PSoC5/SDSPI_api.c **** 		HI16(DMA_TX_SRC_BASE), HI16(DMA_TX_DST_BASE));
  74:.\Generated_Source\PSoC5/SDSPI_api.c **** 
  75:.\Generated_Source\PSoC5/SDSPI_api.c **** 	//allocate a TD
  76:.\Generated_Source\PSoC5/SDSPI_api.c **** 	TXDMA_TD[0] = CyDmaTdAllocate();
 124              		.loc 1 76 0
 125 003a FFF7FEFF 		bl	CyDmaTdAllocate
 126 003e 0346     		mov	r3, r0
 127 0040 1A46     		mov	r2, r3
 128 0042 0C4B     		ldr	r3, .L5+12
 129 0044 1A70     		strb	r2, [r3]
  77:.\Generated_Source\PSoC5/SDSPI_api.c **** 	RXDMA_TD[0] = CyDmaTdAllocate();
 130              		.loc 1 77 0
 131 0046 FFF7FEFF 		bl	CyDmaTdAllocate
 132 004a 0346     		mov	r3, r0
 133 004c 1A46     		mov	r2, r3
 134 004e 0A4B     		ldr	r3, .L5+16
 135 0050 1A70     		strb	r2, [r3]
  78:.\Generated_Source\PSoC5/SDSPI_api.c **** 
  79:.\Generated_Source\PSoC5/SDSPI_api.c **** 	CyDmaClearPendingDrq(RXDMA_Channel);
 136              		.loc 1 79 0
 137 0052 064B     		ldr	r3, .L5+4
 138 0054 1B78     		ldrb	r3, [r3]	@ zero_extendqisi2
 139 0056 1846     		mov	r0, r3
 140 0058 FFF7FEFF 		bl	CyDmaClearPendingDrq
  80:.\Generated_Source\PSoC5/SDSPI_api.c **** 	CyDmaClearPendingDrq(TXDMA_Channel);
 141              		.loc 1 80 0
 142 005c 044B     		ldr	r3, .L5+8
 143 005e 1B78     		ldrb	r3, [r3]	@ zero_extendqisi2
 144 0060 1846     		mov	r0, r3
 145 0062 FFF7FEFF 		bl	CyDmaClearPendingDrq
  81:.\Generated_Source\PSoC5/SDSPI_api.c **** 
  82:.\Generated_Source\PSoC5/SDSPI_api.c **** }
 146              		.loc 1 82 0
ARM GAS  C:\Users\honet\AppData\Local\Temp\ccjVTVVZ.s 			page 5


 147 0066 80BD     		pop	{r7, pc}
 148              	.L6:
 149              		.align	2
 150              	.L5:
 151 0068 00000000 		.word	SDSPI_RX_DMA_ISR
 152 006c 03000000 		.word	RXDMA_Channel
 153 0070 05000000 		.word	TXDMA_Channel
 154 0074 08000000 		.word	TXDMA_TD
 155 0078 04000000 		.word	RXDMA_TD
 156              		.cfi_endproc
 157              	.LFE1:
 158              		.size	dma_setup, .-dma_setup
 159              		.section	.text.dma_shutdown,"ax",%progbits
 160              		.align	2
 161              		.global	dma_shutdown
 162              		.thumb
 163              		.thumb_func
 164              		.type	dma_shutdown, %function
 165              	dma_shutdown:
 166              	.LFB2:
  83:.\Generated_Source\PSoC5/SDSPI_api.c **** void dma_shutdown() {
 167              		.loc 1 83 0
 168              		.cfi_startproc
 169              		@ args = 0, pretend = 0, frame = 0
 170              		@ frame_needed = 1, uses_anonymous_args = 0
 171 0000 80B5     		push	{r7, lr}
 172              		.cfi_def_cfa_offset 8
 173              		.cfi_offset 7, -8
 174              		.cfi_offset 14, -4
 175 0002 00AF     		add	r7, sp, #0
 176              		.cfi_def_cfa_register 7
  84:.\Generated_Source\PSoC5/SDSPI_api.c **** 	//Free Transfer Descriptor
  85:.\Generated_Source\PSoC5/SDSPI_api.c **** 	CyDmaTdFree(TXDMA_TD[0]);
 177              		.loc 1 85 0
 178 0004 084B     		ldr	r3, .L8
 179 0006 1B78     		ldrb	r3, [r3]	@ zero_extendqisi2
 180 0008 1846     		mov	r0, r3
 181 000a FFF7FEFF 		bl	CyDmaTdFree
  86:.\Generated_Source\PSoC5/SDSPI_api.c **** 	CyDmaTdFree(RXDMA_TD[0]);
 182              		.loc 1 86 0
 183 000e 074B     		ldr	r3, .L8+4
 184 0010 1B78     		ldrb	r3, [r3]	@ zero_extendqisi2
 185 0012 1846     		mov	r0, r3
 186 0014 FFF7FEFF 		bl	CyDmaTdFree
  87:.\Generated_Source\PSoC5/SDSPI_api.c **** 
  88:.\Generated_Source\PSoC5/SDSPI_api.c **** 	SDSPI_RX_DMA_IRQ_Stop();
 187              		.loc 1 88 0
 188 0018 FFF7FEFF 		bl	SDSPI_RX_DMA_IRQ_Stop
  89:.\Generated_Source\PSoC5/SDSPI_api.c **** 	//SDSPI_TX_DMA_IRQ_Stop();
  90:.\Generated_Source\PSoC5/SDSPI_api.c **** 	SDSPI_RX_DmaRelease();
 189              		.loc 1 90 0
 190 001c FFF7FEFF 		bl	SDSPI_RX_DmaRelease
  91:.\Generated_Source\PSoC5/SDSPI_api.c **** 	SDSPI_TX_DmaRelease();
 191              		.loc 1 91 0
 192 0020 FFF7FEFF 		bl	SDSPI_TX_DmaRelease
  92:.\Generated_Source\PSoC5/SDSPI_api.c **** }
 193              		.loc 1 92 0
ARM GAS  C:\Users\honet\AppData\Local\Temp\ccjVTVVZ.s 			page 6


 194 0024 80BD     		pop	{r7, pc}
 195              	.L9:
 196 0026 00BF     		.align	2
 197              	.L8:
 198 0028 08000000 		.word	TXDMA_TD
 199 002c 04000000 		.word	RXDMA_TD
 200              		.cfi_endproc
 201              	.LFE2:
 202              		.size	dma_shutdown, .-dma_shutdown
 203              		.section	.text.SDSPI_Start,"ax",%progbits
 204              		.align	2
 205              		.global	SDSPI_Start
 206              		.thumb
 207              		.thumb_func
 208              		.type	SDSPI_Start, %function
 209              	SDSPI_Start:
 210              	.LFB3:
  93:.\Generated_Source\PSoC5/SDSPI_api.c **** 
  94:.\Generated_Source\PSoC5/SDSPI_api.c **** void SDSPI_Start(SDSPI_VOIDFXN FnSelSlowCk, SDSPI_VOIDFXN FnSelFastCk, SDSPI_PRNTFXN FnPrint)
  95:.\Generated_Source\PSoC5/SDSPI_api.c **** {
 211              		.loc 1 95 0
 212              		.cfi_startproc
 213              		@ args = 0, pretend = 0, frame = 56
 214              		@ frame_needed = 1, uses_anonymous_args = 0
 215 0000 80B5     		push	{r7, lr}
 216              		.cfi_def_cfa_offset 8
 217              		.cfi_offset 7, -8
 218              		.cfi_offset 14, -4
 219 0002 8EB0     		sub	sp, sp, #56
 220              		.cfi_def_cfa_offset 64
 221 0004 00AF     		add	r7, sp, #0
 222              		.cfi_def_cfa_register 7
 223 0006 F860     		str	r0, [r7, #12]
 224 0008 B960     		str	r1, [r7, #8]
 225 000a 7A60     		str	r2, [r7, #4]
  96:.\Generated_Source\PSoC5/SDSPI_api.c **** 	SPI_FUNCTIONS SpiFuncs;
  97:.\Generated_Source\PSoC5/SDSPI_api.c **** 	SpiFuncs.SPSTART = SDSPI_StartInterface;
 226              		.loc 1 97 0
 227 000c 0D4B     		ldr	r3, .L11
 228 000e 3B62     		str	r3, [r7, #32]
  98:.\Generated_Source\PSoC5/SDSPI_api.c **** 	SpiFuncs.SPSTOP = SDSPI_Stop;
 229              		.loc 1 98 0
 230 0010 0D4B     		ldr	r3, .L11+4
 231 0012 7B62     		str	r3, [r7, #36]
  99:.\Generated_Source\PSoC5/SDSPI_api.c **** 	SpiFuncs.SPRXSTREAM = SDSPI_ReceiveData;
 232              		.loc 1 99 0
 233 0014 0D4B     		ldr	r3, .L11+8
 234 0016 FB62     		str	r3, [r7, #44]
 100:.\Generated_Source\PSoC5/SDSPI_api.c **** 	SpiFuncs.SPTXSTREAM = SDSPI_SendData;
 235              		.loc 1 100 0
 236 0018 0D4B     		ldr	r3, .L11+12
 237 001a 3B63     		str	r3, [r7, #48]
 101:.\Generated_Source\PSoC5/SDSPI_api.c **** 	SpiFuncs.SPEXCHANGE = SDSPI_SwapByte;
 238              		.loc 1 101 0
 239 001c 0D4B     		ldr	r3, .L11+16
 240 001e BB62     		str	r3, [r7, #40]
 102:.\Generated_Source\PSoC5/SDSPI_api.c **** 	SpiFuncs.SPSELECTCARD = SDSPI_SelectCard;
ARM GAS  C:\Users\honet\AppData\Local\Temp\ccjVTVVZ.s 			page 7


 241              		.loc 1 102 0
 242 0020 0D4B     		ldr	r3, .L11+20
 243 0022 3B61     		str	r3, [r7, #16]
 103:.\Generated_Source\PSoC5/SDSPI_api.c **** 	SpiFuncs.SPDESELECTCARD = SDSPI_DeselectCard;
 244              		.loc 1 103 0
 245 0024 0D4B     		ldr	r3, .L11+24
 246 0026 7B61     		str	r3, [r7, #20]
 104:.\Generated_Source\PSoC5/SDSPI_api.c **** 	SpiFuncs.SPFASTCK = FnSelFastCk;
 247              		.loc 1 104 0
 248 0028 BB68     		ldr	r3, [r7, #8]
 249 002a FB61     		str	r3, [r7, #28]
 105:.\Generated_Source\PSoC5/SDSPI_api.c **** 	SpiFuncs.SPSLOWCK = FnSelSlowCk;
 250              		.loc 1 105 0
 251 002c FB68     		ldr	r3, [r7, #12]
 252 002e BB61     		str	r3, [r7, #24]
 106:.\Generated_Source\PSoC5/SDSPI_api.c **** 
 107:.\Generated_Source\PSoC5/SDSPI_api.c **** 	SpiFuncs.PRINT = FnPrint;
 253              		.loc 1 107 0
 254 0030 7B68     		ldr	r3, [r7, #4]
 255 0032 7B63     		str	r3, [r7, #52]
 108:.\Generated_Source\PSoC5/SDSPI_api.c **** 	disk_attach_spifuncs(&SpiFuncs);
 256              		.loc 1 108 0
 257 0034 07F11003 		add	r3, r7, #16
 258 0038 1846     		mov	r0, r3
 259 003a FFF7FEFF 		bl	disk_attach_spifuncs
 109:.\Generated_Source\PSoC5/SDSPI_api.c **** }
 260              		.loc 1 109 0
 261 003e 3837     		adds	r7, r7, #56
 262              		.cfi_def_cfa_offset 8
 263 0040 BD46     		mov	sp, r7
 264              		.cfi_def_cfa_register 13
 265              		@ sp needed
 266 0042 80BD     		pop	{r7, pc}
 267              	.L12:
 268              		.align	2
 269              	.L11:
 270 0044 00000000 		.word	SDSPI_StartInterface
 271 0048 00000000 		.word	SDSPI_Stop
 272 004c 00000000 		.word	SDSPI_ReceiveData
 273 0050 00000000 		.word	SDSPI_SendData
 274 0054 00000000 		.word	SDSPI_SwapByte
 275 0058 00000000 		.word	SDSPI_SelectCard
 276 005c 00000000 		.word	SDSPI_DeselectCard
 277              		.cfi_endproc
 278              	.LFE3:
 279              		.size	SDSPI_Start, .-SDSPI_Start
 280              		.section	.text.SDSPI_StartInterface,"ax",%progbits
 281              		.align	2
 282              		.global	SDSPI_StartInterface
 283              		.thumb
 284              		.thumb_func
 285              		.type	SDSPI_StartInterface, %function
 286              	SDSPI_StartInterface:
 287              	.LFB4:
 110:.\Generated_Source\PSoC5/SDSPI_api.c **** 
 111:.\Generated_Source\PSoC5/SDSPI_api.c **** 
 112:.\Generated_Source\PSoC5/SDSPI_api.c **** //initialize component, attach ISRs, etc.
ARM GAS  C:\Users\honet\AppData\Local\Temp\ccjVTVVZ.s 			page 8


 113:.\Generated_Source\PSoC5/SDSPI_api.c **** void SDSPI_StartInterface(void)
 114:.\Generated_Source\PSoC5/SDSPI_api.c **** {
 288              		.loc 1 114 0
 289              		.cfi_startproc
 290              		@ args = 0, pretend = 0, frame = 0
 291              		@ frame_needed = 1, uses_anonymous_args = 0
 292 0000 80B5     		push	{r7, lr}
 293              		.cfi_def_cfa_offset 8
 294              		.cfi_offset 7, -8
 295              		.cfi_offset 14, -4
 296 0002 00AF     		add	r7, sp, #0
 297              		.cfi_def_cfa_register 7
 115:.\Generated_Source\PSoC5/SDSPI_api.c **** 	g_nTransferFlags = 0;
 298              		.loc 1 115 0
 299 0004 044B     		ldr	r3, .L14
 300 0006 0022     		movs	r2, #0
 301 0008 1A70     		strb	r2, [r3]
 116:.\Generated_Source\PSoC5/SDSPI_api.c **** 	
 117:.\Generated_Source\PSoC5/SDSPI_api.c **** 	SDSPI_SPIMaster_Start();
 302              		.loc 1 117 0
 303 000a FFF7FEFF 		bl	SDSPI_SPIMaster_Start
 118:.\Generated_Source\PSoC5/SDSPI_api.c **** 
 119:.\Generated_Source\PSoC5/SDSPI_api.c **** 	SDSPI_SetDMAMode(0);
 304              		.loc 1 119 0
 305 000e 0020     		movs	r0, #0
 306 0010 FFF7FEFF 		bl	SDSPI_SetDMAMode
 120:.\Generated_Source\PSoC5/SDSPI_api.c **** }
 307              		.loc 1 120 0
 308 0014 80BD     		pop	{r7, pc}
 309              	.L15:
 310 0016 00BF     		.align	2
 311              	.L14:
 312 0018 00000000 		.word	g_nTransferFlags
 313              		.cfi_endproc
 314              	.LFE4:
 315              		.size	SDSPI_StartInterface, .-SDSPI_StartInterface
 316              		.section	.text.SDSPI_Stop,"ax",%progbits
 317              		.align	2
 318              		.global	SDSPI_Stop
 319              		.thumb
 320              		.thumb_func
 321              		.type	SDSPI_Stop, %function
 322              	SDSPI_Stop:
 323              	.LFB5:
 121:.\Generated_Source\PSoC5/SDSPI_api.c **** 
 122:.\Generated_Source\PSoC5/SDSPI_api.c **** 
 123:.\Generated_Source\PSoC5/SDSPI_api.c **** void SDSPI_Stop()
 124:.\Generated_Source\PSoC5/SDSPI_api.c **** {
 324              		.loc 1 124 0
 325              		.cfi_startproc
 326              		@ args = 0, pretend = 0, frame = 0
 327              		@ frame_needed = 1, uses_anonymous_args = 0
 328 0000 80B5     		push	{r7, lr}
 329              		.cfi_def_cfa_offset 8
 330              		.cfi_offset 7, -8
 331              		.cfi_offset 14, -4
 332 0002 00AF     		add	r7, sp, #0
ARM GAS  C:\Users\honet\AppData\Local\Temp\ccjVTVVZ.s 			page 9


 333              		.cfi_def_cfa_register 7
 125:.\Generated_Source\PSoC5/SDSPI_api.c **** 	if(bEnableDMA) {
 334              		.loc 1 125 0
 335 0004 064B     		ldr	r3, .L18
 336 0006 1B78     		ldrb	r3, [r3]	@ zero_extendqisi2
 337 0008 002B     		cmp	r3, #0
 338 000a 04D0     		beq	.L17
 126:.\Generated_Source\PSoC5/SDSPI_api.c **** 		dma_shutdown();
 339              		.loc 1 126 0
 340 000c FFF7FEFF 		bl	dma_shutdown
 127:.\Generated_Source\PSoC5/SDSPI_api.c **** 		bEnableDMA = 0;
 341              		.loc 1 127 0
 342 0010 034B     		ldr	r3, .L18
 343 0012 0022     		movs	r2, #0
 344 0014 1A70     		strb	r2, [r3]
 345              	.L17:
 128:.\Generated_Source\PSoC5/SDSPI_api.c **** 	}
 129:.\Generated_Source\PSoC5/SDSPI_api.c **** 
 130:.\Generated_Source\PSoC5/SDSPI_api.c **** 	SDSPI_DeselectCard();
 346              		.loc 1 130 0
 347 0016 FFF7FEFF 		bl	SDSPI_DeselectCard
 131:.\Generated_Source\PSoC5/SDSPI_api.c **** 	SDSPI_SPIMaster_Stop();
 348              		.loc 1 131 0
 349 001a FFF7FEFF 		bl	SDSPI_SPIMaster_Stop
 132:.\Generated_Source\PSoC5/SDSPI_api.c **** }
 350              		.loc 1 132 0
 351 001e 80BD     		pop	{r7, pc}
 352              	.L19:
 353              		.align	2
 354              	.L18:
 355 0020 02000000 		.word	bEnableDMA
 356              		.cfi_endproc
 357              	.LFE5:
 358              		.size	SDSPI_Stop, .-SDSPI_Stop
 359              		.section	.text.SDSPI_SelectCard,"ax",%progbits
 360              		.align	2
 361              		.global	SDSPI_SelectCard
 362              		.thumb
 363              		.thumb_func
 364              		.type	SDSPI_SelectCard, %function
 365              	SDSPI_SelectCard:
 366              	.LFB6:
 133:.\Generated_Source\PSoC5/SDSPI_api.c **** 
 134:.\Generated_Source\PSoC5/SDSPI_api.c **** void SDSPI_SelectCard() {
 367              		.loc 1 134 0
 368              		.cfi_startproc
 369              		@ args = 0, pretend = 0, frame = 0
 370              		@ frame_needed = 1, uses_anonymous_args = 0
 371 0000 80B5     		push	{r7, lr}
 372              		.cfi_def_cfa_offset 8
 373              		.cfi_offset 7, -8
 374              		.cfi_offset 14, -4
 375 0002 00AF     		add	r7, sp, #0
 376              		.cfi_def_cfa_register 7
 135:.\Generated_Source\PSoC5/SDSPI_api.c **** 	SDSPI_CSControl_Write(0);
 377              		.loc 1 135 0
 378 0004 0020     		movs	r0, #0
ARM GAS  C:\Users\honet\AppData\Local\Temp\ccjVTVVZ.s 			page 10


 379 0006 FFF7FEFF 		bl	SDSPI_CSControl_Write
 136:.\Generated_Source\PSoC5/SDSPI_api.c **** }
 380              		.loc 1 136 0
 381 000a 80BD     		pop	{r7, pc}
 382              		.cfi_endproc
 383              	.LFE6:
 384              		.size	SDSPI_SelectCard, .-SDSPI_SelectCard
 385              		.section	.text.SDSPI_DeselectCard,"ax",%progbits
 386              		.align	2
 387              		.global	SDSPI_DeselectCard
 388              		.thumb
 389              		.thumb_func
 390              		.type	SDSPI_DeselectCard, %function
 391              	SDSPI_DeselectCard:
 392              	.LFB7:
 137:.\Generated_Source\PSoC5/SDSPI_api.c **** 
 138:.\Generated_Source\PSoC5/SDSPI_api.c **** void SDSPI_DeselectCard() {
 393              		.loc 1 138 0
 394              		.cfi_startproc
 395              		@ args = 0, pretend = 0, frame = 0
 396              		@ frame_needed = 1, uses_anonymous_args = 0
 397 0000 80B5     		push	{r7, lr}
 398              		.cfi_def_cfa_offset 8
 399              		.cfi_offset 7, -8
 400              		.cfi_offset 14, -4
 401 0002 00AF     		add	r7, sp, #0
 402              		.cfi_def_cfa_register 7
 139:.\Generated_Source\PSoC5/SDSPI_api.c **** 	SDSPI_CSControl_Write(1);
 403              		.loc 1 139 0
 404 0004 0120     		movs	r0, #1
 405 0006 FFF7FEFF 		bl	SDSPI_CSControl_Write
 140:.\Generated_Source\PSoC5/SDSPI_api.c **** }
 406              		.loc 1 140 0
 407 000a 80BD     		pop	{r7, pc}
 408              		.cfi_endproc
 409              	.LFE7:
 410              		.size	SDSPI_DeselectCard, .-SDSPI_DeselectCard
 411              		.section	.text.SDSPI_SendData,"ax",%progbits
 412              		.align	2
 413              		.global	SDSPI_SendData
 414              		.thumb
 415              		.thumb_func
 416              		.type	SDSPI_SendData, %function
 417              	SDSPI_SendData:
 418              	.LFB8:
 141:.\Generated_Source\PSoC5/SDSPI_api.c **** 
 142:.\Generated_Source\PSoC5/SDSPI_api.c **** //Send a block of data and discard received bytes.
 143:.\Generated_Source\PSoC5/SDSPI_api.c **** void SDSPI_SendData(const uint8_t* pBuffer, uint32_t nLength)
 144:.\Generated_Source\PSoC5/SDSPI_api.c **** {
 419              		.loc 1 144 0
 420              		.cfi_startproc
 421              		@ args = 0, pretend = 0, frame = 16
 422              		@ frame_needed = 1, uses_anonymous_args = 0
 423 0000 80B5     		push	{r7, lr}
 424              		.cfi_def_cfa_offset 8
 425              		.cfi_offset 7, -8
 426              		.cfi_offset 14, -4
ARM GAS  C:\Users\honet\AppData\Local\Temp\ccjVTVVZ.s 			page 11


 427 0002 84B0     		sub	sp, sp, #16
 428              		.cfi_def_cfa_offset 24
 429 0004 00AF     		add	r7, sp, #0
 430              		.cfi_def_cfa_register 7
 431 0006 7860     		str	r0, [r7, #4]
 432 0008 3960     		str	r1, [r7]
 145:.\Generated_Source\PSoC5/SDSPI_api.c **** 	if((nLength > 4095)||(nLength < 1)){
 433              		.loc 1 145 0
 434 000a 3B68     		ldr	r3, [r7]
 435 000c B3F5805F 		cmp	r3, #4096
 436 0010 02D2     		bcs	.L23
 437              		.loc 1 145 0 is_stmt 0 discriminator 1
 438 0012 3B68     		ldr	r3, [r7]
 439 0014 002B     		cmp	r3, #0
 440 0016 00D1     		bne	.L24
 441              	.L23:
 146:.\Generated_Source\PSoC5/SDSPI_api.c **** 		return; //this never happens - filesys transfers max. 512 bytes at a time
 442              		.loc 1 146 0 is_stmt 1
 443 0018 85E0     		b	.L22
 444              	.L24:
 147:.\Generated_Source\PSoC5/SDSPI_api.c **** 	}
 148:.\Generated_Source\PSoC5/SDSPI_api.c **** 
 149:.\Generated_Source\PSoC5/SDSPI_api.c **** 	if(bEnableDMA) {
 445              		.loc 1 149 0
 446 001a 444B     		ldr	r3, .L30
 447 001c 1B78     		ldrb	r3, [r3]	@ zero_extendqisi2
 448 001e 002B     		cmp	r3, #0
 449 0020 70D0     		beq	.L26
 150:.\Generated_Source\PSoC5/SDSPI_api.c **** 		// 送信DMA TD設定
 151:.\Generated_Source\PSoC5/SDSPI_api.c **** 		//  - single TD
 152:.\Generated_Source\PSoC5/SDSPI_api.c **** 		//  - pBuffer(アドレス自動加算) => SPI_TXDATA
 153:.\Generated_Source\PSoC5/SDSPI_api.c **** 		CyDmaTdSetConfiguration(TXDMA_TD[0], nLength, CY_DMA_DISABLE_TD, SDSPI_TX__TD_TERMOUT_EN | TD_INC
 450              		.loc 1 153 0
 451 0022 434B     		ldr	r3, .L30+4
 452 0024 1A78     		ldrb	r2, [r3]	@ zero_extendqisi2
 453 0026 3B68     		ldr	r3, [r7]
 454 0028 9BB2     		uxth	r3, r3
 455 002a 1046     		mov	r0, r2
 456 002c 1946     		mov	r1, r3
 457 002e FE22     		movs	r2, #254
 458 0030 0523     		movs	r3, #5
 459 0032 FFF7FEFF 		bl	CyDmaTdSetConfiguration
 154:.\Generated_Source\PSoC5/SDSPI_api.c **** 		CyDmaTdSetAddress(TXDMA_TD[0], LO16((uint32)pBuffer), LO16((uint32)SDSPI_SPIMaster_TXDATA_PTR));
 460              		.loc 1 154 0
 461 0036 3E4B     		ldr	r3, .L30+4
 462 0038 1A78     		ldrb	r2, [r3]	@ zero_extendqisi2
 463 003a 7B68     		ldr	r3, [r7, #4]
 464 003c 9BB2     		uxth	r3, r3
 465 003e 1046     		mov	r0, r2
 466 0040 1946     		mov	r1, r3
 467 0042 46F24E42 		movw	r2, #25678
 468 0046 FFF7FEFF 		bl	CyDmaTdSetAddress
 155:.\Generated_Source\PSoC5/SDSPI_api.c **** 		CyDmaChSetInitialTd(TXDMA_Channel, TXDMA_TD[0]);
 469              		.loc 1 155 0
 470 004a 3A4B     		ldr	r3, .L30+8
 471 004c 1A78     		ldrb	r2, [r3]	@ zero_extendqisi2
 472 004e 384B     		ldr	r3, .L30+4
ARM GAS  C:\Users\honet\AppData\Local\Temp\ccjVTVVZ.s 			page 12


 473 0050 1B78     		ldrb	r3, [r3]	@ zero_extendqisi2
 474 0052 1046     		mov	r0, r2
 475 0054 1946     		mov	r1, r3
 476 0056 FFF7FEFF 		bl	CyDmaChSetInitialTd
 156:.\Generated_Source\PSoC5/SDSPI_api.c **** 		
 157:.\Generated_Source\PSoC5/SDSPI_api.c **** 		// 受信DMA TD設定(ダミーリード)
 158:.\Generated_Source\PSoC5/SDSPI_api.c **** 		//  - single TD
 159:.\Generated_Source\PSoC5/SDSPI_api.c **** 		//  - SPI_RXDATA => dummy_data(アドレス加算無し)
 160:.\Generated_Source\PSoC5/SDSPI_api.c **** 		CyDmaTdSetConfiguration(RXDMA_TD[0], nLength, CY_DMA_DISABLE_TD, SDSPI_RX__TD_TERMOUT_EN);
 477              		.loc 1 160 0
 478 005a 374B     		ldr	r3, .L30+12
 479 005c 1A78     		ldrb	r2, [r3]	@ zero_extendqisi2
 480 005e 3B68     		ldr	r3, [r7]
 481 0060 9BB2     		uxth	r3, r3
 482 0062 1046     		mov	r0, r2
 483 0064 1946     		mov	r1, r3
 484 0066 FE22     		movs	r2, #254
 485 0068 0423     		movs	r3, #4
 486 006a FFF7FEFF 		bl	CyDmaTdSetConfiguration
 161:.\Generated_Source\PSoC5/SDSPI_api.c **** 		CyDmaTdSetAddress(RXDMA_TD[0], LO16((uint32)SDSPI_SPIMaster_RXDATA_PTR), LO16((uint32)(&dummy_dat
 487              		.loc 1 161 0
 488 006e 324B     		ldr	r3, .L30+12
 489 0070 1A78     		ldrb	r2, [r3]	@ zero_extendqisi2
 490 0072 324B     		ldr	r3, .L30+16
 491 0074 9BB2     		uxth	r3, r3
 492 0076 1046     		mov	r0, r2
 493 0078 46F25E41 		movw	r1, #25694
 494 007c 1A46     		mov	r2, r3
 495 007e FFF7FEFF 		bl	CyDmaTdSetAddress
 162:.\Generated_Source\PSoC5/SDSPI_api.c **** 		CyDmaChSetInitialTd(RXDMA_Channel, RXDMA_TD[0]);
 496              		.loc 1 162 0
 497 0082 2F4B     		ldr	r3, .L30+20
 498 0084 1A78     		ldrb	r2, [r3]	@ zero_extendqisi2
 499 0086 2C4B     		ldr	r3, .L30+12
 500 0088 1B78     		ldrb	r3, [r3]	@ zero_extendqisi2
 501 008a 1046     		mov	r0, r2
 502 008c 1946     		mov	r1, r3
 503 008e FFF7FEFF 		bl	CyDmaChSetInitialTd
 163:.\Generated_Source\PSoC5/SDSPI_api.c **** 
 164:.\Generated_Source\PSoC5/SDSPI_api.c **** 		//SDSPI_RX_DMA_IRQ_ClearPending();
 165:.\Generated_Source\PSoC5/SDSPI_api.c **** 		//SDSPI_TX_DMA_IRQ_ClearPending();
 166:.\Generated_Source\PSoC5/SDSPI_api.c **** 		CyDmaClearPendingDrq(TXDMA_Channel);
 504              		.loc 1 166 0
 505 0092 284B     		ldr	r3, .L30+8
 506 0094 1B78     		ldrb	r3, [r3]	@ zero_extendqisi2
 507 0096 1846     		mov	r0, r3
 508 0098 FFF7FEFF 		bl	CyDmaClearPendingDrq
 167:.\Generated_Source\PSoC5/SDSPI_api.c **** 		CyDmaClearPendingDrq(RXDMA_Channel);
 509              		.loc 1 167 0
 510 009c 284B     		ldr	r3, .L30+20
 511 009e 1B78     		ldrb	r3, [r3]	@ zero_extendqisi2
 512 00a0 1846     		mov	r0, r3
 513 00a2 FFF7FEFF 		bl	CyDmaClearPendingDrq
 168:.\Generated_Source\PSoC5/SDSPI_api.c **** 		//SDSPI_SPIMaster_ClearFIFO();
 169:.\Generated_Source\PSoC5/SDSPI_api.c **** 		
 170:.\Generated_Source\PSoC5/SDSPI_api.c **** 		//g_nTransferFlags |= TRANSFER_WAIT_TXDMAISR;   //set flag
 171:.\Generated_Source\PSoC5/SDSPI_api.c **** 		g_nTransferFlags |= TRANSFER_WAIT_RXDMAISR;   //Set flag
ARM GAS  C:\Users\honet\AppData\Local\Temp\ccjVTVVZ.s 			page 13


 514              		.loc 1 171 0
 515 00a6 274B     		ldr	r3, .L30+24
 516 00a8 1B78     		ldrb	r3, [r3]
 517 00aa DBB2     		uxtb	r3, r3
 518 00ac 43F00203 		orr	r3, r3, #2
 519 00b0 DAB2     		uxtb	r2, r3
 520 00b2 244B     		ldr	r3, .L30+24
 521 00b4 1A70     		strb	r2, [r3]
 172:.\Generated_Source\PSoC5/SDSPI_api.c **** 		
 173:.\Generated_Source\PSoC5/SDSPI_api.c **** 		CyDmaChEnable(RXDMA_Channel, 1);
 522              		.loc 1 173 0
 523 00b6 224B     		ldr	r3, .L30+20
 524 00b8 1B78     		ldrb	r3, [r3]	@ zero_extendqisi2
 525 00ba 1846     		mov	r0, r3
 526 00bc 0121     		movs	r1, #1
 527 00be FFF7FEFF 		bl	CyDmaChEnable
 174:.\Generated_Source\PSoC5/SDSPI_api.c **** 		CyDmaChEnable(TXDMA_Channel, 1);
 528              		.loc 1 174 0
 529 00c2 1C4B     		ldr	r3, .L30+8
 530 00c4 1B78     		ldrb	r3, [r3]	@ zero_extendqisi2
 531 00c6 1846     		mov	r0, r3
 532 00c8 0121     		movs	r1, #1
 533 00ca FFF7FEFF 		bl	CyDmaChEnable
 175:.\Generated_Source\PSoC5/SDSPI_api.c **** 		
 176:.\Generated_Source\PSoC5/SDSPI_api.c **** 		CyDmaChSetRequest(TXDMA_Channel, CPU_REQ);  //trigger transfer
 534              		.loc 1 176 0
 535 00ce 194B     		ldr	r3, .L30+8
 536 00d0 1B78     		ldrb	r3, [r3]	@ zero_extendqisi2
 537 00d2 1846     		mov	r0, r3
 538 00d4 0121     		movs	r1, #1
 539 00d6 FFF7FEFF 		bl	CyDmaChSetRequest
 177:.\Generated_Source\PSoC5/SDSPI_api.c **** 
 178:.\Generated_Source\PSoC5/SDSPI_api.c **** 		// wait for transfer
 179:.\Generated_Source\PSoC5/SDSPI_api.c **** 		while(g_nTransferFlags & TRANSFER_WAIT_RXDMAISR);
 540              		.loc 1 179 0
 541 00da 00BF     		nop
 542              	.L27:
 543              		.loc 1 179 0 is_stmt 0 discriminator 1
 544 00dc 194B     		ldr	r3, .L30+24
 545 00de 1B78     		ldrb	r3, [r3]
 546 00e0 DBB2     		uxtb	r3, r3
 547 00e2 03F00203 		and	r3, r3, #2
 548 00e6 002B     		cmp	r3, #0
 549 00e8 F8D1     		bne	.L27
 180:.\Generated_Source\PSoC5/SDSPI_api.c **** 
 181:.\Generated_Source\PSoC5/SDSPI_api.c **** 		//// stop DMA.
 182:.\Generated_Source\PSoC5/SDSPI_api.c **** 		CyDmaChSetRequest(TXDMA_Channel, CPU_TERM_CHAIN);
 550              		.loc 1 182 0 is_stmt 1
 551 00ea 124B     		ldr	r3, .L30+8
 552 00ec 1B78     		ldrb	r3, [r3]	@ zero_extendqisi2
 553 00ee 1846     		mov	r0, r3
 554 00f0 0421     		movs	r1, #4
 555 00f2 FFF7FEFF 		bl	CyDmaChSetRequest
 183:.\Generated_Source\PSoC5/SDSPI_api.c **** 		CyDmaChSetRequest(RXDMA_Channel, CPU_TERM_CHAIN);
 556              		.loc 1 183 0
 557 00f6 124B     		ldr	r3, .L30+20
 558 00f8 1B78     		ldrb	r3, [r3]	@ zero_extendqisi2
ARM GAS  C:\Users\honet\AppData\Local\Temp\ccjVTVVZ.s 			page 14


 559 00fa 1846     		mov	r0, r3
 560 00fc 0421     		movs	r1, #4
 561 00fe FFF7FEFF 		bl	CyDmaChSetRequest
 184:.\Generated_Source\PSoC5/SDSPI_api.c **** 		return;
 562              		.loc 1 184 0
 563 0102 10E0     		b	.L22
 564              	.L26:
 565              	.LBB2:
 185:.\Generated_Source\PSoC5/SDSPI_api.c **** 	}else{
 186:.\Generated_Source\PSoC5/SDSPI_api.c **** 		//Slow (non DMA) implementation...
 187:.\Generated_Source\PSoC5/SDSPI_api.c **** 		unsigned int i;
 188:.\Generated_Source\PSoC5/SDSPI_api.c **** 		for(i = 0; i < nLength; i++){
 566              		.loc 1 188 0
 567 0104 0023     		movs	r3, #0
 568 0106 FB60     		str	r3, [r7, #12]
 569 0108 09E0     		b	.L28
 570              	.L29:
 189:.\Generated_Source\PSoC5/SDSPI_api.c **** 			SDSPI_SwapByte(pBuffer[i]);
 571              		.loc 1 189 0 discriminator 3
 572 010a 7A68     		ldr	r2, [r7, #4]
 573 010c FB68     		ldr	r3, [r7, #12]
 574 010e 1344     		add	r3, r3, r2
 575 0110 1B78     		ldrb	r3, [r3]	@ zero_extendqisi2
 576 0112 1846     		mov	r0, r3
 577 0114 FFF7FEFF 		bl	SDSPI_SwapByte
 188:.\Generated_Source\PSoC5/SDSPI_api.c **** 			SDSPI_SwapByte(pBuffer[i]);
 578              		.loc 1 188 0 discriminator 3
 579 0118 FB68     		ldr	r3, [r7, #12]
 580 011a 0133     		adds	r3, r3, #1
 581 011c FB60     		str	r3, [r7, #12]
 582              	.L28:
 188:.\Generated_Source\PSoC5/SDSPI_api.c **** 			SDSPI_SwapByte(pBuffer[i]);
 583              		.loc 1 188 0 is_stmt 0 discriminator 1
 584 011e FA68     		ldr	r2, [r7, #12]
 585 0120 3B68     		ldr	r3, [r7]
 586 0122 9A42     		cmp	r2, r3
 587 0124 F1D3     		bcc	.L29
 588              	.L22:
 589              	.LBE2:
 190:.\Generated_Source\PSoC5/SDSPI_api.c **** 		}
 191:.\Generated_Source\PSoC5/SDSPI_api.c **** 	}
 192:.\Generated_Source\PSoC5/SDSPI_api.c **** }
 590              		.loc 1 192 0 is_stmt 1
 591 0126 1037     		adds	r7, r7, #16
 592              		.cfi_def_cfa_offset 8
 593 0128 BD46     		mov	sp, r7
 594              		.cfi_def_cfa_register 13
 595              		@ sp needed
 596 012a 80BD     		pop	{r7, pc}
 597              	.L31:
 598              		.align	2
 599              	.L30:
 600 012c 02000000 		.word	bEnableDMA
 601 0130 08000000 		.word	TXDMA_TD
 602 0134 05000000 		.word	TXDMA_Channel
 603 0138 04000000 		.word	RXDMA_TD
 604 013c 00000000 		.word	dummy_data
ARM GAS  C:\Users\honet\AppData\Local\Temp\ccjVTVVZ.s 			page 15


 605 0140 03000000 		.word	RXDMA_Channel
 606 0144 00000000 		.word	g_nTransferFlags
 607              		.cfi_endproc
 608              	.LFE8:
 609              		.size	SDSPI_SendData, .-SDSPI_SendData
 610              		.section	.text.SDSPI_ReceiveData,"ax",%progbits
 611              		.align	2
 612              		.global	SDSPI_ReceiveData
 613              		.thumb
 614              		.thumb_func
 615              		.type	SDSPI_ReceiveData, %function
 616              	SDSPI_ReceiveData:
 617              	.LFB9:
 193:.\Generated_Source\PSoC5/SDSPI_api.c **** 
 194:.\Generated_Source\PSoC5/SDSPI_api.c **** //Send a block of NULL data (default 0xFF) and place received bytes into buffer.
 195:.\Generated_Source\PSoC5/SDSPI_api.c **** void SDSPI_ReceiveData(uint8_t* pBuffer, uint32_t nLength)
 196:.\Generated_Source\PSoC5/SDSPI_api.c **** {
 618              		.loc 1 196 0
 619              		.cfi_startproc
 620              		@ args = 0, pretend = 0, frame = 16
 621              		@ frame_needed = 1, uses_anonymous_args = 0
 622 0000 90B5     		push	{r4, r7, lr}
 623              		.cfi_def_cfa_offset 12
 624              		.cfi_offset 4, -12
 625              		.cfi_offset 7, -8
 626              		.cfi_offset 14, -4
 627 0002 85B0     		sub	sp, sp, #20
 628              		.cfi_def_cfa_offset 32
 629 0004 00AF     		add	r7, sp, #0
 630              		.cfi_def_cfa_register 7
 631 0006 7860     		str	r0, [r7, #4]
 632 0008 3960     		str	r1, [r7]
 197:.\Generated_Source\PSoC5/SDSPI_api.c **** 	if((nLength > 4095)||(nLength < 1)){
 633              		.loc 1 197 0
 634 000a 3B68     		ldr	r3, [r7]
 635 000c B3F5805F 		cmp	r3, #4096
 636 0010 02D2     		bcs	.L33
 637              		.loc 1 197 0 is_stmt 0 discriminator 1
 638 0012 3B68     		ldr	r3, [r7]
 639 0014 002B     		cmp	r3, #0
 640 0016 00D1     		bne	.L34
 641              	.L33:
 198:.\Generated_Source\PSoC5/SDSPI_api.c **** 		return; //this never happens - filesys transfers max. 512 bytes at a time
 642              		.loc 1 198 0 is_stmt 1
 643 0018 89E0     		b	.L32
 644              	.L34:
 199:.\Generated_Source\PSoC5/SDSPI_api.c **** 	}
 200:.\Generated_Source\PSoC5/SDSPI_api.c **** 
 201:.\Generated_Source\PSoC5/SDSPI_api.c **** 	if(bEnableDMA) {
 645              		.loc 1 201 0
 646 001a 464B     		ldr	r3, .L40
 647 001c 1B78     		ldrb	r3, [r3]	@ zero_extendqisi2
 648 001e 002B     		cmp	r3, #0
 649 0020 73D0     		beq	.L36
 202:.\Generated_Source\PSoC5/SDSPI_api.c **** 		// 送信DMA TD設定(ダミーライト)
 203:.\Generated_Source\PSoC5/SDSPI_api.c **** 		//  - single TD
 204:.\Generated_Source\PSoC5/SDSPI_api.c **** 		//  - dummy_data(アドレス加算無し) => SPI_TXDATA
ARM GAS  C:\Users\honet\AppData\Local\Temp\ccjVTVVZ.s 			page 16


 205:.\Generated_Source\PSoC5/SDSPI_api.c **** 		CyDmaTdSetConfiguration(TXDMA_TD[0], nLength, CY_DMA_DISABLE_TD, SDSPI_TX__TD_TERMOUT_EN);
 650              		.loc 1 205 0
 651 0022 454B     		ldr	r3, .L40+4
 652 0024 1A78     		ldrb	r2, [r3]	@ zero_extendqisi2
 653 0026 3B68     		ldr	r3, [r7]
 654 0028 9BB2     		uxth	r3, r3
 655 002a 1046     		mov	r0, r2
 656 002c 1946     		mov	r1, r3
 657 002e FE22     		movs	r2, #254
 658 0030 0423     		movs	r3, #4
 659 0032 FFF7FEFF 		bl	CyDmaTdSetConfiguration
 206:.\Generated_Source\PSoC5/SDSPI_api.c **** 		CyDmaTdSetAddress(TXDMA_TD[0], LO16((uint32)(&dummy_data[0])), LO16((uint32)SDSPI_SPIMaster_TXDAT
 660              		.loc 1 206 0
 661 0036 404B     		ldr	r3, .L40+4
 662 0038 1A78     		ldrb	r2, [r3]	@ zero_extendqisi2
 663 003a 404B     		ldr	r3, .L40+8
 664 003c 9BB2     		uxth	r3, r3
 665 003e 1046     		mov	r0, r2
 666 0040 1946     		mov	r1, r3
 667 0042 46F24E42 		movw	r2, #25678
 668 0046 FFF7FEFF 		bl	CyDmaTdSetAddress
 207:.\Generated_Source\PSoC5/SDSPI_api.c **** 		CyDmaChSetInitialTd(TXDMA_Channel, TXDMA_TD[0]);
 669              		.loc 1 207 0
 670 004a 3D4B     		ldr	r3, .L40+12
 671 004c 1A78     		ldrb	r2, [r3]	@ zero_extendqisi2
 672 004e 3A4B     		ldr	r3, .L40+4
 673 0050 1B78     		ldrb	r3, [r3]	@ zero_extendqisi2
 674 0052 1046     		mov	r0, r2
 675 0054 1946     		mov	r1, r3
 676 0056 FFF7FEFF 		bl	CyDmaChSetInitialTd
 208:.\Generated_Source\PSoC5/SDSPI_api.c **** 		
 209:.\Generated_Source\PSoC5/SDSPI_api.c **** 		// 受信DMA TD設定
 210:.\Generated_Source\PSoC5/SDSPI_api.c **** 		//  - single TD
 211:.\Generated_Source\PSoC5/SDSPI_api.c **** 		//  - SPI_RXDATA => pBuffer(アドレス自動加算)
 212:.\Generated_Source\PSoC5/SDSPI_api.c **** 		CyDmaTdSetConfiguration(RXDMA_TD[0], nLength, CY_DMA_DISABLE_TD, SDSPI_RX__TD_TERMOUT_EN | TD_INC
 677              		.loc 1 212 0
 678 005a 3A4B     		ldr	r3, .L40+16
 679 005c 1A78     		ldrb	r2, [r3]	@ zero_extendqisi2
 680 005e 3B68     		ldr	r3, [r7]
 681 0060 9BB2     		uxth	r3, r3
 682 0062 1046     		mov	r0, r2
 683 0064 1946     		mov	r1, r3
 684 0066 FE22     		movs	r2, #254
 685 0068 0623     		movs	r3, #6
 686 006a FFF7FEFF 		bl	CyDmaTdSetConfiguration
 213:.\Generated_Source\PSoC5/SDSPI_api.c **** 		CyDmaTdSetAddress(RXDMA_TD[0], LO16((uint32)SDSPI_SPIMaster_RXDATA_PTR), LO16((uint32)pBuffer));
 687              		.loc 1 213 0
 688 006e 354B     		ldr	r3, .L40+16
 689 0070 1A78     		ldrb	r2, [r3]	@ zero_extendqisi2
 690 0072 7B68     		ldr	r3, [r7, #4]
 691 0074 9BB2     		uxth	r3, r3
 692 0076 1046     		mov	r0, r2
 693 0078 46F25E41 		movw	r1, #25694
 694 007c 1A46     		mov	r2, r3
 695 007e FFF7FEFF 		bl	CyDmaTdSetAddress
 214:.\Generated_Source\PSoC5/SDSPI_api.c **** 		CyDmaChSetInitialTd(RXDMA_Channel, RXDMA_TD[0]);
 696              		.loc 1 214 0
ARM GAS  C:\Users\honet\AppData\Local\Temp\ccjVTVVZ.s 			page 17


 697 0082 314B     		ldr	r3, .L40+20
 698 0084 1A78     		ldrb	r2, [r3]	@ zero_extendqisi2
 699 0086 2F4B     		ldr	r3, .L40+16
 700 0088 1B78     		ldrb	r3, [r3]	@ zero_extendqisi2
 701 008a 1046     		mov	r0, r2
 702 008c 1946     		mov	r1, r3
 703 008e FFF7FEFF 		bl	CyDmaChSetInitialTd
 215:.\Generated_Source\PSoC5/SDSPI_api.c **** 
 216:.\Generated_Source\PSoC5/SDSPI_api.c **** 		dummy_data[0] = 0xff;
 704              		.loc 1 216 0
 705 0092 2A4B     		ldr	r3, .L40+8
 706 0094 FF22     		movs	r2, #255
 707 0096 1A70     		strb	r2, [r3]
 217:.\Generated_Source\PSoC5/SDSPI_api.c **** 		g_nTransferFlags |= TRANSFER_WAIT_RXDMAISR;   //Set flag
 708              		.loc 1 217 0
 709 0098 2C4B     		ldr	r3, .L40+24
 710 009a 1B78     		ldrb	r3, [r3]
 711 009c DBB2     		uxtb	r3, r3
 712 009e 43F00203 		orr	r3, r3, #2
 713 00a2 DAB2     		uxtb	r2, r3
 714 00a4 294B     		ldr	r3, .L40+24
 715 00a6 1A70     		strb	r2, [r3]
 218:.\Generated_Source\PSoC5/SDSPI_api.c **** 		
 219:.\Generated_Source\PSoC5/SDSPI_api.c **** 		//SDSPI_RX_DMA_IRQ_ClearPending();
 220:.\Generated_Source\PSoC5/SDSPI_api.c **** 		//SDSPI_TX_DMA_IRQ_ClearPending();
 221:.\Generated_Source\PSoC5/SDSPI_api.c **** 		CyDmaClearPendingDrq(TXDMA_Channel);
 716              		.loc 1 221 0
 717 00a8 254B     		ldr	r3, .L40+12
 718 00aa 1B78     		ldrb	r3, [r3]	@ zero_extendqisi2
 719 00ac 1846     		mov	r0, r3
 720 00ae FFF7FEFF 		bl	CyDmaClearPendingDrq
 222:.\Generated_Source\PSoC5/SDSPI_api.c **** 		CyDmaClearPendingDrq(RXDMA_Channel);
 721              		.loc 1 222 0
 722 00b2 254B     		ldr	r3, .L40+20
 723 00b4 1B78     		ldrb	r3, [r3]	@ zero_extendqisi2
 724 00b6 1846     		mov	r0, r3
 725 00b8 FFF7FEFF 		bl	CyDmaClearPendingDrq
 223:.\Generated_Source\PSoC5/SDSPI_api.c **** 		//SDSPI_SPIMaster_ClearFIFO();
 224:.\Generated_Source\PSoC5/SDSPI_api.c **** 		
 225:.\Generated_Source\PSoC5/SDSPI_api.c **** 		CyDmaChEnable(RXDMA_Channel, 1);
 726              		.loc 1 225 0
 727 00bc 224B     		ldr	r3, .L40+20
 728 00be 1B78     		ldrb	r3, [r3]	@ zero_extendqisi2
 729 00c0 1846     		mov	r0, r3
 730 00c2 0121     		movs	r1, #1
 731 00c4 FFF7FEFF 		bl	CyDmaChEnable
 226:.\Generated_Source\PSoC5/SDSPI_api.c **** 		CyDmaChEnable(TXDMA_Channel, 1);
 732              		.loc 1 226 0
 733 00c8 1D4B     		ldr	r3, .L40+12
 734 00ca 1B78     		ldrb	r3, [r3]	@ zero_extendqisi2
 735 00cc 1846     		mov	r0, r3
 736 00ce 0121     		movs	r1, #1
 737 00d0 FFF7FEFF 		bl	CyDmaChEnable
 227:.\Generated_Source\PSoC5/SDSPI_api.c **** 
 228:.\Generated_Source\PSoC5/SDSPI_api.c **** 		CyDmaChSetRequest(TXDMA_Channel, CPU_REQ);  //trigger transfer
 738              		.loc 1 228 0
 739 00d4 1A4B     		ldr	r3, .L40+12
ARM GAS  C:\Users\honet\AppData\Local\Temp\ccjVTVVZ.s 			page 18


 740 00d6 1B78     		ldrb	r3, [r3]	@ zero_extendqisi2
 741 00d8 1846     		mov	r0, r3
 742 00da 0121     		movs	r1, #1
 743 00dc FFF7FEFF 		bl	CyDmaChSetRequest
 229:.\Generated_Source\PSoC5/SDSPI_api.c **** 
 230:.\Generated_Source\PSoC5/SDSPI_api.c **** 		//wait until done.
 231:.\Generated_Source\PSoC5/SDSPI_api.c **** 		while(g_nTransferFlags & TRANSFER_WAIT_RXDMAISR);
 744              		.loc 1 231 0
 745 00e0 00BF     		nop
 746              	.L37:
 747              		.loc 1 231 0 is_stmt 0 discriminator 1
 748 00e2 1A4B     		ldr	r3, .L40+24
 749 00e4 1B78     		ldrb	r3, [r3]
 750 00e6 DBB2     		uxtb	r3, r3
 751 00e8 03F00203 		and	r3, r3, #2
 752 00ec 002B     		cmp	r3, #0
 753 00ee F8D1     		bne	.L37
 232:.\Generated_Source\PSoC5/SDSPI_api.c **** 
 233:.\Generated_Source\PSoC5/SDSPI_api.c **** 		// stop DMA.
 234:.\Generated_Source\PSoC5/SDSPI_api.c **** 		CyDmaChSetRequest(TXDMA_Channel, CPU_TERM_CHAIN);
 754              		.loc 1 234 0 is_stmt 1
 755 00f0 134B     		ldr	r3, .L40+12
 756 00f2 1B78     		ldrb	r3, [r3]	@ zero_extendqisi2
 757 00f4 1846     		mov	r0, r3
 758 00f6 0421     		movs	r1, #4
 759 00f8 FFF7FEFF 		bl	CyDmaChSetRequest
 235:.\Generated_Source\PSoC5/SDSPI_api.c **** 		CyDmaChSetRequest(RXDMA_Channel, CPU_TERM_CHAIN);
 760              		.loc 1 235 0
 761 00fc 124B     		ldr	r3, .L40+20
 762 00fe 1B78     		ldrb	r3, [r3]	@ zero_extendqisi2
 763 0100 1846     		mov	r0, r3
 764 0102 0421     		movs	r1, #4
 765 0104 FFF7FEFF 		bl	CyDmaChSetRequest
 236:.\Generated_Source\PSoC5/SDSPI_api.c **** 		return;
 766              		.loc 1 236 0
 767 0108 11E0     		b	.L32
 768              	.L36:
 769              	.LBB3:
 237:.\Generated_Source\PSoC5/SDSPI_api.c **** 	} else {
 238:.\Generated_Source\PSoC5/SDSPI_api.c **** 		//Slow (non DMA) implementation...
 239:.\Generated_Source\PSoC5/SDSPI_api.c **** 		unsigned int i;
 240:.\Generated_Source\PSoC5/SDSPI_api.c **** 		for(i = 0; i < nLength; i++){
 770              		.loc 1 240 0
 771 010a 0023     		movs	r3, #0
 772 010c FB60     		str	r3, [r7, #12]
 773 010e 0AE0     		b	.L38
 774              	.L39:
 241:.\Generated_Source\PSoC5/SDSPI_api.c **** 			pBuffer[i] = SDSPI_SwapByte(0xFF);
 775              		.loc 1 241 0 discriminator 3
 776 0110 7A68     		ldr	r2, [r7, #4]
 777 0112 FB68     		ldr	r3, [r7, #12]
 778 0114 D418     		adds	r4, r2, r3
 779 0116 FF20     		movs	r0, #255
 780 0118 FFF7FEFF 		bl	SDSPI_SwapByte
 781 011c 0346     		mov	r3, r0
 782 011e 2370     		strb	r3, [r4]
 240:.\Generated_Source\PSoC5/SDSPI_api.c **** 			pBuffer[i] = SDSPI_SwapByte(0xFF);
ARM GAS  C:\Users\honet\AppData\Local\Temp\ccjVTVVZ.s 			page 19


 783              		.loc 1 240 0 discriminator 3
 784 0120 FB68     		ldr	r3, [r7, #12]
 785 0122 0133     		adds	r3, r3, #1
 786 0124 FB60     		str	r3, [r7, #12]
 787              	.L38:
 240:.\Generated_Source\PSoC5/SDSPI_api.c **** 			pBuffer[i] = SDSPI_SwapByte(0xFF);
 788              		.loc 1 240 0 is_stmt 0 discriminator 1
 789 0126 FA68     		ldr	r2, [r7, #12]
 790 0128 3B68     		ldr	r3, [r7]
 791 012a 9A42     		cmp	r2, r3
 792 012c F0D3     		bcc	.L39
 793              	.L32:
 794              	.LBE3:
 242:.\Generated_Source\PSoC5/SDSPI_api.c **** 		}
 243:.\Generated_Source\PSoC5/SDSPI_api.c **** 	}
 244:.\Generated_Source\PSoC5/SDSPI_api.c **** }
 795              		.loc 1 244 0 is_stmt 1
 796 012e 1437     		adds	r7, r7, #20
 797              		.cfi_def_cfa_offset 12
 798 0130 BD46     		mov	sp, r7
 799              		.cfi_def_cfa_register 13
 800              		@ sp needed
 801 0132 90BD     		pop	{r4, r7, pc}
 802              	.L41:
 803              		.align	2
 804              	.L40:
 805 0134 02000000 		.word	bEnableDMA
 806 0138 08000000 		.word	TXDMA_TD
 807 013c 00000000 		.word	dummy_data
 808 0140 05000000 		.word	TXDMA_Channel
 809 0144 04000000 		.word	RXDMA_TD
 810 0148 03000000 		.word	RXDMA_Channel
 811 014c 00000000 		.word	g_nTransferFlags
 812              		.cfi_endproc
 813              	.LFE9:
 814              		.size	SDSPI_ReceiveData, .-SDSPI_ReceiveData
 815              		.section	.text.SDSPI_SwapByte,"ax",%progbits
 816              		.align	2
 817              		.global	SDSPI_SwapByte
 818              		.thumb
 819              		.thumb_func
 820              		.type	SDSPI_SwapByte, %function
 821              	SDSPI_SwapByte:
 822              	.LFB10:
 245:.\Generated_Source\PSoC5/SDSPI_api.c **** 
 246:.\Generated_Source\PSoC5/SDSPI_api.c **** //Swap a single byte (send it, and receive RX byte / without DMA)
 247:.\Generated_Source\PSoC5/SDSPI_api.c **** uint8_t SDSPI_SwapByte(uint8_t data)
 248:.\Generated_Source\PSoC5/SDSPI_api.c **** {
 823              		.loc 1 248 0
 824              		.cfi_startproc
 825              		@ args = 0, pretend = 0, frame = 8
 826              		@ frame_needed = 1, uses_anonymous_args = 0
 827 0000 80B5     		push	{r7, lr}
 828              		.cfi_def_cfa_offset 8
 829              		.cfi_offset 7, -8
 830              		.cfi_offset 14, -4
 831 0002 82B0     		sub	sp, sp, #8
ARM GAS  C:\Users\honet\AppData\Local\Temp\ccjVTVVZ.s 			page 20


 832              		.cfi_def_cfa_offset 16
 833 0004 00AF     		add	r7, sp, #0
 834              		.cfi_def_cfa_register 7
 835 0006 0346     		mov	r3, r0
 836 0008 FB71     		strb	r3, [r7, #7]
 249:.\Generated_Source\PSoC5/SDSPI_api.c **** 	//write byte to TX
 250:.\Generated_Source\PSoC5/SDSPI_api.c **** 	SDSPI_SPIMaster_WriteTxData(data);
 837              		.loc 1 250 0
 838 000a FB79     		ldrb	r3, [r7, #7]	@ zero_extendqisi2
 839 000c 1846     		mov	r0, r3
 840 000e FFF7FEFF 		bl	SDSPI_SPIMaster_WriteTxData
 251:.\Generated_Source\PSoC5/SDSPI_api.c **** 	//wait for RX interrupt
 252:.\Generated_Source\PSoC5/SDSPI_api.c **** 	while(!(SDSPI_SPIMaster_ReadStatus() & SDSPI_SPIMaster_STS_BYTE_COMPLETE));
 841              		.loc 1 252 0
 842 0012 00BF     		nop
 843              	.L43:
 844              		.loc 1 252 0 is_stmt 0 discriminator 1
 845 0014 FFF7FEFF 		bl	SDSPI_SPIMaster_ReadStatus
 846 0018 0346     		mov	r3, r0
 847 001a 03F00803 		and	r3, r3, #8
 848 001e 002B     		cmp	r3, #0
 849 0020 F8D0     		beq	.L43
 253:.\Generated_Source\PSoC5/SDSPI_api.c **** 	//read byte from RX
 254:.\Generated_Source\PSoC5/SDSPI_api.c **** 	return SDSPI_SPIMaster_ReadRxData();
 850              		.loc 1 254 0 is_stmt 1
 851 0022 FFF7FEFF 		bl	SDSPI_SPIMaster_ReadRxData
 852 0026 0346     		mov	r3, r0
 255:.\Generated_Source\PSoC5/SDSPI_api.c **** }
 853              		.loc 1 255 0
 854 0028 1846     		mov	r0, r3
 855 002a 0837     		adds	r7, r7, #8
 856              		.cfi_def_cfa_offset 8
 857 002c BD46     		mov	sp, r7
 858              		.cfi_def_cfa_register 13
 859              		@ sp needed
 860 002e 80BD     		pop	{r7, pc}
 861              		.cfi_endproc
 862              	.LFE10:
 863              		.size	SDSPI_SwapByte, .-SDSPI_SwapByte
 864              		.section	.text.SDSPI_SetDMAMode,"ax",%progbits
 865              		.align	2
 866              		.global	SDSPI_SetDMAMode
 867              		.thumb
 868              		.thumb_func
 869              		.type	SDSPI_SetDMAMode, %function
 870              	SDSPI_SetDMAMode:
 871              	.LFB11:
 256:.\Generated_Source\PSoC5/SDSPI_api.c **** 
 257:.\Generated_Source\PSoC5/SDSPI_api.c **** void SDSPI_SetDMAMode(unsigned char enable)
 258:.\Generated_Source\PSoC5/SDSPI_api.c **** {
 872              		.loc 1 258 0
 873              		.cfi_startproc
 874              		@ args = 0, pretend = 0, frame = 8
 875              		@ frame_needed = 1, uses_anonymous_args = 0
 876 0000 80B5     		push	{r7, lr}
 877              		.cfi_def_cfa_offset 8
 878              		.cfi_offset 7, -8
ARM GAS  C:\Users\honet\AppData\Local\Temp\ccjVTVVZ.s 			page 21


 879              		.cfi_offset 14, -4
 880 0002 82B0     		sub	sp, sp, #8
 881              		.cfi_def_cfa_offset 16
 882 0004 00AF     		add	r7, sp, #0
 883              		.cfi_def_cfa_register 7
 884 0006 0346     		mov	r3, r0
 885 0008 FB71     		strb	r3, [r7, #7]
 259:.\Generated_Source\PSoC5/SDSPI_api.c **** 	while(g_nTransferFlags);   //make absolutely sure no transfers are in progress
 886              		.loc 1 259 0
 887 000a 00BF     		nop
 888              	.L46:
 889              		.loc 1 259 0 is_stmt 0 discriminator 1
 890 000c 0E4B     		ldr	r3, .L52
 891 000e 1B78     		ldrb	r3, [r3]
 892 0010 DBB2     		uxtb	r3, r3
 893 0012 002B     		cmp	r3, #0
 894 0014 FAD1     		bne	.L46
 260:.\Generated_Source\PSoC5/SDSPI_api.c **** 
 261:.\Generated_Source\PSoC5/SDSPI_api.c **** 	if(bEnableDMA == enable) return;
 895              		.loc 1 261 0 is_stmt 1
 896 0016 0D4B     		ldr	r3, .L52+4
 897 0018 1B78     		ldrb	r3, [r3]	@ zero_extendqisi2
 898 001a FA79     		ldrb	r2, [r7, #7]	@ zero_extendqisi2
 899 001c 9A42     		cmp	r2, r3
 900 001e 00D1     		bne	.L47
 901 0020 0EE0     		b	.L45
 902              	.L47:
 262:.\Generated_Source\PSoC5/SDSPI_api.c **** 
 263:.\Generated_Source\PSoC5/SDSPI_api.c **** 	if (enable) {
 903              		.loc 1 263 0
 904 0022 FB79     		ldrb	r3, [r7, #7]	@ zero_extendqisi2
 905 0024 002B     		cmp	r3, #0
 906 0026 06D0     		beq	.L49
 264:.\Generated_Source\PSoC5/SDSPI_api.c **** 		if (!bEnableDMA)
 907              		.loc 1 264 0
 908 0028 084B     		ldr	r3, .L52+4
 909 002a 1B78     		ldrb	r3, [r3]	@ zero_extendqisi2
 910 002c 002B     		cmp	r3, #0
 911 002e 04D1     		bne	.L51
 265:.\Generated_Source\PSoC5/SDSPI_api.c **** 			dma_setup();
 912              		.loc 1 265 0
 913 0030 FFF7FEFF 		bl	dma_setup
 914 0034 01E0     		b	.L51
 915              	.L49:
 266:.\Generated_Source\PSoC5/SDSPI_api.c **** 	} else {
 267:.\Generated_Source\PSoC5/SDSPI_api.c **** 		//if (bEnableDMA)
 268:.\Generated_Source\PSoC5/SDSPI_api.c **** 			dma_shutdown();
 916              		.loc 1 268 0
 917 0036 FFF7FEFF 		bl	dma_shutdown
 918              	.L51:
 269:.\Generated_Source\PSoC5/SDSPI_api.c **** 	}
 270:.\Generated_Source\PSoC5/SDSPI_api.c **** 	bEnableDMA = enable;
 919              		.loc 1 270 0
 920 003a 044A     		ldr	r2, .L52+4
 921 003c FB79     		ldrb	r3, [r7, #7]
 922 003e 1370     		strb	r3, [r2]
 923              	.L45:
ARM GAS  C:\Users\honet\AppData\Local\Temp\ccjVTVVZ.s 			page 22


 271:.\Generated_Source\PSoC5/SDSPI_api.c **** }
 924              		.loc 1 271 0
 925 0040 0837     		adds	r7, r7, #8
 926              		.cfi_def_cfa_offset 8
 927 0042 BD46     		mov	sp, r7
 928              		.cfi_def_cfa_register 13
 929              		@ sp needed
 930 0044 80BD     		pop	{r7, pc}
 931              	.L53:
 932 0046 00BF     		.align	2
 933              	.L52:
 934 0048 00000000 		.word	g_nTransferFlags
 935 004c 02000000 		.word	bEnableDMA
 936              		.cfi_endproc
 937              	.LFE11:
 938              		.size	SDSPI_SetDMAMode, .-SDSPI_SetDMAMode
 939              		.text
 940              	.Letext0:
 941              		.file 2 "c:\\program files (x86)\\cypress\\psoc creator\\3.3\\psoc creator\\import\\gnu\\arm\\4.9.
 942              		.file 3 "c:\\program files (x86)\\cypress\\psoc creator\\3.3\\psoc creator\\import\\gnu\\arm\\4.9.
 943              		.file 4 ".\\Generated_Source\\PSoC5\\SDSPI_api.h"
 944              		.file 5 ".\\Generated_Source\\PSoC5\\SDSPI_fatfs.h"
 945              		.file 6 ".\\Generated_Source\\PSoC5\\cytypes.h"