ARM GAS  C:\Users\honet\AppData\Local\Temp\cc4pbx3c.s 			page 1


   1              		.syntax unified
   2              		.cpu cortex-m3
   3              		.fpu softvfp
   4              		.eabi_attribute 20, 1
   5              		.eabi_attribute 21, 1
   6              		.eabi_attribute 23, 3
   7              		.eabi_attribute 24, 1
   8              		.eabi_attribute 25, 1
   9              		.eabi_attribute 26, 1
  10              		.eabi_attribute 30, 2
  11              		.eabi_attribute 34, 1
  12              		.eabi_attribute 18, 4
  13              		.thumb
  14              		.file	"cyfitter_cfg.c"
  15              		.text
  16              	.Ltext0:
  17              		.cfi_sections	.debug_frame
  18              		.section	.text.SetAnalogRoutingPumps,"ax",%progbits
  19              		.align	2
  20              		.global	SetAnalogRoutingPumps
  21              		.thumb
  22              		.thumb_func
  23              		.type	SetAnalogRoutingPumps, %function
  24              	SetAnalogRoutingPumps:
  25              	.LFB7:
  26              		.file 1 ".\\Generated_Source\\PSoC5\\cyfitter_cfg.c"
   1:.\Generated_Source\PSoC5/cyfitter_cfg.c **** /*******************************************************************************
   2:.\Generated_Source\PSoC5/cyfitter_cfg.c **** * File Name: cyfitter_cfg.c
   3:.\Generated_Source\PSoC5/cyfitter_cfg.c **** * 
   4:.\Generated_Source\PSoC5/cyfitter_cfg.c **** * PSoC Creator  3.3 CP3
   5:.\Generated_Source\PSoC5/cyfitter_cfg.c **** *
   6:.\Generated_Source\PSoC5/cyfitter_cfg.c **** * Description:
   7:.\Generated_Source\PSoC5/cyfitter_cfg.c **** * This file contains device initialization code.
   8:.\Generated_Source\PSoC5/cyfitter_cfg.c **** * Except for the user defined sections in CyClockStartupError(), this file should not be modified.
   9:.\Generated_Source\PSoC5/cyfitter_cfg.c **** * This file is automatically generated by PSoC Creator.
  10:.\Generated_Source\PSoC5/cyfitter_cfg.c **** *
  11:.\Generated_Source\PSoC5/cyfitter_cfg.c **** ********************************************************************************
  12:.\Generated_Source\PSoC5/cyfitter_cfg.c **** * Copyright (c) 2007-2016 Cypress Semiconductor.  All rights reserved.
  13:.\Generated_Source\PSoC5/cyfitter_cfg.c **** * You may use this file only in accordance with the license, terms, conditions, 
  14:.\Generated_Source\PSoC5/cyfitter_cfg.c **** * disclaimers, and limitations in the end user license agreement accompanying 
  15:.\Generated_Source\PSoC5/cyfitter_cfg.c **** * the software package with which this file was provided.
  16:.\Generated_Source\PSoC5/cyfitter_cfg.c **** ********************************************************************************/
  17:.\Generated_Source\PSoC5/cyfitter_cfg.c **** 
  18:.\Generated_Source\PSoC5/cyfitter_cfg.c **** #include <string.h>
  19:.\Generated_Source\PSoC5/cyfitter_cfg.c **** #include "cytypes.h"
  20:.\Generated_Source\PSoC5/cyfitter_cfg.c **** #include "cydevice_trm.h"
  21:.\Generated_Source\PSoC5/cyfitter_cfg.c **** #include "cyfitter.h"
  22:.\Generated_Source\PSoC5/cyfitter_cfg.c **** #include "CyLib.h"
  23:.\Generated_Source\PSoC5/cyfitter_cfg.c **** #include "cyfitter_cfg.h"
  24:.\Generated_Source\PSoC5/cyfitter_cfg.c **** 
  25:.\Generated_Source\PSoC5/cyfitter_cfg.c **** #define CY_NEED_CYCLOCKSTARTUPERROR 1
  26:.\Generated_Source\PSoC5/cyfitter_cfg.c **** 
  27:.\Generated_Source\PSoC5/cyfitter_cfg.c **** 
  28:.\Generated_Source\PSoC5/cyfitter_cfg.c **** #if defined(__GNUC__) || defined(__ARMCC_VERSION)
  29:.\Generated_Source\PSoC5/cyfitter_cfg.c ****     #define CYPACKED 
  30:.\Generated_Source\PSoC5/cyfitter_cfg.c ****     #define CYPACKED_ATTR __attribute__ ((packed))
  31:.\Generated_Source\PSoC5/cyfitter_cfg.c ****     #define CYALIGNED __attribute__ ((aligned))
ARM GAS  C:\Users\honet\AppData\Local\Temp\cc4pbx3c.s 			page 2


  32:.\Generated_Source\PSoC5/cyfitter_cfg.c ****     #define CY_CFG_UNUSED __attribute__ ((unused))
  33:.\Generated_Source\PSoC5/cyfitter_cfg.c ****     #ifndef CY_CFG_SECTION
  34:.\Generated_Source\PSoC5/cyfitter_cfg.c ****         #define CY_CFG_SECTION __attribute__ ((section(".psocinit")))
  35:.\Generated_Source\PSoC5/cyfitter_cfg.c ****     #endif
  36:.\Generated_Source\PSoC5/cyfitter_cfg.c ****     
  37:.\Generated_Source\PSoC5/cyfitter_cfg.c ****     #if defined(__ARMCC_VERSION)
  38:.\Generated_Source\PSoC5/cyfitter_cfg.c ****         #define CY_CFG_MEMORY_BARRIER() __memory_changed()
  39:.\Generated_Source\PSoC5/cyfitter_cfg.c ****     #else
  40:.\Generated_Source\PSoC5/cyfitter_cfg.c ****         #define CY_CFG_MEMORY_BARRIER() __sync_synchronize()
  41:.\Generated_Source\PSoC5/cyfitter_cfg.c ****     #endif
  42:.\Generated_Source\PSoC5/cyfitter_cfg.c ****     
  43:.\Generated_Source\PSoC5/cyfitter_cfg.c **** #elif defined(__ICCARM__)
  44:.\Generated_Source\PSoC5/cyfitter_cfg.c ****     #include <intrinsics.h>
  45:.\Generated_Source\PSoC5/cyfitter_cfg.c **** 
  46:.\Generated_Source\PSoC5/cyfitter_cfg.c ****     #define CYPACKED __packed
  47:.\Generated_Source\PSoC5/cyfitter_cfg.c ****     #define CYPACKED_ATTR 
  48:.\Generated_Source\PSoC5/cyfitter_cfg.c ****     #define CYALIGNED _Pragma("data_alignment=4")
  49:.\Generated_Source\PSoC5/cyfitter_cfg.c ****     #define CY_CFG_UNUSED _Pragma("diag_suppress=Pe177")
  50:.\Generated_Source\PSoC5/cyfitter_cfg.c ****     #define CY_CFG_SECTION _Pragma("location=\".psocinit\"")
  51:.\Generated_Source\PSoC5/cyfitter_cfg.c ****     
  52:.\Generated_Source\PSoC5/cyfitter_cfg.c ****     #define CY_CFG_MEMORY_BARRIER() __DMB()
  53:.\Generated_Source\PSoC5/cyfitter_cfg.c ****     
  54:.\Generated_Source\PSoC5/cyfitter_cfg.c **** #else
  55:.\Generated_Source\PSoC5/cyfitter_cfg.c ****     #error Unsupported toolchain
  56:.\Generated_Source\PSoC5/cyfitter_cfg.c **** #endif
  57:.\Generated_Source\PSoC5/cyfitter_cfg.c **** 
  58:.\Generated_Source\PSoC5/cyfitter_cfg.c **** 
  59:.\Generated_Source\PSoC5/cyfitter_cfg.c **** CY_CFG_UNUSED
  60:.\Generated_Source\PSoC5/cyfitter_cfg.c **** static void CYMEMZERO(void *s, size_t n);
  61:.\Generated_Source\PSoC5/cyfitter_cfg.c **** CY_CFG_UNUSED
  62:.\Generated_Source\PSoC5/cyfitter_cfg.c **** static void CYMEMZERO(void *s, size_t n)
  63:.\Generated_Source\PSoC5/cyfitter_cfg.c **** {
  64:.\Generated_Source\PSoC5/cyfitter_cfg.c **** 	(void)memset(s, 0, n);
  65:.\Generated_Source\PSoC5/cyfitter_cfg.c **** }
  66:.\Generated_Source\PSoC5/cyfitter_cfg.c **** CY_CFG_UNUSED
  67:.\Generated_Source\PSoC5/cyfitter_cfg.c **** static void CYCONFIGCPY(void *dest, const void *src, size_t n);
  68:.\Generated_Source\PSoC5/cyfitter_cfg.c **** CY_CFG_UNUSED
  69:.\Generated_Source\PSoC5/cyfitter_cfg.c **** static void CYCONFIGCPY(void *dest, const void *src, size_t n)
  70:.\Generated_Source\PSoC5/cyfitter_cfg.c **** {
  71:.\Generated_Source\PSoC5/cyfitter_cfg.c **** 	(void)memcpy(dest, src, n);
  72:.\Generated_Source\PSoC5/cyfitter_cfg.c **** }
  73:.\Generated_Source\PSoC5/cyfitter_cfg.c **** CY_CFG_UNUSED
  74:.\Generated_Source\PSoC5/cyfitter_cfg.c **** static void CYCONFIGCPYCODE(void *dest, const void *src, size_t n);
  75:.\Generated_Source\PSoC5/cyfitter_cfg.c **** CY_CFG_UNUSED
  76:.\Generated_Source\PSoC5/cyfitter_cfg.c **** static void CYCONFIGCPYCODE(void *dest, const void *src, size_t n)
  77:.\Generated_Source\PSoC5/cyfitter_cfg.c **** {
  78:.\Generated_Source\PSoC5/cyfitter_cfg.c **** 	(void)memcpy(dest, src, n);
  79:.\Generated_Source\PSoC5/cyfitter_cfg.c **** }
  80:.\Generated_Source\PSoC5/cyfitter_cfg.c **** 
  81:.\Generated_Source\PSoC5/cyfitter_cfg.c **** 
  82:.\Generated_Source\PSoC5/cyfitter_cfg.c **** 
  83:.\Generated_Source\PSoC5/cyfitter_cfg.c **** /* Clock startup error codes                                                   */
  84:.\Generated_Source\PSoC5/cyfitter_cfg.c **** #define CYCLOCKSTART_NO_ERROR    0u
  85:.\Generated_Source\PSoC5/cyfitter_cfg.c **** #define CYCLOCKSTART_XTAL_ERROR  1u
  86:.\Generated_Source\PSoC5/cyfitter_cfg.c **** #define CYCLOCKSTART_32KHZ_ERROR 2u
  87:.\Generated_Source\PSoC5/cyfitter_cfg.c **** #define CYCLOCKSTART_PLL_ERROR   3u
  88:.\Generated_Source\PSoC5/cyfitter_cfg.c **** 
ARM GAS  C:\Users\honet\AppData\Local\Temp\cc4pbx3c.s 			page 3


  89:.\Generated_Source\PSoC5/cyfitter_cfg.c **** #ifdef CY_NEED_CYCLOCKSTARTUPERROR
  90:.\Generated_Source\PSoC5/cyfitter_cfg.c **** /*******************************************************************************
  91:.\Generated_Source\PSoC5/cyfitter_cfg.c **** * Function Name: CyClockStartupError
  92:.\Generated_Source\PSoC5/cyfitter_cfg.c **** ********************************************************************************
  93:.\Generated_Source\PSoC5/cyfitter_cfg.c **** * Summary:
  94:.\Generated_Source\PSoC5/cyfitter_cfg.c **** *  If an error is encountered during clock configuration (crystal startup error,
  95:.\Generated_Source\PSoC5/cyfitter_cfg.c **** *  PLL lock error, etc.), the system will end up here.  Unless reimplemented by
  96:.\Generated_Source\PSoC5/cyfitter_cfg.c **** *  the customer, this function will stop in an infinite loop.
  97:.\Generated_Source\PSoC5/cyfitter_cfg.c **** *
  98:.\Generated_Source\PSoC5/cyfitter_cfg.c **** * Parameters:
  99:.\Generated_Source\PSoC5/cyfitter_cfg.c **** *   void
 100:.\Generated_Source\PSoC5/cyfitter_cfg.c **** *
 101:.\Generated_Source\PSoC5/cyfitter_cfg.c **** * Return:
 102:.\Generated_Source\PSoC5/cyfitter_cfg.c **** *   void
 103:.\Generated_Source\PSoC5/cyfitter_cfg.c **** *
 104:.\Generated_Source\PSoC5/cyfitter_cfg.c **** *******************************************************************************/
 105:.\Generated_Source\PSoC5/cyfitter_cfg.c **** CY_CFG_UNUSED
 106:.\Generated_Source\PSoC5/cyfitter_cfg.c **** static void CyClockStartupError(uint8 errorCode);
 107:.\Generated_Source\PSoC5/cyfitter_cfg.c **** CY_CFG_UNUSED
 108:.\Generated_Source\PSoC5/cyfitter_cfg.c **** static void CyClockStartupError(uint8 errorCode)
 109:.\Generated_Source\PSoC5/cyfitter_cfg.c **** {
 110:.\Generated_Source\PSoC5/cyfitter_cfg.c ****     /* To remove the compiler warning if errorCode not used.                */
 111:.\Generated_Source\PSoC5/cyfitter_cfg.c ****     errorCode = errorCode;
 112:.\Generated_Source\PSoC5/cyfitter_cfg.c **** 
 113:.\Generated_Source\PSoC5/cyfitter_cfg.c ****     /* `#START CyClockStartupError` */
 114:.\Generated_Source\PSoC5/cyfitter_cfg.c **** 
 115:.\Generated_Source\PSoC5/cyfitter_cfg.c ****     /* If we have a clock startup error (bad MHz crystal, PLL lock, etc.),  */
 116:.\Generated_Source\PSoC5/cyfitter_cfg.c ****     /* we will end up here to allow the customer to implement something to  */
 117:.\Generated_Source\PSoC5/cyfitter_cfg.c ****     /* deal with the clock condition.                                       */
 118:.\Generated_Source\PSoC5/cyfitter_cfg.c **** 
 119:.\Generated_Source\PSoC5/cyfitter_cfg.c ****     /* `#END` */
 120:.\Generated_Source\PSoC5/cyfitter_cfg.c **** 
 121:.\Generated_Source\PSoC5/cyfitter_cfg.c ****     /* If nothing else, stop here since the clocks have not started         */
 122:.\Generated_Source\PSoC5/cyfitter_cfg.c ****     /* correctly.                                                           */
 123:.\Generated_Source\PSoC5/cyfitter_cfg.c ****     while(1) {}
 124:.\Generated_Source\PSoC5/cyfitter_cfg.c **** }
 125:.\Generated_Source\PSoC5/cyfitter_cfg.c **** #endif
 126:.\Generated_Source\PSoC5/cyfitter_cfg.c **** 
 127:.\Generated_Source\PSoC5/cyfitter_cfg.c **** #define CY_CFG_BASE_ADDR_COUNT 26u
 128:.\Generated_Source\PSoC5/cyfitter_cfg.c **** CYPACKED typedef struct
 129:.\Generated_Source\PSoC5/cyfitter_cfg.c **** {
 130:.\Generated_Source\PSoC5/cyfitter_cfg.c **** 	uint8 offset;
 131:.\Generated_Source\PSoC5/cyfitter_cfg.c **** 	uint8 value;
 132:.\Generated_Source\PSoC5/cyfitter_cfg.c **** } CYPACKED_ATTR cy_cfg_addrvalue_t;
 133:.\Generated_Source\PSoC5/cyfitter_cfg.c **** 
 134:.\Generated_Source\PSoC5/cyfitter_cfg.c **** #define cy_cfg_addr_table ((const uint32 CYFAR *)0x48000000u)
 135:.\Generated_Source\PSoC5/cyfitter_cfg.c **** #define cy_cfg_data_table ((const cy_cfg_addrvalue_t CYFAR *)0x48000068u)
 136:.\Generated_Source\PSoC5/cyfitter_cfg.c **** 
 137:.\Generated_Source\PSoC5/cyfitter_cfg.c **** /* UDB_0_5_0_CONFIG Address: CYDEV_UCFG_B0_P7_U0_BASE Size (bytes): 128 */
 138:.\Generated_Source\PSoC5/cyfitter_cfg.c **** #define BS_UDB_0_5_0_CONFIG_VAL ((const uint8 CYFAR *)0x48000258u)
 139:.\Generated_Source\PSoC5/cyfitter_cfg.c **** 
 140:.\Generated_Source\PSoC5/cyfitter_cfg.c **** /* IOPINS0_8 Address: CYREG_PRT15_DR Size (bytes): 10 */
 141:.\Generated_Source\PSoC5/cyfitter_cfg.c **** #define BS_IOPINS0_8_VAL ((const uint8 CYFAR *)0x480002D8u)
 142:.\Generated_Source\PSoC5/cyfitter_cfg.c **** 
 143:.\Generated_Source\PSoC5/cyfitter_cfg.c **** /* IOPINS0_2 Address: CYREG_PRT2_DR Size (bytes): 10 */
 144:.\Generated_Source\PSoC5/cyfitter_cfg.c **** #define BS_IOPINS0_2_VAL ((const uint8 CYFAR *)0x480002E4u)
 145:.\Generated_Source\PSoC5/cyfitter_cfg.c **** 
ARM GAS  C:\Users\honet\AppData\Local\Temp\cc4pbx3c.s 			page 4


 146:.\Generated_Source\PSoC5/cyfitter_cfg.c **** 
 147:.\Generated_Source\PSoC5/cyfitter_cfg.c **** /*******************************************************************************
 148:.\Generated_Source\PSoC5/cyfitter_cfg.c **** * Function Name: cfg_write_bytes32
 149:.\Generated_Source\PSoC5/cyfitter_cfg.c **** ********************************************************************************
 150:.\Generated_Source\PSoC5/cyfitter_cfg.c **** * Summary:
 151:.\Generated_Source\PSoC5/cyfitter_cfg.c **** *  This function is used for setting up the chip configuration areas that
 152:.\Generated_Source\PSoC5/cyfitter_cfg.c **** *  contain relatively sparse data.
 153:.\Generated_Source\PSoC5/cyfitter_cfg.c **** *
 154:.\Generated_Source\PSoC5/cyfitter_cfg.c **** * Parameters:
 155:.\Generated_Source\PSoC5/cyfitter_cfg.c **** *   void
 156:.\Generated_Source\PSoC5/cyfitter_cfg.c **** *
 157:.\Generated_Source\PSoC5/cyfitter_cfg.c **** * Return:
 158:.\Generated_Source\PSoC5/cyfitter_cfg.c **** *   void
 159:.\Generated_Source\PSoC5/cyfitter_cfg.c **** *
 160:.\Generated_Source\PSoC5/cyfitter_cfg.c **** *******************************************************************************/
 161:.\Generated_Source\PSoC5/cyfitter_cfg.c **** static void cfg_write_bytes32(const uint32 addr_table[], const cy_cfg_addrvalue_t data_table[]);
 162:.\Generated_Source\PSoC5/cyfitter_cfg.c **** static void cfg_write_bytes32(const uint32 addr_table[], const cy_cfg_addrvalue_t data_table[])
 163:.\Generated_Source\PSoC5/cyfitter_cfg.c **** {
 164:.\Generated_Source\PSoC5/cyfitter_cfg.c **** 	/* For 32-bit little-endian architectures */
 165:.\Generated_Source\PSoC5/cyfitter_cfg.c **** 	uint32 i, j = 0u;
 166:.\Generated_Source\PSoC5/cyfitter_cfg.c **** 	for (i = 0u; i < CY_CFG_BASE_ADDR_COUNT; i++)
 167:.\Generated_Source\PSoC5/cyfitter_cfg.c **** 	{
 168:.\Generated_Source\PSoC5/cyfitter_cfg.c **** 		uint32 baseAddr = addr_table[i];
 169:.\Generated_Source\PSoC5/cyfitter_cfg.c **** 		uint8 count = (uint8)baseAddr;
 170:.\Generated_Source\PSoC5/cyfitter_cfg.c **** 		baseAddr &= 0xFFFFFF00u;
 171:.\Generated_Source\PSoC5/cyfitter_cfg.c **** 		while (count != 0u)
 172:.\Generated_Source\PSoC5/cyfitter_cfg.c **** 		{
 173:.\Generated_Source\PSoC5/cyfitter_cfg.c **** 			CY_SET_XTND_REG8((void CYFAR *)(baseAddr + data_table[j].offset), data_table[j].value);
 174:.\Generated_Source\PSoC5/cyfitter_cfg.c **** 			j++;
 175:.\Generated_Source\PSoC5/cyfitter_cfg.c **** 			count--;
 176:.\Generated_Source\PSoC5/cyfitter_cfg.c **** 		}
 177:.\Generated_Source\PSoC5/cyfitter_cfg.c **** 	}
 178:.\Generated_Source\PSoC5/cyfitter_cfg.c **** }
 179:.\Generated_Source\PSoC5/cyfitter_cfg.c **** 
 180:.\Generated_Source\PSoC5/cyfitter_cfg.c **** /*******************************************************************************
 181:.\Generated_Source\PSoC5/cyfitter_cfg.c **** * Function Name: ClockSetup
 182:.\Generated_Source\PSoC5/cyfitter_cfg.c **** ********************************************************************************
 183:.\Generated_Source\PSoC5/cyfitter_cfg.c **** *
 184:.\Generated_Source\PSoC5/cyfitter_cfg.c **** * Summary:
 185:.\Generated_Source\PSoC5/cyfitter_cfg.c **** *  Performs the initialization of all of the clocks in the device based on the
 186:.\Generated_Source\PSoC5/cyfitter_cfg.c **** *  settings in the Clock tab of the DWR.  This includes enabling the requested
 187:.\Generated_Source\PSoC5/cyfitter_cfg.c **** *  clocks and setting the necessary dividers to produce the desired frequency. 
 188:.\Generated_Source\PSoC5/cyfitter_cfg.c **** *
 189:.\Generated_Source\PSoC5/cyfitter_cfg.c **** * Parameters:
 190:.\Generated_Source\PSoC5/cyfitter_cfg.c **** *  void
 191:.\Generated_Source\PSoC5/cyfitter_cfg.c **** *
 192:.\Generated_Source\PSoC5/cyfitter_cfg.c **** * Return:
 193:.\Generated_Source\PSoC5/cyfitter_cfg.c **** *  void
 194:.\Generated_Source\PSoC5/cyfitter_cfg.c **** *
 195:.\Generated_Source\PSoC5/cyfitter_cfg.c **** *******************************************************************************/
 196:.\Generated_Source\PSoC5/cyfitter_cfg.c **** static void ClockSetup(void);
 197:.\Generated_Source\PSoC5/cyfitter_cfg.c **** static void ClockSetup(void)
 198:.\Generated_Source\PSoC5/cyfitter_cfg.c **** {
 199:.\Generated_Source\PSoC5/cyfitter_cfg.c **** 	uint32 timeout;
 200:.\Generated_Source\PSoC5/cyfitter_cfg.c **** 	uint8 pllLock;
 201:.\Generated_Source\PSoC5/cyfitter_cfg.c **** 
 202:.\Generated_Source\PSoC5/cyfitter_cfg.c **** 
ARM GAS  C:\Users\honet\AppData\Local\Temp\cc4pbx3c.s 			page 5


 203:.\Generated_Source\PSoC5/cyfitter_cfg.c **** 	/* Configure Digital Clocks based on settings from Clock DWR */
 204:.\Generated_Source\PSoC5/cyfitter_cfg.c **** 	CY_SET_XTND_REG16((void CYFAR *)(CYREG_CLKDIST_DCFG0_CFG0), 0x00C7u);
 205:.\Generated_Source\PSoC5/cyfitter_cfg.c **** 	CY_SET_XTND_REG8((void CYFAR *)(CYREG_CLKDIST_DCFG0_CFG0 + 0x2u), 0x18u);
 206:.\Generated_Source\PSoC5/cyfitter_cfg.c **** 	CY_SET_XTND_REG16((void CYFAR *)(CYREG_CLKDIST_DCFG1_CFG0), 0xBB7Fu);
 207:.\Generated_Source\PSoC5/cyfitter_cfg.c **** 	CY_SET_XTND_REG8((void CYFAR *)(CYREG_CLKDIST_DCFG1_CFG0 + 0x2u), 0x18u);
 208:.\Generated_Source\PSoC5/cyfitter_cfg.c **** 
 209:.\Generated_Source\PSoC5/cyfitter_cfg.c **** 	/* Configure ILO based on settings from Clock DWR */
 210:.\Generated_Source\PSoC5/cyfitter_cfg.c **** 	CY_SET_XTND_REG8((void CYFAR *)(CYREG_SLOWCLK_ILO_CR0), 0x06u);
 211:.\Generated_Source\PSoC5/cyfitter_cfg.c **** 
 212:.\Generated_Source\PSoC5/cyfitter_cfg.c **** 	/* Configure IMO based on settings from Clock DWR */
 213:.\Generated_Source\PSoC5/cyfitter_cfg.c **** 	CY_SET_XTND_REG8((void CYFAR *)(CYREG_FASTCLK_IMO_CR), 0x52u);
 214:.\Generated_Source\PSoC5/cyfitter_cfg.c **** 	CY_SET_XTND_REG8((void CYFAR *)(CYREG_IMO_TR1), (CY_GET_XTND_REG8((void CYFAR *)CYREG_FLSHID_CUST_
 215:.\Generated_Source\PSoC5/cyfitter_cfg.c **** 
 216:.\Generated_Source\PSoC5/cyfitter_cfg.c **** 	/* Configure PLL based on settings from Clock DWR */
 217:.\Generated_Source\PSoC5/cyfitter_cfg.c **** 	CY_SET_XTND_REG16((void CYFAR *)(CYREG_FASTCLK_PLL_P), 0x0710u);
 218:.\Generated_Source\PSoC5/cyfitter_cfg.c **** 	CY_SET_XTND_REG16((void CYFAR *)(CYREG_FASTCLK_PLL_CFG0), 0x1251u);
 219:.\Generated_Source\PSoC5/cyfitter_cfg.c **** 	/* Wait up to 250us for the PLL to lock */
 220:.\Generated_Source\PSoC5/cyfitter_cfg.c **** 	pllLock = 0u;
 221:.\Generated_Source\PSoC5/cyfitter_cfg.c **** 	for (timeout = 250u / 10u; (timeout > 0u) && (pllLock != 0x03u); timeout--)
 222:.\Generated_Source\PSoC5/cyfitter_cfg.c **** 	{ 
 223:.\Generated_Source\PSoC5/cyfitter_cfg.c **** 		pllLock = 0x03u & ((uint8)((uint8)pllLock << 1) | ((CY_GET_XTND_REG8((void CYFAR *)CYREG_FASTCLK_
 224:.\Generated_Source\PSoC5/cyfitter_cfg.c **** 		CyDelayCycles(10u * 48u); /* Delay 10us based on 48MHz clock */
 225:.\Generated_Source\PSoC5/cyfitter_cfg.c **** 	}
 226:.\Generated_Source\PSoC5/cyfitter_cfg.c **** 	/* If we ran out of time the PLL didn't lock so go to the error function */
 227:.\Generated_Source\PSoC5/cyfitter_cfg.c **** 	if (timeout == 0u)
 228:.\Generated_Source\PSoC5/cyfitter_cfg.c **** 	{
 229:.\Generated_Source\PSoC5/cyfitter_cfg.c **** 		CyClockStartupError(CYCLOCKSTART_PLL_ERROR);
 230:.\Generated_Source\PSoC5/cyfitter_cfg.c **** 	}
 231:.\Generated_Source\PSoC5/cyfitter_cfg.c **** 
 232:.\Generated_Source\PSoC5/cyfitter_cfg.c **** 	/* Configure Bus/Master Clock based on settings from Clock DWR */
 233:.\Generated_Source\PSoC5/cyfitter_cfg.c **** 	CY_SET_XTND_REG16((void CYFAR *)(CYREG_CLKDIST_MSTR0), 0x0100u);
 234:.\Generated_Source\PSoC5/cyfitter_cfg.c **** 	CY_SET_XTND_REG8((void CYFAR *)(CYREG_CLKDIST_MSTR0), 0x07u);
 235:.\Generated_Source\PSoC5/cyfitter_cfg.c **** 	CY_SET_XTND_REG8((void CYFAR *)(CYREG_CLKDIST_BCFG0), 0x00u);
 236:.\Generated_Source\PSoC5/cyfitter_cfg.c **** 	CY_SET_XTND_REG8((void CYFAR *)(CYREG_CLKDIST_BCFG2), 0x48u);
 237:.\Generated_Source\PSoC5/cyfitter_cfg.c **** 	CY_SET_XTND_REG8((void CYFAR *)(CYREG_CLKDIST_MSTR0), 0x00u);
 238:.\Generated_Source\PSoC5/cyfitter_cfg.c **** 
 239:.\Generated_Source\PSoC5/cyfitter_cfg.c **** 	/* Configure USB Clock based on settings from Clock DWR */
 240:.\Generated_Source\PSoC5/cyfitter_cfg.c **** 	CY_SET_XTND_REG8((void CYFAR *)(CYREG_CLKDIST_UCFG), 0x00u);
 241:.\Generated_Source\PSoC5/cyfitter_cfg.c **** 	CY_SET_XTND_REG8((void CYFAR *)(CYREG_CLKDIST_LD), 0x02u);
 242:.\Generated_Source\PSoC5/cyfitter_cfg.c **** 
 243:.\Generated_Source\PSoC5/cyfitter_cfg.c **** 	CY_SET_XTND_REG8((void CYFAR *)(CYREG_PM_ACT_CFG2), ((CY_GET_XTND_REG8((void CYFAR *)CYREG_PM_ACT_
 244:.\Generated_Source\PSoC5/cyfitter_cfg.c **** }
 245:.\Generated_Source\PSoC5/cyfitter_cfg.c **** 
 246:.\Generated_Source\PSoC5/cyfitter_cfg.c **** 
 247:.\Generated_Source\PSoC5/cyfitter_cfg.c **** /* Analog API Functions */
 248:.\Generated_Source\PSoC5/cyfitter_cfg.c **** 
 249:.\Generated_Source\PSoC5/cyfitter_cfg.c **** 
 250:.\Generated_Source\PSoC5/cyfitter_cfg.c **** /*******************************************************************************
 251:.\Generated_Source\PSoC5/cyfitter_cfg.c **** * Function Name: AnalogSetDefault
 252:.\Generated_Source\PSoC5/cyfitter_cfg.c **** ********************************************************************************
 253:.\Generated_Source\PSoC5/cyfitter_cfg.c **** *
 254:.\Generated_Source\PSoC5/cyfitter_cfg.c **** * Summary:
 255:.\Generated_Source\PSoC5/cyfitter_cfg.c **** *  Sets up the analog portions of the chip to default values based on chip
 256:.\Generated_Source\PSoC5/cyfitter_cfg.c **** *  configuration options from the project.
 257:.\Generated_Source\PSoC5/cyfitter_cfg.c **** *
 258:.\Generated_Source\PSoC5/cyfitter_cfg.c **** * Parameters:
 259:.\Generated_Source\PSoC5/cyfitter_cfg.c **** *  void
ARM GAS  C:\Users\honet\AppData\Local\Temp\cc4pbx3c.s 			page 6


 260:.\Generated_Source\PSoC5/cyfitter_cfg.c **** *
 261:.\Generated_Source\PSoC5/cyfitter_cfg.c **** * Return:
 262:.\Generated_Source\PSoC5/cyfitter_cfg.c **** *  void
 263:.\Generated_Source\PSoC5/cyfitter_cfg.c **** *
 264:.\Generated_Source\PSoC5/cyfitter_cfg.c **** *******************************************************************************/
 265:.\Generated_Source\PSoC5/cyfitter_cfg.c **** static void AnalogSetDefault(void);
 266:.\Generated_Source\PSoC5/cyfitter_cfg.c **** static void AnalogSetDefault(void)
 267:.\Generated_Source\PSoC5/cyfitter_cfg.c **** {
 268:.\Generated_Source\PSoC5/cyfitter_cfg.c **** 	uint8 bg_xover_inl_trim = CY_GET_XTND_REG8((void CYFAR *)(CYREG_FLSHID_MFG_CFG_BG_XOVER_INL_TRIM +
 269:.\Generated_Source\PSoC5/cyfitter_cfg.c **** 	CY_SET_XTND_REG8((void CYFAR *)(CYREG_BG_DFT0), (bg_xover_inl_trim & 0x07u));
 270:.\Generated_Source\PSoC5/cyfitter_cfg.c **** 	CY_SET_XTND_REG8((void CYFAR *)(CYREG_BG_DFT1), ((bg_xover_inl_trim >> 4) & 0x0Fu));
 271:.\Generated_Source\PSoC5/cyfitter_cfg.c **** 	CY_SET_XTND_REG8((void CYFAR *)CYREG_PUMP_CR0, 0x44u);
 272:.\Generated_Source\PSoC5/cyfitter_cfg.c **** }
 273:.\Generated_Source\PSoC5/cyfitter_cfg.c **** 
 274:.\Generated_Source\PSoC5/cyfitter_cfg.c **** 
 275:.\Generated_Source\PSoC5/cyfitter_cfg.c **** /*******************************************************************************
 276:.\Generated_Source\PSoC5/cyfitter_cfg.c **** * Function Name: SetAnalogRoutingPumps
 277:.\Generated_Source\PSoC5/cyfitter_cfg.c **** ********************************************************************************
 278:.\Generated_Source\PSoC5/cyfitter_cfg.c **** *
 279:.\Generated_Source\PSoC5/cyfitter_cfg.c **** * Summary:
 280:.\Generated_Source\PSoC5/cyfitter_cfg.c **** * Enables or disables the analog pumps feeding analog routing switches.
 281:.\Generated_Source\PSoC5/cyfitter_cfg.c **** * Intended to be called at startup, based on the Vdda system configuration;
 282:.\Generated_Source\PSoC5/cyfitter_cfg.c **** * may be called during operation when the user informs us that the Vdda voltage
 283:.\Generated_Source\PSoC5/cyfitter_cfg.c **** * crossed the pump threshold.
 284:.\Generated_Source\PSoC5/cyfitter_cfg.c **** *
 285:.\Generated_Source\PSoC5/cyfitter_cfg.c **** * Parameters:
 286:.\Generated_Source\PSoC5/cyfitter_cfg.c **** *  enabled - 1 to enable the pumps, 0 to disable the pumps
 287:.\Generated_Source\PSoC5/cyfitter_cfg.c **** *
 288:.\Generated_Source\PSoC5/cyfitter_cfg.c **** * Return:
 289:.\Generated_Source\PSoC5/cyfitter_cfg.c **** *  void
 290:.\Generated_Source\PSoC5/cyfitter_cfg.c **** *
 291:.\Generated_Source\PSoC5/cyfitter_cfg.c **** *******************************************************************************/
 292:.\Generated_Source\PSoC5/cyfitter_cfg.c **** void SetAnalogRoutingPumps(uint8 enabled)
 293:.\Generated_Source\PSoC5/cyfitter_cfg.c **** {
  27              		.loc 1 293 0
  28              		.cfi_startproc
  29              		@ args = 0, pretend = 0, frame = 0
  30              		@ frame_needed = 0, uses_anonymous_args = 0
  31              		@ link register save eliminated.
  32              	.LVL0:
 294:.\Generated_Source\PSoC5/cyfitter_cfg.c **** 	uint8 regValue = CY_GET_XTND_REG8((void CYFAR *)CYREG_PUMP_CR0);
  33              		.loc 1 294 0
  34 0000 024A     		ldr	r2, .L2
  35 0002 1378     		ldrb	r3, [r2]	@ zero_extendqisi2
  36 0004 DBB2     		uxtb	r3, r3
  37              	.LVL1:
 295:.\Generated_Source\PSoC5/cyfitter_cfg.c **** 	if (enabled != 0u)
 296:.\Generated_Source\PSoC5/cyfitter_cfg.c **** 	{
 297:.\Generated_Source\PSoC5/cyfitter_cfg.c **** 		regValue |= 0x00u;
 298:.\Generated_Source\PSoC5/cyfitter_cfg.c **** 	}
 299:.\Generated_Source\PSoC5/cyfitter_cfg.c **** 	else
 300:.\Generated_Source\PSoC5/cyfitter_cfg.c **** 	{
 301:.\Generated_Source\PSoC5/cyfitter_cfg.c **** 		regValue &= (uint8)~0x00u;
 302:.\Generated_Source\PSoC5/cyfitter_cfg.c **** 	}
 303:.\Generated_Source\PSoC5/cyfitter_cfg.c **** 	CY_SET_XTND_REG8((void CYFAR *)CYREG_PUMP_CR0, regValue);
  38              		.loc 1 303 0
  39 0006 1370     		strb	r3, [r2]
ARM GAS  C:\Users\honet\AppData\Local\Temp\cc4pbx3c.s 			page 7


  40 0008 7047     		bx	lr
  41              	.L3:
  42 000a 00BF     		.align	2
  43              	.L2:
  44 000c 76580040 		.word	1073764470
  45              		.cfi_endproc
  46              	.LFE7:
  47              		.size	SetAnalogRoutingPumps, .-SetAnalogRoutingPumps
  48              		.section	.text.cyfitter_cfg,"ax",%progbits
  49              		.align	2
  50              		.global	cyfitter_cfg
  51              		.thumb
  52              		.thumb_func
  53              		.type	cyfitter_cfg, %function
  54              	cyfitter_cfg:
  55              	.LFB8:
 304:.\Generated_Source\PSoC5/cyfitter_cfg.c **** }
 305:.\Generated_Source\PSoC5/cyfitter_cfg.c **** 
 306:.\Generated_Source\PSoC5/cyfitter_cfg.c **** #define CY_AMUX_UNUSED CYREG_BOOST_SR
 307:.\Generated_Source\PSoC5/cyfitter_cfg.c **** 
 308:.\Generated_Source\PSoC5/cyfitter_cfg.c **** 
 309:.\Generated_Source\PSoC5/cyfitter_cfg.c **** /*******************************************************************************
 310:.\Generated_Source\PSoC5/cyfitter_cfg.c **** * Function Name: cyfitter_cfg
 311:.\Generated_Source\PSoC5/cyfitter_cfg.c **** ********************************************************************************
 312:.\Generated_Source\PSoC5/cyfitter_cfg.c **** * Summary:
 313:.\Generated_Source\PSoC5/cyfitter_cfg.c **** *  This function is called by the start-up code for the selected device. It
 314:.\Generated_Source\PSoC5/cyfitter_cfg.c **** *  performs all of the necessary device configuration based on the design
 315:.\Generated_Source\PSoC5/cyfitter_cfg.c **** *  settings.  This includes settings from the Design Wide Resources (DWR) such
 316:.\Generated_Source\PSoC5/cyfitter_cfg.c **** *  as Clocks and Pins as well as any component configuration that is necessary.
 317:.\Generated_Source\PSoC5/cyfitter_cfg.c **** *
 318:.\Generated_Source\PSoC5/cyfitter_cfg.c **** * Parameters:  
 319:.\Generated_Source\PSoC5/cyfitter_cfg.c **** *   void
 320:.\Generated_Source\PSoC5/cyfitter_cfg.c **** *
 321:.\Generated_Source\PSoC5/cyfitter_cfg.c **** * Return:
 322:.\Generated_Source\PSoC5/cyfitter_cfg.c **** *   void
 323:.\Generated_Source\PSoC5/cyfitter_cfg.c **** *
 324:.\Generated_Source\PSoC5/cyfitter_cfg.c **** *******************************************************************************/
 325:.\Generated_Source\PSoC5/cyfitter_cfg.c **** 
 326:.\Generated_Source\PSoC5/cyfitter_cfg.c **** void cyfitter_cfg(void)
 327:.\Generated_Source\PSoC5/cyfitter_cfg.c **** {
  56              		.loc 1 327 0
  57              		.cfi_startproc
  58              		@ args = 0, pretend = 0, frame = 0
  59              		@ frame_needed = 0, uses_anonymous_args = 0
  60 0000 2DE9F84F 		push	{r3, r4, r5, r6, r7, r8, r9, r10, fp, lr}
  61              		.cfi_def_cfa_offset 40
  62              		.cfi_offset 3, -40
  63              		.cfi_offset 4, -36
  64              		.cfi_offset 5, -32
  65              		.cfi_offset 6, -28
  66              		.cfi_offset 7, -24
  67              		.cfi_offset 8, -20
  68              		.cfi_offset 9, -16
  69              		.cfi_offset 10, -12
  70              		.cfi_offset 11, -8
  71              		.cfi_offset 14, -4
 328:.\Generated_Source\PSoC5/cyfitter_cfg.c **** #ifdef CYGlobalIntDisable
ARM GAS  C:\Users\honet\AppData\Local\Temp\cc4pbx3c.s 			page 8


 329:.\Generated_Source\PSoC5/cyfitter_cfg.c **** 	/* Disable interrupts by default. Let user enable if/when they want. */
 330:.\Generated_Source\PSoC5/cyfitter_cfg.c **** 	CYGlobalIntDisable
  72              		.loc 1 330 0
  73              	@ 330 ".\Generated_Source\PSoC5\cyfitter_cfg.c" 1
  74 0004 72B6     		CPSID   i
  75              	@ 0 "" 2
  76              		.thumb
  77 0006 754E     		ldr	r6, .L27
 331:.\Generated_Source\PSoC5/cyfitter_cfg.c **** #endif
 332:.\Generated_Source\PSoC5/cyfitter_cfg.c **** 
 333:.\Generated_Source\PSoC5/cyfitter_cfg.c **** 	/* Enable/Disable Debug functionality based on settings from System DWR */
 334:.\Generated_Source\PSoC5/cyfitter_cfg.c **** 	CY_SET_XTND_REG8((void CYFAR *)CYREG_MLOGIC_DEBUG, (CY_GET_XTND_REG8((void CYFAR *)CYREG_MLOGIC_DE
  78              		.loc 1 334 0
  79 0008 754A     		ldr	r2, .L27+4
  80 000a 3546     		mov	r5, r6
  81 000c 1378     		ldrb	r3, [r2]	@ zero_extendqisi2
  82 000e 0024     		movs	r4, #0
  83 0010 43F00403 		orr	r3, r3, #4
  84 0014 1370     		strb	r3, [r2]
  85              	.LVL2:
  86              	.L5:
  87              	.LBB48:
  88              	.LBB49:
 335:.\Generated_Source\PSoC5/cyfitter_cfg.c **** 
 336:.\Generated_Source\PSoC5/cyfitter_cfg.c **** 	{
 337:.\Generated_Source\PSoC5/cyfitter_cfg.c **** 
 338:.\Generated_Source\PSoC5/cyfitter_cfg.c **** 		CYPACKED typedef struct {
 339:.\Generated_Source\PSoC5/cyfitter_cfg.c **** 			void CYFAR *address;
 340:.\Generated_Source\PSoC5/cyfitter_cfg.c **** 			uint16 size;
 341:.\Generated_Source\PSoC5/cyfitter_cfg.c **** 		} CYPACKED_ATTR cfg_memset_t;
 342:.\Generated_Source\PSoC5/cyfitter_cfg.c **** 
 343:.\Generated_Source\PSoC5/cyfitter_cfg.c **** 
 344:.\Generated_Source\PSoC5/cyfitter_cfg.c **** 		CYPACKED typedef struct {
 345:.\Generated_Source\PSoC5/cyfitter_cfg.c **** 			void CYFAR *dest;
 346:.\Generated_Source\PSoC5/cyfitter_cfg.c **** 			const void CYFAR *src;
 347:.\Generated_Source\PSoC5/cyfitter_cfg.c **** 			uint16 size;
 348:.\Generated_Source\PSoC5/cyfitter_cfg.c **** 		} CYPACKED_ATTR cfg_memcpy_t;
 349:.\Generated_Source\PSoC5/cyfitter_cfg.c **** 
 350:.\Generated_Source\PSoC5/cyfitter_cfg.c **** 		static const cfg_memset_t CYCODE cfg_memset_list [] = {
 351:.\Generated_Source\PSoC5/cyfitter_cfg.c **** 			/* address, size */
 352:.\Generated_Source\PSoC5/cyfitter_cfg.c **** 			{(void CYFAR *)(CYREG_PRT0_DR), 32u},
 353:.\Generated_Source\PSoC5/cyfitter_cfg.c **** 			{(void CYFAR *)(CYREG_PRT3_DR), 64u},
 354:.\Generated_Source\PSoC5/cyfitter_cfg.c **** 			{(void CYFAR *)(CYREG_PRT12_DR), 16u},
 355:.\Generated_Source\PSoC5/cyfitter_cfg.c **** 			{(void CYFAR *)(CYDEV_UCFG_B0_P0_U0_BASE), 3584u},
 356:.\Generated_Source\PSoC5/cyfitter_cfg.c **** 			{(void CYFAR *)(CYDEV_UCFG_B0_P7_U1_BASE), 384u},
 357:.\Generated_Source\PSoC5/cyfitter_cfg.c **** 			{(void CYFAR *)(CYDEV_UCFG_B1_P2_U0_BASE), 2048u},
 358:.\Generated_Source\PSoC5/cyfitter_cfg.c **** 			{(void CYFAR *)(CYDEV_UCFG_DSI0_BASE), 2560u},
 359:.\Generated_Source\PSoC5/cyfitter_cfg.c **** 			{(void CYFAR *)(CYDEV_UCFG_DSI12_BASE), 512u},
 360:.\Generated_Source\PSoC5/cyfitter_cfg.c **** 			{(void CYFAR *)(CYREG_BCTL0_MDCLK_EN), 32u},
 361:.\Generated_Source\PSoC5/cyfitter_cfg.c **** 		};
 362:.\Generated_Source\PSoC5/cyfitter_cfg.c **** 
 363:.\Generated_Source\PSoC5/cyfitter_cfg.c **** 		static const cfg_memcpy_t CYCODE cfg_memcpy_list [] = {
 364:.\Generated_Source\PSoC5/cyfitter_cfg.c **** 			/* dest, src, size */
 365:.\Generated_Source\PSoC5/cyfitter_cfg.c **** 			{(void CYFAR *)(CYDEV_UCFG_B0_P7_U0_BASE), BS_UDB_0_5_0_CONFIG_VAL, 128u},
 366:.\Generated_Source\PSoC5/cyfitter_cfg.c **** 		};
 367:.\Generated_Source\PSoC5/cyfitter_cfg.c **** 
 368:.\Generated_Source\PSoC5/cyfitter_cfg.c **** 		uint8 CYDATA i;
ARM GAS  C:\Users\honet\AppData\Local\Temp\cc4pbx3c.s 			page 9


 369:.\Generated_Source\PSoC5/cyfitter_cfg.c **** 
 370:.\Generated_Source\PSoC5/cyfitter_cfg.c **** 		/* Zero out critical memory blocks before beginning configuration */
 371:.\Generated_Source\PSoC5/cyfitter_cfg.c **** 		for (i = 0u; i < (sizeof(cfg_memset_list)/sizeof(cfg_memset_list[0])); i++)
 372:.\Generated_Source\PSoC5/cyfitter_cfg.c **** 		{
 373:.\Generated_Source\PSoC5/cyfitter_cfg.c **** 			const cfg_memset_t CYCODE * CYDATA ms = &cfg_memset_list[i];
 374:.\Generated_Source\PSoC5/cyfitter_cfg.c **** 			CYMEMZERO(ms->address, (size_t)(uint32)(ms->size));
  89              		.loc 1 374 0 discriminator 3
  90 0016 04EB4403 		add	r3, r4, r4, lsl #1
  91              	.LBB50:
  92              	.LBB51:
  64:.\Generated_Source\PSoC5/cyfitter_cfg.c **** }
  93              		.loc 1 64 0 discriminator 3
  94 001a AA88     		ldrh	r2, [r5, #4]
  95              	.LVL3:
  96 001c 56F81300 		ldr	r0, [r6, r3, lsl #1]	@ unaligned
  97 0020 0134     		adds	r4, r4, #1
  98              	.LVL4:
  99 0022 0021     		movs	r1, #0
 100 0024 FFF7FEFF 		bl	memset
 101              	.LVL5:
 102              	.LBE51:
 103              	.LBE50:
 104              	.LBE49:
 371:.\Generated_Source\PSoC5/cyfitter_cfg.c **** 		{
 105              		.loc 1 371 0 discriminator 3
 106 0028 092C     		cmp	r4, #9
 107 002a 05F10605 		add	r5, r5, #6
 108 002e F2D1     		bne	.L5
 109              	.LVL6:
 110              	.LBB52:
 111              	.LBB53:
 112              	.LBB54:
  71:.\Generated_Source\PSoC5/cyfitter_cfg.c **** }
 113              		.loc 1 71 0 discriminator 3
 114 0030 6C48     		ldr	r0, .L27+8
 115 0032 6D49     		ldr	r1, .L27+12
 116 0034 8022     		movs	r2, #128
 117 0036 FFF7FEFF 		bl	memcpy
 118              	.LVL7:
 119 003a 6C4E     		ldr	r6, .L27+16
 120              	.LBE54:
 121              	.LBE53:
 122              	.LBE52:
 123              	.LBB57:
 124              	.LBB58:
 166:.\Generated_Source\PSoC5/cyfitter_cfg.c **** 	{
 125              		.loc 1 166 0 discriminator 3
 126 003c 6C4F     		ldr	r7, .L27+20
 127              	.LBE58:
 128              	.LBE57:
 129              	.LBB61:
 130              	.LBB56:
 131              	.LBB55:
  71:.\Generated_Source\PSoC5/cyfitter_cfg.c **** }
 132              		.loc 1 71 0 discriminator 3
 133 003e 0025     		movs	r5, #0
 134              	.LVL8:
ARM GAS  C:\Users\honet\AppData\Local\Temp\cc4pbx3c.s 			page 10


 135              	.L8:
 136              	.LBE55:
 137              	.LBE56:
 138              	.LBE61:
 139              	.LBB62:
 140              	.LBB60:
 141              	.LBB59:
 168:.\Generated_Source\PSoC5/cyfitter_cfg.c **** 		uint8 count = (uint8)baseAddr;
 142              		.loc 1 168 0
 143 0040 56F8043F 		ldr	r3, [r6, #4]!
 144              	.LVL9:
 170:.\Generated_Source\PSoC5/cyfitter_cfg.c **** 		while (count != 0u)
 145              		.loc 1 170 0
 146 0044 23F0FF04 		bic	r4, r3, #255
 147              	.LVL10:
 171:.\Generated_Source\PSoC5/cyfitter_cfg.c **** 		{
 148              		.loc 1 171 0
 149 0048 13F0FF03 		ands	r3, r3, #255
 150              	.LVL11:
 151 004c 13D0     		beq	.L6
 152 004e 03F1FF3E 		add	lr, r3, #-1
 153 0052 05F11053 		add	r3, r5, #603979776
 154 0056 03F13500 		add	r0, r3, #53
 155 005a 5FFA8EFE 		uxtb	lr, lr
 156 005e 7044     		add	r0, r0, lr
 157 0060 3433     		adds	r3, r3, #52
 158 0062 4000     		lsls	r0, r0, #1
 159 0064 5B00     		lsls	r3, r3, #1
 160              	.LVL12:
 161              	.L7:
 173:.\Generated_Source\PSoC5/cyfitter_cfg.c **** 			j++;
 162              		.loc 1 173 0
 163 0066 1A78     		ldrb	r2, [r3]	@ zero_extendqisi2
 164 0068 5978     		ldrb	r1, [r3, #1]	@ zero_extendqisi2
 165 006a 0233     		adds	r3, r3, #2
 171:.\Generated_Source\PSoC5/cyfitter_cfg.c **** 		{
 166              		.loc 1 171 0
 167 006c 8342     		cmp	r3, r0
 173:.\Generated_Source\PSoC5/cyfitter_cfg.c **** 			j++;
 168              		.loc 1 173 0
 169 006e 1155     		strb	r1, [r2, r4]
 171:.\Generated_Source\PSoC5/cyfitter_cfg.c **** 		{
 170              		.loc 1 171 0
 171 0070 F9D1     		bne	.L7
 172 0072 0135     		adds	r5, r5, #1
 173 0074 7544     		add	r5, r5, lr
 174              	.L6:
 175              	.LVL13:
 176              	.LBE59:
 166:.\Generated_Source\PSoC5/cyfitter_cfg.c **** 	{
 177              		.loc 1 166 0
 178 0076 BE42     		cmp	r6, r7
 179 0078 E2D1     		bne	.L8
 180              	.LVL14:
 181              	.LBE60:
 182              	.LBE62:
 183              	.LBE48:
ARM GAS  C:\Users\honet\AppData\Local\Temp\cc4pbx3c.s 			page 11


 184              	.LBB73:
 185              	.LBB74:
 206:.\Generated_Source\PSoC5/cyfitter_cfg.c **** 	CY_SET_XTND_REG8((void CYFAR *)(CYREG_CLKDIST_DCFG1_CFG0 + 0x2u), 0x18u);
 186              		.loc 1 206 0
 187 007a 4BF67F37 		movw	r7, #47999
 188              	.LBE74:
 189              	.LBE73:
 190              	.LBB83:
 375:.\Generated_Source\PSoC5/cyfitter_cfg.c **** 		}
 376:.\Generated_Source\PSoC5/cyfitter_cfg.c **** 
 377:.\Generated_Source\PSoC5/cyfitter_cfg.c **** 		/* Copy device configuration data into registers */
 378:.\Generated_Source\PSoC5/cyfitter_cfg.c **** 		for (i = 0u; i < (sizeof(cfg_memcpy_list)/sizeof(cfg_memcpy_list[0])); i++)
 379:.\Generated_Source\PSoC5/cyfitter_cfg.c **** 		{
 380:.\Generated_Source\PSoC5/cyfitter_cfg.c **** 			const cfg_memcpy_t CYCODE * CYDATA mc = &cfg_memcpy_list[i];
 381:.\Generated_Source\PSoC5/cyfitter_cfg.c **** 			void * CYDATA destPtr = mc->dest;
 382:.\Generated_Source\PSoC5/cyfitter_cfg.c **** 			const void * CYDATA srcPtr = mc->src;
 383:.\Generated_Source\PSoC5/cyfitter_cfg.c **** 			uint16 CYDATA numBytes = mc->size;
 384:.\Generated_Source\PSoC5/cyfitter_cfg.c **** 			CYCONFIGCPY(destPtr, srcPtr, numBytes);
 385:.\Generated_Source\PSoC5/cyfitter_cfg.c **** 		}
 386:.\Generated_Source\PSoC5/cyfitter_cfg.c **** 
 387:.\Generated_Source\PSoC5/cyfitter_cfg.c **** 		cfg_write_bytes32(cy_cfg_addr_table, cy_cfg_data_table);
 388:.\Generated_Source\PSoC5/cyfitter_cfg.c **** 
 389:.\Generated_Source\PSoC5/cyfitter_cfg.c **** 		/* Perform normal device configuration. Order is not critical for these items. */
 390:.\Generated_Source\PSoC5/cyfitter_cfg.c **** 		CYMEMZERO((void CYFAR *)(CYREG_PHUB_CFGMEM0_CFG0), 4u);
 391:.\Generated_Source\PSoC5/cyfitter_cfg.c **** 		CYMEMZERO((void CYFAR *)(CYREG_PHUB_CFGMEM1_CFG0), 4u);
 392:.\Generated_Source\PSoC5/cyfitter_cfg.c **** 
 393:.\Generated_Source\PSoC5/cyfitter_cfg.c **** 		/* Enable digital routing */
 394:.\Generated_Source\PSoC5/cyfitter_cfg.c **** 		CY_SET_XTND_REG8((void CYFAR *)CYREG_BCTL0_BANK_CTL, CY_GET_XTND_REG8((void CYFAR *)CYREG_BCTL0_B
 191              		.loc 1 394 0
 192 007e 5D49     		ldr	r1, .L27+24
 193              	.LBE83:
 194              	.LBB84:
 195              	.LBB75:
 218:.\Generated_Source\PSoC5/cyfitter_cfg.c **** 	/* Wait up to 250us for the PLL to lock */
 196              		.loc 1 218 0
 197 0080 41F25126 		movw	r6, #4689
 198              	.LBE75:
 199              	.LBE84:
 200              	.LBB85:
 201              		.loc 1 394 0
 202 0084 0B78     		ldrb	r3, [r1]	@ zero_extendqisi2
 395:.\Generated_Source\PSoC5/cyfitter_cfg.c **** 		CY_SET_XTND_REG8((void CYFAR *)CYREG_BCTL1_BANK_CTL, CY_GET_XTND_REG8((void CYFAR *)CYREG_BCTL1_B
 203              		.loc 1 395 0
 204 0086 5C48     		ldr	r0, .L27+28
 394:.\Generated_Source\PSoC5/cyfitter_cfg.c **** 		CY_SET_XTND_REG8((void CYFAR *)CYREG_BCTL1_BANK_CTL, CY_GET_XTND_REG8((void CYFAR *)CYREG_BCTL1_B
 205              		.loc 1 394 0
 206 0088 43F00203 		orr	r3, r3, #2
 207 008c 0B70     		strb	r3, [r1]
 208              		.loc 1 395 0
 209 008e 0378     		ldrb	r3, [r0]	@ zero_extendqisi2
 396:.\Generated_Source\PSoC5/cyfitter_cfg.c **** 
 397:.\Generated_Source\PSoC5/cyfitter_cfg.c **** 		/* Enable UDB array */
 398:.\Generated_Source\PSoC5/cyfitter_cfg.c **** 		CY_SET_XTND_REG8((void CYFAR *)CYREG_PM_ACT_CFG0, CY_GET_XTND_REG8((void CYFAR *)CYREG_PM_ACT_CFG
 210              		.loc 1 398 0
 211 0090 A1F58631 		sub	r1, r1, #68608
 395:.\Generated_Source\PSoC5/cyfitter_cfg.c **** 
 212              		.loc 1 395 0
ARM GAS  C:\Users\honet\AppData\Local\Temp\cc4pbx3c.s 			page 12


 213 0094 43F00203 		orr	r3, r3, #2
 214 0098 0370     		strb	r3, [r0]
 215              		.loc 1 398 0
 216 009a 6339     		subs	r1, r1, #99
 217 009c 0B78     		ldrb	r3, [r1]	@ zero_extendqisi2
 399:.\Generated_Source\PSoC5/cyfitter_cfg.c **** 		CY_SET_XTND_REG8((void CYFAR *)CYREG_PM_AVAIL_CR2, CY_GET_XTND_REG8((void CYFAR *)CYREG_PM_AVAIL_
 218              		.loc 1 399 0
 219 009e A0F58630 		sub	r0, r0, #68608
 398:.\Generated_Source\PSoC5/cyfitter_cfg.c **** 		CY_SET_XTND_REG8((void CYFAR *)CYREG_PM_AVAIL_CR2, CY_GET_XTND_REG8((void CYFAR *)CYREG_PM_AVAIL_
 220              		.loc 1 398 0
 221 00a2 43F04003 		orr	r3, r3, #64
 222 00a6 0B70     		strb	r3, [r1]
 223              		.loc 1 399 0
 224 00a8 5138     		subs	r0, r0, #81
 225 00aa 0178     		ldrb	r1, [r0]	@ zero_extendqisi2
 226              	.LBB63:
 227              	.LBB64:
  64:.\Generated_Source\PSoC5/cyfitter_cfg.c **** }
 228              		.loc 1 64 0
 229 00ac DFF890C1 		ldr	ip, .L27+100
 230              	.LBE64:
 231              	.LBE63:
 232              	.LBB67:
 233              	.LBB68:
 234 00b0 DFF890E1 		ldr	lr, .L27+104
 235              	.LBE68:
 236              	.LBE67:
 237              	.LBB70:
 238              	.LBB65:
 239 00b4 0022     		movs	r2, #0
 240              	.LBE65:
 241              	.LBE70:
 242              	.LBE85:
 243              	.LBB86:
 244              	.LBB87:
  71:.\Generated_Source\PSoC5/cyfitter_cfg.c **** }
 245              		.loc 1 71 0
 246 00b6 514B     		ldr	r3, .L27+32
 247              	.LBE87:
 248              	.LBE86:
 249              	.LBB91:
 250              		.loc 1 399 0
 251 00b8 41F01001 		orr	r1, r1, #16
 252              	.LBE91:
 253              	.LBB92:
 254              	.LBB88:
  71:.\Generated_Source\PSoC5/cyfitter_cfg.c **** }
 255              		.loc 1 71 0
 256 00bc 504C     		ldr	r4, .L27+36
 257              	.LVL15:
 258              	.LBE88:
 259              	.LBE92:
 260              	.LBB93:
 261              		.loc 1 399 0
 262 00be 0170     		strb	r1, [r0]
 263              	.LBB71:
 264              	.LBB66:
ARM GAS  C:\Users\honet\AppData\Local\Temp\cc4pbx3c.s 			page 13


  64:.\Generated_Source\PSoC5/cyfitter_cfg.c **** }
 265              		.loc 1 64 0
 266 00c0 CCF80020 		str	r2, [ip]
 267              	.LVL16:
 268              	.LBE66:
 269              	.LBE71:
 270              	.LBB72:
 271              	.LBB69:
 272 00c4 CEF80020 		str	r2, [lr]
 273              	.LBE69:
 274              	.LBE72:
 275              	.LBE93:
 276              	.LBB94:
 277              	.LBB76:
 220:.\Generated_Source\PSoC5/cyfitter_cfg.c **** 	for (timeout = 250u / 10u; (timeout > 0u) && (pllLock != 0x03u); timeout--)
 278              		.loc 1 220 0
 279 00c8 1546     		mov	r5, r2
 280              	.LVL17:
 281              	.LBE76:
 282              	.LBE94:
 283              	.LBB95:
 284              	.LBB89:
  71:.\Generated_Source\PSoC5/cyfitter_cfg.c **** }
 285              		.loc 1 71 0
 286 00ca 93E80700 		ldmia	r3, {r0, r1, r2}
 287 00ce 03C4     		stmia	r4!, {r0, r1}
 288              	.LBE89:
 289              	.LBE95:
 290              	.LBB96:
 291              	.LBB97:
 292 00d0 4C4B     		ldr	r3, .L27+40
 293 00d2 4D49     		ldr	r1, .L27+44
 294              	.LBE97:
 295              	.LBE96:
 296              	.LBB100:
 297              	.LBB90:
 298 00d4 2280     		strh	r2, [r4]	@ movhi
 299              	.LVL18:
 300              	.LBE90:
 301              	.LBE100:
 302              	.LBB101:
 303              	.LBB98:
 304 00d6 07C9     		ldmia	r1, {r0, r1, r2}
 305 00d8 03C3     		stmia	r3!, {r0, r1}
 306              	.LBE98:
 307              	.LBE101:
 400:.\Generated_Source\PSoC5/cyfitter_cfg.c **** 	}
 401:.\Generated_Source\PSoC5/cyfitter_cfg.c **** 
 402:.\Generated_Source\PSoC5/cyfitter_cfg.c **** 
 403:.\Generated_Source\PSoC5/cyfitter_cfg.c **** 	/* Perform second pass device configuration. These items must be configured in specific order afte
 404:.\Generated_Source\PSoC5/cyfitter_cfg.c **** 	CYCONFIGCPY((void CYFAR *)(CYREG_PRT15_DR), (const void CYFAR *)(BS_IOPINS0_8_VAL), 10u);
 405:.\Generated_Source\PSoC5/cyfitter_cfg.c **** 	CYCONFIGCPY((void CYFAR *)(CYREG_PRT2_DR), (const void CYFAR *)(BS_IOPINS0_2_VAL), 10u);
 406:.\Generated_Source\PSoC5/cyfitter_cfg.c **** 	/* Switch Boost to the precision bandgap reference from its internal reference */
 407:.\Generated_Source\PSoC5/cyfitter_cfg.c **** 	CY_SET_REG8((void CYXDATA *)CYREG_BOOST_CR2, (CY_GET_REG8((void CYXDATA *)CYREG_BOOST_CR2) | 0x08u
 308              		.loc 1 407 0
 309 00da 4C49     		ldr	r1, .L27+48
 310              	.LBB102:
ARM GAS  C:\Users\honet\AppData\Local\Temp\cc4pbx3c.s 			page 14


 311              	.LBB99:
  71:.\Generated_Source\PSoC5/cyfitter_cfg.c **** }
 312              		.loc 1 71 0
 313 00dc 1A80     		strh	r2, [r3]	@ movhi
 314              	.LBE99:
 315              	.LBE102:
 316              		.loc 1 407 0
 317 00de 0A78     		ldrb	r2, [r1]	@ zero_extendqisi2
 408:.\Generated_Source\PSoC5/cyfitter_cfg.c **** 
 409:.\Generated_Source\PSoC5/cyfitter_cfg.c **** 	/* Set Flash Cycles based on max possible frequency in case a glitch occurs during ClockSetup(). *
 410:.\Generated_Source\PSoC5/cyfitter_cfg.c **** 	CY_SET_XTND_REG8((void CYFAR *)(CYREG_CACHE_CC_CTL), (((CYDEV_INSTRUCT_CACHE_ENABLED) != 0) ? 0x61
 318              		.loc 1 410 0
 319 00e0 DFF864A1 		ldr	r10, .L27+108
 320              	.LBB103:
 321              	.LBB77:
 207:.\Generated_Source\PSoC5/cyfitter_cfg.c **** 
 322              		.loc 1 207 0
 323 00e4 4A4C     		ldr	r4, .L27+52
 210:.\Generated_Source\PSoC5/cyfitter_cfg.c **** 
 324              		.loc 1 210 0
 325 00e6 4B48     		ldr	r0, .L27+56
 326              	.LBE77:
 327              	.LBE103:
 407:.\Generated_Source\PSoC5/cyfitter_cfg.c **** 
 328              		.loc 1 407 0
 329 00e8 42F00802 		orr	r2, r2, #8
 330              		.loc 1 410 0
 331 00ec 4FF0610B 		mov	fp, #97
 332              	.LBB104:
 333              	.LBB78:
 204:.\Generated_Source\PSoC5/cyfitter_cfg.c **** 	CY_SET_XTND_REG8((void CYFAR *)(CYREG_CLKDIST_DCFG0_CFG0 + 0x2u), 0x18u);
 334              		.loc 1 204 0
 335 00f0 DFF85881 		ldr	r8, .L27+112
 205:.\Generated_Source\PSoC5/cyfitter_cfg.c **** 	CY_SET_XTND_REG16((void CYFAR *)(CYREG_CLKDIST_DCFG1_CFG0), 0xBB7Fu);
 336              		.loc 1 205 0
 337 00f4 DFF858C1 		ldr	ip, .L27+116
 206:.\Generated_Source\PSoC5/cyfitter_cfg.c **** 	CY_SET_XTND_REG8((void CYFAR *)(CYREG_CLKDIST_DCFG1_CFG0 + 0x2u), 0x18u);
 338              		.loc 1 206 0
 339 00f8 DFF858E1 		ldr	lr, .L27+120
 340              	.LBE78:
 341              	.LBE104:
 407:.\Generated_Source\PSoC5/cyfitter_cfg.c **** 
 342              		.loc 1 407 0
 343 00fc 0A70     		strb	r2, [r1]
 344              	.LBB105:
 345              	.LBB79:
 213:.\Generated_Source\PSoC5/cyfitter_cfg.c **** 	CY_SET_XTND_REG8((void CYFAR *)(CYREG_IMO_TR1), (CY_GET_XTND_REG8((void CYFAR *)CYREG_FLSHID_CUST_
 346              		.loc 1 213 0
 347 00fe A3F62873 		subw	r3, r3, #3880
 348              	.LBE79:
 349              	.LBE105:
 350              		.loc 1 410 0
 351 0102 8AF800B0 		strb	fp, [r10]
 352              	.LBB106:
 353              	.LBB80:
 205:.\Generated_Source\PSoC5/cyfitter_cfg.c **** 	CY_SET_XTND_REG16((void CYFAR *)(CYREG_CLKDIST_DCFG1_CFG0), 0xBB7Fu);
 354              		.loc 1 205 0
ARM GAS  C:\Users\honet\AppData\Local\Temp\cc4pbx3c.s 			page 15


 355 0106 1822     		movs	r2, #24
 210:.\Generated_Source\PSoC5/cyfitter_cfg.c **** 
 356              		.loc 1 210 0
 357 0108 0621     		movs	r1, #6
 204:.\Generated_Source\PSoC5/cyfitter_cfg.c **** 	CY_SET_XTND_REG8((void CYFAR *)(CYREG_CLKDIST_DCFG0_CFG0 + 0x2u), 0x18u);
 358              		.loc 1 204 0
 359 010a 4FF0C709 		mov	r9, #199
 213:.\Generated_Source\PSoC5/cyfitter_cfg.c **** 	CY_SET_XTND_REG8((void CYFAR *)(CYREG_IMO_TR1), (CY_GET_XTND_REG8((void CYFAR *)CYREG_FLSHID_CUST_
 360              		.loc 1 213 0
 361 010e 4FF0520B 		mov	fp, #82
 214:.\Generated_Source\PSoC5/cyfitter_cfg.c **** 
 362              		.loc 1 214 0
 363 0112 DFF844A1 		ldr	r10, .L27+124
 204:.\Generated_Source\PSoC5/cyfitter_cfg.c **** 	CY_SET_XTND_REG8((void CYFAR *)(CYREG_CLKDIST_DCFG0_CFG0 + 0x2u), 0x18u);
 364              		.loc 1 204 0
 365 0116 A8F80090 		strh	r9, [r8]	@ movhi
 205:.\Generated_Source\PSoC5/cyfitter_cfg.c **** 	CY_SET_XTND_REG16((void CYFAR *)(CYREG_CLKDIST_DCFG1_CFG0), 0xBB7Fu);
 366              		.loc 1 205 0
 367 011a 8CF80020 		strb	r2, [ip]
 206:.\Generated_Source\PSoC5/cyfitter_cfg.c **** 	CY_SET_XTND_REG8((void CYFAR *)(CYREG_CLKDIST_DCFG1_CFG0 + 0x2u), 0x18u);
 368              		.loc 1 206 0
 369 011e AEF80070 		strh	r7, [lr]	@ movhi
 207:.\Generated_Source\PSoC5/cyfitter_cfg.c **** 
 370              		.loc 1 207 0
 371 0122 2270     		strb	r2, [r4]
 210:.\Generated_Source\PSoC5/cyfitter_cfg.c **** 
 372              		.loc 1 210 0
 373 0124 0170     		strb	r1, [r0]
 213:.\Generated_Source\PSoC5/cyfitter_cfg.c **** 	CY_SET_XTND_REG8((void CYFAR *)(CYREG_IMO_TR1), (CY_GET_XTND_REG8((void CYFAR *)CYREG_FLSHID_CUST_
 374              		.loc 1 213 0
 375 0126 83F800B0 		strb	fp, [r3]
 214:.\Generated_Source\PSoC5/cyfitter_cfg.c **** 
 376              		.loc 1 214 0
 377 012a 9AF80020 		ldrb	r2, [r10]	@ zero_extendqisi2
 217:.\Generated_Source\PSoC5/cyfitter_cfg.c **** 	CY_SET_XTND_REG16((void CYFAR *)(CYREG_FASTCLK_PLL_CFG0), 0x1251u);
 378              		.loc 1 217 0
 379 012e 3A49     		ldr	r1, .L27+60
 214:.\Generated_Source\PSoC5/cyfitter_cfg.c **** 
 380              		.loc 1 214 0
 381 0130 D2B2     		uxtb	r2, r2
 217:.\Generated_Source\PSoC5/cyfitter_cfg.c **** 	CY_SET_XTND_REG16((void CYFAR *)(CYREG_FASTCLK_PLL_CFG0), 0x1251u);
 382              		.loc 1 217 0
 383 0132 4FF4E260 		mov	r0, #1808
 214:.\Generated_Source\PSoC5/cyfitter_cfg.c **** 
 384              		.loc 1 214 0
 385 0136 84F81B26 		strb	r2, [r4, #1563]
 223:.\Generated_Source\PSoC5/cyfitter_cfg.c **** 		CyDelayCycles(10u * 48u); /* Delay 10us based on 48MHz clock */
 386              		.loc 1 223 0
 387 013a 384F     		ldr	r7, .L27+64
 217:.\Generated_Source\PSoC5/cyfitter_cfg.c **** 	CY_SET_XTND_REG16((void CYFAR *)(CYREG_FASTCLK_PLL_CFG0), 0x1251u);
 388              		.loc 1 217 0
 389 013c 0880     		strh	r0, [r1]	@ movhi
 218:.\Generated_Source\PSoC5/cyfitter_cfg.c **** 	/* Wait up to 250us for the PLL to lock */
 390              		.loc 1 218 0
 391 013e 1924     		movs	r4, #25
 392 0140 1E84     		strh	r6, [r3, #32]	@ movhi
 393              	.LVL19:
ARM GAS  C:\Users\honet\AppData\Local\Temp\cc4pbx3c.s 			page 16


 394 0142 01E0     		b	.L10
 395              	.LVL20:
 396              	.L26:
 221:.\Generated_Source\PSoC5/cyfitter_cfg.c **** 	{ 
 397              		.loc 1 221 0
 398 0144 032D     		cmp	r5, #3
 399 0146 0DD0     		beq	.L25
 400              	.LVL21:
 401              	.L10:
 223:.\Generated_Source\PSoC5/cyfitter_cfg.c **** 		CyDelayCycles(10u * 48u); /* Delay 10us based on 48MHz clock */
 402              		.loc 1 223 0
 403 0148 3A78     		ldrb	r2, [r7]	@ zero_extendqisi2
 224:.\Generated_Source\PSoC5/cyfitter_cfg.c **** 	}
 404              		.loc 1 224 0
 405 014a 4FF4F070 		mov	r0, #480
 223:.\Generated_Source\PSoC5/cyfitter_cfg.c **** 		CyDelayCycles(10u * 48u); /* Delay 10us based on 48MHz clock */
 406              		.loc 1 223 0
 407 014e 02F00102 		and	r2, r2, #1
 408 0152 42EA4503 		orr	r3, r2, r5, lsl #1
 409 0156 03F00305 		and	r5, r3, #3
 410              	.LVL22:
 224:.\Generated_Source\PSoC5/cyfitter_cfg.c **** 	}
 411              		.loc 1 224 0
 412 015a FFF7FEFF 		bl	CyDelayCycles
 413              	.LVL23:
 221:.\Generated_Source\PSoC5/cyfitter_cfg.c **** 	{ 
 414              		.loc 1 221 0
 415 015e 013C     		subs	r4, r4, #1
 416 0160 F0D1     		bne	.L26
 417              	.L9:
 418 0162 FEE7     		b	.L9
 419              	.L25:
 233:.\Generated_Source\PSoC5/cyfitter_cfg.c **** 	CY_SET_XTND_REG8((void CYFAR *)(CYREG_CLKDIST_MSTR0), 0x07u);
 420              		.loc 1 233 0
 421 0164 2E4A     		ldr	r2, .L27+68
 241:.\Generated_Source\PSoC5/cyfitter_cfg.c **** 
 422              		.loc 1 241 0
 423 0166 2F48     		ldr	r0, .L27+72
 235:.\Generated_Source\PSoC5/cyfitter_cfg.c **** 	CY_SET_XTND_REG8((void CYFAR *)(CYREG_CLKDIST_BCFG2), 0x48u);
 424              		.loc 1 235 0
 425 0168 DFF8F0E0 		ldr	lr, .L27+128
 236:.\Generated_Source\PSoC5/cyfitter_cfg.c **** 	CY_SET_XTND_REG8((void CYFAR *)(CYREG_CLKDIST_MSTR0), 0x00u);
 426              		.loc 1 236 0
 427 016c 2E4E     		ldr	r6, .L27+76
 240:.\Generated_Source\PSoC5/cyfitter_cfg.c **** 	CY_SET_XTND_REG8((void CYFAR *)(CYREG_CLKDIST_LD), 0x02u);
 428              		.loc 1 240 0
 429 016e 2F4D     		ldr	r5, .L27+80
 430              	.LVL24:
 235:.\Generated_Source\PSoC5/cyfitter_cfg.c **** 	CY_SET_XTND_REG8((void CYFAR *)(CYREG_CLKDIST_BCFG2), 0x48u);
 431              		.loc 1 235 0
 432 0170 0023     		movs	r3, #0
 243:.\Generated_Source\PSoC5/cyfitter_cfg.c **** }
 433              		.loc 1 243 0
 434 0172 2F49     		ldr	r1, .L27+84
 234:.\Generated_Source\PSoC5/cyfitter_cfg.c **** 	CY_SET_XTND_REG8((void CYFAR *)(CYREG_CLKDIST_BCFG0), 0x00u);
 435              		.loc 1 234 0
 436 0174 4FF0070C 		mov	ip, #7
ARM GAS  C:\Users\honet\AppData\Local\Temp\cc4pbx3c.s 			page 17


 236:.\Generated_Source\PSoC5/cyfitter_cfg.c **** 	CY_SET_XTND_REG8((void CYFAR *)(CYREG_CLKDIST_MSTR0), 0x00u);
 437              		.loc 1 236 0
 438 0178 4827     		movs	r7, #72
 241:.\Generated_Source\PSoC5/cyfitter_cfg.c **** 
 439              		.loc 1 241 0
 440 017a 0224     		movs	r4, #2
 233:.\Generated_Source\PSoC5/cyfitter_cfg.c **** 	CY_SET_XTND_REG8((void CYFAR *)(CYREG_CLKDIST_MSTR0), 0x07u);
 441              		.loc 1 233 0
 442 017c 4FF48078 		mov	r8, #256
 443 0180 A2F80080 		strh	r8, [r2]	@ movhi
 234:.\Generated_Source\PSoC5/cyfitter_cfg.c **** 	CY_SET_XTND_REG8((void CYFAR *)(CYREG_CLKDIST_BCFG0), 0x00u);
 444              		.loc 1 234 0
 445 0184 82F800C0 		strb	ip, [r2]
 235:.\Generated_Source\PSoC5/cyfitter_cfg.c **** 	CY_SET_XTND_REG8((void CYFAR *)(CYREG_CLKDIST_BCFG2), 0x48u);
 446              		.loc 1 235 0
 447 0188 8EF80030 		strb	r3, [lr]
 236:.\Generated_Source\PSoC5/cyfitter_cfg.c **** 	CY_SET_XTND_REG8((void CYFAR *)(CYREG_CLKDIST_MSTR0), 0x00u);
 448              		.loc 1 236 0
 449 018c 3770     		strb	r7, [r6]
 237:.\Generated_Source\PSoC5/cyfitter_cfg.c **** 
 450              		.loc 1 237 0
 451 018e 1370     		strb	r3, [r2]
 240:.\Generated_Source\PSoC5/cyfitter_cfg.c **** 	CY_SET_XTND_REG8((void CYFAR *)(CYREG_CLKDIST_LD), 0x02u);
 452              		.loc 1 240 0
 453 0190 2B70     		strb	r3, [r5]
 241:.\Generated_Source\PSoC5/cyfitter_cfg.c **** 
 454              		.loc 1 241 0
 455 0192 0470     		strb	r4, [r0]
 243:.\Generated_Source\PSoC5/cyfitter_cfg.c **** }
 456              		.loc 1 243 0
 457 0194 0B78     		ldrb	r3, [r1]	@ zero_extendqisi2
 458              	.LBE80:
 459              	.LBE106:
 411:.\Generated_Source\PSoC5/cyfitter_cfg.c **** 	/* Setup clocks based on selections from Clock DWR */
 412:.\Generated_Source\PSoC5/cyfitter_cfg.c **** 	ClockSetup();
 413:.\Generated_Source\PSoC5/cyfitter_cfg.c **** 	/* Set Flash Cycles based on newly configured 48.00MHz Bus Clock. */
 414:.\Generated_Source\PSoC5/cyfitter_cfg.c **** 	CY_SET_XTND_REG8((void CYFAR *)(CYREG_CACHE_CC_CTL), (((CYDEV_INSTRUCT_CACHE_ENABLED) != 0) ? 0xC1
 460              		.loc 1 414 0
 461 0196 C124     		movs	r4, #193
 462              	.LBB107:
 463              	.LBB81:
 243:.\Generated_Source\PSoC5/cyfitter_cfg.c **** }
 464              		.loc 1 243 0
 465 0198 43F00303 		orr	r3, r3, #3
 466              	.LBE81:
 467              	.LBE107:
 468              	.LBB108:
 469              	.LBB109:
 268:.\Generated_Source\PSoC5/cyfitter_cfg.c **** 	CY_SET_XTND_REG8((void CYFAR *)(CYREG_BG_DFT0), (bg_xover_inl_trim & 0x07u));
 470              		.loc 1 268 0
 471 019c 254A     		ldr	r2, .L27+88
 472              	.LBE109:
 473              	.LBE108:
 474              	.LBB113:
 475              	.LBB82:
 243:.\Generated_Source\PSoC5/cyfitter_cfg.c **** }
 476              		.loc 1 243 0
ARM GAS  C:\Users\honet\AppData\Local\Temp\cc4pbx3c.s 			page 18


 477 019e 0B70     		strb	r3, [r1]
 478              	.LBE82:
 479              	.LBE113:
 480              		.loc 1 414 0
 481 01a0 80F8FF47 		strb	r4, [r0, #2047]
 482              	.LBB114:
 483              	.LBB110:
 268:.\Generated_Source\PSoC5/cyfitter_cfg.c **** 	CY_SET_XTND_REG8((void CYFAR *)(CYREG_BG_DFT0), (bg_xover_inl_trim & 0x07u));
 484              		.loc 1 268 0
 485 01a4 1378     		ldrb	r3, [r2]	@ zero_extendqisi2
 269:.\Generated_Source\PSoC5/cyfitter_cfg.c **** 	CY_SET_XTND_REG8((void CYFAR *)(CYREG_BG_DFT1), ((bg_xover_inl_trim >> 4) & 0x0Fu));
 486              		.loc 1 269 0
 487 01a6 01F5A651 		add	r1, r1, #5312
 268:.\Generated_Source\PSoC5/cyfitter_cfg.c **** 	CY_SET_XTND_REG8((void CYFAR *)(CYREG_BG_DFT0), (bg_xover_inl_trim & 0x07u));
 488              		.loc 1 268 0
 489 01aa DBB2     		uxtb	r3, r3
 490              	.LVL25:
 269:.\Generated_Source\PSoC5/cyfitter_cfg.c **** 	CY_SET_XTND_REG8((void CYFAR *)(CYREG_BG_DFT1), ((bg_xover_inl_trim >> 4) & 0x0Fu));
 491              		.loc 1 269 0
 492 01ac 0C31     		adds	r1, r1, #12
 270:.\Generated_Source\PSoC5/cyfitter_cfg.c **** 	CY_SET_XTND_REG8((void CYFAR *)CYREG_PUMP_CR0, 0x44u);
 493              		.loc 1 270 0
 494 01ae 0EF5C35E 		add	lr, lr, #6240
 271:.\Generated_Source\PSoC5/cyfitter_cfg.c **** }
 495              		.loc 1 271 0
 496 01b2 06F5C356 		add	r6, r6, #6240
 269:.\Generated_Source\PSoC5/cyfitter_cfg.c **** 	CY_SET_XTND_REG8((void CYFAR *)(CYREG_BG_DFT1), ((bg_xover_inl_trim >> 4) & 0x0Fu));
 497              		.loc 1 269 0
 498 01b6 03EA0C00 		and	r0, r3, ip
 499              	.LBE110:
 500              	.LBE114:
 501              	.LBB115:
 502              	.LBB116:
  71:.\Generated_Source\PSoC5/cyfitter_cfg.c **** }
 503              		.loc 1 71 0
 504 01ba 1F4A     		ldr	r2, .L27+92
 505 01bc 1F4C     		ldr	r4, .L27+96
 506              	.LBE116:
 507              	.LBE115:
 508              	.LBB119:
 509              	.LBB111:
 269:.\Generated_Source\PSoC5/cyfitter_cfg.c **** 	CY_SET_XTND_REG8((void CYFAR *)(CYREG_BG_DFT1), ((bg_xover_inl_trim >> 4) & 0x0Fu));
 510              		.loc 1 269 0
 511 01be 0870     		strb	r0, [r1]
 270:.\Generated_Source\PSoC5/cyfitter_cfg.c **** 	CY_SET_XTND_REG8((void CYFAR *)CYREG_PUMP_CR0, 0x44u);
 512              		.loc 1 270 0
 513 01c0 1D09     		lsrs	r5, r3, #4
 514 01c2 0EF1090E 		add	lr, lr, #9
 271:.\Generated_Source\PSoC5/cyfitter_cfg.c **** }
 515              		.loc 1 271 0
 516 01c6 0E36     		adds	r6, r6, #14
 517 01c8 4427     		movs	r7, #68
 518              	.LBE111:
 519              	.LBE119:
 520              	.LBB120:
 521              	.LBB117:
  71:.\Generated_Source\PSoC5/cyfitter_cfg.c **** }
ARM GAS  C:\Users\honet\AppData\Local\Temp\cc4pbx3c.s 			page 19


 522              		.loc 1 71 0
 523 01ca 0FCA     		ldmia	r2, {r0, r1, r2, r3}
 524              	.LVL26:
 525              	.LBE117:
 526              	.LBE120:
 527              	.LBB121:
 528              	.LBB112:
 270:.\Generated_Source\PSoC5/cyfitter_cfg.c **** 	CY_SET_XTND_REG8((void CYFAR *)CYREG_PUMP_CR0, 0x44u);
 529              		.loc 1 270 0
 530 01cc 8EF80050 		strb	r5, [lr]
 271:.\Generated_Source\PSoC5/cyfitter_cfg.c **** }
 531              		.loc 1 271 0
 532 01d0 3770     		strb	r7, [r6]
 533              	.LVL27:
 534              	.LBE112:
 535              	.LBE121:
 536              	.LBB122:
 537              	.LBB118:
  71:.\Generated_Source\PSoC5/cyfitter_cfg.c **** }
 538              		.loc 1 71 0
 539 01d2 07C4     		stmia	r4!, {r0, r1, r2}
 540 01d4 2380     		strh	r3, [r4]	@ movhi
 541 01d6 BDE8F88F 		pop	{r3, r4, r5, r6, r7, r8, r9, r10, fp, pc}
 542              	.L28:
 543 01da 00BF     		.align	2
 544              	.L27:
 545 01dc 00000000 		.word	.LANCHOR0
 546 01e0 E8460040 		.word	1073759976
 547 01e4 000E0140 		.word	1073810944
 548 01e8 58020048 		.word	1207960152
 549 01ec FCFFFF47 		.word	1207959548
 550 01f0 64000048 		.word	1207959652
 551 01f4 03500140 		.word	1073827843
 552 01f8 13500140 		.word	1073827859
 553 01fc D8020048 		.word	1207960280
 554 0200 F0510040 		.word	1073762800
 555 0204 20510040 		.word	1073762592
 556 0208 E4020048 		.word	1207960292
 557 020c 22430040 		.word	1073759010
 558 0210 86400040 		.word	1073758342
 559 0214 00430040 		.word	1073758976
 560 0218 22420040 		.word	1073758754
 561 021c 25420040 		.word	1073758757
 562 0220 04400040 		.word	1073758212
 563 0224 01400040 		.word	1073758209
 564 0228 08400040 		.word	1073758216
 565 022c 09400040 		.word	1073758217
 566 0230 A2430040 		.word	1073759138
 567 0234 CF010049 		.word	1224737231
 568 0238 A0430040 		.word	1073759136
 569 023c B0430040 		.word	1073759152
 570 0240 00760040 		.word	1073772032
 571 0244 08760040 		.word	1073772040
 572 0248 00480040 		.word	1073760256
 573 024c 80400040 		.word	1073758336
 574 0250 82400040 		.word	1073758338
 575 0254 84400040 		.word	1073758340
ARM GAS  C:\Users\honet\AppData\Local\Temp\cc4pbx3c.s 			page 20


 576 0258 0F010049 		.word	1224737039
 577 025c 06400040 		.word	1073758214
 578              	.LBE118:
 579              	.LBE122:
 580              		.cfi_endproc
 581              	.LFE8:
 582              		.size	cyfitter_cfg, .-cyfitter_cfg
 583              		.section	.rodata
 584              		.align	2
 585              		.set	.LANCHOR0,. + 0
 586              		.type	cfg_memset_list.4885, %object
 587              		.size	cfg_memset_list.4885, 54
 588              	cfg_memset_list.4885:
 589 0000 00510040 		.word	1073762560
 590 0004 2000     		.short	32
 591 0006 30510040 		.4byte	1073762608
 592 000a 4000     		.short	64
 593 000c C0510040 		.word	1073762752
 594 0010 1000     		.short	16
 595 0012 00000140 		.4byte	1073807360
 596 0016 000E     		.short	3584
 597 0018 800E0140 		.word	1073811072
 598 001c 8001     		.short	384
 599 001e 00140140 		.4byte	1073812480
 600 0022 0008     		.short	2048
 601 0024 00400140 		.word	1073823744
 602 0028 000A     		.short	2560
 603 002a 004C0140 		.4byte	1073826816
 604 002e 0002     		.short	512
 605 0030 00500140 		.word	1073827840
 606 0034 2000     		.short	32
 607 0036 0000     		.text
 608              	.Letext0:
 609              		.file 2 "c:\\program files (x86)\\cypress\\psoc creator\\3.3\\psoc creator\\import\\gnu\\arm\\4.9.
 610              		.file 3 ".\\Generated_Source\\PSoC5\\cytypes.h"
 611              		.file 4 ".\\Generated_Source\\PSoC5\\CyLib.h"