ARM GAS  C:\Users\honet\AppData\Local\Temp\ccvr1NmH.s 			page 1


   1              		.syntax unified
   2              		.cpu cortex-m3
   3              		.fpu softvfp
   4              		.eabi_attribute 20, 1
   5              		.eabi_attribute 21, 1
   6              		.eabi_attribute 23, 3
   7              		.eabi_attribute 24, 1
   8              		.eabi_attribute 25, 1
   9              		.eabi_attribute 26, 1
  10              		.eabi_attribute 30, 2
  11              		.eabi_attribute 34, 1
  12              		.eabi_attribute 18, 4
  13              		.thumb
  14              		.file	"CyFlash.c"
  15              		.text
  16              	.Ltext0:
  17              		.cfi_sections	.debug_frame
  18              		.section	.text.CyFlash_Start,"ax",%progbits
  19              		.align	2
  20              		.global	CyFlash_Start
  21              		.thumb
  22              		.thumb_func
  23              		.type	CyFlash_Start, %function
  24              	CyFlash_Start:
  25              	.LFB0:
  26              		.file 1 ".\\Generated_Source\\PSoC5\\CyFlash.c"
   1:.\Generated_Source\PSoC5/CyFlash.c **** /***************************************************************************//**
   2:.\Generated_Source\PSoC5/CyFlash.c **** * \file CyFlash.c
   3:.\Generated_Source\PSoC5/CyFlash.c **** * \version 5.40
   4:.\Generated_Source\PSoC5/CyFlash.c **** *
   5:.\Generated_Source\PSoC5/CyFlash.c **** * \brief Provides an API for the FLASH/EEPROM.
   6:.\Generated_Source\PSoC5/CyFlash.c **** *
   7:.\Generated_Source\PSoC5/CyFlash.c **** * \note This code is endian agnostic.
   8:.\Generated_Source\PSoC5/CyFlash.c **** *
   9:.\Generated_Source\PSoC5/CyFlash.c **** * \note Documentation of the API's in this file is located in the System
  10:.\Generated_Source\PSoC5/CyFlash.c **** * Reference Guide provided with PSoC Creator.
  11:.\Generated_Source\PSoC5/CyFlash.c **** *
  12:.\Generated_Source\PSoC5/CyFlash.c **** ********************************************************************************
  13:.\Generated_Source\PSoC5/CyFlash.c **** * \copyright
  14:.\Generated_Source\PSoC5/CyFlash.c **** * Copyright 2008-2016, Cypress Semiconductor Corporation. All rights reserved.
  15:.\Generated_Source\PSoC5/CyFlash.c **** * You may use this file only in accordance with the license, terms, conditions,
  16:.\Generated_Source\PSoC5/CyFlash.c **** * disclaimers, and limitations in the end user license agreement accompanying
  17:.\Generated_Source\PSoC5/CyFlash.c **** * the software package with which this file was provided.
  18:.\Generated_Source\PSoC5/CyFlash.c **** *******************************************************************************/
  19:.\Generated_Source\PSoC5/CyFlash.c **** 
  20:.\Generated_Source\PSoC5/CyFlash.c **** #include "CyFlash.h"
  21:.\Generated_Source\PSoC5/CyFlash.c **** 
  22:.\Generated_Source\PSoC5/CyFlash.c **** /*  The number of EEPROM arrays */
  23:.\Generated_Source\PSoC5/CyFlash.c **** #define CY_FLASH_EEPROM_NUMBER_ARRAYS                 (1u)
  24:.\Generated_Source\PSoC5/CyFlash.c **** 
  25:.\Generated_Source\PSoC5/CyFlash.c **** 
  26:.\Generated_Source\PSoC5/CyFlash.c **** /*******************************************************************************
  27:.\Generated_Source\PSoC5/CyFlash.c **** * Holds the die temperature, updated by CySetTemp(). Used for flash writing.
  28:.\Generated_Source\PSoC5/CyFlash.c **** * The first byte is the sign of the temperature (0 = negative, 1 = positive).
  29:.\Generated_Source\PSoC5/CyFlash.c **** * The second byte is the magnitude.
  30:.\Generated_Source\PSoC5/CyFlash.c **** *******************************************************************************/
  31:.\Generated_Source\PSoC5/CyFlash.c **** uint8 dieTemperature[CY_FLASH_DIE_TEMP_DATA_SIZE];
ARM GAS  C:\Users\honet\AppData\Local\Temp\ccvr1NmH.s 			page 2


  32:.\Generated_Source\PSoC5/CyFlash.c **** 
  33:.\Generated_Source\PSoC5/CyFlash.c **** #if(CYDEV_ECC_ENABLE == 0)
  34:.\Generated_Source\PSoC5/CyFlash.c ****     static uint8 * rowBuffer = 0;
  35:.\Generated_Source\PSoC5/CyFlash.c **** #endif  /* (CYDEV_ECC_ENABLE == 0) */
  36:.\Generated_Source\PSoC5/CyFlash.c **** 
  37:.\Generated_Source\PSoC5/CyFlash.c **** 
  38:.\Generated_Source\PSoC5/CyFlash.c **** static cystatus CySetTempInt(void);
  39:.\Generated_Source\PSoC5/CyFlash.c **** static cystatus CyFlashGetSpcAlgorithm(void);
  40:.\Generated_Source\PSoC5/CyFlash.c **** 
  41:.\Generated_Source\PSoC5/CyFlash.c **** 
  42:.\Generated_Source\PSoC5/CyFlash.c **** /*******************************************************************************
  43:.\Generated_Source\PSoC5/CyFlash.c **** * Function Name: CyFlash_Start
  44:.\Generated_Source\PSoC5/CyFlash.c **** ****************************************************************************//**
  45:.\Generated_Source\PSoC5/CyFlash.c **** *
  46:.\Generated_Source\PSoC5/CyFlash.c **** *  Enable the Flash.
  47:.\Generated_Source\PSoC5/CyFlash.c **** *
  48:.\Generated_Source\PSoC5/CyFlash.c **** *******************************************************************************/
  49:.\Generated_Source\PSoC5/CyFlash.c **** void CyFlash_Start(void) 
  50:.\Generated_Source\PSoC5/CyFlash.c **** {
  27              		.loc 1 50 0
  28              		.cfi_startproc
  29              		@ args = 0, pretend = 0, frame = 0
  30              		@ frame_needed = 0, uses_anonymous_args = 0
  31 0000 38B5     		push	{r3, r4, r5, lr}
  32              		.cfi_def_cfa_offset 16
  33              		.cfi_offset 3, -16
  34              		.cfi_offset 4, -12
  35              		.cfi_offset 5, -8
  36              		.cfi_offset 14, -4
  51:.\Generated_Source\PSoC5/CyFlash.c ****     uint8 interruptState;
  52:.\Generated_Source\PSoC5/CyFlash.c **** 
  53:.\Generated_Source\PSoC5/CyFlash.c ****     interruptState = CyEnterCriticalSection();
  37              		.loc 1 53 0
  38 0002 FFF7FEFF 		bl	CyEnterCriticalSection
  39              	.LVL0:
  54:.\Generated_Source\PSoC5/CyFlash.c **** 
  55:.\Generated_Source\PSoC5/CyFlash.c **** 
  56:.\Generated_Source\PSoC5/CyFlash.c ****     /***************************************************************************
  57:.\Generated_Source\PSoC5/CyFlash.c ****     * Enable SPC clock. This also internally enables the 36MHz IMO, since this
  58:.\Generated_Source\PSoC5/CyFlash.c ****     * is required for the SPC to function.
  59:.\Generated_Source\PSoC5/CyFlash.c ****     ***************************************************************************/
  60:.\Generated_Source\PSoC5/CyFlash.c ****     CY_FLASH_PM_ACT_CFG0_REG    |= CY_FLASH_PM_ACT_CFG0_EN_CLK_SPC;
  40              		.loc 1 60 0
  41 0006 0F4A     		ldr	r2, .L7
  61:.\Generated_Source\PSoC5/CyFlash.c ****     CY_FLASH_PM_ALTACT_CFG0_REG |= CY_FLASH_PM_ALTACT_CFG0_EN_CLK_SPC;
  42              		.loc 1 61 0
  43 0008 0F49     		ldr	r1, .L7+4
  60:.\Generated_Source\PSoC5/CyFlash.c ****     CY_FLASH_PM_ALTACT_CFG0_REG |= CY_FLASH_PM_ALTACT_CFG0_EN_CLK_SPC;
  44              		.loc 1 60 0
  45 000a 1378     		ldrb	r3, [r2]	@ zero_extendqisi2
  62:.\Generated_Source\PSoC5/CyFlash.c **** 
  63:.\Generated_Source\PSoC5/CyFlash.c **** 
  64:.\Generated_Source\PSoC5/CyFlash.c ****     /***************************************************************************
  65:.\Generated_Source\PSoC5/CyFlash.c ****     * The wake count defines the number of Bus Clock cycles it takes for the
  66:.\Generated_Source\PSoC5/CyFlash.c ****     * flash or eeprom to wake up from a low power mode independent of the chip
  67:.\Generated_Source\PSoC5/CyFlash.c ****     * power mode. Wake up time for these blocks is 5 us.
  68:.\Generated_Source\PSoC5/CyFlash.c ****     * The granularity of this register is 2 Bus Clock cycles, so a value of 0x1E
ARM GAS  C:\Users\honet\AppData\Local\Temp\ccvr1NmH.s 			page 3


  69:.\Generated_Source\PSoC5/CyFlash.c ****     * (30d) defines the wake up time as 60 cycles of the Bus Clock.
  70:.\Generated_Source\PSoC5/CyFlash.c ****     * This register needs to be written with a value dependent on the Bus Clock
  71:.\Generated_Source\PSoC5/CyFlash.c ****     * frequency so that the duration of the cycles is equal to or greater than
  72:.\Generated_Source\PSoC5/CyFlash.c ****     * the 5 us delay required.
  73:.\Generated_Source\PSoC5/CyFlash.c ****     ***************************************************************************/
  74:.\Generated_Source\PSoC5/CyFlash.c ****     CY_FLASH_SPC_FM_EE_WAKE_CNT_REG = CY_FLASH_SPC_FM_EE_WAKE_CNT_80MHZ;
  46              		.loc 1 74 0
  47 000c 0F4C     		ldr	r4, .L7+8
  60:.\Generated_Source\PSoC5/CyFlash.c ****     CY_FLASH_PM_ALTACT_CFG0_REG |= CY_FLASH_PM_ALTACT_CFG0_EN_CLK_SPC;
  48              		.loc 1 60 0
  49 000e 43F00803 		orr	r3, r3, #8
  50 0012 1370     		strb	r3, [r2]
  61:.\Generated_Source\PSoC5/CyFlash.c **** 
  51              		.loc 1 61 0
  52 0014 0B78     		ldrb	r3, [r1]	@ zero_extendqisi2
  53              		.loc 1 74 0
  54 0016 C825     		movs	r5, #200
  61:.\Generated_Source\PSoC5/CyFlash.c **** 
  55              		.loc 1 61 0
  56 0018 43F00803 		orr	r3, r3, #8
  57 001c 0B70     		strb	r3, [r1]
  58              		.loc 1 74 0
  59 001e 2570     		strb	r5, [r4]
  75:.\Generated_Source\PSoC5/CyFlash.c **** 
  76:.\Generated_Source\PSoC5/CyFlash.c **** 
  77:.\Generated_Source\PSoC5/CyFlash.c ****     /***************************************************************************
  78:.\Generated_Source\PSoC5/CyFlash.c ****     * Enable flash. Active flash macros consume current, but re-enabling a
  79:.\Generated_Source\PSoC5/CyFlash.c ****     * disabled flash macro takes 5us. If the CPU attempts to fetch out of the
  80:.\Generated_Source\PSoC5/CyFlash.c ****     * macro during that time, it will be stalled. This bit allows the flash to
  81:.\Generated_Source\PSoC5/CyFlash.c ****     * be enabled even if the CPU is disabled, which allows a quicker return to
  82:.\Generated_Source\PSoC5/CyFlash.c ****     * code execution.
  83:.\Generated_Source\PSoC5/CyFlash.c ****     ***************************************************************************/
  84:.\Generated_Source\PSoC5/CyFlash.c ****     CY_FLASH_PM_ACT_CFG12_REG    |= CY_FLASH_PM_ACT_CFG12_EN_FM;
  60              		.loc 1 84 0
  61 0020 137B     		ldrb	r3, [r2, #12]	@ zero_extendqisi2
  62 0022 43F00F03 		orr	r3, r3, #15
  63 0026 1373     		strb	r3, [r2, #12]
  85:.\Generated_Source\PSoC5/CyFlash.c ****     CY_FLASH_PM_ALTACT_CFG12_REG |= CY_FLASH_PM_ALTACT_CFG12_EN_FM;
  64              		.loc 1 85 0
  65 0028 0B7B     		ldrb	r3, [r1, #12]	@ zero_extendqisi2
  86:.\Generated_Source\PSoC5/CyFlash.c **** 
  87:.\Generated_Source\PSoC5/CyFlash.c ****     while(0u == (CY_FLASH_SPC_FM_EE_CR_REG & CY_FLASH_EE_EE_AWAKE))
  66              		.loc 1 87 0
  67 002a 02F55872 		add	r2, r2, #864
  85:.\Generated_Source\PSoC5/CyFlash.c ****     CY_FLASH_PM_ALTACT_CFG12_REG |= CY_FLASH_PM_ALTACT_CFG12_EN_FM;
  68              		.loc 1 85 0
  69 002e 43F00F03 		orr	r3, r3, #15
  70 0032 0B73     		strb	r3, [r1, #12]
  71              	.L2:
  72              		.loc 1 87 0 discriminator 1
  73 0034 1378     		ldrb	r3, [r2]	@ zero_extendqisi2
  74 0036 9B06     		lsls	r3, r3, #26
  75 0038 FCD5     		bpl	.L2
  88:.\Generated_Source\PSoC5/CyFlash.c ****     {
  89:.\Generated_Source\PSoC5/CyFlash.c ****         /* Non-zero status denotes that the EEPROM/Flash is awake & powered. */
  90:.\Generated_Source\PSoC5/CyFlash.c ****     }
  91:.\Generated_Source\PSoC5/CyFlash.c **** 
ARM GAS  C:\Users\honet\AppData\Local\Temp\ccvr1NmH.s 			page 4


  92:.\Generated_Source\PSoC5/CyFlash.c ****     CyExitCriticalSection(interruptState);
  93:.\Generated_Source\PSoC5/CyFlash.c **** }
  76              		.loc 1 93 0
  77 003a BDE83840 		pop	{r3, r4, r5, lr}
  78              		.cfi_restore 14
  79              		.cfi_restore 5
  80              		.cfi_restore 4
  81              		.cfi_restore 3
  82              		.cfi_def_cfa_offset 0
  92:.\Generated_Source\PSoC5/CyFlash.c **** }
  83              		.loc 1 92 0
  84 003e FFF7FEBF 		b	CyExitCriticalSection
  85              	.LVL1:
  86              	.L8:
  87 0042 00BF     		.align	2
  88              	.L7:
  89 0044 A0430040 		.word	1073759136
  90 0048 B0430040 		.word	1073759152
  91 004c 01470040 		.word	1073760001
  92              		.cfi_endproc
  93              	.LFE0:
  94              		.size	CyFlash_Start, .-CyFlash_Start
  95              		.section	.text.CyFlash_Stop,"ax",%progbits
  96              		.align	2
  97              		.global	CyFlash_Stop
  98              		.thumb
  99              		.thumb_func
 100              		.type	CyFlash_Stop, %function
 101              	CyFlash_Stop:
 102              	.LFB1:
  94:.\Generated_Source\PSoC5/CyFlash.c **** 
  95:.\Generated_Source\PSoC5/CyFlash.c **** 
  96:.\Generated_Source\PSoC5/CyFlash.c **** /*******************************************************************************
  97:.\Generated_Source\PSoC5/CyFlash.c **** * Function Name: CyFlash_Stop
  98:.\Generated_Source\PSoC5/CyFlash.c **** ****************************************************************************//**
  99:.\Generated_Source\PSoC5/CyFlash.c **** *
 100:.\Generated_Source\PSoC5/CyFlash.c **** *  Disable the Flash.
 101:.\Generated_Source\PSoC5/CyFlash.c **** *
 102:.\Generated_Source\PSoC5/CyFlash.c **** * \sideeffect
 103:.\Generated_Source\PSoC5/CyFlash.c **** *  This setting is ignored as long as the CPU is currently running.  This will
 104:.\Generated_Source\PSoC5/CyFlash.c **** *  only take effect when the CPU is later disabled.
 105:.\Generated_Source\PSoC5/CyFlash.c **** *
 106:.\Generated_Source\PSoC5/CyFlash.c **** *******************************************************************************/
 107:.\Generated_Source\PSoC5/CyFlash.c **** void CyFlash_Stop(void) 
 108:.\Generated_Source\PSoC5/CyFlash.c **** {
 103              		.loc 1 108 0
 104              		.cfi_startproc
 105              		@ args = 0, pretend = 0, frame = 0
 106              		@ frame_needed = 0, uses_anonymous_args = 0
 107 0000 08B5     		push	{r3, lr}
 108              		.cfi_def_cfa_offset 8
 109              		.cfi_offset 3, -8
 110              		.cfi_offset 14, -4
 109:.\Generated_Source\PSoC5/CyFlash.c ****     uint8 interruptState;
 110:.\Generated_Source\PSoC5/CyFlash.c **** 
 111:.\Generated_Source\PSoC5/CyFlash.c ****     interruptState = CyEnterCriticalSection();
 111              		.loc 1 111 0
ARM GAS  C:\Users\honet\AppData\Local\Temp\ccvr1NmH.s 			page 5


 112 0002 FFF7FEFF 		bl	CyEnterCriticalSection
 113              	.LVL2:
 112:.\Generated_Source\PSoC5/CyFlash.c **** 
 113:.\Generated_Source\PSoC5/CyFlash.c ****     CY_FLASH_PM_ACT_CFG12_REG    &= ((uint8)(~CY_FLASH_PM_ACT_CFG12_EN_FM));
 114              		.loc 1 113 0
 115 0006 0749     		ldr	r1, .L11
 114:.\Generated_Source\PSoC5/CyFlash.c ****     CY_FLASH_PM_ALTACT_CFG12_REG &= ((uint8)(~CY_FLASH_PM_ALTACT_CFG12_EN_FM));
 116              		.loc 1 114 0
 117 0008 074A     		ldr	r2, .L11+4
 113:.\Generated_Source\PSoC5/CyFlash.c ****     CY_FLASH_PM_ALTACT_CFG12_REG &= ((uint8)(~CY_FLASH_PM_ALTACT_CFG12_EN_FM));
 118              		.loc 1 113 0
 119 000a 0B78     		ldrb	r3, [r1]	@ zero_extendqisi2
 120 000c 03F0F003 		and	r3, r3, #240
 121 0010 0B70     		strb	r3, [r1]
 122              		.loc 1 114 0
 123 0012 1378     		ldrb	r3, [r2]	@ zero_extendqisi2
 124 0014 03F0F003 		and	r3, r3, #240
 125 0018 1370     		strb	r3, [r2]
 115:.\Generated_Source\PSoC5/CyFlash.c **** 
 116:.\Generated_Source\PSoC5/CyFlash.c ****     CyExitCriticalSection(interruptState);
 117:.\Generated_Source\PSoC5/CyFlash.c **** }
 126              		.loc 1 117 0
 127 001a BDE80840 		pop	{r3, lr}
 128              		.cfi_restore 14
 129              		.cfi_restore 3
 130              		.cfi_def_cfa_offset 0
 116:.\Generated_Source\PSoC5/CyFlash.c **** }
 131              		.loc 1 116 0
 132 001e FFF7FEBF 		b	CyExitCriticalSection
 133              	.LVL3:
 134              	.L12:
 135 0022 00BF     		.align	2
 136              	.L11:
 137 0024 AC430040 		.word	1073759148
 138 0028 BC430040 		.word	1073759164
 139              		.cfi_endproc
 140              	.LFE1:
 141              		.size	CyFlash_Stop, .-CyFlash_Stop
 142              		.section	.text.CySetTemp,"ax",%progbits
 143              		.align	2
 144              		.global	CySetTemp
 145              		.thumb
 146              		.thumb_func
 147              		.type	CySetTemp, %function
 148              	CySetTemp:
 149              	.LFB4:
 118:.\Generated_Source\PSoC5/CyFlash.c **** 
 119:.\Generated_Source\PSoC5/CyFlash.c **** 
 120:.\Generated_Source\PSoC5/CyFlash.c **** /*******************************************************************************
 121:.\Generated_Source\PSoC5/CyFlash.c **** * Function Name: CySetTempInt
 122:.\Generated_Source\PSoC5/CyFlash.c **** ****************************************************************************//**
 123:.\Generated_Source\PSoC5/CyFlash.c **** *
 124:.\Generated_Source\PSoC5/CyFlash.c **** *  Sends a command to the SPC to read the die temperature. Sets a global value
 125:.\Generated_Source\PSoC5/CyFlash.c **** *  used by the Write function. This function must be called once before
 126:.\Generated_Source\PSoC5/CyFlash.c **** *  executing a series of Flash writing functions.
 127:.\Generated_Source\PSoC5/CyFlash.c **** *
 128:.\Generated_Source\PSoC5/CyFlash.c **** * \return
ARM GAS  C:\Users\honet\AppData\Local\Temp\ccvr1NmH.s 			page 6


 129:.\Generated_Source\PSoC5/CyFlash.c **** *  status:
 130:.\Generated_Source\PSoC5/CyFlash.c **** *   CYRET_SUCCESS - if successful
 131:.\Generated_Source\PSoC5/CyFlash.c **** *   CYRET_LOCKED  - if Flash writing already in use
 132:.\Generated_Source\PSoC5/CyFlash.c **** *   CYRET_UNKNOWN - if there was an SPC error
 133:.\Generated_Source\PSoC5/CyFlash.c **** *
 134:.\Generated_Source\PSoC5/CyFlash.c **** *******************************************************************************/
 135:.\Generated_Source\PSoC5/CyFlash.c **** static cystatus CySetTempInt(void) 
 136:.\Generated_Source\PSoC5/CyFlash.c **** {
 137:.\Generated_Source\PSoC5/CyFlash.c ****     cystatus status;
 138:.\Generated_Source\PSoC5/CyFlash.c **** 
 139:.\Generated_Source\PSoC5/CyFlash.c ****     /* Make sure SPC is powered */
 140:.\Generated_Source\PSoC5/CyFlash.c ****     CySpcStart();
 141:.\Generated_Source\PSoC5/CyFlash.c **** 
 142:.\Generated_Source\PSoC5/CyFlash.c ****     /* Plan for failure. */
 143:.\Generated_Source\PSoC5/CyFlash.c ****     status = CYRET_UNKNOWN;
 144:.\Generated_Source\PSoC5/CyFlash.c **** 
 145:.\Generated_Source\PSoC5/CyFlash.c ****     if(CySpcLock() == CYRET_SUCCESS)
 146:.\Generated_Source\PSoC5/CyFlash.c ****     {
 147:.\Generated_Source\PSoC5/CyFlash.c ****         /* Write the command. */
 148:.\Generated_Source\PSoC5/CyFlash.c ****         if(CYRET_STARTED == CySpcGetTemp(CY_TEMP_NUMBER_OF_SAMPLES))
 149:.\Generated_Source\PSoC5/CyFlash.c ****         {
 150:.\Generated_Source\PSoC5/CyFlash.c ****             do
 151:.\Generated_Source\PSoC5/CyFlash.c ****             {
 152:.\Generated_Source\PSoC5/CyFlash.c ****                 if(CySpcReadData(dieTemperature, CY_FLASH_DIE_TEMP_DATA_SIZE) == CY_FLASH_DIE_TEMP_
 153:.\Generated_Source\PSoC5/CyFlash.c ****                 {
 154:.\Generated_Source\PSoC5/CyFlash.c ****                     status = CYRET_SUCCESS;
 155:.\Generated_Source\PSoC5/CyFlash.c **** 
 156:.\Generated_Source\PSoC5/CyFlash.c ****                     while(CY_SPC_BUSY)
 157:.\Generated_Source\PSoC5/CyFlash.c ****                     {
 158:.\Generated_Source\PSoC5/CyFlash.c ****                         /* Spin until idle. */
 159:.\Generated_Source\PSoC5/CyFlash.c ****                         CyDelayUs(1u);
 160:.\Generated_Source\PSoC5/CyFlash.c ****                     }
 161:.\Generated_Source\PSoC5/CyFlash.c ****                     break;
 162:.\Generated_Source\PSoC5/CyFlash.c ****                 }
 163:.\Generated_Source\PSoC5/CyFlash.c **** 
 164:.\Generated_Source\PSoC5/CyFlash.c ****             } while(CY_SPC_BUSY);
 165:.\Generated_Source\PSoC5/CyFlash.c ****         }
 166:.\Generated_Source\PSoC5/CyFlash.c **** 
 167:.\Generated_Source\PSoC5/CyFlash.c ****         CySpcUnlock();
 168:.\Generated_Source\PSoC5/CyFlash.c ****     }
 169:.\Generated_Source\PSoC5/CyFlash.c ****     else
 170:.\Generated_Source\PSoC5/CyFlash.c ****     {
 171:.\Generated_Source\PSoC5/CyFlash.c ****         status = CYRET_LOCKED;
 172:.\Generated_Source\PSoC5/CyFlash.c ****     }
 173:.\Generated_Source\PSoC5/CyFlash.c **** 
 174:.\Generated_Source\PSoC5/CyFlash.c ****     return (status);
 175:.\Generated_Source\PSoC5/CyFlash.c **** }
 176:.\Generated_Source\PSoC5/CyFlash.c **** 
 177:.\Generated_Source\PSoC5/CyFlash.c **** 
 178:.\Generated_Source\PSoC5/CyFlash.c **** /*******************************************************************************
 179:.\Generated_Source\PSoC5/CyFlash.c **** * Function Name: CyFlashGetSpcAlgorithm
 180:.\Generated_Source\PSoC5/CyFlash.c **** ****************************************************************************//**
 181:.\Generated_Source\PSoC5/CyFlash.c **** *
 182:.\Generated_Source\PSoC5/CyFlash.c **** *  Sends a command to the SPC to download code into RAM.
 183:.\Generated_Source\PSoC5/CyFlash.c **** *
 184:.\Generated_Source\PSoC5/CyFlash.c **** * \return
 185:.\Generated_Source\PSoC5/CyFlash.c **** *  status:
ARM GAS  C:\Users\honet\AppData\Local\Temp\ccvr1NmH.s 			page 7


 186:.\Generated_Source\PSoC5/CyFlash.c **** *   CYRET_SUCCESS - if successful
 187:.\Generated_Source\PSoC5/CyFlash.c **** *   CYRET_LOCKED  - if Flash writing already in use
 188:.\Generated_Source\PSoC5/CyFlash.c **** *   CYRET_UNKNOWN - if there was an SPC error
 189:.\Generated_Source\PSoC5/CyFlash.c **** *
 190:.\Generated_Source\PSoC5/CyFlash.c **** *******************************************************************************/
 191:.\Generated_Source\PSoC5/CyFlash.c **** static cystatus CyFlashGetSpcAlgorithm(void) 
 192:.\Generated_Source\PSoC5/CyFlash.c **** {
 193:.\Generated_Source\PSoC5/CyFlash.c ****     cystatus status;
 194:.\Generated_Source\PSoC5/CyFlash.c **** 
 195:.\Generated_Source\PSoC5/CyFlash.c ****     /* Make sure SPC is powered */
 196:.\Generated_Source\PSoC5/CyFlash.c ****     CySpcStart();
 197:.\Generated_Source\PSoC5/CyFlash.c **** 
 198:.\Generated_Source\PSoC5/CyFlash.c ****     if(CySpcLock() == CYRET_SUCCESS)
 199:.\Generated_Source\PSoC5/CyFlash.c ****     {
 200:.\Generated_Source\PSoC5/CyFlash.c ****         status = CySpcGetAlgorithm();
 201:.\Generated_Source\PSoC5/CyFlash.c **** 
 202:.\Generated_Source\PSoC5/CyFlash.c ****         if(CYRET_STARTED == status)
 203:.\Generated_Source\PSoC5/CyFlash.c ****         {
 204:.\Generated_Source\PSoC5/CyFlash.c ****             while(CY_SPC_BUSY)
 205:.\Generated_Source\PSoC5/CyFlash.c ****             {
 206:.\Generated_Source\PSoC5/CyFlash.c ****                 /* Spin until idle. */
 207:.\Generated_Source\PSoC5/CyFlash.c ****                 CyDelayUs(1u);
 208:.\Generated_Source\PSoC5/CyFlash.c ****             }
 209:.\Generated_Source\PSoC5/CyFlash.c **** 
 210:.\Generated_Source\PSoC5/CyFlash.c ****             if(CY_SPC_STATUS_SUCCESS == CY_SPC_READ_STATUS)
 211:.\Generated_Source\PSoC5/CyFlash.c ****             {
 212:.\Generated_Source\PSoC5/CyFlash.c ****                 status = CYRET_SUCCESS;
 213:.\Generated_Source\PSoC5/CyFlash.c ****             }
 214:.\Generated_Source\PSoC5/CyFlash.c ****         }
 215:.\Generated_Source\PSoC5/CyFlash.c ****         CySpcUnlock();
 216:.\Generated_Source\PSoC5/CyFlash.c ****     }
 217:.\Generated_Source\PSoC5/CyFlash.c ****     else
 218:.\Generated_Source\PSoC5/CyFlash.c ****     {
 219:.\Generated_Source\PSoC5/CyFlash.c ****         status = CYRET_LOCKED;
 220:.\Generated_Source\PSoC5/CyFlash.c ****     }
 221:.\Generated_Source\PSoC5/CyFlash.c **** 
 222:.\Generated_Source\PSoC5/CyFlash.c ****     return (status);
 223:.\Generated_Source\PSoC5/CyFlash.c **** }
 224:.\Generated_Source\PSoC5/CyFlash.c **** 
 225:.\Generated_Source\PSoC5/CyFlash.c **** 
 226:.\Generated_Source\PSoC5/CyFlash.c **** /*******************************************************************************
 227:.\Generated_Source\PSoC5/CyFlash.c **** * Function Name: CySetTemp
 228:.\Generated_Source\PSoC5/CyFlash.c **** ****************************************************************************//**
 229:.\Generated_Source\PSoC5/CyFlash.c **** *
 230:.\Generated_Source\PSoC5/CyFlash.c **** *  This is a wraparound for CySetTempInt(). It is used to return the second
 231:.\Generated_Source\PSoC5/CyFlash.c **** *  successful read of the temperature value.
 232:.\Generated_Source\PSoC5/CyFlash.c **** *
 233:.\Generated_Source\PSoC5/CyFlash.c **** * \return
 234:.\Generated_Source\PSoC5/CyFlash.c **** *  status:
 235:.\Generated_Source\PSoC5/CyFlash.c **** *   CYRET_SUCCESS if successful.
 236:.\Generated_Source\PSoC5/CyFlash.c **** *   CYRET_LOCKED  if Flash writing already in use
 237:.\Generated_Source\PSoC5/CyFlash.c **** *   CYRET_UNKNOWN if there was an SPC error.
 238:.\Generated_Source\PSoC5/CyFlash.c **** *
 239:.\Generated_Source\PSoC5/CyFlash.c **** *  uint8 dieTemperature[2]:
 240:.\Generated_Source\PSoC5/CyFlash.c **** *   Holds the die temperature for the flash writing algorithm. The first byte is
 241:.\Generated_Source\PSoC5/CyFlash.c **** *   the sign of the temperature (0 = negative, 1 = positive). The second byte is
 242:.\Generated_Source\PSoC5/CyFlash.c **** *   the magnitude.
ARM GAS  C:\Users\honet\AppData\Local\Temp\ccvr1NmH.s 			page 8


 243:.\Generated_Source\PSoC5/CyFlash.c **** *
 244:.\Generated_Source\PSoC5/CyFlash.c **** *******************************************************************************/
 245:.\Generated_Source\PSoC5/CyFlash.c **** cystatus CySetTemp(void) 
 246:.\Generated_Source\PSoC5/CyFlash.c **** {
 150              		.loc 1 246 0
 151              		.cfi_startproc
 152              		@ args = 0, pretend = 0, frame = 0
 153              		@ frame_needed = 0, uses_anonymous_args = 0
 154 0000 38B5     		push	{r3, r4, r5, lr}
 155              		.cfi_def_cfa_offset 16
 156              		.cfi_offset 3, -16
 157              		.cfi_offset 4, -12
 158              		.cfi_offset 5, -8
 159              		.cfi_offset 14, -4
 160              	.LBB6:
 161              	.LBB7:
 196:.\Generated_Source\PSoC5/CyFlash.c **** 
 162              		.loc 1 196 0
 163 0002 FFF7FEFF 		bl	CySpcStart
 164              	.LVL4:
 198:.\Generated_Source\PSoC5/CyFlash.c ****     {
 165              		.loc 1 198 0
 166 0006 FFF7FEFF 		bl	CySpcLock
 167              	.LVL5:
 168 000a 10B1     		cbz	r0, .L14
 169              	.L22:
 219:.\Generated_Source\PSoC5/CyFlash.c ****     }
 170              		.loc 1 219 0
 171 000c 0424     		movs	r4, #4
 172              	.L36:
 173              	.LBE7:
 174              	.LBE6:
 247:.\Generated_Source\PSoC5/CyFlash.c ****     cystatus status = CyFlashGetSpcAlgorithm();
 248:.\Generated_Source\PSoC5/CyFlash.c **** 
 249:.\Generated_Source\PSoC5/CyFlash.c ****     if(status == CYRET_SUCCESS)
 250:.\Generated_Source\PSoC5/CyFlash.c ****     {
 251:.\Generated_Source\PSoC5/CyFlash.c ****         status = CySetTempInt();
 252:.\Generated_Source\PSoC5/CyFlash.c ****     }
 253:.\Generated_Source\PSoC5/CyFlash.c **** 
 254:.\Generated_Source\PSoC5/CyFlash.c ****     return (status);
 255:.\Generated_Source\PSoC5/CyFlash.c **** }
 175              		.loc 1 255 0
 176 000e 2046     		mov	r0, r4
 177 0010 38BD     		pop	{r3, r4, r5, pc}
 178              	.L14:
 179              	.LBB11:
 180              	.LBB8:
 200:.\Generated_Source\PSoC5/CyFlash.c **** 
 181              		.loc 1 200 0
 182 0012 FFF7FEFF 		bl	CySpcGetAlgorithm
 183              	.LVL6:
 202:.\Generated_Source\PSoC5/CyFlash.c ****         {
 184              		.loc 1 202 0
 185 0016 0728     		cmp	r0, #7
 200:.\Generated_Source\PSoC5/CyFlash.c **** 
 186              		.loc 1 200 0
 187 0018 0446     		mov	r4, r0
ARM GAS  C:\Users\honet\AppData\Local\Temp\ccvr1NmH.s 			page 9


 188              	.LVL7:
 202:.\Generated_Source\PSoC5/CyFlash.c ****         {
 189              		.loc 1 202 0
 190 001a 2BD0     		beq	.L41
 215:.\Generated_Source\PSoC5/CyFlash.c ****     }
 191              		.loc 1 215 0
 192 001c FFF7FEFF 		bl	CySpcUnlock
 193              	.LVL8:
 194              	.LBE8:
 195              	.LBE11:
 249:.\Generated_Source\PSoC5/CyFlash.c ****     {
 196              		.loc 1 249 0
 197 0020 002C     		cmp	r4, #0
 198 0022 F4D1     		bne	.L36
 199              	.LVL9:
 200              	.L29:
 201              	.LBB12:
 202              	.LBB13:
 140:.\Generated_Source\PSoC5/CyFlash.c **** 
 203              		.loc 1 140 0
 204 0024 FFF7FEFF 		bl	CySpcStart
 205              	.LVL10:
 145:.\Generated_Source\PSoC5/CyFlash.c ****     {
 206              		.loc 1 145 0
 207 0028 FFF7FEFF 		bl	CySpcLock
 208              	.LVL11:
 209 002c 0028     		cmp	r0, #0
 210 002e EDD1     		bne	.L22
 148:.\Generated_Source\PSoC5/CyFlash.c ****         {
 211              		.loc 1 148 0
 212 0030 0120     		movs	r0, #1
 213 0032 FFF7FEFF 		bl	CySpcGetTemp
 214              	.LVL12:
 215 0036 0728     		cmp	r0, #7
 216 0038 05D0     		beq	.L42
 217              	.L28:
 143:.\Generated_Source\PSoC5/CyFlash.c **** 
 218              		.loc 1 143 0
 219 003a 4FF0FF34 		mov	r4, #-1
 220              	.LVL13:
 221              	.L19:
 222              	.LBE13:
 223              	.LBE12:
 224              	.LBB15:
 225              	.LBB9:
 215:.\Generated_Source\PSoC5/CyFlash.c ****     }
 226              		.loc 1 215 0
 227 003e FFF7FEFF 		bl	CySpcUnlock
 228              	.LVL14:
 229              	.LBE9:
 230              	.LBE15:
 231              		.loc 1 255 0
 232 0042 2046     		mov	r0, r4
 233 0044 38BD     		pop	{r3, r4, r5, pc}
 234              	.LVL15:
 235              	.L42:
 236              	.LBB16:
ARM GAS  C:\Users\honet\AppData\Local\Temp\ccvr1NmH.s 			page 10


 237              	.LBB14:
 164:.\Generated_Source\PSoC5/CyFlash.c ****         }
 238              		.loc 1 164 0
 239 0046 154C     		ldr	r4, .L43
 240 0048 02E0     		b	.L23
 241              	.L25:
 242 004a 2378     		ldrb	r3, [r4]	@ zero_extendqisi2
 243 004c 9B07     		lsls	r3, r3, #30
 244 004e F4D4     		bmi	.L28
 245              	.L23:
 152:.\Generated_Source\PSoC5/CyFlash.c ****                 {
 246              		.loc 1 152 0
 247 0050 1348     		ldr	r0, .L43+4
 248 0052 0221     		movs	r1, #2
 249 0054 FFF7FEFF 		bl	CySpcReadData
 250              	.LVL16:
 251 0058 0228     		cmp	r0, #2
 252 005a F6D1     		bne	.L25
 156:.\Generated_Source\PSoC5/CyFlash.c ****                     {
 253              		.loc 1 156 0
 254 005c 0F4C     		ldr	r4, .L43
 255 005e 2378     		ldrb	r3, [r4]	@ zero_extendqisi2
 256 0060 9907     		lsls	r1, r3, #30
 257 0062 05D4     		bmi	.L27
 258              	.L26:
 159:.\Generated_Source\PSoC5/CyFlash.c ****                     }
 259              		.loc 1 159 0
 260 0064 0120     		movs	r0, #1
 261 0066 FFF7FEFF 		bl	CyDelayUs
 262              	.LVL17:
 156:.\Generated_Source\PSoC5/CyFlash.c ****                     {
 263              		.loc 1 156 0
 264 006a 2378     		ldrb	r3, [r4]	@ zero_extendqisi2
 265 006c 9A07     		lsls	r2, r3, #30
 266 006e F9D5     		bpl	.L26
 267              	.L27:
 154:.\Generated_Source\PSoC5/CyFlash.c **** 
 268              		.loc 1 154 0
 269 0070 0024     		movs	r4, #0
 270 0072 E4E7     		b	.L19
 271              	.LVL18:
 272              	.L41:
 273              	.LBE14:
 274              	.LBE16:
 275              	.LBB17:
 276              	.LBB10:
 204:.\Generated_Source\PSoC5/CyFlash.c ****             {
 277              		.loc 1 204 0
 278 0074 094D     		ldr	r5, .L43
 279 0076 2B78     		ldrb	r3, [r5]	@ zero_extendqisi2
 280 0078 9B07     		lsls	r3, r3, #30
 281 007a 05D4     		bmi	.L20
 282              	.LVL19:
 283              	.L17:
 207:.\Generated_Source\PSoC5/CyFlash.c ****             }
 284              		.loc 1 207 0
 285 007c 0120     		movs	r0, #1
ARM GAS  C:\Users\honet\AppData\Local\Temp\ccvr1NmH.s 			page 11


 286 007e FFF7FEFF 		bl	CyDelayUs
 287              	.LVL20:
 204:.\Generated_Source\PSoC5/CyFlash.c ****             {
 288              		.loc 1 204 0
 289 0082 2B78     		ldrb	r3, [r5]	@ zero_extendqisi2
 290 0084 9807     		lsls	r0, r3, #30
 291 0086 F9D5     		bpl	.L17
 292              	.L20:
 210:.\Generated_Source\PSoC5/CyFlash.c ****             {
 293              		.loc 1 210 0
 294 0088 044B     		ldr	r3, .L43
 295 008a 1A78     		ldrb	r2, [r3]	@ zero_extendqisi2
 296 008c 9507     		lsls	r5, r2, #30
 297 008e D6D5     		bpl	.L19
 298 0090 1B78     		ldrb	r3, [r3]	@ zero_extendqisi2
 299 0092 9B08     		lsrs	r3, r3, #2
 300 0094 D3D1     		bne	.L19
 301              	.LVL21:
 215:.\Generated_Source\PSoC5/CyFlash.c ****     }
 302              		.loc 1 215 0
 303 0096 FFF7FEFF 		bl	CySpcUnlock
 304              	.LVL22:
 305 009a C3E7     		b	.L29
 306              	.L44:
 307              		.align	2
 308              	.L43:
 309 009c 22470040 		.word	1073760034
 310 00a0 00000000 		.word	dieTemperature
 311              	.LBE10:
 312              	.LBE17:
 313              		.cfi_endproc
 314              	.LFE4:
 315              		.size	CySetTemp, .-CySetTemp
 316              		.section	.text.CySetFlashEEBuffer,"ax",%progbits
 317              		.align	2
 318              		.global	CySetFlashEEBuffer
 319              		.thumb
 320              		.thumb_func
 321              		.type	CySetFlashEEBuffer, %function
 322              	CySetFlashEEBuffer:
 323              	.LFB5:
 256:.\Generated_Source\PSoC5/CyFlash.c **** 
 257:.\Generated_Source\PSoC5/CyFlash.c **** 
 258:.\Generated_Source\PSoC5/CyFlash.c **** /*******************************************************************************
 259:.\Generated_Source\PSoC5/CyFlash.c **** * Function Name: CySetFlashEEBuffer
 260:.\Generated_Source\PSoC5/CyFlash.c **** ****************************************************************************//**
 261:.\Generated_Source\PSoC5/CyFlash.c **** *
 262:.\Generated_Source\PSoC5/CyFlash.c **** *  Sets the user supplied temporary buffer to store SPC data while performing
 263:.\Generated_Source\PSoC5/CyFlash.c **** *  Flash and EEPROM commands. This buffer is only necessary when the Flash ECC
 264:.\Generated_Source\PSoC5/CyFlash.c **** *  is disabled.
 265:.\Generated_Source\PSoC5/CyFlash.c **** *
 266:.\Generated_Source\PSoC5/CyFlash.c **** *  \param buffer:
 267:.\Generated_Source\PSoC5/CyFlash.c **** *   The address of a block of memory to store temporary memory. The size of the
 268:.\Generated_Source\PSoC5/CyFlash.c **** *   block of memory is CYDEV_FLS_ROW_SIZE + CYDEV_ECC_ROW_SIZE.
 269:.\Generated_Source\PSoC5/CyFlash.c **** *
 270:.\Generated_Source\PSoC5/CyFlash.c **** * \return
 271:.\Generated_Source\PSoC5/CyFlash.c **** *  status:
ARM GAS  C:\Users\honet\AppData\Local\Temp\ccvr1NmH.s 			page 12


 272:.\Generated_Source\PSoC5/CyFlash.c **** *   CYRET_SUCCESS if successful.
 273:.\Generated_Source\PSoC5/CyFlash.c **** *   CYRET_BAD_PARAM if the buffer is NULL
 274:.\Generated_Source\PSoC5/CyFlash.c **** *
 275:.\Generated_Source\PSoC5/CyFlash.c **** *******************************************************************************/
 276:.\Generated_Source\PSoC5/CyFlash.c **** cystatus CySetFlashEEBuffer(uint8 * buffer) 
 277:.\Generated_Source\PSoC5/CyFlash.c **** {
 324              		.loc 1 277 0
 325              		.cfi_startproc
 326              		@ args = 0, pretend = 0, frame = 8
 327              		@ frame_needed = 0, uses_anonymous_args = 0
 328              	.LVL23:
 329 0000 10B5     		push	{r4, lr}
 330              		.cfi_def_cfa_offset 8
 331              		.cfi_offset 4, -8
 332              		.cfi_offset 14, -4
 333 0002 0446     		mov	r4, r0
 334 0004 82B0     		sub	sp, sp, #8
 335              		.cfi_def_cfa_offset 16
 278:.\Generated_Source\PSoC5/CyFlash.c ****     cystatus status = CYRET_SUCCESS;
 279:.\Generated_Source\PSoC5/CyFlash.c **** 
 280:.\Generated_Source\PSoC5/CyFlash.c ****     CySpcStart();
 336              		.loc 1 280 0
 337 0006 FFF7FEFF 		bl	CySpcStart
 338              	.LVL24:
 281:.\Generated_Source\PSoC5/CyFlash.c **** 
 282:.\Generated_Source\PSoC5/CyFlash.c ****     #if(CYDEV_ECC_ENABLE == 0)
 283:.\Generated_Source\PSoC5/CyFlash.c **** 
 284:.\Generated_Source\PSoC5/CyFlash.c ****         if(NULL == buffer)
 339              		.loc 1 284 0
 340 000a 2CB1     		cbz	r4, .L47
 285:.\Generated_Source\PSoC5/CyFlash.c ****         {
 286:.\Generated_Source\PSoC5/CyFlash.c ****             rowBuffer = rowBuffer;
 287:.\Generated_Source\PSoC5/CyFlash.c ****             status = CYRET_BAD_PARAM;
 288:.\Generated_Source\PSoC5/CyFlash.c ****         }
 289:.\Generated_Source\PSoC5/CyFlash.c ****         else if(CySpcLock() != CYRET_SUCCESS)
 341              		.loc 1 289 0
 342 000c FFF7FEFF 		bl	CySpcLock
 343              	.LVL25:
 344 0010 28B1     		cbz	r0, .L50
 290:.\Generated_Source\PSoC5/CyFlash.c ****         {
 291:.\Generated_Source\PSoC5/CyFlash.c ****             rowBuffer = rowBuffer;
 292:.\Generated_Source\PSoC5/CyFlash.c ****             status = CYRET_LOCKED;
 345              		.loc 1 292 0
 346 0012 0420     		movs	r0, #4
 347              	.LVL26:
 293:.\Generated_Source\PSoC5/CyFlash.c ****         }
 294:.\Generated_Source\PSoC5/CyFlash.c ****         else
 295:.\Generated_Source\PSoC5/CyFlash.c ****         {
 296:.\Generated_Source\PSoC5/CyFlash.c ****             rowBuffer = buffer;
 297:.\Generated_Source\PSoC5/CyFlash.c ****             CySpcUnlock();
 298:.\Generated_Source\PSoC5/CyFlash.c ****         }
 299:.\Generated_Source\PSoC5/CyFlash.c **** 
 300:.\Generated_Source\PSoC5/CyFlash.c ****     #else
 301:.\Generated_Source\PSoC5/CyFlash.c **** 
 302:.\Generated_Source\PSoC5/CyFlash.c ****         /* To suppress warning */
 303:.\Generated_Source\PSoC5/CyFlash.c ****         buffer = buffer;
 304:.\Generated_Source\PSoC5/CyFlash.c **** 
ARM GAS  C:\Users\honet\AppData\Local\Temp\ccvr1NmH.s 			page 13


 305:.\Generated_Source\PSoC5/CyFlash.c ****     #endif  /* (CYDEV_ECC_ENABLE == 0u) */
 306:.\Generated_Source\PSoC5/CyFlash.c **** 
 307:.\Generated_Source\PSoC5/CyFlash.c ****     return(status);
 308:.\Generated_Source\PSoC5/CyFlash.c **** }
 348              		.loc 1 308 0
 349 0014 02B0     		add	sp, sp, #8
 350              		.cfi_remember_state
 351              		.cfi_def_cfa_offset 8
 352              		@ sp needed
 353 0016 10BD     		pop	{r4, pc}
 354              	.LVL27:
 355              	.L47:
 356              		.cfi_restore_state
 287:.\Generated_Source\PSoC5/CyFlash.c ****         }
 357              		.loc 1 287 0
 358 0018 0120     		movs	r0, #1
 359              	.LVL28:
 360              		.loc 1 308 0
 361 001a 02B0     		add	sp, sp, #8
 362              		.cfi_remember_state
 363              		.cfi_def_cfa_offset 8
 364              		@ sp needed
 365 001c 10BD     		pop	{r4, pc}
 366              	.LVL29:
 367              	.L50:
 368              		.cfi_restore_state
 296:.\Generated_Source\PSoC5/CyFlash.c ****             CySpcUnlock();
 369              		.loc 1 296 0
 370 001e 044B     		ldr	r3, .L51
 371 0020 0190     		str	r0, [sp, #4]
 372 0022 1C60     		str	r4, [r3]
 297:.\Generated_Source\PSoC5/CyFlash.c ****         }
 373              		.loc 1 297 0
 374 0024 FFF7FEFF 		bl	CySpcUnlock
 375              	.LVL30:
 278:.\Generated_Source\PSoC5/CyFlash.c **** 
 376              		.loc 1 278 0
 377 0028 0198     		ldr	r0, [sp, #4]
 378              	.LVL31:
 379              		.loc 1 308 0
 380 002a 02B0     		add	sp, sp, #8
 381              		.cfi_def_cfa_offset 8
 382              		@ sp needed
 383 002c 10BD     		pop	{r4, pc}
 384              	.LVL32:
 385              	.L52:
 386 002e 00BF     		.align	2
 387              	.L51:
 388 0030 00000000 		.word	.LANCHOR0
 389              		.cfi_endproc
 390              	.LFE5:
 391              		.size	CySetFlashEEBuffer, .-CySetFlashEEBuffer
 392              		.section	.text.CyWriteRowData,"ax",%progbits
 393              		.align	2
 394              		.global	CyWriteRowData
 395              		.thumb
 396              		.thumb_func
ARM GAS  C:\Users\honet\AppData\Local\Temp\ccvr1NmH.s 			page 14


 397              		.type	CyWriteRowData, %function
 398              	CyWriteRowData:
 399              	.LFB6:
 309:.\Generated_Source\PSoC5/CyFlash.c **** 
 310:.\Generated_Source\PSoC5/CyFlash.c **** 
 311:.\Generated_Source\PSoC5/CyFlash.c **** /*******************************************************************************
 312:.\Generated_Source\PSoC5/CyFlash.c **** * Function Name: CyWriteRowData
 313:.\Generated_Source\PSoC5/CyFlash.c **** ****************************************************************************//**
 314:.\Generated_Source\PSoC5/CyFlash.c **** *
 315:.\Generated_Source\PSoC5/CyFlash.c **** *  Sends a command to the SPC to load and program a row of data in
 316:.\Generated_Source\PSoC5/CyFlash.c **** *  Flash or EEPROM.
 317:.\Generated_Source\PSoC5/CyFlash.c **** *
 318:.\Generated_Source\PSoC5/CyFlash.c **** *  \param arrayID:    ID of the array to write.
 319:.\Generated_Source\PSoC5/CyFlash.c **** *   The type of write, Flash or EEPROM, is determined from the array ID.
 320:.\Generated_Source\PSoC5/CyFlash.c **** *   The arrays in the part are sequential starting at the first ID for the
 321:.\Generated_Source\PSoC5/CyFlash.c **** *   specific memory type. The array ID for the Flash memory lasts from 0x00 to
 322:.\Generated_Source\PSoC5/CyFlash.c **** *   0x3F and for the EEPROM memory it lasts from 0x40 to 0x7F.
 323:.\Generated_Source\PSoC5/CyFlash.c **** *  \param rowAddress: rowAddress of flash row to program.
 324:.\Generated_Source\PSoC5/CyFlash.c **** *  \param rowData:    Array of bytes to write.
 325:.\Generated_Source\PSoC5/CyFlash.c **** *
 326:.\Generated_Source\PSoC5/CyFlash.c **** * \return
 327:.\Generated_Source\PSoC5/CyFlash.c **** *  status:
 328:.\Generated_Source\PSoC5/CyFlash.c **** *   CYRET_SUCCESS if successful.
 329:.\Generated_Source\PSoC5/CyFlash.c **** *   CYRET_LOCKED if the SPC is already in use.
 330:.\Generated_Source\PSoC5/CyFlash.c **** *   CYRET_CANCELED if command not accepted
 331:.\Generated_Source\PSoC5/CyFlash.c **** *   CYRET_UNKNOWN if there was an SPC error.
 332:.\Generated_Source\PSoC5/CyFlash.c **** *
 333:.\Generated_Source\PSoC5/CyFlash.c **** *******************************************************************************/
 334:.\Generated_Source\PSoC5/CyFlash.c **** cystatus CyWriteRowData(uint8 arrayId, uint16 rowAddress, const uint8 * rowData) 
 335:.\Generated_Source\PSoC5/CyFlash.c **** {
 400              		.loc 1 335 0
 401              		.cfi_startproc
 402              		@ args = 0, pretend = 0, frame = 8
 403              		@ frame_needed = 0, uses_anonymous_args = 0
 404              	.LVL33:
 405 0000 F0B5     		push	{r4, r5, r6, r7, lr}
 406              		.cfi_def_cfa_offset 20
 407              		.cfi_offset 4, -20
 408              		.cfi_offset 5, -16
 409              		.cfi_offset 6, -12
 410              		.cfi_offset 7, -8
 411              		.cfi_offset 14, -4
 336:.\Generated_Source\PSoC5/CyFlash.c ****     uint16 rowSize;
 337:.\Generated_Source\PSoC5/CyFlash.c ****     cystatus status;
 338:.\Generated_Source\PSoC5/CyFlash.c **** 
 339:.\Generated_Source\PSoC5/CyFlash.c ****     rowSize = (arrayId > CY_SPC_LAST_FLASH_ARRAYID) ? CYDEV_EEPROM_ROW_SIZE : CYDEV_FLS_ROW_SIZE;
 412              		.loc 1 339 0
 413 0002 3F28     		cmp	r0, #63
 335:.\Generated_Source\PSoC5/CyFlash.c ****     uint16 rowSize;
 414              		.loc 1 335 0
 415 0004 83B0     		sub	sp, sp, #12
 416              		.cfi_def_cfa_offset 32
 417              		.loc 1 339 0
 418 0006 0AD8     		bhi	.L79
 419              	.LVL34:
 420              	.LBB22:
 421              	.LBB23:
ARM GAS  C:\Users\honet\AppData\Local\Temp\ccvr1NmH.s 			page 15


 340:.\Generated_Source\PSoC5/CyFlash.c ****     status = CyWriteRowFull(arrayId, rowAddress, rowData, rowSize);
 341:.\Generated_Source\PSoC5/CyFlash.c **** 
 342:.\Generated_Source\PSoC5/CyFlash.c ****     return(status);
 343:.\Generated_Source\PSoC5/CyFlash.c **** }
 344:.\Generated_Source\PSoC5/CyFlash.c **** 
 345:.\Generated_Source\PSoC5/CyFlash.c **** 
 346:.\Generated_Source\PSoC5/CyFlash.c **** /*******************************************************************
 347:.\Generated_Source\PSoC5/CyFlash.c **** * If "Enable Error Correcting Code (ECC)" and "Store Configuration
 348:.\Generated_Source\PSoC5/CyFlash.c **** * Data in ECC" DWR options are disabled, ECC section is available
 349:.\Generated_Source\PSoC5/CyFlash.c **** * for user data.
 350:.\Generated_Source\PSoC5/CyFlash.c **** *******************************************************************/
 351:.\Generated_Source\PSoC5/CyFlash.c **** #if ((CYDEV_ECC_ENABLE == 0u) && (CYDEV_CONFIGURATION_ECC == 0u))
 352:.\Generated_Source\PSoC5/CyFlash.c **** 
 353:.\Generated_Source\PSoC5/CyFlash.c ****     /*******************************************************************************
 354:.\Generated_Source\PSoC5/CyFlash.c ****     * Function Name: CyWriteRowConfig
 355:.\Generated_Source\PSoC5/CyFlash.c ****     ****************************************************************************//**
 356:.\Generated_Source\PSoC5/CyFlash.c ****     *
 357:.\Generated_Source\PSoC5/CyFlash.c ****     *  Sends a command to the SPC to load and program a row of config data in the
 358:.\Generated_Source\PSoC5/CyFlash.c ****     *  Flash. This function is only valid for Flash array IDs (not for EEPROM).
 359:.\Generated_Source\PSoC5/CyFlash.c ****     *
 360:.\Generated_Source\PSoC5/CyFlash.c ****     *  \param arrayId:      ID of the array to write
 361:.\Generated_Source\PSoC5/CyFlash.c ****     *   The arrays in the part are sequential starting at the first ID for the
 362:.\Generated_Source\PSoC5/CyFlash.c ****     *   specific memory type. The array ID for the Flash memory lasts
 363:.\Generated_Source\PSoC5/CyFlash.c ****     *   from 0x00 to 0x3F.
 364:.\Generated_Source\PSoC5/CyFlash.c ****     *  \param rowAddress:   The address of the sector to erase.
 365:.\Generated_Source\PSoC5/CyFlash.c ****     *  \param rowECC:       The array of bytes to write.
 366:.\Generated_Source\PSoC5/CyFlash.c ****     *
 367:.\Generated_Source\PSoC5/CyFlash.c ****     * \return
 368:.\Generated_Source\PSoC5/CyFlash.c ****     *  status:
 369:.\Generated_Source\PSoC5/CyFlash.c ****     *   CYRET_SUCCESS if successful.
 370:.\Generated_Source\PSoC5/CyFlash.c ****     *   CYRET_LOCKED if the SPC is already in use.
 371:.\Generated_Source\PSoC5/CyFlash.c ****     *   CYRET_CANCELED if command not accepted
 372:.\Generated_Source\PSoC5/CyFlash.c ****     *   CYRET_UNKNOWN if there was an SPC error.
 373:.\Generated_Source\PSoC5/CyFlash.c ****     *
 374:.\Generated_Source\PSoC5/CyFlash.c ****     *******************************************************************************/
 375:.\Generated_Source\PSoC5/CyFlash.c ****     cystatus CyWriteRowConfig(uint8 arrayId, uint16 rowAddress, const uint8 * rowECC)\
 376:.\Generated_Source\PSoC5/CyFlash.c ****     
 377:.\Generated_Source\PSoC5/CyFlash.c ****     {
 378:.\Generated_Source\PSoC5/CyFlash.c ****         cystatus status;
 379:.\Generated_Source\PSoC5/CyFlash.c **** 
 380:.\Generated_Source\PSoC5/CyFlash.c ****         status = CyWriteRowFull(arrayId, rowAddress, rowECC, CYDEV_ECC_ROW_SIZE);
 381:.\Generated_Source\PSoC5/CyFlash.c **** 
 382:.\Generated_Source\PSoC5/CyFlash.c ****         return (status);
 383:.\Generated_Source\PSoC5/CyFlash.c ****     }
 384:.\Generated_Source\PSoC5/CyFlash.c **** 
 385:.\Generated_Source\PSoC5/CyFlash.c **** #endif  /* ((CYDEV_ECC_ENABLE == 0u) && (CYDEV_CONFIGURATION_ECC == 0u)) */
 386:.\Generated_Source\PSoC5/CyFlash.c **** 
 387:.\Generated_Source\PSoC5/CyFlash.c **** 
 388:.\Generated_Source\PSoC5/CyFlash.c **** 
 389:.\Generated_Source\PSoC5/CyFlash.c **** /*******************************************************************************
 390:.\Generated_Source\PSoC5/CyFlash.c **** * Function Name: CyWriteRowFull
 391:.\Generated_Source\PSoC5/CyFlash.c **** ****************************************************************************//**
 392:.\Generated_Source\PSoC5/CyFlash.c **** *  Sends a command to the SPC to load and program a row of data in the Flash.
 393:.\Generated_Source\PSoC5/CyFlash.c **** *  rowData array is expected to contain Flash and ECC data if needed.
 394:.\Generated_Source\PSoC5/CyFlash.c **** *
 395:.\Generated_Source\PSoC5/CyFlash.c **** *  \param arrayId:    FLASH or EEPROM array id.
 396:.\Generated_Source\PSoC5/CyFlash.c **** *  \param rowData:    Pointer to a row of data to write.
ARM GAS  C:\Users\honet\AppData\Local\Temp\ccvr1NmH.s 			page 16


 397:.\Generated_Source\PSoC5/CyFlash.c **** *  \param rowNumber:  Zero based number of the row.
 398:.\Generated_Source\PSoC5/CyFlash.c **** *  \param rowSize:    Size of the row.
 399:.\Generated_Source\PSoC5/CyFlash.c **** *
 400:.\Generated_Source\PSoC5/CyFlash.c **** * \return
 401:.\Generated_Source\PSoC5/CyFlash.c **** *  CYRET_SUCCESS if successful.
 402:.\Generated_Source\PSoC5/CyFlash.c **** *  CYRET_LOCKED if the SPC is already in use.
 403:.\Generated_Source\PSoC5/CyFlash.c **** *  CYRET_CANCELED if command not accepted
 404:.\Generated_Source\PSoC5/CyFlash.c **** *  CYRET_UNKNOWN if there was an SPC error.
 405:.\Generated_Source\PSoC5/CyFlash.c **** *
 406:.\Generated_Source\PSoC5/CyFlash.c **** *******************************************************************************/
 407:.\Generated_Source\PSoC5/CyFlash.c **** cystatus CyWriteRowFull(uint8 arrayId, uint16 rowNumber, const uint8* rowData, uint16 rowSize) \
 408:.\Generated_Source\PSoC5/CyFlash.c ****         
 409:.\Generated_Source\PSoC5/CyFlash.c **** {
 410:.\Generated_Source\PSoC5/CyFlash.c ****     cystatus status = CYRET_SUCCESS;
 411:.\Generated_Source\PSoC5/CyFlash.c **** 
 412:.\Generated_Source\PSoC5/CyFlash.c ****     if((arrayId <=  CY_SPC_LAST_FLASH_ARRAYID) && (arrayId > (CY_FLASH_NUMBER_ARRAYS  + CY_SPC_FIRS
 422              		.loc 1 412 0
 423 0008 441F     		subs	r4, r0, #5
 424 000a 3A2C     		cmp	r4, #58
 425 000c 8CBF     		ite	hi
 426 000e 0024     		movhi	r4, #0
 427 0010 0124     		movls	r4, #1
 413:.\Generated_Source\PSoC5/CyFlash.c ****     {
 414:.\Generated_Source\PSoC5/CyFlash.c ****         status = CYRET_BAD_PARAM;
 415:.\Generated_Source\PSoC5/CyFlash.c ****     }
 416:.\Generated_Source\PSoC5/CyFlash.c **** 
 417:.\Generated_Source\PSoC5/CyFlash.c ****     if(arrayId > CY_SPC_LAST_EE_ARRAYID)
 418:.\Generated_Source\PSoC5/CyFlash.c ****     {
 419:.\Generated_Source\PSoC5/CyFlash.c ****         status = CYRET_BAD_PARAM;
 420:.\Generated_Source\PSoC5/CyFlash.c ****     }
 421:.\Generated_Source\PSoC5/CyFlash.c **** 
 422:.\Generated_Source\PSoC5/CyFlash.c ****     if((arrayId >= CY_SPC_FIRST_EE_ARRAYID) && (arrayId > (CY_FLASH_EEPROM_NUMBER_ARRAYS + CY_SPC_F
 423:.\Generated_Source\PSoC5/CyFlash.c ****     {
 424:.\Generated_Source\PSoC5/CyFlash.c ****         status = CYRET_BAD_PARAM;
 425:.\Generated_Source\PSoC5/CyFlash.c ****     }
 426:.\Generated_Source\PSoC5/CyFlash.c **** 
 427:.\Generated_Source\PSoC5/CyFlash.c ****     if(arrayId <=  CY_SPC_LAST_FLASH_ARRAYID)
 428:.\Generated_Source\PSoC5/CyFlash.c ****     {
 429:.\Generated_Source\PSoC5/CyFlash.c ****         /* Flash */
 430:.\Generated_Source\PSoC5/CyFlash.c ****         if(rowNumber > (CY_FLASH_NUMBER_ROWS/CY_FLASH_NUMBER_ARRAYS))
 428              		.loc 1 430 0
 429 0012 B1F5807F 		cmp	r1, #256
 430 0016 53D9     		bls	.L80
 431              	.LVL35:
 432              	.L69:
 433 0018 0120     		movs	r0, #1
 434              	.LVL36:
 435              	.L76:
 436              	.LBE23:
 437              	.LBE22:
 343:.\Generated_Source\PSoC5/CyFlash.c **** 
 438              		.loc 1 343 0
 439 001a 03B0     		add	sp, sp, #12
 440              		.cfi_remember_state
 441              		.cfi_def_cfa_offset 20
 442              		@ sp needed
 443 001c F0BD     		pop	{r4, r5, r6, r7, pc}
ARM GAS  C:\Users\honet\AppData\Local\Temp\ccvr1NmH.s 			page 17


 444              	.LVL37:
 445              	.L79:
 446              		.cfi_restore_state
 447              	.LBB28:
 448              	.LBB26:
 422:.\Generated_Source\PSoC5/CyFlash.c ****     {
 449              		.loc 1 422 0 discriminator 4
 450 001e 4128     		cmp	r0, #65
 451 0020 94BF     		ite	ls
 452 0022 0024     		movls	r4, #0
 453 0024 0124     		movhi	r4, #1
 454              	.LVL38:
 431:.\Generated_Source\PSoC5/CyFlash.c ****         {
 432:.\Generated_Source\PSoC5/CyFlash.c ****             status = CYRET_BAD_PARAM;
 433:.\Generated_Source\PSoC5/CyFlash.c ****         }
 434:.\Generated_Source\PSoC5/CyFlash.c ****     }
 435:.\Generated_Source\PSoC5/CyFlash.c ****     else
 436:.\Generated_Source\PSoC5/CyFlash.c ****     {
 437:.\Generated_Source\PSoC5/CyFlash.c ****         /* EEPROM */
 438:.\Generated_Source\PSoC5/CyFlash.c ****         if(rowNumber > (CY_EEPROM_NUMBER_ROWS/CY_FLASH_EEPROM_NUMBER_ARRAYS))
 439:.\Generated_Source\PSoC5/CyFlash.c ****         {
 440:.\Generated_Source\PSoC5/CyFlash.c ****             status = CYRET_BAD_PARAM;
 455              		.loc 1 440 0 discriminator 4
 456 0026 8129     		cmp	r1, #129
 457 0028 28BF     		it	cs
 458 002a 0124     		movcs	r4, #1
 459              	.LVL39:
 430:.\Generated_Source\PSoC5/CyFlash.c ****         {
 460              		.loc 1 430 0 discriminator 4
 461 002c 1027     		movs	r7, #16
 462              	.LVL40:
 463              	.L64:
 441:.\Generated_Source\PSoC5/CyFlash.c ****         }
 442:.\Generated_Source\PSoC5/CyFlash.c **** 
 443:.\Generated_Source\PSoC5/CyFlash.c ****         if(CY_EEPROM_SIZEOF_ROW != rowSize)
 444:.\Generated_Source\PSoC5/CyFlash.c ****         {
 445:.\Generated_Source\PSoC5/CyFlash.c ****             status = CYRET_BAD_PARAM;
 446:.\Generated_Source\PSoC5/CyFlash.c ****         }
 447:.\Generated_Source\PSoC5/CyFlash.c ****     }
 448:.\Generated_Source\PSoC5/CyFlash.c **** 
 449:.\Generated_Source\PSoC5/CyFlash.c ****     if(rowData == NULL)
 464              		.loc 1 449 0
 465 002e 002A     		cmp	r2, #0
 466 0030 F2D0     		beq	.L69
 450:.\Generated_Source\PSoC5/CyFlash.c ****     {
 451:.\Generated_Source\PSoC5/CyFlash.c ****         status = CYRET_BAD_PARAM;
 452:.\Generated_Source\PSoC5/CyFlash.c ****     }
 453:.\Generated_Source\PSoC5/CyFlash.c **** 
 454:.\Generated_Source\PSoC5/CyFlash.c **** 
 455:.\Generated_Source\PSoC5/CyFlash.c ****     if(status == CYRET_SUCCESS)
 467              		.loc 1 455 0
 468 0032 002C     		cmp	r4, #0
 469 0034 F0D1     		bne	.L69
 470 0036 1646     		mov	r6, r2
 471 0038 0D46     		mov	r5, r1
 472 003a 0446     		mov	r4, r0
 473              	.LVL41:
ARM GAS  C:\Users\honet\AppData\Local\Temp\ccvr1NmH.s 			page 18


 456:.\Generated_Source\PSoC5/CyFlash.c ****     {
 457:.\Generated_Source\PSoC5/CyFlash.c ****         if(CySpcLock() == CYRET_SUCCESS)
 474              		.loc 1 457 0
 475 003c FFF7FEFF 		bl	CySpcLock
 476              	.LVL42:
 477 0040 10B1     		cbz	r0, .L81
 458:.\Generated_Source\PSoC5/CyFlash.c ****         {
 459:.\Generated_Source\PSoC5/CyFlash.c ****             /* Load row data into SPC internal latch */
 460:.\Generated_Source\PSoC5/CyFlash.c ****             status = CySpcLoadRowFull(arrayId, rowNumber, rowData, rowSize);
 461:.\Generated_Source\PSoC5/CyFlash.c **** 
 462:.\Generated_Source\PSoC5/CyFlash.c ****             if(CYRET_STARTED == status)
 463:.\Generated_Source\PSoC5/CyFlash.c ****             {
 464:.\Generated_Source\PSoC5/CyFlash.c ****                 while(CY_SPC_BUSY)
 465:.\Generated_Source\PSoC5/CyFlash.c ****                 {
 466:.\Generated_Source\PSoC5/CyFlash.c ****                     /* Wait for SPC to finish and get SPC status */
 467:.\Generated_Source\PSoC5/CyFlash.c ****                     CyDelayUs(1u);
 468:.\Generated_Source\PSoC5/CyFlash.c ****                 }
 469:.\Generated_Source\PSoC5/CyFlash.c **** 
 470:.\Generated_Source\PSoC5/CyFlash.c ****                 /* Hide SPC status */
 471:.\Generated_Source\PSoC5/CyFlash.c ****                 if(CY_SPC_STATUS_SUCCESS == CY_SPC_READ_STATUS)
 472:.\Generated_Source\PSoC5/CyFlash.c ****                 {
 473:.\Generated_Source\PSoC5/CyFlash.c ****                     status = CYRET_SUCCESS;
 474:.\Generated_Source\PSoC5/CyFlash.c ****                 }
 475:.\Generated_Source\PSoC5/CyFlash.c ****                 else
 476:.\Generated_Source\PSoC5/CyFlash.c ****                 {
 477:.\Generated_Source\PSoC5/CyFlash.c ****                     status = CYRET_UNKNOWN;
 478:.\Generated_Source\PSoC5/CyFlash.c ****                 }
 479:.\Generated_Source\PSoC5/CyFlash.c **** 
 480:.\Generated_Source\PSoC5/CyFlash.c ****                 if(CYRET_SUCCESS == status)
 481:.\Generated_Source\PSoC5/CyFlash.c ****                 {
 482:.\Generated_Source\PSoC5/CyFlash.c ****                     /* Erase and program flash with data from SPC interval latch */
 483:.\Generated_Source\PSoC5/CyFlash.c ****                     status = CySpcWriteRow(arrayId, rowNumber, dieTemperature[0u], dieTemperature[1
 484:.\Generated_Source\PSoC5/CyFlash.c **** 
 485:.\Generated_Source\PSoC5/CyFlash.c ****                     if(CYRET_STARTED == status)
 486:.\Generated_Source\PSoC5/CyFlash.c ****                     {
 487:.\Generated_Source\PSoC5/CyFlash.c ****                         while(CY_SPC_BUSY)
 488:.\Generated_Source\PSoC5/CyFlash.c ****                         {
 489:.\Generated_Source\PSoC5/CyFlash.c ****                             /* Wait for SPC to finish and get SPC status */
 490:.\Generated_Source\PSoC5/CyFlash.c ****                             CyDelayUs(1u);
 491:.\Generated_Source\PSoC5/CyFlash.c ****                         }
 492:.\Generated_Source\PSoC5/CyFlash.c **** 
 493:.\Generated_Source\PSoC5/CyFlash.c ****                         /* Hide SPC status */
 494:.\Generated_Source\PSoC5/CyFlash.c ****                         if(CY_SPC_STATUS_SUCCESS == CY_SPC_READ_STATUS)
 495:.\Generated_Source\PSoC5/CyFlash.c ****                         {
 496:.\Generated_Source\PSoC5/CyFlash.c ****                             status = CYRET_SUCCESS;
 497:.\Generated_Source\PSoC5/CyFlash.c ****                         }
 498:.\Generated_Source\PSoC5/CyFlash.c ****                         else
 499:.\Generated_Source\PSoC5/CyFlash.c ****                         {
 500:.\Generated_Source\PSoC5/CyFlash.c ****                             status = CYRET_UNKNOWN;
 501:.\Generated_Source\PSoC5/CyFlash.c ****                         }
 502:.\Generated_Source\PSoC5/CyFlash.c ****                     }
 503:.\Generated_Source\PSoC5/CyFlash.c ****                 }
 504:.\Generated_Source\PSoC5/CyFlash.c ****             }
 505:.\Generated_Source\PSoC5/CyFlash.c ****             CySpcUnlock();
 506:.\Generated_Source\PSoC5/CyFlash.c ****         }   /* if(CySpcLock() == CYRET_SUCCESS) */
 507:.\Generated_Source\PSoC5/CyFlash.c ****         else
 508:.\Generated_Source\PSoC5/CyFlash.c ****         {
ARM GAS  C:\Users\honet\AppData\Local\Temp\ccvr1NmH.s 			page 19


 509:.\Generated_Source\PSoC5/CyFlash.c ****             status = CYRET_LOCKED;
 478              		.loc 1 509 0
 479 0042 0420     		movs	r0, #4
 480              	.LBE26:
 481              	.LBE28:
 343:.\Generated_Source\PSoC5/CyFlash.c **** 
 482              		.loc 1 343 0
 483 0044 03B0     		add	sp, sp, #12
 484              		.cfi_remember_state
 485              		.cfi_def_cfa_offset 20
 486              		@ sp needed
 487 0046 F0BD     		pop	{r4, r5, r6, r7, pc}
 488              	.LVL43:
 489              	.L81:
 490              		.cfi_restore_state
 491              	.LBB29:
 492              	.LBB27:
 493              	.LBB24:
 494              	.LBB25:
 460:.\Generated_Source\PSoC5/CyFlash.c **** 
 495              		.loc 1 460 0
 496 0048 3246     		mov	r2, r6
 497 004a 3B46     		mov	r3, r7
 498 004c 2046     		mov	r0, r4
 499 004e 2946     		mov	r1, r5
 500 0050 FFF7FEFF 		bl	CySpcLoadRowFull
 501              	.LVL44:
 462:.\Generated_Source\PSoC5/CyFlash.c ****             {
 502              		.loc 1 462 0
 503 0054 0728     		cmp	r0, #7
 504 0056 04D0     		beq	.L82
 505              	.LVL45:
 506              	.L57:
 507 0058 0190     		str	r0, [sp, #4]
 508              	.LVL46:
 505:.\Generated_Source\PSoC5/CyFlash.c ****         }   /* if(CySpcLock() == CYRET_SUCCESS) */
 509              		.loc 1 505 0
 510 005a FFF7FEFF 		bl	CySpcUnlock
 511              	.LVL47:
 512 005e 0198     		ldr	r0, [sp, #4]
 513 0060 DBE7     		b	.L76
 514              	.LVL48:
 515              	.L82:
 464:.\Generated_Source\PSoC5/CyFlash.c ****                 {
 516              		.loc 1 464 0
 517 0062 194E     		ldr	r6, .L83
 518              	.LVL49:
 519 0064 3378     		ldrb	r3, [r6]	@ zero_extendqisi2
 520 0066 9B07     		lsls	r3, r3, #30
 521 0068 05D4     		bmi	.L60
 522              	.LVL50:
 523              	.L58:
 467:.\Generated_Source\PSoC5/CyFlash.c ****                 }
 524              		.loc 1 467 0
 525 006a 0120     		movs	r0, #1
 526 006c FFF7FEFF 		bl	CyDelayUs
 527              	.LVL51:
ARM GAS  C:\Users\honet\AppData\Local\Temp\ccvr1NmH.s 			page 20


 464:.\Generated_Source\PSoC5/CyFlash.c ****                 {
 528              		.loc 1 464 0
 529 0070 3378     		ldrb	r3, [r6]	@ zero_extendqisi2
 530 0072 9807     		lsls	r0, r3, #30
 531 0074 F9D5     		bpl	.L58
 532              	.L60:
 471:.\Generated_Source\PSoC5/CyFlash.c ****                 {
 533              		.loc 1 471 0
 534 0076 144E     		ldr	r6, .L83
 535 0078 3378     		ldrb	r3, [r6]	@ zero_extendqisi2
 536 007a 9F07     		lsls	r7, r3, #30
 537              	.LVL52:
 538 007c 1DD5     		bpl	.L68
 539 007e 3378     		ldrb	r3, [r6]	@ zero_extendqisi2
 540 0080 9B08     		lsrs	r3, r3, #2
 541 0082 1AD1     		bne	.L68
 542              	.LVL53:
 483:.\Generated_Source\PSoC5/CyFlash.c **** 
 543              		.loc 1 483 0
 544 0084 114B     		ldr	r3, .L83+4
 545 0086 2046     		mov	r0, r4
 546 0088 1A78     		ldrb	r2, [r3]	@ zero_extendqisi2
 547 008a 2946     		mov	r1, r5
 548 008c 5B78     		ldrb	r3, [r3, #1]	@ zero_extendqisi2
 549 008e FFF7FEFF 		bl	CySpcWriteRow
 550              	.LVL54:
 485:.\Generated_Source\PSoC5/CyFlash.c ****                     {
 551              		.loc 1 485 0
 552 0092 0728     		cmp	r0, #7
 553 0094 E0D1     		bne	.L57
 554 0096 02E0     		b	.L78
 555              	.LVL55:
 556              	.L62:
 490:.\Generated_Source\PSoC5/CyFlash.c ****                         }
 557              		.loc 1 490 0
 558 0098 0120     		movs	r0, #1
 559 009a FFF7FEFF 		bl	CyDelayUs
 560              	.LVL56:
 561              	.L78:
 487:.\Generated_Source\PSoC5/CyFlash.c ****                         {
 562              		.loc 1 487 0
 563 009e 3378     		ldrb	r3, [r6]	@ zero_extendqisi2
 564 00a0 9907     		lsls	r1, r3, #30
 565 00a2 F9D5     		bpl	.L62
 494:.\Generated_Source\PSoC5/CyFlash.c ****                         {
 566              		.loc 1 494 0
 567 00a4 084B     		ldr	r3, .L83
 568 00a6 1A78     		ldrb	r2, [r3]	@ zero_extendqisi2
 569 00a8 9207     		lsls	r2, r2, #30
 570 00aa 06D5     		bpl	.L68
 571 00ac 1B78     		ldrb	r3, [r3]	@ zero_extendqisi2
 572 00ae 9B08     		lsrs	r3, r3, #2
 573 00b0 14BF     		ite	ne
 574 00b2 4FF0FF30 		movne	r0, #-1
 575 00b6 0020     		moveq	r0, #0
 576 00b8 CEE7     		b	.L57
 577              	.L68:
ARM GAS  C:\Users\honet\AppData\Local\Temp\ccvr1NmH.s 			page 21


 500:.\Generated_Source\PSoC5/CyFlash.c ****                         }
 578              		.loc 1 500 0
 579 00ba 4FF0FF30 		mov	r0, #-1
 580 00be CBE7     		b	.L57
 581              	.LVL57:
 582              	.L80:
 583              	.LBE25:
 584              	.LBE24:
 430:.\Generated_Source\PSoC5/CyFlash.c ****         {
 585              		.loc 1 430 0
 586 00c0 4FF48077 		mov	r7, #256
 587 00c4 B3E7     		b	.L64
 588              	.L84:
 589 00c6 00BF     		.align	2
 590              	.L83:
 591 00c8 22470040 		.word	1073760034
 592 00cc 00000000 		.word	dieTemperature
 593              	.LBE27:
 594              	.LBE29:
 595              		.cfi_endproc
 596              	.LFE6:
 597              		.size	CyWriteRowData, .-CyWriteRowData
 598              		.section	.text.CyWriteRowFull,"ax",%progbits
 599              		.align	2
 600              		.global	CyWriteRowFull
 601              		.thumb
 602              		.thumb_func
 603              		.type	CyWriteRowFull, %function
 604              	CyWriteRowFull:
 605              	.LFB7:
 409:.\Generated_Source\PSoC5/CyFlash.c ****     cystatus status = CYRET_SUCCESS;
 606              		.loc 1 409 0
 607              		.cfi_startproc
 608              		@ args = 0, pretend = 0, frame = 8
 609              		@ frame_needed = 0, uses_anonymous_args = 0
 610              	.LVL58:
 611 0000 F0B5     		push	{r4, r5, r6, r7, lr}
 612              		.cfi_def_cfa_offset 20
 613              		.cfi_offset 4, -20
 614              		.cfi_offset 5, -16
 615              		.cfi_offset 6, -12
 616              		.cfi_offset 7, -8
 617              		.cfi_offset 14, -4
 422:.\Generated_Source\PSoC5/CyFlash.c ****     {
 618              		.loc 1 422 0
 619 0002 4128     		cmp	r0, #65
 409:.\Generated_Source\PSoC5/CyFlash.c ****     cystatus status = CYRET_SUCCESS;
 620              		.loc 1 409 0
 621 0004 83B0     		sub	sp, sp, #12
 622              		.cfi_def_cfa_offset 32
 422:.\Generated_Source\PSoC5/CyFlash.c ****     {
 623              		.loc 1 422 0
 624 0006 0CD8     		bhi	.L97
 412:.\Generated_Source\PSoC5/CyFlash.c ****     {
 625              		.loc 1 412 0
 626 0008 441F     		subs	r4, r0, #5
 627 000a 3A2C     		cmp	r4, #58
ARM GAS  C:\Users\honet\AppData\Local\Temp\ccvr1NmH.s 			page 22


 628 000c 8CBF     		ite	hi
 629 000e 0024     		movhi	r4, #0
 630 0010 0124     		movls	r4, #1
 427:.\Generated_Source\PSoC5/CyFlash.c ****     {
 631              		.loc 1 427 0
 632 0012 3F28     		cmp	r0, #63
 633 0014 06D8     		bhi	.L86
 430:.\Generated_Source\PSoC5/CyFlash.c ****         {
 634              		.loc 1 430 0
 635 0016 B1F5807F 		cmp	r1, #256
 636 001a 08D9     		bls	.L88
 637              	.LVL59:
 638              	.L101:
 639 001c 0120     		movs	r0, #1
 640              	.LVL60:
 641              	.L110:
 510:.\Generated_Source\PSoC5/CyFlash.c ****         }
 511:.\Generated_Source\PSoC5/CyFlash.c ****     }
 512:.\Generated_Source\PSoC5/CyFlash.c **** 
 513:.\Generated_Source\PSoC5/CyFlash.c ****     return(status);
 514:.\Generated_Source\PSoC5/CyFlash.c **** }
 642              		.loc 1 514 0
 643 001e 03B0     		add	sp, sp, #12
 644              		.cfi_remember_state
 645              		.cfi_def_cfa_offset 20
 646              		@ sp needed
 647 0020 F0BD     		pop	{r4, r5, r6, r7, pc}
 648              	.LVL61:
 649              	.L97:
 650              		.cfi_restore_state
 651 0022 0124     		movs	r4, #1
 652              	.L86:
 653              	.LVL62:
 440:.\Generated_Source\PSoC5/CyFlash.c ****         }
 654              		.loc 1 440 0
 655 0024 8129     		cmp	r1, #129
 656 0026 28BF     		it	cs
 657 0028 0124     		movcs	r4, #1
 658              	.LVL63:
 443:.\Generated_Source\PSoC5/CyFlash.c ****         {
 659              		.loc 1 443 0
 660 002a 102B     		cmp	r3, #16
 661 002c F6D1     		bne	.L101
 662              	.LVL64:
 663              	.L88:
 449:.\Generated_Source\PSoC5/CyFlash.c ****     {
 664              		.loc 1 449 0
 665 002e 002A     		cmp	r2, #0
 666 0030 F4D0     		beq	.L101
 455:.\Generated_Source\PSoC5/CyFlash.c ****     {
 667              		.loc 1 455 0
 668 0032 002C     		cmp	r4, #0
 669 0034 F2D1     		bne	.L101
 670 0036 1F46     		mov	r7, r3
 671 0038 1546     		mov	r5, r2
 672 003a 0E46     		mov	r6, r1
 673 003c 0446     		mov	r4, r0
ARM GAS  C:\Users\honet\AppData\Local\Temp\ccvr1NmH.s 			page 23


 674              	.LVL65:
 457:.\Generated_Source\PSoC5/CyFlash.c ****         {
 675              		.loc 1 457 0
 676 003e FFF7FEFF 		bl	CySpcLock
 677              	.LVL66:
 678 0042 10B1     		cbz	r0, .L113
 509:.\Generated_Source\PSoC5/CyFlash.c ****         }
 679              		.loc 1 509 0
 680 0044 0420     		movs	r0, #4
 681              	.LVL67:
 682              		.loc 1 514 0
 683 0046 03B0     		add	sp, sp, #12
 684              		.cfi_remember_state
 685              		.cfi_def_cfa_offset 20
 686              		@ sp needed
 687 0048 F0BD     		pop	{r4, r5, r6, r7, pc}
 688              	.LVL68:
 689              	.L113:
 690              		.cfi_restore_state
 691              	.LBB32:
 692              	.LBB33:
 460:.\Generated_Source\PSoC5/CyFlash.c **** 
 693              		.loc 1 460 0
 694 004a 2A46     		mov	r2, r5
 695 004c 3B46     		mov	r3, r7
 696 004e 2046     		mov	r0, r4
 697 0050 3146     		mov	r1, r6
 698 0052 FFF7FEFF 		bl	CySpcLoadRowFull
 699              	.LVL69:
 462:.\Generated_Source\PSoC5/CyFlash.c ****             {
 700              		.loc 1 462 0
 701 0056 0728     		cmp	r0, #7
 702 0058 04D0     		beq	.L114
 703              	.LVL70:
 704              	.L90:
 705 005a 0190     		str	r0, [sp, #4]
 706              	.LVL71:
 505:.\Generated_Source\PSoC5/CyFlash.c ****         }   /* if(CySpcLock() == CYRET_SUCCESS) */
 707              		.loc 1 505 0
 708 005c FFF7FEFF 		bl	CySpcUnlock
 709              	.LVL72:
 710 0060 0198     		ldr	r0, [sp, #4]
 711 0062 DCE7     		b	.L110
 712              	.LVL73:
 713              	.L114:
 464:.\Generated_Source\PSoC5/CyFlash.c ****                 {
 714              		.loc 1 464 0
 715 0064 174D     		ldr	r5, .L115
 716              	.LVL74:
 717 0066 2B78     		ldrb	r3, [r5]	@ zero_extendqisi2
 718 0068 9B07     		lsls	r3, r3, #30
 719 006a 05D4     		bmi	.L93
 720              	.LVL75:
 721              	.L91:
 467:.\Generated_Source\PSoC5/CyFlash.c ****                 }
 722              		.loc 1 467 0
 723 006c 0120     		movs	r0, #1
ARM GAS  C:\Users\honet\AppData\Local\Temp\ccvr1NmH.s 			page 24


 724 006e FFF7FEFF 		bl	CyDelayUs
 725              	.LVL76:
 464:.\Generated_Source\PSoC5/CyFlash.c ****                 {
 726              		.loc 1 464 0
 727 0072 2B78     		ldrb	r3, [r5]	@ zero_extendqisi2
 728 0074 9807     		lsls	r0, r3, #30
 729 0076 F9D5     		bpl	.L91
 730              	.L93:
 471:.\Generated_Source\PSoC5/CyFlash.c ****                 {
 731              		.loc 1 471 0
 732 0078 124D     		ldr	r5, .L115
 733 007a 2B78     		ldrb	r3, [r5]	@ zero_extendqisi2
 734 007c 9F07     		lsls	r7, r3, #30
 735              	.LVL77:
 736 007e 1DD5     		bpl	.L103
 737 0080 2B78     		ldrb	r3, [r5]	@ zero_extendqisi2
 738 0082 9B08     		lsrs	r3, r3, #2
 739 0084 1AD1     		bne	.L103
 740              	.LVL78:
 483:.\Generated_Source\PSoC5/CyFlash.c **** 
 741              		.loc 1 483 0
 742 0086 104B     		ldr	r3, .L115+4
 743 0088 2046     		mov	r0, r4
 744 008a 1A78     		ldrb	r2, [r3]	@ zero_extendqisi2
 745 008c 3146     		mov	r1, r6
 746 008e 5B78     		ldrb	r3, [r3, #1]	@ zero_extendqisi2
 747 0090 FFF7FEFF 		bl	CySpcWriteRow
 748              	.LVL79:
 485:.\Generated_Source\PSoC5/CyFlash.c ****                     {
 749              		.loc 1 485 0
 750 0094 0728     		cmp	r0, #7
 751 0096 E0D1     		bne	.L90
 752 0098 02E0     		b	.L112
 753              	.LVL80:
 754              	.L95:
 490:.\Generated_Source\PSoC5/CyFlash.c ****                         }
 755              		.loc 1 490 0
 756 009a 0120     		movs	r0, #1
 757 009c FFF7FEFF 		bl	CyDelayUs
 758              	.LVL81:
 759              	.L112:
 487:.\Generated_Source\PSoC5/CyFlash.c ****                         {
 760              		.loc 1 487 0
 761 00a0 2B78     		ldrb	r3, [r5]	@ zero_extendqisi2
 762 00a2 9907     		lsls	r1, r3, #30
 763 00a4 F9D5     		bpl	.L95
 494:.\Generated_Source\PSoC5/CyFlash.c ****                         {
 764              		.loc 1 494 0
 765 00a6 074B     		ldr	r3, .L115
 766 00a8 1A78     		ldrb	r2, [r3]	@ zero_extendqisi2
 767 00aa 9207     		lsls	r2, r2, #30
 768 00ac 06D5     		bpl	.L103
 769 00ae 1B78     		ldrb	r3, [r3]	@ zero_extendqisi2
 770 00b0 9B08     		lsrs	r3, r3, #2
 771 00b2 14BF     		ite	ne
 772 00b4 4FF0FF30 		movne	r0, #-1
 773 00b8 0020     		moveq	r0, #0
ARM GAS  C:\Users\honet\AppData\Local\Temp\ccvr1NmH.s 			page 25


 774 00ba CEE7     		b	.L90
 775              	.L103:
 500:.\Generated_Source\PSoC5/CyFlash.c ****                         }
 776              		.loc 1 500 0
 777 00bc 4FF0FF30 		mov	r0, #-1
 778 00c0 CBE7     		b	.L90
 779              	.L116:
 780 00c2 00BF     		.align	2
 781              	.L115:
 782 00c4 22470040 		.word	1073760034
 783 00c8 00000000 		.word	dieTemperature
 784              	.LBE33:
 785              	.LBE32:
 786              		.cfi_endproc
 787              	.LFE7:
 788              		.size	CyWriteRowFull, .-CyWriteRowFull
 789              		.section	.text.CyFlash_SetWaitCycles,"ax",%progbits
 790              		.align	2
 791              		.global	CyFlash_SetWaitCycles
 792              		.thumb
 793              		.thumb_func
 794              		.type	CyFlash_SetWaitCycles, %function
 795              	CyFlash_SetWaitCycles:
 796              	.LFB8:
 515:.\Generated_Source\PSoC5/CyFlash.c **** 
 516:.\Generated_Source\PSoC5/CyFlash.c **** 
 517:.\Generated_Source\PSoC5/CyFlash.c **** /*******************************************************************************
 518:.\Generated_Source\PSoC5/CyFlash.c **** * Function Name: CyFlash_SetWaitCycles
 519:.\Generated_Source\PSoC5/CyFlash.c **** ****************************************************************************//**
 520:.\Generated_Source\PSoC5/CyFlash.c **** *
 521:.\Generated_Source\PSoC5/CyFlash.c **** *  Sets the number of clock cycles the cache will wait before it samples data
 522:.\Generated_Source\PSoC5/CyFlash.c **** *  coming back from the Flash. This function must be called before increasing
 523:.\Generated_Source\PSoC5/CyFlash.c **** *  the CPU clock frequency. It can optionally be called after lowering the CPU
 524:.\Generated_Source\PSoC5/CyFlash.c **** *  clock frequency in order to improve the CPU performance.
 525:.\Generated_Source\PSoC5/CyFlash.c **** *
 526:.\Generated_Source\PSoC5/CyFlash.c **** *  \param uint8 freq:
 527:.\Generated_Source\PSoC5/CyFlash.c **** *   Frequency of operation in Megahertz.
 528:.\Generated_Source\PSoC5/CyFlash.c **** *
 529:.\Generated_Source\PSoC5/CyFlash.c **** *******************************************************************************/
 530:.\Generated_Source\PSoC5/CyFlash.c **** void CyFlash_SetWaitCycles(uint8 freq) 
 531:.\Generated_Source\PSoC5/CyFlash.c **** {
 797              		.loc 1 531 0
 798              		.cfi_startproc
 799              		@ args = 0, pretend = 0, frame = 0
 800              		@ frame_needed = 0, uses_anonymous_args = 0
 801              	.LVL82:
 802 0000 10B5     		push	{r4, lr}
 803              		.cfi_def_cfa_offset 8
 804              		.cfi_offset 4, -8
 805              		.cfi_offset 14, -4
 806              		.loc 1 531 0
 807 0002 0446     		mov	r4, r0
 532:.\Generated_Source\PSoC5/CyFlash.c ****     uint8 interruptState;
 533:.\Generated_Source\PSoC5/CyFlash.c **** 
 534:.\Generated_Source\PSoC5/CyFlash.c ****     /* Save current global interrupt enable and disable it */
 535:.\Generated_Source\PSoC5/CyFlash.c ****     interruptState = CyEnterCriticalSection();
 808              		.loc 1 535 0
ARM GAS  C:\Users\honet\AppData\Local\Temp\ccvr1NmH.s 			page 26


 809 0004 FFF7FEFF 		bl	CyEnterCriticalSection
 810              	.LVL83:
 536:.\Generated_Source\PSoC5/CyFlash.c **** 
 537:.\Generated_Source\PSoC5/CyFlash.c ****     /***************************************************************************
 538:.\Generated_Source\PSoC5/CyFlash.c ****     * The number of clock cycles the cache will wait before it samples data
 539:.\Generated_Source\PSoC5/CyFlash.c ****     * coming back from the Flash must be equal or greater to to the CPU frequency
 540:.\Generated_Source\PSoC5/CyFlash.c ****     * outlined in clock cycles.
 541:.\Generated_Source\PSoC5/CyFlash.c ****     ***************************************************************************/
 542:.\Generated_Source\PSoC5/CyFlash.c **** 
 543:.\Generated_Source\PSoC5/CyFlash.c ****     if (freq < CY_FLASH_CACHE_WS_1_FREQ_MAX)
 811              		.loc 1 543 0
 812 0008 0F2C     		cmp	r4, #15
 813 000a 1AD9     		bls	.L124
 544:.\Generated_Source\PSoC5/CyFlash.c ****     {
 545:.\Generated_Source\PSoC5/CyFlash.c ****         CY_FLASH_CONTROL_REG = (CY_FLASH_CONTROL_REG & (uint8)(~CY_FLASH_CACHE_WS_VALUE_MASK)) |
 546:.\Generated_Source\PSoC5/CyFlash.c ****                                     CY_FLASH_CACHE_WS_1_VALUE_MASK;
 547:.\Generated_Source\PSoC5/CyFlash.c ****     }
 548:.\Generated_Source\PSoC5/CyFlash.c ****     else if (freq < CY_FLASH_CACHE_WS_2_FREQ_MAX)
 814              		.loc 1 548 0
 815 000c 202C     		cmp	r4, #32
 816 000e 0DD9     		bls	.L125
 549:.\Generated_Source\PSoC5/CyFlash.c ****     {
 550:.\Generated_Source\PSoC5/CyFlash.c ****         CY_FLASH_CONTROL_REG = (CY_FLASH_CONTROL_REG & (uint8)(~CY_FLASH_CACHE_WS_VALUE_MASK)) |
 551:.\Generated_Source\PSoC5/CyFlash.c ****                                     CY_FLASH_CACHE_WS_2_VALUE_MASK;
 552:.\Generated_Source\PSoC5/CyFlash.c ****     }
 553:.\Generated_Source\PSoC5/CyFlash.c ****     else if (freq < CY_FLASH_CACHE_WS_3_FREQ_MAX)
 817              		.loc 1 553 0
 818 0010 312C     		cmp	r4, #49
 819 0012 27D9     		bls	.L126
 554:.\Generated_Source\PSoC5/CyFlash.c ****     {
 555:.\Generated_Source\PSoC5/CyFlash.c ****         CY_FLASH_CONTROL_REG = (CY_FLASH_CONTROL_REG & (uint8)(~CY_FLASH_CACHE_WS_VALUE_MASK)) |
 556:.\Generated_Source\PSoC5/CyFlash.c ****                                     CY_FLASH_CACHE_WS_3_VALUE_MASK;
 557:.\Generated_Source\PSoC5/CyFlash.c ****     }
 558:.\Generated_Source\PSoC5/CyFlash.c **** #if (CY_PSOC5)
 559:.\Generated_Source\PSoC5/CyFlash.c ****     else if (freq < CY_FLASH_CACHE_WS_4_FREQ_MAX)
 820              		.loc 1 559 0
 821 0014 422C     		cmp	r4, #66
 822 0016 1FD9     		bls	.L127
 560:.\Generated_Source\PSoC5/CyFlash.c ****     {
 561:.\Generated_Source\PSoC5/CyFlash.c ****         CY_FLASH_CONTROL_REG = (CY_FLASH_CONTROL_REG & (uint8)(~CY_FLASH_CACHE_WS_VALUE_MASK)) |
 562:.\Generated_Source\PSoC5/CyFlash.c ****                                     CY_FLASH_CACHE_WS_4_VALUE_MASK;
 563:.\Generated_Source\PSoC5/CyFlash.c ****     }
 564:.\Generated_Source\PSoC5/CyFlash.c ****     else if (freq <= CY_FLASH_CACHE_WS_5_FREQ_MAX)
 823              		.loc 1 564 0
 824 0018 532C     		cmp	r4, #83
 825 001a 0ED8     		bhi	.L119
 565:.\Generated_Source\PSoC5/CyFlash.c ****     {
 566:.\Generated_Source\PSoC5/CyFlash.c ****         CY_FLASH_CONTROL_REG = (CY_FLASH_CONTROL_REG & (uint8)(~CY_FLASH_CACHE_WS_VALUE_MASK)) |
 826              		.loc 1 566 0
 827 001c 174A     		ldr	r2, .L128
 828 001e 1378     		ldrb	r3, [r2]	@ zero_extendqisi2
 829 0020 03F01F03 		and	r3, r3, #31
 830 0024 43F02003 		orr	r3, r3, #32
 831 0028 1370     		strb	r3, [r2]
 832 002a 06E0     		b	.L119
 833              	.L125:
 550:.\Generated_Source\PSoC5/CyFlash.c ****                                     CY_FLASH_CACHE_WS_2_VALUE_MASK;
ARM GAS  C:\Users\honet\AppData\Local\Temp\ccvr1NmH.s 			page 27


 834              		.loc 1 550 0
 835 002c 134A     		ldr	r2, .L128
 836 002e 1378     		ldrb	r3, [r2]	@ zero_extendqisi2
 837 0030 03F01F03 		and	r3, r3, #31
 838 0034 43F08003 		orr	r3, r3, #128
 839 0038 1370     		strb	r3, [r2]
 840              	.L119:
 567:.\Generated_Source\PSoC5/CyFlash.c ****                                     CY_FLASH_CACHE_WS_5_VALUE_MASK;
 568:.\Generated_Source\PSoC5/CyFlash.c ****     }
 569:.\Generated_Source\PSoC5/CyFlash.c **** #endif  /* (CY_PSOC5) */
 570:.\Generated_Source\PSoC5/CyFlash.c ****     else
 571:.\Generated_Source\PSoC5/CyFlash.c ****     {
 572:.\Generated_Source\PSoC5/CyFlash.c ****         /* Halt CPU in debug mode if frequency is invalid */
 573:.\Generated_Source\PSoC5/CyFlash.c ****         CYASSERT(0u != 0u);
 574:.\Generated_Source\PSoC5/CyFlash.c ****     }
 575:.\Generated_Source\PSoC5/CyFlash.c **** 
 576:.\Generated_Source\PSoC5/CyFlash.c ****     /* Restore global interrupt enable state */
 577:.\Generated_Source\PSoC5/CyFlash.c ****     CyExitCriticalSection(interruptState);
 578:.\Generated_Source\PSoC5/CyFlash.c **** }
 841              		.loc 1 578 0
 842 003a BDE81040 		pop	{r4, lr}
 843              		.cfi_remember_state
 844              		.cfi_restore 14
 845              		.cfi_restore 4
 846              		.cfi_def_cfa_offset 0
 577:.\Generated_Source\PSoC5/CyFlash.c **** }
 847              		.loc 1 577 0
 848 003e FFF7FEBF 		b	CyExitCriticalSection
 849              	.LVL84:
 850              	.L124:
 851              		.cfi_restore_state
 545:.\Generated_Source\PSoC5/CyFlash.c ****                                     CY_FLASH_CACHE_WS_1_VALUE_MASK;
 852              		.loc 1 545 0
 853 0042 0E4A     		ldr	r2, .L128
 854 0044 1378     		ldrb	r3, [r2]	@ zero_extendqisi2
 855 0046 03F01F03 		and	r3, r3, #31
 856 004a 43F04003 		orr	r3, r3, #64
 857 004e 1370     		strb	r3, [r2]
 858              		.loc 1 578 0
 859 0050 BDE81040 		pop	{r4, lr}
 860              		.cfi_remember_state
 861              		.cfi_restore 4
 862              		.cfi_restore 14
 863              		.cfi_def_cfa_offset 0
 577:.\Generated_Source\PSoC5/CyFlash.c **** }
 864              		.loc 1 577 0
 865 0054 FFF7FEBF 		b	CyExitCriticalSection
 866              	.LVL85:
 867              	.L127:
 868              		.cfi_restore_state
 561:.\Generated_Source\PSoC5/CyFlash.c ****                                     CY_FLASH_CACHE_WS_4_VALUE_MASK;
 869              		.loc 1 561 0
 870 0058 084A     		ldr	r2, .L128
 871 005a 1378     		ldrb	r3, [r2]	@ zero_extendqisi2
 872 005c 03F01F03 		and	r3, r3, #31
 873 0060 1370     		strb	r3, [r2]
 874 0062 EAE7     		b	.L119
ARM GAS  C:\Users\honet\AppData\Local\Temp\ccvr1NmH.s 			page 28


 875              	.L126:
 555:.\Generated_Source\PSoC5/CyFlash.c ****                                     CY_FLASH_CACHE_WS_3_VALUE_MASK;
 876              		.loc 1 555 0
 877 0064 054A     		ldr	r2, .L128
 878 0066 1378     		ldrb	r3, [r2]	@ zero_extendqisi2
 879 0068 03F01F03 		and	r3, r3, #31
 880 006c 43F0C003 		orr	r3, r3, #192
 881 0070 1370     		strb	r3, [r2]
 882              		.loc 1 578 0
 883 0072 BDE81040 		pop	{r4, lr}
 884              		.cfi_restore 4
 885              		.cfi_restore 14
 886              		.cfi_def_cfa_offset 0
 577:.\Generated_Source\PSoC5/CyFlash.c **** }
 887              		.loc 1 577 0
 888 0076 FFF7FEBF 		b	CyExitCriticalSection
 889              	.LVL86:
 890              	.L129:
 891 007a 00BF     		.align	2
 892              	.L128:
 893 007c 00480040 		.word	1073760256
 894              		.cfi_endproc
 895              	.LFE8:
 896              		.size	CyFlash_SetWaitCycles, .-CyFlash_SetWaitCycles
 897              		.section	.text.CyEEPROM_Start,"ax",%progbits
 898              		.align	2
 899              		.global	CyEEPROM_Start
 900              		.thumb
 901              		.thumb_func
 902              		.type	CyEEPROM_Start, %function
 903              	CyEEPROM_Start:
 904              	.LFB9:
 579:.\Generated_Source\PSoC5/CyFlash.c **** 
 580:.\Generated_Source\PSoC5/CyFlash.c **** 
 581:.\Generated_Source\PSoC5/CyFlash.c **** /*******************************************************************************
 582:.\Generated_Source\PSoC5/CyFlash.c **** * Function Name: CyEEPROM_Start
 583:.\Generated_Source\PSoC5/CyFlash.c **** ****************************************************************************//**
 584:.\Generated_Source\PSoC5/CyFlash.c **** *
 585:.\Generated_Source\PSoC5/CyFlash.c **** *  Enable the EEPROM.
 586:.\Generated_Source\PSoC5/CyFlash.c **** *
 587:.\Generated_Source\PSoC5/CyFlash.c **** *******************************************************************************/
 588:.\Generated_Source\PSoC5/CyFlash.c **** void CyEEPROM_Start(void) 
 589:.\Generated_Source\PSoC5/CyFlash.c **** {
 905              		.loc 1 589 0
 906              		.cfi_startproc
 907              		@ args = 0, pretend = 0, frame = 0
 908              		@ frame_needed = 0, uses_anonymous_args = 0
 909 0000 38B5     		push	{r3, r4, r5, lr}
 910              		.cfi_def_cfa_offset 16
 911              		.cfi_offset 3, -16
 912              		.cfi_offset 4, -12
 913              		.cfi_offset 5, -8
 914              		.cfi_offset 14, -4
 590:.\Generated_Source\PSoC5/CyFlash.c ****     uint8 interruptState;
 591:.\Generated_Source\PSoC5/CyFlash.c **** 
 592:.\Generated_Source\PSoC5/CyFlash.c ****     interruptState = CyEnterCriticalSection();
 915              		.loc 1 592 0
ARM GAS  C:\Users\honet\AppData\Local\Temp\ccvr1NmH.s 			page 29


 916 0002 FFF7FEFF 		bl	CyEnterCriticalSection
 917              	.LVL87:
 593:.\Generated_Source\PSoC5/CyFlash.c **** 
 594:.\Generated_Source\PSoC5/CyFlash.c **** 
 595:.\Generated_Source\PSoC5/CyFlash.c ****     /***************************************************************************
 596:.\Generated_Source\PSoC5/CyFlash.c ****     * Enable SPC clock. This also internally enables the 36MHz IMO, since this
 597:.\Generated_Source\PSoC5/CyFlash.c ****     * is required for the SPC to function.
 598:.\Generated_Source\PSoC5/CyFlash.c ****     ***************************************************************************/
 599:.\Generated_Source\PSoC5/CyFlash.c ****     CY_FLASH_PM_ACT_CFG0_REG    |= CY_FLASH_PM_ACT_CFG0_EN_CLK_SPC;
 918              		.loc 1 599 0
 919 0006 0F4A     		ldr	r2, .L135
 600:.\Generated_Source\PSoC5/CyFlash.c ****     CY_FLASH_PM_ALTACT_CFG0_REG |= CY_FLASH_PM_ALTACT_CFG0_EN_CLK_SPC;
 920              		.loc 1 600 0
 921 0008 0F49     		ldr	r1, .L135+4
 599:.\Generated_Source\PSoC5/CyFlash.c ****     CY_FLASH_PM_ALTACT_CFG0_REG |= CY_FLASH_PM_ALTACT_CFG0_EN_CLK_SPC;
 922              		.loc 1 599 0
 923 000a 1378     		ldrb	r3, [r2]	@ zero_extendqisi2
 601:.\Generated_Source\PSoC5/CyFlash.c **** 
 602:.\Generated_Source\PSoC5/CyFlash.c **** 
 603:.\Generated_Source\PSoC5/CyFlash.c ****     /***************************************************************************
 604:.\Generated_Source\PSoC5/CyFlash.c ****     * The wake count defines the number of Bus Clock cycles it takes for the
 605:.\Generated_Source\PSoC5/CyFlash.c ****     * flash or EEPROM to wake up from a low power mode independent of the chip
 606:.\Generated_Source\PSoC5/CyFlash.c ****     * power mode. Wake up time for these blocks is 5 us.
 607:.\Generated_Source\PSoC5/CyFlash.c ****     * The granularity of this register is 2 Bus Clock cycles, so a value of 0x1E
 608:.\Generated_Source\PSoC5/CyFlash.c ****     * (30d) defines the wake up time as 60 cycles of the Bus Clock.
 609:.\Generated_Source\PSoC5/CyFlash.c ****     * This register needs to be written with a value dependent on the Bus Clock
 610:.\Generated_Source\PSoC5/CyFlash.c ****     * frequency so that the duration of the cycles is equal to or greater than
 611:.\Generated_Source\PSoC5/CyFlash.c ****     * the 5 us delay required.
 612:.\Generated_Source\PSoC5/CyFlash.c ****     ***************************************************************************/
 613:.\Generated_Source\PSoC5/CyFlash.c ****     CY_FLASH_SPC_FM_EE_WAKE_CNT_REG = CY_FLASH_SPC_FM_EE_WAKE_CNT_80MHZ;
 924              		.loc 1 613 0
 925 000c 0F4C     		ldr	r4, .L135+8
 599:.\Generated_Source\PSoC5/CyFlash.c ****     CY_FLASH_PM_ALTACT_CFG0_REG |= CY_FLASH_PM_ALTACT_CFG0_EN_CLK_SPC;
 926              		.loc 1 599 0
 927 000e 43F00803 		orr	r3, r3, #8
 928 0012 1370     		strb	r3, [r2]
 600:.\Generated_Source\PSoC5/CyFlash.c **** 
 929              		.loc 1 600 0
 930 0014 0B78     		ldrb	r3, [r1]	@ zero_extendqisi2
 931              		.loc 1 613 0
 932 0016 C825     		movs	r5, #200
 600:.\Generated_Source\PSoC5/CyFlash.c **** 
 933              		.loc 1 600 0
 934 0018 43F00803 		orr	r3, r3, #8
 935 001c 0B70     		strb	r3, [r1]
 936              		.loc 1 613 0
 937 001e 2570     		strb	r5, [r4]
 614:.\Generated_Source\PSoC5/CyFlash.c **** 
 615:.\Generated_Source\PSoC5/CyFlash.c **** 
 616:.\Generated_Source\PSoC5/CyFlash.c ****     /***************************************************************************
 617:.\Generated_Source\PSoC5/CyFlash.c ****     * Enable EEPROM. Re-enabling an EEPROM macro takes 5us. During this time,
 618:.\Generated_Source\PSoC5/CyFlash.c ****     * the EE will not acknowledge a PHUB request.
 619:.\Generated_Source\PSoC5/CyFlash.c ****     ***************************************************************************/
 620:.\Generated_Source\PSoC5/CyFlash.c ****     CY_FLASH_PM_ACT_CFG12_REG    |= CY_FLASH_PM_ACT_CFG12_EN_EE;
 938              		.loc 1 620 0
 939 0020 137B     		ldrb	r3, [r2, #12]	@ zero_extendqisi2
 940 0022 43F01003 		orr	r3, r3, #16
ARM GAS  C:\Users\honet\AppData\Local\Temp\ccvr1NmH.s 			page 30


 941 0026 1373     		strb	r3, [r2, #12]
 621:.\Generated_Source\PSoC5/CyFlash.c ****     CY_FLASH_PM_ALTACT_CFG12_REG |= CY_FLASH_PM_ALTACT_CFG12_EN_EE;
 942              		.loc 1 621 0
 943 0028 0B7B     		ldrb	r3, [r1, #12]	@ zero_extendqisi2
 622:.\Generated_Source\PSoC5/CyFlash.c **** 
 623:.\Generated_Source\PSoC5/CyFlash.c ****     while(0u == (CY_FLASH_SPC_FM_EE_CR_REG & CY_FLASH_EE_EE_AWAKE))
 944              		.loc 1 623 0
 945 002a 02F55872 		add	r2, r2, #864
 621:.\Generated_Source\PSoC5/CyFlash.c ****     CY_FLASH_PM_ALTACT_CFG12_REG |= CY_FLASH_PM_ALTACT_CFG12_EN_EE;
 946              		.loc 1 621 0
 947 002e 43F01003 		orr	r3, r3, #16
 948 0032 0B73     		strb	r3, [r1, #12]
 949              	.L131:
 950              		.loc 1 623 0 discriminator 1
 951 0034 1378     		ldrb	r3, [r2]	@ zero_extendqisi2
 952 0036 9B06     		lsls	r3, r3, #26
 953 0038 FCD5     		bpl	.L131
 624:.\Generated_Source\PSoC5/CyFlash.c ****     {
 625:.\Generated_Source\PSoC5/CyFlash.c ****         /* Non-zero status denotes that the EEPROM/Flash is awake & powered. */
 626:.\Generated_Source\PSoC5/CyFlash.c ****     }
 627:.\Generated_Source\PSoC5/CyFlash.c **** 
 628:.\Generated_Source\PSoC5/CyFlash.c ****     CyExitCriticalSection(interruptState);
 629:.\Generated_Source\PSoC5/CyFlash.c **** }
 954              		.loc 1 629 0
 955 003a BDE83840 		pop	{r3, r4, r5, lr}
 956              		.cfi_restore 14
 957              		.cfi_restore 5
 958              		.cfi_restore 4
 959              		.cfi_restore 3
 960              		.cfi_def_cfa_offset 0
 628:.\Generated_Source\PSoC5/CyFlash.c **** }
 961              		.loc 1 628 0
 962 003e FFF7FEBF 		b	CyExitCriticalSection
 963              	.LVL88:
 964              	.L136:
 965 0042 00BF     		.align	2
 966              	.L135:
 967 0044 A0430040 		.word	1073759136
 968 0048 B0430040 		.word	1073759152
 969 004c 01470040 		.word	1073760001
 970              		.cfi_endproc
 971              	.LFE9:
 972              		.size	CyEEPROM_Start, .-CyEEPROM_Start
 973              		.section	.text.CyEEPROM_Stop,"ax",%progbits
 974              		.align	2
 975              		.global	CyEEPROM_Stop
 976              		.thumb
 977              		.thumb_func
 978              		.type	CyEEPROM_Stop, %function
 979              	CyEEPROM_Stop:
 980              	.LFB10:
 630:.\Generated_Source\PSoC5/CyFlash.c **** 
 631:.\Generated_Source\PSoC5/CyFlash.c **** 
 632:.\Generated_Source\PSoC5/CyFlash.c **** /*******************************************************************************
 633:.\Generated_Source\PSoC5/CyFlash.c **** * Function Name: CyEEPROM_Stop
 634:.\Generated_Source\PSoC5/CyFlash.c **** ****************************************************************************//**
 635:.\Generated_Source\PSoC5/CyFlash.c **** *
ARM GAS  C:\Users\honet\AppData\Local\Temp\ccvr1NmH.s 			page 31


 636:.\Generated_Source\PSoC5/CyFlash.c **** *  Disable the EEPROM.
 637:.\Generated_Source\PSoC5/CyFlash.c **** *
 638:.\Generated_Source\PSoC5/CyFlash.c **** *******************************************************************************/
 639:.\Generated_Source\PSoC5/CyFlash.c **** void CyEEPROM_Stop (void) 
 640:.\Generated_Source\PSoC5/CyFlash.c **** {
 981              		.loc 1 640 0
 982              		.cfi_startproc
 983              		@ args = 0, pretend = 0, frame = 0
 984              		@ frame_needed = 0, uses_anonymous_args = 0
 985 0000 08B5     		push	{r3, lr}
 986              		.cfi_def_cfa_offset 8
 987              		.cfi_offset 3, -8
 988              		.cfi_offset 14, -4
 641:.\Generated_Source\PSoC5/CyFlash.c ****     uint8 interruptState;
 642:.\Generated_Source\PSoC5/CyFlash.c **** 
 643:.\Generated_Source\PSoC5/CyFlash.c ****     interruptState = CyEnterCriticalSection();
 989              		.loc 1 643 0
 990 0002 FFF7FEFF 		bl	CyEnterCriticalSection
 991              	.LVL89:
 644:.\Generated_Source\PSoC5/CyFlash.c **** 
 645:.\Generated_Source\PSoC5/CyFlash.c ****     CY_FLASH_PM_ACT_CFG12_REG    &= ((uint8)(~CY_FLASH_PM_ACT_CFG12_EN_EE));
 992              		.loc 1 645 0
 993 0006 0749     		ldr	r1, .L139
 646:.\Generated_Source\PSoC5/CyFlash.c ****     CY_FLASH_PM_ALTACT_CFG12_REG &= ((uint8)(~CY_FLASH_PM_ALTACT_CFG12_EN_EE));
 994              		.loc 1 646 0
 995 0008 074A     		ldr	r2, .L139+4
 645:.\Generated_Source\PSoC5/CyFlash.c ****     CY_FLASH_PM_ALTACT_CFG12_REG &= ((uint8)(~CY_FLASH_PM_ALTACT_CFG12_EN_EE));
 996              		.loc 1 645 0
 997 000a 0B78     		ldrb	r3, [r1]	@ zero_extendqisi2
 998 000c 03F0EF03 		and	r3, r3, #239
 999 0010 0B70     		strb	r3, [r1]
 1000              		.loc 1 646 0
 1001 0012 1378     		ldrb	r3, [r2]	@ zero_extendqisi2
 1002 0014 03F0EF03 		and	r3, r3, #239
 1003 0018 1370     		strb	r3, [r2]
 647:.\Generated_Source\PSoC5/CyFlash.c **** 
 648:.\Generated_Source\PSoC5/CyFlash.c ****     CyExitCriticalSection(interruptState);
 649:.\Generated_Source\PSoC5/CyFlash.c **** }
 1004              		.loc 1 649 0
 1005 001a BDE80840 		pop	{r3, lr}
 1006              		.cfi_restore 14
 1007              		.cfi_restore 3
 1008              		.cfi_def_cfa_offset 0
 648:.\Generated_Source\PSoC5/CyFlash.c **** }
 1009              		.loc 1 648 0
 1010 001e FFF7FEBF 		b	CyExitCriticalSection
 1011              	.LVL90:
 1012              	.L140:
 1013 0022 00BF     		.align	2
 1014              	.L139:
 1015 0024 AC430040 		.word	1073759148
 1016 0028 BC430040 		.word	1073759164
 1017              		.cfi_endproc
 1018              	.LFE10:
 1019              		.size	CyEEPROM_Stop, .-CyEEPROM_Stop
 1020              		.section	.text.CyEEPROM_ReadReserve,"ax",%progbits
 1021              		.align	2
ARM GAS  C:\Users\honet\AppData\Local\Temp\ccvr1NmH.s 			page 32


 1022              		.global	CyEEPROM_ReadReserve
 1023              		.thumb
 1024              		.thumb_func
 1025              		.type	CyEEPROM_ReadReserve, %function
 1026              	CyEEPROM_ReadReserve:
 1027              	.LFB11:
 650:.\Generated_Source\PSoC5/CyFlash.c **** 
 651:.\Generated_Source\PSoC5/CyFlash.c **** 
 652:.\Generated_Source\PSoC5/CyFlash.c **** /*******************************************************************************
 653:.\Generated_Source\PSoC5/CyFlash.c **** * Function Name: CyEEPROM_ReadReserve
 654:.\Generated_Source\PSoC5/CyFlash.c **** ****************************************************************************//**
 655:.\Generated_Source\PSoC5/CyFlash.c **** *
 656:.\Generated_Source\PSoC5/CyFlash.c **** *  Request access to the EEPROM for reading and wait until access is available.
 657:.\Generated_Source\PSoC5/CyFlash.c **** *
 658:.\Generated_Source\PSoC5/CyFlash.c **** *******************************************************************************/
 659:.\Generated_Source\PSoC5/CyFlash.c **** void CyEEPROM_ReadReserve(void) 
 660:.\Generated_Source\PSoC5/CyFlash.c **** {
 1028              		.loc 1 660 0
 1029              		.cfi_startproc
 1030              		@ args = 0, pretend = 0, frame = 0
 1031              		@ frame_needed = 0, uses_anonymous_args = 0
 1032              		@ link register save eliminated.
 661:.\Generated_Source\PSoC5/CyFlash.c ****     /* Make request for PHUB to have access */
 662:.\Generated_Source\PSoC5/CyFlash.c ****     CY_FLASH_EE_SCR_REG |= CY_FLASH_EE_SCR_AHB_EE_REQ;
 1033              		.loc 1 662 0
 1034 0000 044B     		ldr	r3, .L145
 663:.\Generated_Source\PSoC5/CyFlash.c **** 
 664:.\Generated_Source\PSoC5/CyFlash.c ****     while (0u == (CY_FLASH_EE_SCR_REG & CY_FLASH_EE_SCR_AHB_EE_ACK))
 1035              		.loc 1 664 0
 1036 0002 1A46     		mov	r2, r3
 662:.\Generated_Source\PSoC5/CyFlash.c **** 
 1037              		.loc 1 662 0
 1038 0004 1978     		ldrb	r1, [r3]	@ zero_extendqisi2
 1039 0006 41F00101 		orr	r1, r1, #1
 1040 000a 1970     		strb	r1, [r3]
 1041              	.L142:
 1042              		.loc 1 664 0 discriminator 1
 1043 000c 1378     		ldrb	r3, [r2]	@ zero_extendqisi2
 1044 000e 9B07     		lsls	r3, r3, #30
 1045 0010 FCD5     		bpl	.L142
 665:.\Generated_Source\PSoC5/CyFlash.c ****     {
 666:.\Generated_Source\PSoC5/CyFlash.c ****         /* Wait for acknowledgment from PHUB */
 667:.\Generated_Source\PSoC5/CyFlash.c ****     }
 668:.\Generated_Source\PSoC5/CyFlash.c **** }
 1046              		.loc 1 668 0
 1047 0012 7047     		bx	lr
 1048              	.L146:
 1049              		.align	2
 1050              	.L145:
 1051 0014 02470040 		.word	1073760002
 1052              		.cfi_endproc
 1053              	.LFE11:
 1054              		.size	CyEEPROM_ReadReserve, .-CyEEPROM_ReadReserve
 1055              		.section	.text.CyEEPROM_ReadRelease,"ax",%progbits
 1056              		.align	2
 1057              		.global	CyEEPROM_ReadRelease
 1058              		.thumb
ARM GAS  C:\Users\honet\AppData\Local\Temp\ccvr1NmH.s 			page 33


 1059              		.thumb_func
 1060              		.type	CyEEPROM_ReadRelease, %function
 1061              	CyEEPROM_ReadRelease:
 1062              	.LFB12:
 669:.\Generated_Source\PSoC5/CyFlash.c **** 
 670:.\Generated_Source\PSoC5/CyFlash.c **** 
 671:.\Generated_Source\PSoC5/CyFlash.c **** /*******************************************************************************
 672:.\Generated_Source\PSoC5/CyFlash.c **** * Function Name: CyEEPROM_ReadRelease
 673:.\Generated_Source\PSoC5/CyFlash.c **** ****************************************************************************//**
 674:.\Generated_Source\PSoC5/CyFlash.c **** *
 675:.\Generated_Source\PSoC5/CyFlash.c **** *  Release the read reservation of the EEPROM.
 676:.\Generated_Source\PSoC5/CyFlash.c **** *
 677:.\Generated_Source\PSoC5/CyFlash.c **** *******************************************************************************/
 678:.\Generated_Source\PSoC5/CyFlash.c **** void CyEEPROM_ReadRelease(void) 
 679:.\Generated_Source\PSoC5/CyFlash.c **** {
 1063              		.loc 1 679 0
 1064              		.cfi_startproc
 1065              		@ args = 0, pretend = 0, frame = 0
 1066              		@ frame_needed = 0, uses_anonymous_args = 0
 1067              		@ link register save eliminated.
 680:.\Generated_Source\PSoC5/CyFlash.c ****     CY_FLASH_EE_SCR_REG &= (uint8)(~CY_FLASH_EE_SCR_AHB_EE_REQ);
 1068              		.loc 1 680 0
 1069 0000 024A     		ldr	r2, .L148
 1070 0002 1378     		ldrb	r3, [r2]	@ zero_extendqisi2
 1071 0004 03F0FE03 		and	r3, r3, #254
 1072 0008 1370     		strb	r3, [r2]
 1073 000a 7047     		bx	lr
 1074              	.L149:
 1075              		.align	2
 1076              	.L148:
 1077 000c 02470040 		.word	1073760002
 1078              		.cfi_endproc
 1079              	.LFE12:
 1080              		.size	CyEEPROM_ReadRelease, .-CyEEPROM_ReadRelease
 1081              		.comm	dieTemperature,2,4
 1082              		.bss
 1083              		.align	2
 1084              		.set	.LANCHOR0,. + 0
 1085              		.type	rowBuffer, %object
 1086              		.size	rowBuffer, 4
 1087              	rowBuffer:
 1088 0000 00000000 		.space	4
 1089              		.text
 1090              	.Letext0:
 1091              		.file 2 ".\\Generated_Source\\PSoC5\\cytypes.h"
 1092              		.file 3 ".\\Generated_Source\\PSoC5\\CyLib.h"
 1093              		.file 4 ".\\Generated_Source\\PSoC5\\CySpc.h"