ARM GAS  C:\Users\honet\AppData\Local\Temp\ccQxGmyH.s 			page 1


   1              		.syntax unified
   2              		.cpu cortex-m3
   3              		.fpu softvfp
   4              		.eabi_attribute 20, 1
   5              		.eabi_attribute 21, 1
   6              		.eabi_attribute 23, 3
   7              		.eabi_attribute 24, 1
   8              		.eabi_attribute 25, 1
   9              		.eabi_attribute 26, 1
  10              		.eabi_attribute 30, 2
  11              		.eabi_attribute 34, 1
  12              		.eabi_attribute 18, 4
  13              		.thumb
  14              		.file	"cyPm.c"
  15              		.text
  16              	.Ltext0:
  17              		.cfi_sections	.debug_frame
  18              		.section	.text.CyPmHibSlpSaveSet,"ax",%progbits
  19              		.align	2
  20              		.thumb
  21              		.thumb_func
  22              		.type	CyPmHibSlpSaveSet, %function
  23              	CyPmHibSlpSaveSet:
  24              	.LFB12:
  25              		.file 1 ".\\Generated_Source\\PSoC5\\cyPm.c"
   1:.\Generated_Source\PSoC5/cyPm.c **** /***************************************************************************//**
   2:.\Generated_Source\PSoC5/cyPm.c **** * \file cyPm.c
   3:.\Generated_Source\PSoC5/cyPm.c **** * \version 5.40
   4:.\Generated_Source\PSoC5/cyPm.c **** *
   5:.\Generated_Source\PSoC5/cyPm.c **** * \brief Provides an API for the power management.
   6:.\Generated_Source\PSoC5/cyPm.c **** *
   7:.\Generated_Source\PSoC5/cyPm.c **** * \note Documentation of the API's in this file is located in the
   8:.\Generated_Source\PSoC5/cyPm.c **** *  System Reference Guide provided with PSoC Creator.
   9:.\Generated_Source\PSoC5/cyPm.c **** *
  10:.\Generated_Source\PSoC5/cyPm.c **** ********************************************************************************
  11:.\Generated_Source\PSoC5/cyPm.c **** * \copyright
  12:.\Generated_Source\PSoC5/cyPm.c **** * Copyright 2008-2016, Cypress Semiconductor Corporation.  All rights reserved.
  13:.\Generated_Source\PSoC5/cyPm.c **** * You may use this file only in accordance with the license, terms, conditions,
  14:.\Generated_Source\PSoC5/cyPm.c **** * disclaimers, and limitations in the end user license agreement accompanying
  15:.\Generated_Source\PSoC5/cyPm.c **** * the software package with which this file was provided.
  16:.\Generated_Source\PSoC5/cyPm.c **** *******************************************************************************/
  17:.\Generated_Source\PSoC5/cyPm.c **** 
  18:.\Generated_Source\PSoC5/cyPm.c **** #include "cyPm.h"
  19:.\Generated_Source\PSoC5/cyPm.c **** #include "cyapicallbacks.h"
  20:.\Generated_Source\PSoC5/cyPm.c **** 
  21:.\Generated_Source\PSoC5/cyPm.c **** 
  22:.\Generated_Source\PSoC5/cyPm.c **** /*******************************************************************
  23:.\Generated_Source\PSoC5/cyPm.c **** * Place your includes, defines, and code here. Do not use the merge
  24:.\Generated_Source\PSoC5/cyPm.c **** * region below unless any component datasheet suggests doing so.
  25:.\Generated_Source\PSoC5/cyPm.c **** *******************************************************************/
  26:.\Generated_Source\PSoC5/cyPm.c **** /* `#START CY_PM_HEADER_INCLUDE` */
  27:.\Generated_Source\PSoC5/cyPm.c **** 
  28:.\Generated_Source\PSoC5/cyPm.c **** /* `#END` */
  29:.\Generated_Source\PSoC5/cyPm.c **** 
  30:.\Generated_Source\PSoC5/cyPm.c **** 
  31:.\Generated_Source\PSoC5/cyPm.c **** static CY_PM_BACKUP_STRUCT          cyPmBackup;
  32:.\Generated_Source\PSoC5/cyPm.c **** static CY_PM_CLOCK_BACKUP_STRUCT    cyPmClockBackup;
ARM GAS  C:\Users\honet\AppData\Local\Temp\ccQxGmyH.s 			page 2


  33:.\Generated_Source\PSoC5/cyPm.c **** 
  34:.\Generated_Source\PSoC5/cyPm.c **** /* Convertion table between register's values and frequency in MHz  */
  35:.\Generated_Source\PSoC5/cyPm.c **** static const uint8 CYCODE cyPmImoFreqReg2Mhz[7u] = {12u, 6u, 24u, 3u, 48u, 62u, 74u};
  36:.\Generated_Source\PSoC5/cyPm.c **** 
  37:.\Generated_Source\PSoC5/cyPm.c **** /* Function Prototypes */
  38:.\Generated_Source\PSoC5/cyPm.c **** static void CyPmHibSaveSet(void);
  39:.\Generated_Source\PSoC5/cyPm.c **** static void CyPmHibRestore(void) ;
  40:.\Generated_Source\PSoC5/cyPm.c **** 
  41:.\Generated_Source\PSoC5/cyPm.c **** static void CyPmHibSlpSaveSet(void) ;
  42:.\Generated_Source\PSoC5/cyPm.c **** static void CyPmHibSlpRestore(void) ;
  43:.\Generated_Source\PSoC5/cyPm.c **** 
  44:.\Generated_Source\PSoC5/cyPm.c **** static void CyPmHviLviSaveDisable(void) ;
  45:.\Generated_Source\PSoC5/cyPm.c **** static void CyPmHviLviRestore(void) ;
  46:.\Generated_Source\PSoC5/cyPm.c **** 
  47:.\Generated_Source\PSoC5/cyPm.c **** 
  48:.\Generated_Source\PSoC5/cyPm.c **** /*******************************************************************************
  49:.\Generated_Source\PSoC5/cyPm.c **** * Function Name: CyPmSaveClocks
  50:.\Generated_Source\PSoC5/cyPm.c **** ****************************************************************************//**
  51:.\Generated_Source\PSoC5/cyPm.c **** *
  52:.\Generated_Source\PSoC5/cyPm.c **** *  This function is called in preparation for entering sleep or hibernate low
  53:.\Generated_Source\PSoC5/cyPm.c **** *  power modes. Saves all the states of the clocking system that do not persist
  54:.\Generated_Source\PSoC5/cyPm.c **** *  during sleep/hibernate or that need to be altered in preparation for
  55:.\Generated_Source\PSoC5/cyPm.c **** *  sleep/hibernate. Shutdowns all the digital and analog clock dividers for the
  56:.\Generated_Source\PSoC5/cyPm.c **** *  active power mode configuration.
  57:.\Generated_Source\PSoC5/cyPm.c **** *
  58:.\Generated_Source\PSoC5/cyPm.c **** *  Switches the master clock over to the IMO and shuts down the PLL and MHz
  59:.\Generated_Source\PSoC5/cyPm.c **** *  Crystal. The IMO frequency is set to either 12 MHz or 48 MHz to match the
  60:.\Generated_Source\PSoC5/cyPm.c **** *  Design-Wide Resources System Editor "Enable Fast IMO During Startup" setting.
  61:.\Generated_Source\PSoC5/cyPm.c **** *  The ILO and 32 KHz oscillators are not impacted. The current Flash wait state
  62:.\Generated_Source\PSoC5/cyPm.c **** *  setting is saved and the Flash wait state setting is set for the current IMO
  63:.\Generated_Source\PSoC5/cyPm.c **** *  speed.
  64:.\Generated_Source\PSoC5/cyPm.c **** *
  65:.\Generated_Source\PSoC5/cyPm.c **** *  Note If the Master Clock source is routed through the DSI inputs, then it
  66:.\Generated_Source\PSoC5/cyPm.c **** *  must be set manually to another source before using the
  67:.\Generated_Source\PSoC5/cyPm.c **** *  CyPmSaveClocks()/CyPmRestoreClocks() functions.
  68:.\Generated_Source\PSoC5/cyPm.c **** *
  69:.\Generated_Source\PSoC5/cyPm.c **** * \sideeffect
  70:.\Generated_Source\PSoC5/cyPm.c **** *  All peripheral clocks are going to be off after this API method call.
  71:.\Generated_Source\PSoC5/cyPm.c **** *
  72:.\Generated_Source\PSoC5/cyPm.c **** *******************************************************************************/
  73:.\Generated_Source\PSoC5/cyPm.c **** void CyPmSaveClocks(void) 
  74:.\Generated_Source\PSoC5/cyPm.c **** {
  75:.\Generated_Source\PSoC5/cyPm.c ****     /* Digital and analog clocks - save enable state and disable them all */
  76:.\Generated_Source\PSoC5/cyPm.c ****     cyPmClockBackup.enClkA = CY_PM_ACT_CFG1_REG & CY_PM_ACT_EN_CLK_A_MASK;
  77:.\Generated_Source\PSoC5/cyPm.c ****     cyPmClockBackup.enClkD = CY_PM_ACT_CFG2_REG;
  78:.\Generated_Source\PSoC5/cyPm.c ****     CY_PM_ACT_CFG1_REG &= ((uint8)(~CY_PM_ACT_EN_CLK_A_MASK));
  79:.\Generated_Source\PSoC5/cyPm.c ****     CY_PM_ACT_CFG2_REG &= ((uint8)(~CY_PM_ACT_EN_CLK_D_MASK));
  80:.\Generated_Source\PSoC5/cyPm.c **** 
  81:.\Generated_Source\PSoC5/cyPm.c ****     /* Save current flash wait cycles and set the maximum value */
  82:.\Generated_Source\PSoC5/cyPm.c ****     cyPmClockBackup.flashWaitCycles = CY_PM_CACHE_CR_CYCLES_MASK & CY_PM_CACHE_CR_REG;
  83:.\Generated_Source\PSoC5/cyPm.c ****     CyFlash_SetWaitCycles(CY_PM_MAX_FLASH_WAIT_CYCLES);
  84:.\Generated_Source\PSoC5/cyPm.c **** 
  85:.\Generated_Source\PSoC5/cyPm.c ****     /* IMO - save current IMO MHz OSC frequency and USB mode is on bit */
  86:.\Generated_Source\PSoC5/cyPm.c ****     cyPmClockBackup.imoFreq = CY_PM_FASTCLK_IMO_CR_REG & CY_PM_FASTCLK_IMO_CR_FREQ_MASK;
  87:.\Generated_Source\PSoC5/cyPm.c ****     cyPmClockBackup.imoUsbClk = CY_PM_FASTCLK_IMO_CR_REG & CY_PM_FASTCLK_IMO_CR_USB;
  88:.\Generated_Source\PSoC5/cyPm.c **** 
  89:.\Generated_Source\PSoC5/cyPm.c ****     /* IMO doubler - save enable state */
ARM GAS  C:\Users\honet\AppData\Local\Temp\ccQxGmyH.s 			page 3


  90:.\Generated_Source\PSoC5/cyPm.c ****     if(0u != (CY_PM_FASTCLK_IMO_CR_REG & CY_PM_FASTCLK_IMO_CR_F2XON))
  91:.\Generated_Source\PSoC5/cyPm.c ****     {
  92:.\Generated_Source\PSoC5/cyPm.c ****         /* IMO doubler enabled - save and disable */
  93:.\Generated_Source\PSoC5/cyPm.c ****         cyPmClockBackup.imo2x = CY_PM_ENABLED;
  94:.\Generated_Source\PSoC5/cyPm.c ****     }
  95:.\Generated_Source\PSoC5/cyPm.c ****     else
  96:.\Generated_Source\PSoC5/cyPm.c ****     {
  97:.\Generated_Source\PSoC5/cyPm.c ****         /* IMO doubler disabled */
  98:.\Generated_Source\PSoC5/cyPm.c ****         cyPmClockBackup.imo2x = CY_PM_DISABLED;
  99:.\Generated_Source\PSoC5/cyPm.c ****     }
 100:.\Generated_Source\PSoC5/cyPm.c **** 
 101:.\Generated_Source\PSoC5/cyPm.c ****     /* Master clock - save source */
 102:.\Generated_Source\PSoC5/cyPm.c ****     cyPmClockBackup.masterClkSrc = CY_PM_CLKDIST_MSTR1_REG & CY_PM_MASTER_CLK_SRC_MASK;
 103:.\Generated_Source\PSoC5/cyPm.c **** 
 104:.\Generated_Source\PSoC5/cyPm.c ****     /* Switch Master clock's source from PLL's output to PLL's source */
 105:.\Generated_Source\PSoC5/cyPm.c ****     if(CY_MASTER_SOURCE_PLL == cyPmClockBackup.masterClkSrc)
 106:.\Generated_Source\PSoC5/cyPm.c ****     {
 107:.\Generated_Source\PSoC5/cyPm.c ****         switch (CY_PM_CLKDIST_CR_REG & CY_PM_CLKDIST_PLL_SRC_MASK)
 108:.\Generated_Source\PSoC5/cyPm.c ****         {
 109:.\Generated_Source\PSoC5/cyPm.c ****         case CY_PM_CLKDIST_PLL_SRC_IMO:
 110:.\Generated_Source\PSoC5/cyPm.c ****             CyMasterClk_SetSource(CY_MASTER_SOURCE_IMO);
 111:.\Generated_Source\PSoC5/cyPm.c ****             break;
 112:.\Generated_Source\PSoC5/cyPm.c **** 
 113:.\Generated_Source\PSoC5/cyPm.c ****         case CY_PM_CLKDIST_PLL_SRC_XTAL:
 114:.\Generated_Source\PSoC5/cyPm.c ****             CyMasterClk_SetSource(CY_MASTER_SOURCE_XTAL);
 115:.\Generated_Source\PSoC5/cyPm.c ****             break;
 116:.\Generated_Source\PSoC5/cyPm.c **** 
 117:.\Generated_Source\PSoC5/cyPm.c ****         case CY_PM_CLKDIST_PLL_SRC_DSI:
 118:.\Generated_Source\PSoC5/cyPm.c ****             CyMasterClk_SetSource(CY_MASTER_SOURCE_DSI);
 119:.\Generated_Source\PSoC5/cyPm.c ****             break;
 120:.\Generated_Source\PSoC5/cyPm.c **** 
 121:.\Generated_Source\PSoC5/cyPm.c ****         default:
 122:.\Generated_Source\PSoC5/cyPm.c ****             CYASSERT(0u != 0u);
 123:.\Generated_Source\PSoC5/cyPm.c ****             break;
 124:.\Generated_Source\PSoC5/cyPm.c ****         }
 125:.\Generated_Source\PSoC5/cyPm.c ****     }
 126:.\Generated_Source\PSoC5/cyPm.c **** 
 127:.\Generated_Source\PSoC5/cyPm.c ****     /* PLL - check enable state, disable if needed */
 128:.\Generated_Source\PSoC5/cyPm.c ****     if(0u != (CY_PM_FASTCLK_PLL_CFG0_REG & CY_PM_PLL_CFG0_ENABLE))
 129:.\Generated_Source\PSoC5/cyPm.c ****     {
 130:.\Generated_Source\PSoC5/cyPm.c ****         /* PLL is enabled - save state and disable */
 131:.\Generated_Source\PSoC5/cyPm.c ****         cyPmClockBackup.pllEnableState = CY_PM_ENABLED;
 132:.\Generated_Source\PSoC5/cyPm.c ****         CyPLL_OUT_Stop();
 133:.\Generated_Source\PSoC5/cyPm.c ****     }
 134:.\Generated_Source\PSoC5/cyPm.c ****     else
 135:.\Generated_Source\PSoC5/cyPm.c ****     {
 136:.\Generated_Source\PSoC5/cyPm.c ****         /* PLL is disabled - save state */
 137:.\Generated_Source\PSoC5/cyPm.c ****         cyPmClockBackup.pllEnableState = CY_PM_DISABLED;
 138:.\Generated_Source\PSoC5/cyPm.c ****     }
 139:.\Generated_Source\PSoC5/cyPm.c **** 
 140:.\Generated_Source\PSoC5/cyPm.c ****     /* IMO - set appropriate frequency for LPM */
 141:.\Generated_Source\PSoC5/cyPm.c ****     CyIMO_SetFreq(CY_PM_IMO_FREQ_LPM);
 142:.\Generated_Source\PSoC5/cyPm.c **** 
 143:.\Generated_Source\PSoC5/cyPm.c ****     /* IMO - save enable state and enable without wait to settle */
 144:.\Generated_Source\PSoC5/cyPm.c ****     if(0u != (CY_PM_ACT_CFG0_IMO & CY_PM_ACT_CFG0_REG))
 145:.\Generated_Source\PSoC5/cyPm.c ****     {
 146:.\Generated_Source\PSoC5/cyPm.c ****         /* IMO - save enabled state */
ARM GAS  C:\Users\honet\AppData\Local\Temp\ccQxGmyH.s 			page 4


 147:.\Generated_Source\PSoC5/cyPm.c ****         cyPmClockBackup.imoEnable = CY_PM_ENABLED;
 148:.\Generated_Source\PSoC5/cyPm.c ****     }
 149:.\Generated_Source\PSoC5/cyPm.c ****     else
 150:.\Generated_Source\PSoC5/cyPm.c ****     {
 151:.\Generated_Source\PSoC5/cyPm.c ****         /* IMO - save disabled state */
 152:.\Generated_Source\PSoC5/cyPm.c ****         cyPmClockBackup.imoEnable = CY_PM_DISABLED;
 153:.\Generated_Source\PSoC5/cyPm.c **** 
 154:.\Generated_Source\PSoC5/cyPm.c ****         /* Enable the IMO. Use software delay instead of the FTW-based inside */
 155:.\Generated_Source\PSoC5/cyPm.c ****         CyIMO_Start(CY_PM_IMO_NO_WAIT_TO_SETTLE);
 156:.\Generated_Source\PSoC5/cyPm.c **** 
 157:.\Generated_Source\PSoC5/cyPm.c ****         /* Settling time of the IMO is of the order of less than 6us */
 158:.\Generated_Source\PSoC5/cyPm.c ****         CyDelayUs(6u);
 159:.\Generated_Source\PSoC5/cyPm.c ****     }
 160:.\Generated_Source\PSoC5/cyPm.c **** 
 161:.\Generated_Source\PSoC5/cyPm.c ****     /* IMO - save the current IMOCLK source and set to IMO if not yet */
 162:.\Generated_Source\PSoC5/cyPm.c ****     if(0u != (CY_PM_FASTCLK_IMO_CR_REG & CY_PM_FASTCLK_IMO_CR_XCLKEN))
 163:.\Generated_Source\PSoC5/cyPm.c ****     {
 164:.\Generated_Source\PSoC5/cyPm.c ****         /* DSI or XTAL CLK */
 165:.\Generated_Source\PSoC5/cyPm.c ****         cyPmClockBackup.imoClkSrc =
 166:.\Generated_Source\PSoC5/cyPm.c ****             (0u == (CY_PM_CLKDIST_CR_REG & CY_PM_CLKDIST_IMO2X_SRC)) ? CY_IMO_SOURCE_DSI : CY_IMO_S
 167:.\Generated_Source\PSoC5/cyPm.c **** 
 168:.\Generated_Source\PSoC5/cyPm.c ****         /* IMO -  set IMOCLK source to IMO */
 169:.\Generated_Source\PSoC5/cyPm.c ****         CyIMO_SetSource(CY_IMO_SOURCE_IMO);
 170:.\Generated_Source\PSoC5/cyPm.c ****     }
 171:.\Generated_Source\PSoC5/cyPm.c ****     else
 172:.\Generated_Source\PSoC5/cyPm.c ****     {
 173:.\Generated_Source\PSoC5/cyPm.c ****         /* IMO */
 174:.\Generated_Source\PSoC5/cyPm.c ****         cyPmClockBackup.imoClkSrc = CY_IMO_SOURCE_IMO;
 175:.\Generated_Source\PSoC5/cyPm.c ****     }
 176:.\Generated_Source\PSoC5/cyPm.c **** 
 177:.\Generated_Source\PSoC5/cyPm.c ****     /* Save clk_imo source */
 178:.\Generated_Source\PSoC5/cyPm.c ****     cyPmClockBackup.clkImoSrc = CY_PM_CLKDIST_CR_REG & CY_PM_CLKDIST_IMO_OUT_MASK;
 179:.\Generated_Source\PSoC5/cyPm.c **** 
 180:.\Generated_Source\PSoC5/cyPm.c ****     /* If IMOCLK2X or SPC OSC is source for clk_imo, set it to IMOCLK */
 181:.\Generated_Source\PSoC5/cyPm.c ****     if(CY_PM_CLKDIST_IMO_OUT_IMO != cyPmClockBackup.clkImoSrc)
 182:.\Generated_Source\PSoC5/cyPm.c ****     {
 183:.\Generated_Source\PSoC5/cyPm.c ****         /* Set IMOCLK to source for clk_imo */
 184:.\Generated_Source\PSoC5/cyPm.c ****         CY_PM_CLKDIST_CR_REG = (CY_PM_CLKDIST_CR_REG & ((uint8)(~CY_PM_CLKDIST_IMO_OUT_MASK))) |
 185:.\Generated_Source\PSoC5/cyPm.c ****                                 CY_PM_CLKDIST_IMO_OUT_IMO;
 186:.\Generated_Source\PSoC5/cyPm.c ****     }    /* Need to change nothing if IMOCLK is source clk_imo */
 187:.\Generated_Source\PSoC5/cyPm.c **** 
 188:.\Generated_Source\PSoC5/cyPm.c ****     /* IMO doubler - disable it (saved above) */
 189:.\Generated_Source\PSoC5/cyPm.c ****     if(0u != (CY_PM_FASTCLK_IMO_CR_REG & CY_PM_FASTCLK_IMO_CR_F2XON))
 190:.\Generated_Source\PSoC5/cyPm.c ****     {
 191:.\Generated_Source\PSoC5/cyPm.c ****         CyIMO_DisableDoubler();
 192:.\Generated_Source\PSoC5/cyPm.c ****     }
 193:.\Generated_Source\PSoC5/cyPm.c **** 
 194:.\Generated_Source\PSoC5/cyPm.c ****     /* Master clock - save divider and set it to divide-by-one (if no yet) */
 195:.\Generated_Source\PSoC5/cyPm.c ****     cyPmClockBackup.clkSyncDiv = CY_PM_CLKDIST_MSTR0_REG;
 196:.\Generated_Source\PSoC5/cyPm.c ****     if(CY_PM_DIV_BY_ONE != cyPmClockBackup.clkSyncDiv)
 197:.\Generated_Source\PSoC5/cyPm.c ****     {
 198:.\Generated_Source\PSoC5/cyPm.c ****         CyMasterClk_SetDivider(CY_PM_DIV_BY_ONE);
 199:.\Generated_Source\PSoC5/cyPm.c ****     }    /* No change if master clock divider is 1 */
 200:.\Generated_Source\PSoC5/cyPm.c **** 
 201:.\Generated_Source\PSoC5/cyPm.c ****     /* Master clock source - set it to IMO if not yet. */
 202:.\Generated_Source\PSoC5/cyPm.c ****     if(CY_MASTER_SOURCE_IMO != cyPmClockBackup.masterClkSrc)
 203:.\Generated_Source\PSoC5/cyPm.c ****     {
ARM GAS  C:\Users\honet\AppData\Local\Temp\ccQxGmyH.s 			page 5


 204:.\Generated_Source\PSoC5/cyPm.c ****         CyMasterClk_SetSource(CY_MASTER_SOURCE_IMO);
 205:.\Generated_Source\PSoC5/cyPm.c ****     }    /* No change if master clock source is IMO */
 206:.\Generated_Source\PSoC5/cyPm.c **** 
 207:.\Generated_Source\PSoC5/cyPm.c ****     /* Bus clock - save divider and set it, if needed, to divide-by-one */
 208:.\Generated_Source\PSoC5/cyPm.c ****     cyPmClockBackup.clkBusDiv = (uint16) ((uint16) CY_PM_CLK_BUS_MSB_DIV_REG << 8u);
 209:.\Generated_Source\PSoC5/cyPm.c ****     cyPmClockBackup.clkBusDiv |= CY_PM_CLK_BUS_LSB_DIV_REG;
 210:.\Generated_Source\PSoC5/cyPm.c ****     if(CY_PM_BUS_CLK_DIV_BY_ONE != cyPmClockBackup.clkBusDiv)
 211:.\Generated_Source\PSoC5/cyPm.c ****     {
 212:.\Generated_Source\PSoC5/cyPm.c ****         CyBusClk_SetDivider(CY_PM_BUS_CLK_DIV_BY_ONE);
 213:.\Generated_Source\PSoC5/cyPm.c ****     }    /* Do nothing if saved and actual values are equal */
 214:.\Generated_Source\PSoC5/cyPm.c **** 
 215:.\Generated_Source\PSoC5/cyPm.c ****     /* Set number of wait cycles for flash according to CPU frequency in MHz */
 216:.\Generated_Source\PSoC5/cyPm.c ****     CyFlash_SetWaitCycles((uint8)CY_PM_GET_CPU_FREQ_MHZ);
 217:.\Generated_Source\PSoC5/cyPm.c **** 
 218:.\Generated_Source\PSoC5/cyPm.c ****     /* MHz ECO - check enable state and disable if needed */
 219:.\Generated_Source\PSoC5/cyPm.c ****     if(0u != (CY_PM_FASTCLK_XMHZ_CSR_REG & CY_PM_XMHZ_CSR_ENABLE))
 220:.\Generated_Source\PSoC5/cyPm.c ****     {
 221:.\Generated_Source\PSoC5/cyPm.c ****         /* MHz ECO is enabled - save state and disable */
 222:.\Generated_Source\PSoC5/cyPm.c ****         cyPmClockBackup.xmhzEnableState = CY_PM_ENABLED;
 223:.\Generated_Source\PSoC5/cyPm.c ****         CyXTAL_Stop();
 224:.\Generated_Source\PSoC5/cyPm.c ****     }
 225:.\Generated_Source\PSoC5/cyPm.c ****     else
 226:.\Generated_Source\PSoC5/cyPm.c ****     {
 227:.\Generated_Source\PSoC5/cyPm.c ****         /* MHz ECO is disabled - save state */
 228:.\Generated_Source\PSoC5/cyPm.c ****         cyPmClockBackup.xmhzEnableState = CY_PM_DISABLED;
 229:.\Generated_Source\PSoC5/cyPm.c ****     }
 230:.\Generated_Source\PSoC5/cyPm.c **** 
 231:.\Generated_Source\PSoC5/cyPm.c **** 
 232:.\Generated_Source\PSoC5/cyPm.c ****     /***************************************************************************
 233:.\Generated_Source\PSoC5/cyPm.c ****     * Save the enable state of delay between the system bus clock and each of the
 234:.\Generated_Source\PSoC5/cyPm.c ****     * 4 individual analog clocks. This bit non-retention and its value should
 235:.\Generated_Source\PSoC5/cyPm.c ****     * be restored on wakeup.
 236:.\Generated_Source\PSoC5/cyPm.c ****     ***************************************************************************/
 237:.\Generated_Source\PSoC5/cyPm.c ****     if(0u != (CY_PM_CLKDIST_DELAY_REG & CY_PM_CLKDIST_DELAY_EN))
 238:.\Generated_Source\PSoC5/cyPm.c ****     {
 239:.\Generated_Source\PSoC5/cyPm.c ****         cyPmClockBackup.clkDistDelay = CY_PM_ENABLED;
 240:.\Generated_Source\PSoC5/cyPm.c ****     }
 241:.\Generated_Source\PSoC5/cyPm.c ****     else
 242:.\Generated_Source\PSoC5/cyPm.c ****     {
 243:.\Generated_Source\PSoC5/cyPm.c ****         cyPmClockBackup.clkDistDelay = CY_PM_DISABLED;
 244:.\Generated_Source\PSoC5/cyPm.c ****     }
 245:.\Generated_Source\PSoC5/cyPm.c **** }
 246:.\Generated_Source\PSoC5/cyPm.c **** 
 247:.\Generated_Source\PSoC5/cyPm.c **** 
 248:.\Generated_Source\PSoC5/cyPm.c **** /*******************************************************************************
 249:.\Generated_Source\PSoC5/cyPm.c **** * Function Name: CyPmRestoreClocks
 250:.\Generated_Source\PSoC5/cyPm.c **** ****************************************************************************//**
 251:.\Generated_Source\PSoC5/cyPm.c **** *
 252:.\Generated_Source\PSoC5/cyPm.c **** *  Restores any state that was preserved by the last call to CyPmSaveClocks().
 253:.\Generated_Source\PSoC5/cyPm.c **** *  The Flash wait state setting is also restored.
 254:.\Generated_Source\PSoC5/cyPm.c **** *
 255:.\Generated_Source\PSoC5/cyPm.c **** *  Note If the Master Clock source is routed through the DSI inputs, then it
 256:.\Generated_Source\PSoC5/cyPm.c **** *  must be set manually to another source before using the
 257:.\Generated_Source\PSoC5/cyPm.c **** *  CyPmSaveClocks()/CyPmRestoreClocks() functions.
 258:.\Generated_Source\PSoC5/cyPm.c **** *
 259:.\Generated_Source\PSoC5/cyPm.c **** *  PSoC 3 and PSoC 5LP:
 260:.\Generated_Source\PSoC5/cyPm.c **** *  The merge region could be used to process state when the megahertz crystal is
ARM GAS  C:\Users\honet\AppData\Local\Temp\ccQxGmyH.s 			page 6


 261:.\Generated_Source\PSoC5/cyPm.c **** *  not ready after a hold-off timeout.
 262:.\Generated_Source\PSoC5/cyPm.c **** *
 263:.\Generated_Source\PSoC5/cyPm.c **** *  PSoC 5:
 264:.\Generated_Source\PSoC5/cyPm.c **** *  The 130 ms is given for the megahertz crystal to stabilize. Its readiness is
 265:.\Generated_Source\PSoC5/cyPm.c **** *  not verified after a hold-off timeout.
 266:.\Generated_Source\PSoC5/cyPm.c **** *
 267:.\Generated_Source\PSoC5/cyPm.c **** *******************************************************************************/
 268:.\Generated_Source\PSoC5/cyPm.c **** void CyPmRestoreClocks(void) 
 269:.\Generated_Source\PSoC5/cyPm.c **** {
 270:.\Generated_Source\PSoC5/cyPm.c ****     cystatus status = CYRET_TIMEOUT;
 271:.\Generated_Source\PSoC5/cyPm.c ****     uint16 i;
 272:.\Generated_Source\PSoC5/cyPm.c ****     uint16 clkBusDivTmp;
 273:.\Generated_Source\PSoC5/cyPm.c **** 
 274:.\Generated_Source\PSoC5/cyPm.c **** 
 275:.\Generated_Source\PSoC5/cyPm.c ****     /* Convertion table between CyIMO_SetFreq() parameters and register's value */
 276:.\Generated_Source\PSoC5/cyPm.c ****     const uint8 CYCODE cyPmImoFreqMhz2Reg[7u] = {
 277:.\Generated_Source\PSoC5/cyPm.c ****         CY_IMO_FREQ_12MHZ, CY_IMO_FREQ_6MHZ,  CY_IMO_FREQ_24MHZ, CY_IMO_FREQ_3MHZ,
 278:.\Generated_Source\PSoC5/cyPm.c ****         CY_IMO_FREQ_48MHZ, 5u, 6u};
 279:.\Generated_Source\PSoC5/cyPm.c **** 
 280:.\Generated_Source\PSoC5/cyPm.c ****     /* Restore enable state of delay between system bus clock and ACLKs. */
 281:.\Generated_Source\PSoC5/cyPm.c ****     if(CY_PM_ENABLED == cyPmClockBackup.clkDistDelay)
 282:.\Generated_Source\PSoC5/cyPm.c ****     {
 283:.\Generated_Source\PSoC5/cyPm.c ****         /* Delay for both bandgap and delay line to settle out */
 284:.\Generated_Source\PSoC5/cyPm.c ****         CyDelayCycles((uint32)(CY_PM_CLK_DELAY_BANDGAP_SETTLE_US + CY_PM_CLK_DELAY_BIAS_SETTLE_US) 
 285:.\Generated_Source\PSoC5/cyPm.c ****                         CY_PM_GET_CPU_FREQ_MHZ);
 286:.\Generated_Source\PSoC5/cyPm.c **** 
 287:.\Generated_Source\PSoC5/cyPm.c ****         CY_PM_CLKDIST_DELAY_REG |= CY_PM_CLKDIST_DELAY_EN;
 288:.\Generated_Source\PSoC5/cyPm.c ****     }
 289:.\Generated_Source\PSoC5/cyPm.c **** 
 290:.\Generated_Source\PSoC5/cyPm.c ****     /* MHz ECO restore state */
 291:.\Generated_Source\PSoC5/cyPm.c ****     if(CY_PM_ENABLED == cyPmClockBackup.xmhzEnableState)
 292:.\Generated_Source\PSoC5/cyPm.c ****     {
 293:.\Generated_Source\PSoC5/cyPm.c ****         /***********************************************************************
 294:.\Generated_Source\PSoC5/cyPm.c ****         * Enabling XMHZ XTAL. The actual CyXTAL_Start() with a non zero wait
 295:.\Generated_Source\PSoC5/cyPm.c ****         * period uses FTW for period measurement. This could cause a problem
 296:.\Generated_Source\PSoC5/cyPm.c ****         * if CTW/FTW is used as a wake up time in the low power modes APIs.
 297:.\Generated_Source\PSoC5/cyPm.c ****         * So, the XTAL wait procedure is implemented with a software delay.
 298:.\Generated_Source\PSoC5/cyPm.c ****         ***********************************************************************/
 299:.\Generated_Source\PSoC5/cyPm.c **** 
 300:.\Generated_Source\PSoC5/cyPm.c ****         /* Enable XMHZ XTAL with no wait */
 301:.\Generated_Source\PSoC5/cyPm.c ****         (void) CyXTAL_Start(CY_PM_XTAL_MHZ_NO_WAIT);
 302:.\Generated_Source\PSoC5/cyPm.c **** 
 303:.\Generated_Source\PSoC5/cyPm.c ****         /* Read XERR bit to clear it */
 304:.\Generated_Source\PSoC5/cyPm.c ****         (void) CY_PM_FASTCLK_XMHZ_CSR_REG;
 305:.\Generated_Source\PSoC5/cyPm.c **** 
 306:.\Generated_Source\PSoC5/cyPm.c ****         /* Wait */
 307:.\Generated_Source\PSoC5/cyPm.c ****         for(i = CY_PM_MHZ_XTAL_WAIT_NUM_OF_200_US; i > 0u; i--)
 308:.\Generated_Source\PSoC5/cyPm.c ****         {
 309:.\Generated_Source\PSoC5/cyPm.c ****             /* Make a 200 microseconds delay */
 310:.\Generated_Source\PSoC5/cyPm.c ****             CyDelayCycles((uint32)CY_PM_WAIT_200_US * CY_PM_GET_CPU_FREQ_MHZ);
 311:.\Generated_Source\PSoC5/cyPm.c **** 
 312:.\Generated_Source\PSoC5/cyPm.c ****             /* High output indicates oscillator failure */
 313:.\Generated_Source\PSoC5/cyPm.c ****             if(0u == (CY_PM_FASTCLK_XMHZ_CSR_REG & CY_PM_XMHZ_CSR_XERR))
 314:.\Generated_Source\PSoC5/cyPm.c ****             {
 315:.\Generated_Source\PSoC5/cyPm.c ****                 status = CYRET_SUCCESS;
 316:.\Generated_Source\PSoC5/cyPm.c ****                 break;
 317:.\Generated_Source\PSoC5/cyPm.c ****             }
ARM GAS  C:\Users\honet\AppData\Local\Temp\ccQxGmyH.s 			page 7


 318:.\Generated_Source\PSoC5/cyPm.c ****         }
 319:.\Generated_Source\PSoC5/cyPm.c **** 
 320:.\Generated_Source\PSoC5/cyPm.c ****         if(CYRET_TIMEOUT == status)
 321:.\Generated_Source\PSoC5/cyPm.c ****         {
 322:.\Generated_Source\PSoC5/cyPm.c ****             /*******************************************************************
 323:.\Generated_Source\PSoC5/cyPm.c ****             * Process the situation when megahertz crystal is not ready.
 324:.\Generated_Source\PSoC5/cyPm.c ****             * Time to stabilize the value is crystal specific.
 325:.\Generated_Source\PSoC5/cyPm.c ****             *******************************************************************/
 326:.\Generated_Source\PSoC5/cyPm.c ****            /* `#START_MHZ_ECO_TIMEOUT` */
 327:.\Generated_Source\PSoC5/cyPm.c **** 
 328:.\Generated_Source\PSoC5/cyPm.c ****            /* `#END` */
 329:.\Generated_Source\PSoC5/cyPm.c **** 
 330:.\Generated_Source\PSoC5/cyPm.c ****         #ifdef CY_BOOT_CY_PM_RESTORE_CLOCKS_ECO_TIMEOUT_CALLBACK
 331:.\Generated_Source\PSoC5/cyPm.c ****             CyBoot_CyPmRestoreClocks_EcoTimeout_Callback();
 332:.\Generated_Source\PSoC5/cyPm.c ****         #endif /* CY_BOOT_CY_PM_RESTORE_CLOCKS_ECO_TIMEOUT_CALLBACK */
 333:.\Generated_Source\PSoC5/cyPm.c ****         }
 334:.\Generated_Source\PSoC5/cyPm.c ****     }   /* (CY_PM_ENABLED == cyPmClockBackup.xmhzEnableState) */
 335:.\Generated_Source\PSoC5/cyPm.c **** 
 336:.\Generated_Source\PSoC5/cyPm.c **** 
 337:.\Generated_Source\PSoC5/cyPm.c ****     /* Temporary set maximum flash wait cycles */
 338:.\Generated_Source\PSoC5/cyPm.c ****     CyFlash_SetWaitCycles(CY_PM_MAX_FLASH_WAIT_CYCLES);
 339:.\Generated_Source\PSoC5/cyPm.c **** 
 340:.\Generated_Source\PSoC5/cyPm.c ****     /* XTAL and DSI clocks are ready to be source for Master clock. */
 341:.\Generated_Source\PSoC5/cyPm.c ****     if((CY_PM_MASTER_CLK_SRC_XTAL == cyPmClockBackup.masterClkSrc) ||
 342:.\Generated_Source\PSoC5/cyPm.c ****        (CY_PM_MASTER_CLK_SRC_DSI  == cyPmClockBackup.masterClkSrc))
 343:.\Generated_Source\PSoC5/cyPm.c ****     {
 344:.\Generated_Source\PSoC5/cyPm.c ****         /* Restore Master clock's divider */
 345:.\Generated_Source\PSoC5/cyPm.c ****         if(CY_PM_CLKDIST_MSTR0_REG != cyPmClockBackup.clkSyncDiv)
 346:.\Generated_Source\PSoC5/cyPm.c ****         {
 347:.\Generated_Source\PSoC5/cyPm.c ****             /* Restore Master clock divider */
 348:.\Generated_Source\PSoC5/cyPm.c ****             CyMasterClk_SetDivider(cyPmClockBackup.clkSyncDiv);
 349:.\Generated_Source\PSoC5/cyPm.c ****         }
 350:.\Generated_Source\PSoC5/cyPm.c **** 
 351:.\Generated_Source\PSoC5/cyPm.c ****         /* Restore Master clock source */
 352:.\Generated_Source\PSoC5/cyPm.c ****         CyMasterClk_SetSource(cyPmClockBackup.masterClkSrc);
 353:.\Generated_Source\PSoC5/cyPm.c ****     }
 354:.\Generated_Source\PSoC5/cyPm.c **** 
 355:.\Generated_Source\PSoC5/cyPm.c ****     /* IMO - restore IMO frequency */
 356:.\Generated_Source\PSoC5/cyPm.c ****     if((0u != (cyPmClockBackup.imoUsbClk & CY_PM_FASTCLK_IMO_CR_USB)) &&
 357:.\Generated_Source\PSoC5/cyPm.c ****         (CY_IMO_FREQ_24MHZ == cyPmImoFreqMhz2Reg[cyPmClockBackup.imoFreq]))
 358:.\Generated_Source\PSoC5/cyPm.c ****     {
 359:.\Generated_Source\PSoC5/cyPm.c ****         /* Restore IMO frequency (24 MHz) and trim it for USB */
 360:.\Generated_Source\PSoC5/cyPm.c ****         CyIMO_SetFreq(CY_IMO_FREQ_USB);
 361:.\Generated_Source\PSoC5/cyPm.c ****     }
 362:.\Generated_Source\PSoC5/cyPm.c ****     else
 363:.\Generated_Source\PSoC5/cyPm.c ****     {
 364:.\Generated_Source\PSoC5/cyPm.c ****         /* Restore IMO frequency */
 365:.\Generated_Source\PSoC5/cyPm.c ****         CyIMO_SetFreq(cyPmImoFreqMhz2Reg[cyPmClockBackup.imoFreq]);
 366:.\Generated_Source\PSoC5/cyPm.c **** 
 367:.\Generated_Source\PSoC5/cyPm.c ****         if(0u != (cyPmClockBackup.imoUsbClk & CY_PM_FASTCLK_IMO_CR_USB))
 368:.\Generated_Source\PSoC5/cyPm.c ****         {
 369:.\Generated_Source\PSoC5/cyPm.c ****             CY_PM_FASTCLK_IMO_CR_REG |= CY_PM_FASTCLK_IMO_CR_USB;
 370:.\Generated_Source\PSoC5/cyPm.c ****         }
 371:.\Generated_Source\PSoC5/cyPm.c ****         else
 372:.\Generated_Source\PSoC5/cyPm.c ****         {
 373:.\Generated_Source\PSoC5/cyPm.c ****             CY_PM_FASTCLK_IMO_CR_REG &= ((uint8)(~CY_PM_FASTCLK_IMO_CR_USB));
 374:.\Generated_Source\PSoC5/cyPm.c ****         }
ARM GAS  C:\Users\honet\AppData\Local\Temp\ccQxGmyH.s 			page 8


 375:.\Generated_Source\PSoC5/cyPm.c ****     }
 376:.\Generated_Source\PSoC5/cyPm.c **** 
 377:.\Generated_Source\PSoC5/cyPm.c ****     /* IMO - restore enable state if needed */
 378:.\Generated_Source\PSoC5/cyPm.c ****     if((CY_PM_ENABLED == cyPmClockBackup.imoEnable) &&
 379:.\Generated_Source\PSoC5/cyPm.c ****        (0u == (CY_PM_ACT_CFG0_IMO & CY_PM_ACT_CFG0_REG)))
 380:.\Generated_Source\PSoC5/cyPm.c ****     {
 381:.\Generated_Source\PSoC5/cyPm.c ****         /* IMO - restore enabled state */
 382:.\Generated_Source\PSoC5/cyPm.c ****         CyIMO_Start(CY_PM_IMO_NO_WAIT_TO_SETTLE);
 383:.\Generated_Source\PSoC5/cyPm.c ****     }
 384:.\Generated_Source\PSoC5/cyPm.c **** 
 385:.\Generated_Source\PSoC5/cyPm.c ****     /* IMO - restore IMOCLK source */
 386:.\Generated_Source\PSoC5/cyPm.c ****     CyIMO_SetSource(cyPmClockBackup.imoClkSrc);
 387:.\Generated_Source\PSoC5/cyPm.c **** 
 388:.\Generated_Source\PSoC5/cyPm.c ****     /* Restore IMO doubler enable state (turned off by CyPmSaveClocks()) */
 389:.\Generated_Source\PSoC5/cyPm.c ****     if(CY_PM_ENABLED == cyPmClockBackup.imo2x)
 390:.\Generated_Source\PSoC5/cyPm.c ****     {
 391:.\Generated_Source\PSoC5/cyPm.c ****         CyIMO_EnableDoubler();
 392:.\Generated_Source\PSoC5/cyPm.c ****     }
 393:.\Generated_Source\PSoC5/cyPm.c **** 
 394:.\Generated_Source\PSoC5/cyPm.c ****     /* IMO - restore clk_imo source, if needed */
 395:.\Generated_Source\PSoC5/cyPm.c ****     if(cyPmClockBackup.clkImoSrc != (CY_PM_CLKDIST_CR_REG & CY_PM_CLKDIST_IMO_OUT_MASK))
 396:.\Generated_Source\PSoC5/cyPm.c ****     {
 397:.\Generated_Source\PSoC5/cyPm.c ****         CY_PM_CLKDIST_CR_REG = (CY_PM_CLKDIST_CR_REG & ((uint8)(~CY_PM_CLKDIST_IMO_OUT_MASK))) |
 398:.\Generated_Source\PSoC5/cyPm.c ****                                 cyPmClockBackup.clkImoSrc;
 399:.\Generated_Source\PSoC5/cyPm.c ****     }
 400:.\Generated_Source\PSoC5/cyPm.c **** 
 401:.\Generated_Source\PSoC5/cyPm.c **** 
 402:.\Generated_Source\PSoC5/cyPm.c ****     /* PLL restore state */
 403:.\Generated_Source\PSoC5/cyPm.c ****     if(CY_PM_ENABLED == cyPmClockBackup.pllEnableState)
 404:.\Generated_Source\PSoC5/cyPm.c ****     {
 405:.\Generated_Source\PSoC5/cyPm.c ****         /***********************************************************************
 406:.\Generated_Source\PSoC5/cyPm.c ****         * Enable PLL. The actual CyPLL_OUT_Start() without wait period uses FTW
 407:.\Generated_Source\PSoC5/cyPm.c ****         * for period measurement. This could cause a problem if CTW/FTW is used
 408:.\Generated_Source\PSoC5/cyPm.c ****         * as a wakeup time in the low power modes APIs. To omit this issue PLL
 409:.\Generated_Source\PSoC5/cyPm.c ****         * wait procedure is implemented with a software delay.
 410:.\Generated_Source\PSoC5/cyPm.c ****         ***********************************************************************/
 411:.\Generated_Source\PSoC5/cyPm.c ****         status = CYRET_TIMEOUT;
 412:.\Generated_Source\PSoC5/cyPm.c **** 
 413:.\Generated_Source\PSoC5/cyPm.c ****         /* Enable PLL */
 414:.\Generated_Source\PSoC5/cyPm.c ****         (void) CyPLL_OUT_Start(CY_PM_PLL_OUT_NO_WAIT);
 415:.\Generated_Source\PSoC5/cyPm.c **** 
 416:.\Generated_Source\PSoC5/cyPm.c ****         /* Read to clear lock status after delay */
 417:.\Generated_Source\PSoC5/cyPm.c ****         CyDelayUs((uint32)80u);
 418:.\Generated_Source\PSoC5/cyPm.c ****         (void) CY_PM_FASTCLK_PLL_SR_REG;
 419:.\Generated_Source\PSoC5/cyPm.c **** 
 420:.\Generated_Source\PSoC5/cyPm.c ****         /* It should take 250 us lock: 251-80 = 171 */
 421:.\Generated_Source\PSoC5/cyPm.c ****         for(i = 171u; i > 0u; i--)
 422:.\Generated_Source\PSoC5/cyPm.c ****         {
 423:.\Generated_Source\PSoC5/cyPm.c ****             CyDelayUs((uint32)1u);
 424:.\Generated_Source\PSoC5/cyPm.c **** 
 425:.\Generated_Source\PSoC5/cyPm.c ****             /* Accept PLL is OK after two consecutive polls indicate PLL lock */
 426:.\Generated_Source\PSoC5/cyPm.c ****             if((0u != (CY_PM_FASTCLK_PLL_SR_REG & CY_PM_FASTCLK_PLL_LOCKED)) &&
 427:.\Generated_Source\PSoC5/cyPm.c ****                (0u != (CY_PM_FASTCLK_PLL_SR_REG & CY_PM_FASTCLK_PLL_LOCKED)))
 428:.\Generated_Source\PSoC5/cyPm.c ****             {
 429:.\Generated_Source\PSoC5/cyPm.c ****                 status = CYRET_SUCCESS;
 430:.\Generated_Source\PSoC5/cyPm.c ****                 break;
 431:.\Generated_Source\PSoC5/cyPm.c ****             }
ARM GAS  C:\Users\honet\AppData\Local\Temp\ccQxGmyH.s 			page 9


 432:.\Generated_Source\PSoC5/cyPm.c ****         }
 433:.\Generated_Source\PSoC5/cyPm.c **** 
 434:.\Generated_Source\PSoC5/cyPm.c ****         if(CYRET_TIMEOUT == status)
 435:.\Generated_Source\PSoC5/cyPm.c ****         {
 436:.\Generated_Source\PSoC5/cyPm.c ****             /*******************************************************************
 437:.\Generated_Source\PSoC5/cyPm.c ****             * Process the situation when PLL is not ready.
 438:.\Generated_Source\PSoC5/cyPm.c ****             *******************************************************************/
 439:.\Generated_Source\PSoC5/cyPm.c ****            /* `#START_PLL_TIMEOUT` */
 440:.\Generated_Source\PSoC5/cyPm.c **** 
 441:.\Generated_Source\PSoC5/cyPm.c ****            /* `#END` */
 442:.\Generated_Source\PSoC5/cyPm.c **** 
 443:.\Generated_Source\PSoC5/cyPm.c ****         #ifdef CY_BOOT_CY_PM_RESTORE_CLOCKS_PLL_TIMEOUT_CALLBACK
 444:.\Generated_Source\PSoC5/cyPm.c ****             CyBoot_CyPmRestoreClocks_PllTimeout_Callback();
 445:.\Generated_Source\PSoC5/cyPm.c ****         #endif /* CY_BOOT_CY_PM_RESTORE_CLOCKS_PLL_TIMEOUT_CALLBACK */
 446:.\Generated_Source\PSoC5/cyPm.c ****         }
 447:.\Generated_Source\PSoC5/cyPm.c ****     }   /* (CY_PM_ENABLED == cyPmClockBackup.pllEnableState) */
 448:.\Generated_Source\PSoC5/cyPm.c **** 
 449:.\Generated_Source\PSoC5/cyPm.c **** 
 450:.\Generated_Source\PSoC5/cyPm.c ****     /* PLL and IMO is ready to be source for Master clock */
 451:.\Generated_Source\PSoC5/cyPm.c ****     if((CY_PM_MASTER_CLK_SRC_IMO == cyPmClockBackup.masterClkSrc) ||
 452:.\Generated_Source\PSoC5/cyPm.c ****        (CY_PM_MASTER_CLK_SRC_PLL == cyPmClockBackup.masterClkSrc))
 453:.\Generated_Source\PSoC5/cyPm.c ****     {
 454:.\Generated_Source\PSoC5/cyPm.c ****         /* Restore Master clock divider */
 455:.\Generated_Source\PSoC5/cyPm.c ****         if(CY_PM_CLKDIST_MSTR0_REG != cyPmClockBackup.clkSyncDiv)
 456:.\Generated_Source\PSoC5/cyPm.c ****         {
 457:.\Generated_Source\PSoC5/cyPm.c ****             CyMasterClk_SetDivider(cyPmClockBackup.clkSyncDiv);
 458:.\Generated_Source\PSoC5/cyPm.c ****         }
 459:.\Generated_Source\PSoC5/cyPm.c **** 
 460:.\Generated_Source\PSoC5/cyPm.c ****         /* Restore Master clock source */
 461:.\Generated_Source\PSoC5/cyPm.c ****         CyMasterClk_SetSource(cyPmClockBackup.masterClkSrc);
 462:.\Generated_Source\PSoC5/cyPm.c ****     }
 463:.\Generated_Source\PSoC5/cyPm.c **** 
 464:.\Generated_Source\PSoC5/cyPm.c ****     /* IMO - disable if it was originally disabled */
 465:.\Generated_Source\PSoC5/cyPm.c ****     if((CY_PM_DISABLED == cyPmClockBackup.imoEnable) &&
 466:.\Generated_Source\PSoC5/cyPm.c ****        (0u != (CY_PM_ACT_CFG0_IMO & CY_PM_ACT_CFG0_REG)))
 467:.\Generated_Source\PSoC5/cyPm.c ****     {
 468:.\Generated_Source\PSoC5/cyPm.c ****         CyIMO_Stop();
 469:.\Generated_Source\PSoC5/cyPm.c ****     }
 470:.\Generated_Source\PSoC5/cyPm.c **** 
 471:.\Generated_Source\PSoC5/cyPm.c ****     /* Bus clock - restore divider, if needed */
 472:.\Generated_Source\PSoC5/cyPm.c ****     clkBusDivTmp = (uint16) ((uint16)CY_PM_CLK_BUS_MSB_DIV_REG << 8u);
 473:.\Generated_Source\PSoC5/cyPm.c ****     clkBusDivTmp |= CY_PM_CLK_BUS_LSB_DIV_REG;
 474:.\Generated_Source\PSoC5/cyPm.c ****     if(cyPmClockBackup.clkBusDiv != clkBusDivTmp)
 475:.\Generated_Source\PSoC5/cyPm.c ****     {
 476:.\Generated_Source\PSoC5/cyPm.c ****         CyBusClk_SetDivider(cyPmClockBackup.clkBusDiv);
 477:.\Generated_Source\PSoC5/cyPm.c ****     }
 478:.\Generated_Source\PSoC5/cyPm.c **** 
 479:.\Generated_Source\PSoC5/cyPm.c ****     /* Restore flash wait cycles */
 480:.\Generated_Source\PSoC5/cyPm.c ****     CY_PM_CACHE_CR_REG = ((CY_PM_CACHE_CR_REG & ((uint8)(~CY_PM_CACHE_CR_CYCLES_MASK))) |
 481:.\Generated_Source\PSoC5/cyPm.c ****                            cyPmClockBackup.flashWaitCycles);
 482:.\Generated_Source\PSoC5/cyPm.c **** 
 483:.\Generated_Source\PSoC5/cyPm.c ****     /* Digital and analog clocks - restore state */
 484:.\Generated_Source\PSoC5/cyPm.c ****     CY_PM_ACT_CFG1_REG = cyPmClockBackup.enClkA;
 485:.\Generated_Source\PSoC5/cyPm.c ****     CY_PM_ACT_CFG2_REG = cyPmClockBackup.enClkD;
 486:.\Generated_Source\PSoC5/cyPm.c **** }
 487:.\Generated_Source\PSoC5/cyPm.c **** 
 488:.\Generated_Source\PSoC5/cyPm.c **** 
ARM GAS  C:\Users\honet\AppData\Local\Temp\ccQxGmyH.s 			page 10


 489:.\Generated_Source\PSoC5/cyPm.c **** /*******************************************************************************
 490:.\Generated_Source\PSoC5/cyPm.c **** * Function Name: CyPmAltAct
 491:.\Generated_Source\PSoC5/cyPm.c **** ****************************************************************************//**
 492:.\Generated_Source\PSoC5/cyPm.c **** *
 493:.\Generated_Source\PSoC5/cyPm.c **** *  Puts the part into the Alternate Active (Standby) state. The Alternate Active
 494:.\Generated_Source\PSoC5/cyPm.c **** *  state can allow for any of the capabilities of the device to be active, but
 495:.\Generated_Source\PSoC5/cyPm.c **** *  the operation of this function is dependent on the CPU being disabled during
 496:.\Generated_Source\PSoC5/cyPm.c **** *  the Alternate Active state. The configuration code and the component APIs
 497:.\Generated_Source\PSoC5/cyPm.c **** *  will configure the template for the Alternate Active state to be the same as
 498:.\Generated_Source\PSoC5/cyPm.c **** *  the Active state with the exception that the CPU will be disabled during
 499:.\Generated_Source\PSoC5/cyPm.c **** *  Alternate Active.
 500:.\Generated_Source\PSoC5/cyPm.c **** *
 501:.\Generated_Source\PSoC5/cyPm.c **** *  Note Before calling this function, you must manually configure the power mode
 502:.\Generated_Source\PSoC5/cyPm.c **** *  of the source clocks for the timer that is used as the wakeup timer.
 503:.\Generated_Source\PSoC5/cyPm.c **** *
 504:.\Generated_Source\PSoC5/cyPm.c **** *  PSoC 3:
 505:.\Generated_Source\PSoC5/cyPm.c **** *  Before switching to Alternate Active, if a wakeupTime other than NONE is
 506:.\Generated_Source\PSoC5/cyPm.c **** *  specified, then the appropriate timer state is configured as specified with
 507:.\Generated_Source\PSoC5/cyPm.c **** *  the interrupt for that timer disabled.  The wakeup source will be the
 508:.\Generated_Source\PSoC5/cyPm.c **** *  combination of the values specified in the wakeupSource and any timer
 509:.\Generated_Source\PSoC5/cyPm.c **** *  specified in the wakeupTime argument.  Once the wakeup condition is
 510:.\Generated_Source\PSoC5/cyPm.c **** *  satisfied, then all saved state is restored and the function returns in the
 511:.\Generated_Source\PSoC5/cyPm.c **** *  Active state.
 512:.\Generated_Source\PSoC5/cyPm.c **** *
 513:.\Generated_Source\PSoC5/cyPm.c **** *  Note that if the wakeupTime is made with a different value, the period before
 514:.\Generated_Source\PSoC5/cyPm.c **** *  the wakeup occurs can be significantly shorter than the specified time.  If
 515:.\Generated_Source\PSoC5/cyPm.c **** *  the next call is made with the same wakeupTime value, then the wakeup will
 516:.\Generated_Source\PSoC5/cyPm.c **** *  occur the specified period after the previous wakeup occurred.
 517:.\Generated_Source\PSoC5/cyPm.c **** *
 518:.\Generated_Source\PSoC5/cyPm.c **** *  If a wakeupTime other than NONE is specified, then upon exit the state of the
 519:.\Generated_Source\PSoC5/cyPm.c **** *  specified timer will be left as specified by wakeupTime with the timer
 520:.\Generated_Source\PSoC5/cyPm.c **** *  enabled and the interrupt disabled.  If the CTW, FTW or One PPS is already
 521:.\Generated_Source\PSoC5/cyPm.c **** *  configured for wakeup, for example with the SleepTimer or RTC components,
 522:.\Generated_Source\PSoC5/cyPm.c **** *  then specify NONE for the wakeupTime and include the appropriate source for
 523:.\Generated_Source\PSoC5/cyPm.c **** *  wakeupSource.
 524:.\Generated_Source\PSoC5/cyPm.c **** *
 525:.\Generated_Source\PSoC5/cyPm.c **** *  PSoC 5LP:
 526:.\Generated_Source\PSoC5/cyPm.c **** *  This function is used to both enter the Alternate Active mode and halt the
 527:.\Generated_Source\PSoC5/cyPm.c **** *  processor.  For PSoC 3 these two actions must be paired together.  With PSoC
 528:.\Generated_Source\PSoC5/cyPm.c **** *  5LP the processor can be halted independently with the __WFI() function from
 529:.\Generated_Source\PSoC5/cyPm.c **** *  the CMSIS library that is included in Creator.  This function should be used
 530:.\Generated_Source\PSoC5/cyPm.c **** *  instead when the action required is just to halt the processor until an
 531:.\Generated_Source\PSoC5/cyPm.c **** *  enabled interrupt occurs.
 532:.\Generated_Source\PSoC5/cyPm.c **** *
 533:.\Generated_Source\PSoC5/cyPm.c **** *  The wakeupTime parameter is not used for this device. It must be set to zero
 534:.\Generated_Source\PSoC5/cyPm.c **** *  (PM_ALT_ACT_TIME_NONE). The wake up time configuration can be done by a
 535:.\Generated_Source\PSoC5/cyPm.c **** *  separate component: the CTW wakeup interval should be configured with the
 536:.\Generated_Source\PSoC5/cyPm.c **** *  Sleep Timer component and one second interval should be configured with the
 537:.\Generated_Source\PSoC5/cyPm.c **** *  RTC component.
 538:.\Generated_Source\PSoC5/cyPm.c **** *
 539:.\Generated_Source\PSoC5/cyPm.c **** *  The wakeup behavior depends on the wakeupSource parameter in the following
 540:.\Generated_Source\PSoC5/cyPm.c **** *  manner: upon function execution the device will be switched from Active to
 541:.\Generated_Source\PSoC5/cyPm.c **** *  Alternate Active mode and then the CPU will be halted. When an enabled wakeup
 542:.\Generated_Source\PSoC5/cyPm.c **** *  event occurs the device will return to Active mode.  Similarly when an
 543:.\Generated_Source\PSoC5/cyPm.c **** *  enabled interrupt occurs the CPU will be started. These two actions will
 544:.\Generated_Source\PSoC5/cyPm.c **** *  occur together provided that the event that occurs is an enabled wakeup
 545:.\Generated_Source\PSoC5/cyPm.c **** *  source and also generates an interrupt. If just the wakeup event occurs then
ARM GAS  C:\Users\honet\AppData\Local\Temp\ccQxGmyH.s 			page 11


 546:.\Generated_Source\PSoC5/cyPm.c **** *  the device will be in Active mode, but the CPU will remain halted waiting for
 547:.\Generated_Source\PSoC5/cyPm.c **** *  an interrupt. If an interrupt occurs from something other than a wakeup
 548:.\Generated_Source\PSoC5/cyPm.c **** *  source, then the CPU will restart with the device in Alternate Active mode
 549:.\Generated_Source\PSoC5/cyPm.c **** *  until a wakeup event occurs.
 550:.\Generated_Source\PSoC5/cyPm.c **** *
 551:.\Generated_Source\PSoC5/cyPm.c **** *  For example, if CyPmAltAct(PM_ALT_ACT_TIME_NONE, PM_ALT_ACT_SRC_PICU) is
 552:.\Generated_Source\PSoC5/cyPm.c **** *  called and PICU interrupt occurs, the CPU will be started and device will be
 553:.\Generated_Source\PSoC5/cyPm.c **** *  switched into Active mode. And if CyPmAltAct(PM_ALT_ACT_TIME_NONE,
 554:.\Generated_Source\PSoC5/cyPm.c **** *  PM_ALT_ACT_SRC_NONE) is called and PICU interrupt occurs, the CPU will be
 555:.\Generated_Source\PSoC5/cyPm.c **** *  started while device remains in Alternate Active mode.
 556:.\Generated_Source\PSoC5/cyPm.c **** *
 557:.\Generated_Source\PSoC5/cyPm.c **** *  \param wakeupTime: Specifies a timer wakeup source and the frequency of that
 558:.\Generated_Source\PSoC5/cyPm.c **** *              source. For PSoC 5LP this parameter is ignored.
 559:.\Generated_Source\PSoC5/cyPm.c **** *
 560:.\Generated_Source\PSoC5/cyPm.c **** *           Define                      Time
 561:.\Generated_Source\PSoC5/cyPm.c **** *  PM_ALT_ACT_TIME_NONE             None
 562:.\Generated_Source\PSoC5/cyPm.c **** *  \param PM_ALT_ACT_TIME_ONE_PPS          One PPS: 1 second
 563:.\Generated_Source\PSoC5/cyPm.c **** *  \param PM_ALT_ACT_TIME_CTW_2MS          CTW: 2 ms
 564:.\Generated_Source\PSoC5/cyPm.c **** *  \param PM_ALT_ACT_TIME_CTW_4MS          CTW: 4 ms
 565:.\Generated_Source\PSoC5/cyPm.c **** *  \param PM_ALT_ACT_TIME_CTW_8MS          CTW: 8 ms
 566:.\Generated_Source\PSoC5/cyPm.c **** *  \param PM_ALT_ACT_TIME_CTW_16MS         CTW: 16 ms
 567:.\Generated_Source\PSoC5/cyPm.c **** *  \param PM_ALT_ACT_TIME_CTW_32MS         CTW: 32 ms
 568:.\Generated_Source\PSoC5/cyPm.c **** *  \param PM_ALT_ACT_TIME_CTW_64MS         CTW: 64 ms
 569:.\Generated_Source\PSoC5/cyPm.c **** *  \param PM_ALT_ACT_TIME_CTW_128MS        CTW: 128 ms
 570:.\Generated_Source\PSoC5/cyPm.c **** *  \param PM_ALT_ACT_TIME_CTW_256MS        CTW: 256 ms
 571:.\Generated_Source\PSoC5/cyPm.c **** *  \param PM_ALT_ACT_TIME_CTW_512MS        CTW: 512 ms
 572:.\Generated_Source\PSoC5/cyPm.c **** *  \param PM_ALT_ACT_TIME_CTW_1024MS       CTW: 1024 ms
 573:.\Generated_Source\PSoC5/cyPm.c **** *  \param PM_ALT_ACT_TIME_CTW_2048MS       CTW: 2048 ms
 574:.\Generated_Source\PSoC5/cyPm.c **** *  \param PM_ALT_ACT_TIME_CTW_4096MS       CTW: 4096 ms
 575:.\Generated_Source\PSoC5/cyPm.c **** *  PM_ALT_ACT_TIME_FTW(1-256)*       FTW: 10us to 2.56 ms
 576:.\Generated_Source\PSoC5/cyPm.c **** *
 577:.\Generated_Source\PSoC5/cyPm.c **** *  \param *Note:   PM_ALT_ACT_TIME_FTW() is a macro that takes an argument that
 578:.\Generated_Source\PSoC5/cyPm.c **** *           specifies how many increments of 10 us to delay.
 579:.\Generated_Source\PSoC5/cyPm.c ****             For PSoC 3 silicon the valid range of  values is 1 to 256.
 580:.\Generated_Source\PSoC5/cyPm.c **** *
 581:.\Generated_Source\PSoC5/cyPm.c **** *  \param wakeUpSource:    Specifies a bitwise mask of wakeup sources. In addition, if
 582:.\Generated_Source\PSoC5/cyPm.c **** *                   a wakeupTime has been specified, the associated timer will
 583:.\Generated_Source\PSoC5/cyPm.c **** *                   be included as a wakeup source.
 584:.\Generated_Source\PSoC5/cyPm.c **** *
 585:.\Generated_Source\PSoC5/cyPm.c **** *           Define                      Source
 586:.\Generated_Source\PSoC5/cyPm.c **** *  PM_ALT_ACT_SRC_NONE              None
 587:.\Generated_Source\PSoC5/cyPm.c **** *  PM_ALT_ACT_SRC_COMPARATOR0       Comparator 0
 588:.\Generated_Source\PSoC5/cyPm.c **** *  PM_ALT_ACT_SRC_COMPARATOR1       Comparator 1
 589:.\Generated_Source\PSoC5/cyPm.c **** *  PM_ALT_ACT_SRC_COMPARATOR2       Comparator 2
 590:.\Generated_Source\PSoC5/cyPm.c **** *  PM_ALT_ACT_SRC_COMPARATOR3       Comparator 3
 591:.\Generated_Source\PSoC5/cyPm.c **** *  PM_ALT_ACT_SRC_INTERRUPT         Interrupt
 592:.\Generated_Source\PSoC5/cyPm.c **** *  PM_ALT_ACT_SRC_PICU              PICU
 593:.\Generated_Source\PSoC5/cyPm.c **** *  PM_ALT_ACT_SRC_I2C               I2C
 594:.\Generated_Source\PSoC5/cyPm.c **** *  PM_ALT_ACT_SRC_BOOSTCONVERTER    Boost Converter
 595:.\Generated_Source\PSoC5/cyPm.c **** *  PM_ALT_ACT_SRC_FTW               Fast Timewheel*
 596:.\Generated_Source\PSoC5/cyPm.c **** *  PM_ALT_ACT_SRC_VD                High and Low Voltage Detection (HVI, LVI)*
 597:.\Generated_Source\PSoC5/cyPm.c **** *  PM_ALT_ACT_SRC_CTW               Central Timewheel**
 598:.\Generated_Source\PSoC5/cyPm.c **** *  PM_ALT_ACT_SRC_ONE_PPS           One PPS**
 599:.\Generated_Source\PSoC5/cyPm.c **** *  PM_ALT_ACT_SRC_LCD               LCD
 600:.\Generated_Source\PSoC5/cyPm.c **** *
 601:.\Generated_Source\PSoC5/cyPm.c **** *  \param *Note : FTW and HVI/LVI wakeup signals are in the same mask bit.
 602:.\Generated_Source\PSoC5/cyPm.c **** *  \param **Note: CTW and One PPS wakeup signals are in the same mask bit.
ARM GAS  C:\Users\honet\AppData\Local\Temp\ccQxGmyH.s 			page 12


 603:.\Generated_Source\PSoC5/cyPm.c **** *
 604:.\Generated_Source\PSoC5/cyPm.c **** *  When specifying a Comparator as the wakeupSource, an instance specific define
 605:.\Generated_Source\PSoC5/cyPm.c **** *  that will track with the specific comparator that the instance
 606:.\Generated_Source\PSoC5/cyPm.c **** *  is placed into should be used. As an example, for a Comparator instance named
 607:.\Generated_Source\PSoC5/cyPm.c **** *  \param MyComp the value to OR into the mask is: MyComp_ctComp__CMP_MASK.
 608:.\Generated_Source\PSoC5/cyPm.c **** *
 609:.\Generated_Source\PSoC5/cyPm.c **** *  When CTW, FTW or One PPS is used as a wakeup source, the CyPmReadStatus()
 610:.\Generated_Source\PSoC5/cyPm.c **** *  function must be called upon wakeup with a corresponding parameter. Please
 611:.\Generated_Source\PSoC5/cyPm.c **** *  refer to the CyPmReadStatus() API in the System Reference Guide for more
 612:.\Generated_Source\PSoC5/cyPm.c **** *  information.
 613:.\Generated_Source\PSoC5/cyPm.c **** *
 614:.\Generated_Source\PSoC5/cyPm.c **** * Reentrant:
 615:.\Generated_Source\PSoC5/cyPm.c **** *  No
 616:.\Generated_Source\PSoC5/cyPm.c **** *
 617:.\Generated_Source\PSoC5/cyPm.c **** * \sideeffect
 618:.\Generated_Source\PSoC5/cyPm.c **** *  If a wakeupTime other than NONE is specified, then upon exit the state of the
 619:.\Generated_Source\PSoC5/cyPm.c **** *  specified timer will be left as specified by wakeupTime with the timer
 620:.\Generated_Source\PSoC5/cyPm.c **** *  enabled and the interrupt disabled.  Also, the ILO 1 KHz (if CTW timer is
 621:.\Generated_Source\PSoC5/cyPm.c **** *  used as wakeup time) or ILO 100 KHz (if the FTW timer is used as wakeup time)
 622:.\Generated_Source\PSoC5/cyPm.c **** *  will be left started.
 623:.\Generated_Source\PSoC5/cyPm.c **** *
 624:.\Generated_Source\PSoC5/cyPm.c **** *******************************************************************************/
 625:.\Generated_Source\PSoC5/cyPm.c **** void CyPmAltAct(uint16 wakeupTime, uint16 wakeupSource) 
 626:.\Generated_Source\PSoC5/cyPm.c **** {
 627:.\Generated_Source\PSoC5/cyPm.c ****     #if(CY_PSOC5)
 628:.\Generated_Source\PSoC5/cyPm.c **** 
 629:.\Generated_Source\PSoC5/cyPm.c ****         /* Arguments expected to be 0 */
 630:.\Generated_Source\PSoC5/cyPm.c ****         CYASSERT(PM_ALT_ACT_TIME_NONE == wakeupTime);
 631:.\Generated_Source\PSoC5/cyPm.c **** 
 632:.\Generated_Source\PSoC5/cyPm.c ****         if(0u != wakeupTime)
 633:.\Generated_Source\PSoC5/cyPm.c ****         {
 634:.\Generated_Source\PSoC5/cyPm.c ****             /* To remove unreferenced local variable warning */
 635:.\Generated_Source\PSoC5/cyPm.c ****         }
 636:.\Generated_Source\PSoC5/cyPm.c **** 
 637:.\Generated_Source\PSoC5/cyPm.c ****     #endif /* (CY_PSOC5) */
 638:.\Generated_Source\PSoC5/cyPm.c **** 
 639:.\Generated_Source\PSoC5/cyPm.c **** 
 640:.\Generated_Source\PSoC5/cyPm.c ****     #if(CY_PSOC3)
 641:.\Generated_Source\PSoC5/cyPm.c **** 
 642:.\Generated_Source\PSoC5/cyPm.c ****         /* FTW - save current and set new configuration */
 643:.\Generated_Source\PSoC5/cyPm.c ****         if((wakeupTime >= PM_ALT_ACT_TIME_FTW(1u)) && (wakeupTime <= PM_ALT_ACT_TIME_FTW(256u)))
 644:.\Generated_Source\PSoC5/cyPm.c ****         {
 645:.\Generated_Source\PSoC5/cyPm.c ****             CyPmFtwSetInterval(PM_ALT_ACT_FTW_INTERVAL(wakeupTime));
 646:.\Generated_Source\PSoC5/cyPm.c **** 
 647:.\Generated_Source\PSoC5/cyPm.c ****             /* Include associated timer to wakeupSource */
 648:.\Generated_Source\PSoC5/cyPm.c ****             wakeupSource |= PM_ALT_ACT_SRC_FTW;
 649:.\Generated_Source\PSoC5/cyPm.c ****         }
 650:.\Generated_Source\PSoC5/cyPm.c **** 
 651:.\Generated_Source\PSoC5/cyPm.c ****         /* CTW - save current and set new configuration */
 652:.\Generated_Source\PSoC5/cyPm.c ****         if((wakeupTime >= PM_ALT_ACT_TIME_CTW_2MS) && (wakeupTime <= PM_ALT_ACT_TIME_CTW_4096MS))
 653:.\Generated_Source\PSoC5/cyPm.c ****         {
 654:.\Generated_Source\PSoC5/cyPm.c ****             /* Save current CTW configuration and set new one */
 655:.\Generated_Source\PSoC5/cyPm.c ****             CyPmCtwSetInterval((uint8)(wakeupTime - 1u));
 656:.\Generated_Source\PSoC5/cyPm.c **** 
 657:.\Generated_Source\PSoC5/cyPm.c ****             /* Include associated timer to wakeupSource */
 658:.\Generated_Source\PSoC5/cyPm.c ****             wakeupSource |= PM_ALT_ACT_SRC_CTW;
 659:.\Generated_Source\PSoC5/cyPm.c ****         }
ARM GAS  C:\Users\honet\AppData\Local\Temp\ccQxGmyH.s 			page 13


 660:.\Generated_Source\PSoC5/cyPm.c **** 
 661:.\Generated_Source\PSoC5/cyPm.c ****         /* 1PPS - save current and set new configuration */
 662:.\Generated_Source\PSoC5/cyPm.c ****         if(PM_ALT_ACT_TIME_ONE_PPS == wakeupTime)
 663:.\Generated_Source\PSoC5/cyPm.c ****         {
 664:.\Generated_Source\PSoC5/cyPm.c ****             /* Save current 1PPS configuration and set new one */
 665:.\Generated_Source\PSoC5/cyPm.c ****             CyPmOppsSet();
 666:.\Generated_Source\PSoC5/cyPm.c **** 
 667:.\Generated_Source\PSoC5/cyPm.c ****             /* Include associated timer to wakeupSource */
 668:.\Generated_Source\PSoC5/cyPm.c ****             wakeupSource |= PM_ALT_ACT_SRC_ONE_PPS;
 669:.\Generated_Source\PSoC5/cyPm.c ****         }
 670:.\Generated_Source\PSoC5/cyPm.c **** 
 671:.\Generated_Source\PSoC5/cyPm.c ****     #endif /* (CY_PSOC3) */
 672:.\Generated_Source\PSoC5/cyPm.c **** 
 673:.\Generated_Source\PSoC5/cyPm.c **** 
 674:.\Generated_Source\PSoC5/cyPm.c ****     /* Save and set new wake up configuration */
 675:.\Generated_Source\PSoC5/cyPm.c **** 
 676:.\Generated_Source\PSoC5/cyPm.c ****     /* Interrupt, PICU, I2C, Boost converter, CTW/1PPS */
 677:.\Generated_Source\PSoC5/cyPm.c ****     cyPmBackup.wakeupCfg0 = CY_PM_WAKEUP_CFG0_REG;
 678:.\Generated_Source\PSoC5/cyPm.c ****     CY_PM_WAKEUP_CFG0_REG = (uint8) (wakeupSource >> 4u);
 679:.\Generated_Source\PSoC5/cyPm.c **** 
 680:.\Generated_Source\PSoC5/cyPm.c ****     /* Comparators */
 681:.\Generated_Source\PSoC5/cyPm.c ****     cyPmBackup.wakeupCfg1 = CY_PM_WAKEUP_CFG1_REG;
 682:.\Generated_Source\PSoC5/cyPm.c ****     CY_PM_WAKEUP_CFG1_REG = (((uint8) wakeupSource) & CY_PM_WAKEUP_SRC_CMPS_MASK);
 683:.\Generated_Source\PSoC5/cyPm.c **** 
 684:.\Generated_Source\PSoC5/cyPm.c ****     /* LCD */
 685:.\Generated_Source\PSoC5/cyPm.c ****     cyPmBackup.wakeupCfg2 = CY_PM_WAKEUP_CFG2_REG;
 686:.\Generated_Source\PSoC5/cyPm.c ****     CY_PM_WAKEUP_CFG2_REG = ((uint8) ((wakeupSource >> 12u) & 0x01u));
 687:.\Generated_Source\PSoC5/cyPm.c **** 
 688:.\Generated_Source\PSoC5/cyPm.c **** 
 689:.\Generated_Source\PSoC5/cyPm.c ****     /* Switch to the Alternate Active mode */
 690:.\Generated_Source\PSoC5/cyPm.c ****     CY_PM_MODE_CSR_REG = ((CY_PM_MODE_CSR_REG & ((uint8)(~CY_PM_MODE_CSR_MASK))) | CY_PM_MODE_CSR_A
 691:.\Generated_Source\PSoC5/cyPm.c **** 
 692:.\Generated_Source\PSoC5/cyPm.c ****     /* Recommended readback. */
 693:.\Generated_Source\PSoC5/cyPm.c ****     (void) CY_PM_MODE_CSR_REG;
 694:.\Generated_Source\PSoC5/cyPm.c **** 
 695:.\Generated_Source\PSoC5/cyPm.c ****     /* Two recommended NOPs to get into the mode. */
 696:.\Generated_Source\PSoC5/cyPm.c ****     CY_NOP;
 697:.\Generated_Source\PSoC5/cyPm.c ****     CY_NOP;
 698:.\Generated_Source\PSoC5/cyPm.c **** 
 699:.\Generated_Source\PSoC5/cyPm.c ****     /* Execute WFI instruction (for ARM-based devices only) */
 700:.\Generated_Source\PSoC5/cyPm.c ****     CY_PM_WFI;
 701:.\Generated_Source\PSoC5/cyPm.c **** 
 702:.\Generated_Source\PSoC5/cyPm.c ****     /* Point of return from Alternate Active Mode */
 703:.\Generated_Source\PSoC5/cyPm.c **** 
 704:.\Generated_Source\PSoC5/cyPm.c ****     /* Restore wake up configuration */
 705:.\Generated_Source\PSoC5/cyPm.c ****     CY_PM_WAKEUP_CFG0_REG = cyPmBackup.wakeupCfg0;
 706:.\Generated_Source\PSoC5/cyPm.c ****     CY_PM_WAKEUP_CFG1_REG = cyPmBackup.wakeupCfg1;
 707:.\Generated_Source\PSoC5/cyPm.c ****     CY_PM_WAKEUP_CFG2_REG = cyPmBackup.wakeupCfg2;
 708:.\Generated_Source\PSoC5/cyPm.c **** }
 709:.\Generated_Source\PSoC5/cyPm.c **** 
 710:.\Generated_Source\PSoC5/cyPm.c **** 
 711:.\Generated_Source\PSoC5/cyPm.c **** /*******************************************************************************
 712:.\Generated_Source\PSoC5/cyPm.c **** * Function Name: CyPmSleep
 713:.\Generated_Source\PSoC5/cyPm.c **** ****************************************************************************//**
 714:.\Generated_Source\PSoC5/cyPm.c **** *
 715:.\Generated_Source\PSoC5/cyPm.c **** *  Puts the part into the Sleep state.
 716:.\Generated_Source\PSoC5/cyPm.c **** *
ARM GAS  C:\Users\honet\AppData\Local\Temp\ccQxGmyH.s 			page 14


 717:.\Generated_Source\PSoC5/cyPm.c **** *  Note Before calling this function, you must manually configure the power
 718:.\Generated_Source\PSoC5/cyPm.c **** *  mode of the source clocks for the timer that is used as the wakeup timer.
 719:.\Generated_Source\PSoC5/cyPm.c **** *
 720:.\Generated_Source\PSoC5/cyPm.c **** *  Note Before calling this function, you must prepare clock tree configuration
 721:.\Generated_Source\PSoC5/cyPm.c **** *  for the low power mode by calling CyPmSaveClocks(). And restore clock
 722:.\Generated_Source\PSoC5/cyPm.c **** *  configuration after CyPmSleep() execution by calling CyPmRestoreClocks(). See
 723:.\Generated_Source\PSoC5/cyPm.c **** *  Power Management section, Clock Configuration subsection of the System
 724:.\Generated_Source\PSoC5/cyPm.c **** *  Reference Guide for more information.
 725:.\Generated_Source\PSoC5/cyPm.c **** *
 726:.\Generated_Source\PSoC5/cyPm.c **** *  PSoC 3:
 727:.\Generated_Source\PSoC5/cyPm.c **** *  Before switching to Sleep, if a wakeupTime other than NONE is specified,
 728:.\Generated_Source\PSoC5/cyPm.c **** *  then the appropriate timer state is configured as specified with the
 729:.\Generated_Source\PSoC5/cyPm.c **** *  interrupt for that timer disabled.  The wakeup source will be a combination
 730:.\Generated_Source\PSoC5/cyPm.c **** *  of the values specified in the wakeupSource and any timer specified in the
 731:.\Generated_Source\PSoC5/cyPm.c **** *  wakeupTime argument.  Once the wakeup condition is satisfied, then all saved
 732:.\Generated_Source\PSoC5/cyPm.c **** *  state is restored and the function returns in the Active state.
 733:.\Generated_Source\PSoC5/cyPm.c **** *
 734:.\Generated_Source\PSoC5/cyPm.c **** *  Note that if the wakeupTime is made with a different value, the period before
 735:.\Generated_Source\PSoC5/cyPm.c **** *  the wakeup occurs can be significantly shorter than the specified time.  If
 736:.\Generated_Source\PSoC5/cyPm.c **** *  the next call is made with the same wakeupTime value, then the wakeup will
 737:.\Generated_Source\PSoC5/cyPm.c **** *  occur the specified period after the previous wakeup occurred.
 738:.\Generated_Source\PSoC5/cyPm.c **** *
 739:.\Generated_Source\PSoC5/cyPm.c **** *  If a wakeupTime other than NONE is specified, then upon exit the state of the
 740:.\Generated_Source\PSoC5/cyPm.c **** *  specified timer will be left as specified by wakeupTime with the timer
 741:.\Generated_Source\PSoC5/cyPm.c **** *  enabled and the interrupt disabled.  If the CTW or One PPS is already
 742:.\Generated_Source\PSoC5/cyPm.c **** *  configured for wakeup, for example with the SleepTimer or RTC components,
 743:.\Generated_Source\PSoC5/cyPm.c **** *  then specify NONE for the wakeupTime and include the appropriate source for
 744:.\Generated_Source\PSoC5/cyPm.c **** *  wakeupSource.
 745:.\Generated_Source\PSoC5/cyPm.c **** *
 746:.\Generated_Source\PSoC5/cyPm.c **** *  PSoC 5LP:
 747:.\Generated_Source\PSoC5/cyPm.c **** *  The wakeupTime parameter is not used and the only NONE can be specified.
 748:.\Generated_Source\PSoC5/cyPm.c **** *  The wakeup time must be configured with the component, SleepTimer for CTW
 749:.\Generated_Source\PSoC5/cyPm.c **** *  intervals and RTC for 1PPS interval. The component must be configured to
 750:.\Generated_Source\PSoC5/cyPm.c **** *  generate interrupt.
 751:.\Generated_Source\PSoC5/cyPm.c **** *
 752:.\Generated_Source\PSoC5/cyPm.c **** *  \param wakeupTime:      Specifies a timer wakeup source and the frequency of that
 753:.\Generated_Source\PSoC5/cyPm.c **** *                   source. For PSoC 5LP, this parameter is ignored.
 754:.\Generated_Source\PSoC5/cyPm.c **** *
 755:.\Generated_Source\PSoC5/cyPm.c **** *           Define                      Time
 756:.\Generated_Source\PSoC5/cyPm.c **** *  PM_SLEEP_TIME_NONE               None
 757:.\Generated_Source\PSoC5/cyPm.c **** *  \param PM_SLEEP_TIME_ONE_PPS            One PPS: 1 second
 758:.\Generated_Source\PSoC5/cyPm.c **** *  \param PM_SLEEP_TIME_CTW_2MS            CTW: 2 ms
 759:.\Generated_Source\PSoC5/cyPm.c **** *  \param PM_SLEEP_TIME_CTW_4MS            CTW: 4 ms
 760:.\Generated_Source\PSoC5/cyPm.c **** *  \param PM_SLEEP_TIME_CTW_8MS            CTW: 8 ms
 761:.\Generated_Source\PSoC5/cyPm.c **** *  \param PM_SLEEP_TIME_CTW_16MS           CTW: 16 ms
 762:.\Generated_Source\PSoC5/cyPm.c **** *  \param PM_SLEEP_TIME_CTW_32MS           CTW: 32 ms
 763:.\Generated_Source\PSoC5/cyPm.c **** *  \param PM_SLEEP_TIME_CTW_64MS           CTW: 64 ms
 764:.\Generated_Source\PSoC5/cyPm.c **** *  \param PM_SLEEP_TIME_CTW_128MS          CTW: 128 ms
 765:.\Generated_Source\PSoC5/cyPm.c **** *  \param PM_SLEEP_TIME_CTW_256MS          CTW: 256 ms
 766:.\Generated_Source\PSoC5/cyPm.c **** *  \param PM_SLEEP_TIME_CTW_512MS          CTW: 512 ms
 767:.\Generated_Source\PSoC5/cyPm.c **** *  \param PM_SLEEP_TIME_CTW_1024MS         CTW: 1024 ms
 768:.\Generated_Source\PSoC5/cyPm.c **** *  \param PM_SLEEP_TIME_CTW_2048MS         CTW: 2048 ms
 769:.\Generated_Source\PSoC5/cyPm.c **** *  \param PM_SLEEP_TIME_CTW_4096MS         CTW: 4096 ms
 770:.\Generated_Source\PSoC5/cyPm.c **** *
 771:.\Generated_Source\PSoC5/cyPm.c **** *  \param wakeUpSource:    Specifies a bitwise mask of wakeup sources. In addition, if
 772:.\Generated_Source\PSoC5/cyPm.c **** *                   a wakeupTime has been specified the associated timer will be
 773:.\Generated_Source\PSoC5/cyPm.c **** *                   included as a wakeup source.
ARM GAS  C:\Users\honet\AppData\Local\Temp\ccQxGmyH.s 			page 15


 774:.\Generated_Source\PSoC5/cyPm.c **** *
 775:.\Generated_Source\PSoC5/cyPm.c **** *           Define                      Source
 776:.\Generated_Source\PSoC5/cyPm.c **** *  PM_SLEEP_SRC_NONE                None
 777:.\Generated_Source\PSoC5/cyPm.c **** *  PM_SLEEP_SRC_COMPARATOR0         Comparator 0
 778:.\Generated_Source\PSoC5/cyPm.c **** *  PM_SLEEP_SRC_COMPARATOR1         Comparator 1
 779:.\Generated_Source\PSoC5/cyPm.c **** *  PM_SLEEP_SRC_COMPARATOR2         Comparator 2
 780:.\Generated_Source\PSoC5/cyPm.c **** *  PM_SLEEP_SRC_COMPARATOR3         Comparator 3
 781:.\Generated_Source\PSoC5/cyPm.c **** *  PM_SLEEP_SRC_PICU                PICU
 782:.\Generated_Source\PSoC5/cyPm.c **** *  PM_SLEEP_SRC_I2C                 I2C
 783:.\Generated_Source\PSoC5/cyPm.c **** *  PM_SLEEP_SRC_BOOSTCONVERTER      Boost Converter
 784:.\Generated_Source\PSoC5/cyPm.c **** *  PM_SLEEP_SRC_VD                  High and Low Voltage Detection (HVI, LVI)
 785:.\Generated_Source\PSoC5/cyPm.c **** *  PM_SLEEP_SRC_CTW                 Central Timewheel*
 786:.\Generated_Source\PSoC5/cyPm.c **** *  PM_SLEEP_SRC_ONE_PPS             One PPS*
 787:.\Generated_Source\PSoC5/cyPm.c **** *  PM_SLEEP_SRC_LCD                 LCD
 788:.\Generated_Source\PSoC5/cyPm.c **** *
 789:.\Generated_Source\PSoC5/cyPm.c **** *  \param *Note:   CTW and One PPS wakeup signals are in the same mask bit.
 790:.\Generated_Source\PSoC5/cyPm.c **** *
 791:.\Generated_Source\PSoC5/cyPm.c **** *  When specifying a Comparator as the wakeupSource an instance specific define
 792:.\Generated_Source\PSoC5/cyPm.c **** *  should be used that will track with the specific comparator that the instance
 793:.\Generated_Source\PSoC5/cyPm.c **** *  is placed into. As an example for a Comparator instance named MyComp the
 794:.\Generated_Source\PSoC5/cyPm.c **** *  \param value to OR into the mask is: MyComp_ctComp__CMP_MASK.
 795:.\Generated_Source\PSoC5/cyPm.c **** *
 796:.\Generated_Source\PSoC5/cyPm.c **** *  When CTW or One PPS is used as a wakeup source, the CyPmReadStatus()
 797:.\Generated_Source\PSoC5/cyPm.c **** *  function must be called upon wakeup with corresponding parameter. Please
 798:.\Generated_Source\PSoC5/cyPm.c **** *  refer to the CyPmReadStatus() API in the System Reference Guide for more
 799:.\Generated_Source\PSoC5/cyPm.c **** *  information.
 800:.\Generated_Source\PSoC5/cyPm.c **** *
 801:.\Generated_Source\PSoC5/cyPm.c **** * Reentrant:
 802:.\Generated_Source\PSoC5/cyPm.c **** *  No
 803:.\Generated_Source\PSoC5/cyPm.c **** *
 804:.\Generated_Source\PSoC5/cyPm.c **** * Side Effects and Restrictions:
 805:.\Generated_Source\PSoC5/cyPm.c **** *  If a wakeupTime other than NONE is specified, then upon exit the state of the
 806:.\Generated_Source\PSoC5/cyPm.c **** *  specified timer will be left as specified by wakeupTime with the timer
 807:.\Generated_Source\PSoC5/cyPm.c **** *  enabled and the interrupt disabled. Also, the ILO 1 KHz (if CTW timer is
 808:.\Generated_Source\PSoC5/cyPm.c **** *  used as wake up time) will be left started.
 809:.\Generated_Source\PSoC5/cyPm.c **** *
 810:.\Generated_Source\PSoC5/cyPm.c **** *  The 1 kHz ILO clock is expected to be enabled for PSoC 3 and PSoC 5LP to
 811:.\Generated_Source\PSoC5/cyPm.c **** *  measure Hibernate/Sleep regulator settling time after a reset. The holdoff
 812:.\Generated_Source\PSoC5/cyPm.c **** *  delay is measured using rising edges of the 1 kHz ILO.
 813:.\Generated_Source\PSoC5/cyPm.c **** *
 814:.\Generated_Source\PSoC5/cyPm.c **** *  For PSoC 3 silicon hardware buzz should be disabled before entering a sleep
 815:.\Generated_Source\PSoC5/cyPm.c **** *  power mode. It is disabled by PSoC Creator during startup.
 816:.\Generated_Source\PSoC5/cyPm.c **** *  If a Low Voltage Interrupt (LVI), High Voltage Interrupt (HVI) or Brown Out
 817:.\Generated_Source\PSoC5/cyPm.c **** *  detect (power supply supervising capabilities) are required in a design
 818:.\Generated_Source\PSoC5/cyPm.c **** *  during sleep, use the Central Time Wheel (CTW) to periodically wake the
 819:.\Generated_Source\PSoC5/cyPm.c **** *  device, perform software buzz, and refresh the supervisory services. If LVI,
 820:.\Generated_Source\PSoC5/cyPm.c **** *  HVI, or Brown Out is not required, then CTW is not required.
 821:.\Generated_Source\PSoC5/cyPm.c **** *  Refer to the device errata for more information.
 822:.\Generated_Source\PSoC5/cyPm.c **** *
 823:.\Generated_Source\PSoC5/cyPm.c **** *******************************************************************************/
 824:.\Generated_Source\PSoC5/cyPm.c **** void CyPmSleep(uint8 wakeupTime, uint16 wakeupSource) 
 825:.\Generated_Source\PSoC5/cyPm.c **** {
 826:.\Generated_Source\PSoC5/cyPm.c ****     uint8 interruptState;
 827:.\Generated_Source\PSoC5/cyPm.c **** 
 828:.\Generated_Source\PSoC5/cyPm.c ****     /* Save current global interrupt enable and disable it */
 829:.\Generated_Source\PSoC5/cyPm.c ****     interruptState = CyEnterCriticalSection();
 830:.\Generated_Source\PSoC5/cyPm.c **** 
ARM GAS  C:\Users\honet\AppData\Local\Temp\ccQxGmyH.s 			page 16


 831:.\Generated_Source\PSoC5/cyPm.c **** 
 832:.\Generated_Source\PSoC5/cyPm.c ****     /***********************************************************************
 833:.\Generated_Source\PSoC5/cyPm.c ****     * The Hibernate/Sleep regulator has a settling time after a reset.
 834:.\Generated_Source\PSoC5/cyPm.c ****     * During this time, the system ignores requests to enter Sleep and
 835:.\Generated_Source\PSoC5/cyPm.c ****     * Hibernate modes. The holdoff delay is measured using rising edges of
 836:.\Generated_Source\PSoC5/cyPm.c ****     * the 1 kHz ILO.
 837:.\Generated_Source\PSoC5/cyPm.c ****     ***********************************************************************/
 838:.\Generated_Source\PSoC5/cyPm.c ****     if(0u == (CY_PM_MODE_CSR_REG & CY_PM_MODE_CSR_PWRUP_PULSE_Q))
 839:.\Generated_Source\PSoC5/cyPm.c ****     {
 840:.\Generated_Source\PSoC5/cyPm.c ****         /* Disable hold off - no action on restore */
 841:.\Generated_Source\PSoC5/cyPm.c ****         CY_PM_PWRSYS_SLP_TR_REG &= CY_PM_PWRSYS_SLP_TR_HIBSLP_HOLDOFF_MASK;
 842:.\Generated_Source\PSoC5/cyPm.c ****     }
 843:.\Generated_Source\PSoC5/cyPm.c ****     else
 844:.\Generated_Source\PSoC5/cyPm.c ****     {
 845:.\Generated_Source\PSoC5/cyPm.c ****         /* Abort, device is not ready for low power mode entry */
 846:.\Generated_Source\PSoC5/cyPm.c **** 
 847:.\Generated_Source\PSoC5/cyPm.c ****         /* Restore global interrupt enable state */
 848:.\Generated_Source\PSoC5/cyPm.c ****         CyExitCriticalSection(interruptState);
 849:.\Generated_Source\PSoC5/cyPm.c **** 
 850:.\Generated_Source\PSoC5/cyPm.c ****         return;
 851:.\Generated_Source\PSoC5/cyPm.c ****     }
 852:.\Generated_Source\PSoC5/cyPm.c **** 
 853:.\Generated_Source\PSoC5/cyPm.c **** 
 854:.\Generated_Source\PSoC5/cyPm.c ****     /***********************************************************************
 855:.\Generated_Source\PSoC5/cyPm.c ****     * PSoC3 < TO6:
 856:.\Generated_Source\PSoC5/cyPm.c ****     * - Hardware buzz must be disabled before the sleep mode entry.
 857:.\Generated_Source\PSoC5/cyPm.c ****     * - Voltage supervision (HVI/LVI) requires hardware buzz, so they must
 858:.\Generated_Source\PSoC5/cyPm.c ****     *   be also disabled.
 859:.\Generated_Source\PSoC5/cyPm.c ****     *
 860:.\Generated_Source\PSoC5/cyPm.c ****     * PSoC3 >= TO6:
 861:.\Generated_Source\PSoC5/cyPm.c ****     * - Voltage supervision (HVI/LVI) requires hardware buzz, so hardware
 862:.\Generated_Source\PSoC5/cyPm.c ****     *   buzz must be enabled before the sleep mode entry and restored on
 863:.\Generated_Source\PSoC5/cyPm.c ****     *   the wakeup.
 864:.\Generated_Source\PSoC5/cyPm.c ****     ***********************************************************************/
 865:.\Generated_Source\PSoC5/cyPm.c ****     #if(CY_PSOC3)
 866:.\Generated_Source\PSoC5/cyPm.c **** 
 867:.\Generated_Source\PSoC5/cyPm.c ****         /* Silicon Revision ID is below TO6 */
 868:.\Generated_Source\PSoC5/cyPm.c ****         if(CYDEV_CHIP_REV_ACTUAL < 5u)
 869:.\Generated_Source\PSoC5/cyPm.c ****         {
 870:.\Generated_Source\PSoC5/cyPm.c ****             /* Hardware buzz expected to be disabled in Sleep mode */
 871:.\Generated_Source\PSoC5/cyPm.c ****             CYASSERT(0u == (CY_PM_PWRSYS_WAKE_TR2_REG & CY_PM_PWRSYS_WAKE_TR2_EN_BUZZ));
 872:.\Generated_Source\PSoC5/cyPm.c ****         }
 873:.\Generated_Source\PSoC5/cyPm.c **** 
 874:.\Generated_Source\PSoC5/cyPm.c **** 
 875:.\Generated_Source\PSoC5/cyPm.c ****         if(0u != (CY_PM_RESET_CR1_REG & (CY_PM_RESET_CR1_HVIA_EN |
 876:.\Generated_Source\PSoC5/cyPm.c ****             CY_PM_RESET_CR1_LVIA_EN | CY_PM_RESET_CR1_LVID_EN)))
 877:.\Generated_Source\PSoC5/cyPm.c ****         {
 878:.\Generated_Source\PSoC5/cyPm.c ****             if(CYDEV_CHIP_REV_ACTUAL < 5u)
 879:.\Generated_Source\PSoC5/cyPm.c ****             {
 880:.\Generated_Source\PSoC5/cyPm.c ****                 /* LVI/HVI requires hardware buzz to be enabled */
 881:.\Generated_Source\PSoC5/cyPm.c ****                 CYASSERT(0u != 0u);
 882:.\Generated_Source\PSoC5/cyPm.c ****             }
 883:.\Generated_Source\PSoC5/cyPm.c ****             else
 884:.\Generated_Source\PSoC5/cyPm.c ****             {
 885:.\Generated_Source\PSoC5/cyPm.c ****                 if (0u == (CY_PM_PWRSYS_WAKE_TR2_REG & CY_PM_PWRSYS_WAKE_TR2_EN_BUZZ))
 886:.\Generated_Source\PSoC5/cyPm.c ****                 {
 887:.\Generated_Source\PSoC5/cyPm.c ****                     cyPmBackup.hardwareBuzz = CY_PM_DISABLED;
ARM GAS  C:\Users\honet\AppData\Local\Temp\ccQxGmyH.s 			page 17


 888:.\Generated_Source\PSoC5/cyPm.c ****                     CY_PM_PWRSYS_WAKE_TR2_REG |= CY_PM_PWRSYS_WAKE_TR2_EN_BUZZ;
 889:.\Generated_Source\PSoC5/cyPm.c ****                 }
 890:.\Generated_Source\PSoC5/cyPm.c ****                 else
 891:.\Generated_Source\PSoC5/cyPm.c ****                 {
 892:.\Generated_Source\PSoC5/cyPm.c ****                     cyPmBackup.hardwareBuzz = CY_PM_ENABLED;
 893:.\Generated_Source\PSoC5/cyPm.c ****                 }
 894:.\Generated_Source\PSoC5/cyPm.c ****             }
 895:.\Generated_Source\PSoC5/cyPm.c ****         }
 896:.\Generated_Source\PSoC5/cyPm.c **** 
 897:.\Generated_Source\PSoC5/cyPm.c ****     #endif /* (CY_PSOC3) */
 898:.\Generated_Source\PSoC5/cyPm.c **** 
 899:.\Generated_Source\PSoC5/cyPm.c **** 
 900:.\Generated_Source\PSoC5/cyPm.c ****     /*******************************************************************************
 901:.\Generated_Source\PSoC5/cyPm.c ****     * For ARM-based devices,interrupt is required for the CPU to wake up. The
 902:.\Generated_Source\PSoC5/cyPm.c ****     * Power Management implementation assumes that wakeup time is configured with a
 903:.\Generated_Source\PSoC5/cyPm.c ****     * separate component (component-based wakeup time configuration) for
 904:.\Generated_Source\PSoC5/cyPm.c ****     * interrupt to be issued on terminal count. For more information, refer to the
 905:.\Generated_Source\PSoC5/cyPm.c ****     * Wakeup Time Configuration section of System Reference Guide.
 906:.\Generated_Source\PSoC5/cyPm.c ****     *******************************************************************************/
 907:.\Generated_Source\PSoC5/cyPm.c ****     #if(CY_PSOC5)
 908:.\Generated_Source\PSoC5/cyPm.c **** 
 909:.\Generated_Source\PSoC5/cyPm.c ****         /* Arguments expected to be 0 */
 910:.\Generated_Source\PSoC5/cyPm.c ****         CYASSERT(PM_SLEEP_TIME_NONE == wakeupTime);
 911:.\Generated_Source\PSoC5/cyPm.c **** 
 912:.\Generated_Source\PSoC5/cyPm.c ****         if(0u != wakeupTime)
 913:.\Generated_Source\PSoC5/cyPm.c ****         {
 914:.\Generated_Source\PSoC5/cyPm.c ****             /* To remove unreferenced local variable warning */
 915:.\Generated_Source\PSoC5/cyPm.c ****         }
 916:.\Generated_Source\PSoC5/cyPm.c **** 
 917:.\Generated_Source\PSoC5/cyPm.c ****     #endif /* (CY_PSOC5) */
 918:.\Generated_Source\PSoC5/cyPm.c **** 
 919:.\Generated_Source\PSoC5/cyPm.c **** 
 920:.\Generated_Source\PSoC5/cyPm.c ****     CyPmHibSlpSaveSet();
 921:.\Generated_Source\PSoC5/cyPm.c **** 
 922:.\Generated_Source\PSoC5/cyPm.c **** 
 923:.\Generated_Source\PSoC5/cyPm.c ****     #if(CY_PSOC3)
 924:.\Generated_Source\PSoC5/cyPm.c **** 
 925:.\Generated_Source\PSoC5/cyPm.c ****         /* CTW - save current and set new configuration */
 926:.\Generated_Source\PSoC5/cyPm.c ****         if((wakeupTime >= PM_SLEEP_TIME_CTW_2MS) && (wakeupTime <= PM_SLEEP_TIME_CTW_4096MS))
 927:.\Generated_Source\PSoC5/cyPm.c ****         {
 928:.\Generated_Source\PSoC5/cyPm.c ****             /* Save current and set new configuration of CTW */
 929:.\Generated_Source\PSoC5/cyPm.c ****             CyPmCtwSetInterval((uint8)(wakeupTime - 1u));
 930:.\Generated_Source\PSoC5/cyPm.c **** 
 931:.\Generated_Source\PSoC5/cyPm.c ****             /* Include associated timer to wakeupSource */
 932:.\Generated_Source\PSoC5/cyPm.c ****             wakeupSource |= PM_SLEEP_SRC_CTW;
 933:.\Generated_Source\PSoC5/cyPm.c ****         }
 934:.\Generated_Source\PSoC5/cyPm.c **** 
 935:.\Generated_Source\PSoC5/cyPm.c ****         /* 1PPS - save current and set new configuration */
 936:.\Generated_Source\PSoC5/cyPm.c ****         if(PM_SLEEP_TIME_ONE_PPS == wakeupTime)
 937:.\Generated_Source\PSoC5/cyPm.c ****         {
 938:.\Generated_Source\PSoC5/cyPm.c ****             /* Save current and set new configuration of the 1PPS */
 939:.\Generated_Source\PSoC5/cyPm.c ****             CyPmOppsSet();
 940:.\Generated_Source\PSoC5/cyPm.c **** 
 941:.\Generated_Source\PSoC5/cyPm.c ****             /* Include associated timer to wakeupSource */
 942:.\Generated_Source\PSoC5/cyPm.c ****             wakeupSource |= PM_SLEEP_SRC_ONE_PPS;
 943:.\Generated_Source\PSoC5/cyPm.c ****         }
 944:.\Generated_Source\PSoC5/cyPm.c **** 
ARM GAS  C:\Users\honet\AppData\Local\Temp\ccQxGmyH.s 			page 18


 945:.\Generated_Source\PSoC5/cyPm.c ****     #endif /* (CY_PSOC3) */
 946:.\Generated_Source\PSoC5/cyPm.c **** 
 947:.\Generated_Source\PSoC5/cyPm.c **** 
 948:.\Generated_Source\PSoC5/cyPm.c ****     /* Save and set new wake up configuration */
 949:.\Generated_Source\PSoC5/cyPm.c **** 
 950:.\Generated_Source\PSoC5/cyPm.c ****     /* Interrupt, PICU, I2C, Boost converter, CTW/1PPS */
 951:.\Generated_Source\PSoC5/cyPm.c ****     cyPmBackup.wakeupCfg0 = CY_PM_WAKEUP_CFG0_REG;
 952:.\Generated_Source\PSoC5/cyPm.c ****     CY_PM_WAKEUP_CFG0_REG = (uint8) (wakeupSource >> 4u);
 953:.\Generated_Source\PSoC5/cyPm.c **** 
 954:.\Generated_Source\PSoC5/cyPm.c ****     /* Comparators */
 955:.\Generated_Source\PSoC5/cyPm.c ****     cyPmBackup.wakeupCfg1 = CY_PM_WAKEUP_CFG1_REG;
 956:.\Generated_Source\PSoC5/cyPm.c ****     CY_PM_WAKEUP_CFG1_REG = (((uint8) wakeupSource) & CY_PM_WAKEUP_SRC_CMPS_MASK);
 957:.\Generated_Source\PSoC5/cyPm.c **** 
 958:.\Generated_Source\PSoC5/cyPm.c ****     /* LCD */
 959:.\Generated_Source\PSoC5/cyPm.c ****     cyPmBackup.wakeupCfg2 = CY_PM_WAKEUP_CFG2_REG;
 960:.\Generated_Source\PSoC5/cyPm.c ****     CY_PM_WAKEUP_CFG2_REG = ((uint8) ((wakeupSource >> 12u) & 0x01u));
 961:.\Generated_Source\PSoC5/cyPm.c **** 
 962:.\Generated_Source\PSoC5/cyPm.c **** 
 963:.\Generated_Source\PSoC5/cyPm.c ****     /*******************************************************************
 964:.\Generated_Source\PSoC5/cyPm.c ****     * Do not use the merge region below unless any component datasheet
 965:.\Generated_Source\PSoC5/cyPm.c ****     * suggests doing so.
 966:.\Generated_Source\PSoC5/cyPm.c ****     *******************************************************************/
 967:.\Generated_Source\PSoC5/cyPm.c ****     /* `#START CY_PM_JUST_BEFORE_SLEEP` */
 968:.\Generated_Source\PSoC5/cyPm.c **** 
 969:.\Generated_Source\PSoC5/cyPm.c ****     /* `#END` */
 970:.\Generated_Source\PSoC5/cyPm.c **** 
 971:.\Generated_Source\PSoC5/cyPm.c ****     #ifdef CY_BOOT_CY_PM_SLEEP_BEFORE_SLEEP_CALLBACK
 972:.\Generated_Source\PSoC5/cyPm.c ****         CyBoot_CyPmSleep_BeforeSleep_Callback();
 973:.\Generated_Source\PSoC5/cyPm.c ****     #endif /* CY_BOOT_CY_PM_SLEEP_BEFORE_SLEEP_CALLBACK */
 974:.\Generated_Source\PSoC5/cyPm.c **** 
 975:.\Generated_Source\PSoC5/cyPm.c ****     /* Last moment IMO frequency change */
 976:.\Generated_Source\PSoC5/cyPm.c ****     if(0u == (CY_PM_FASTCLK_IMO_CR_REG & CY_PM_FASTCLK_IMO_CR_FREQ_MASK))
 977:.\Generated_Source\PSoC5/cyPm.c ****     {
 978:.\Generated_Source\PSoC5/cyPm.c ****         /* IMO frequency is 12 MHz */
 979:.\Generated_Source\PSoC5/cyPm.c ****         cyPmBackup.imoActFreq12Mhz = CY_PM_ENABLED;
 980:.\Generated_Source\PSoC5/cyPm.c ****     }
 981:.\Generated_Source\PSoC5/cyPm.c ****     else
 982:.\Generated_Source\PSoC5/cyPm.c ****     {
 983:.\Generated_Source\PSoC5/cyPm.c ****         /* IMO frequency is not 12 MHz */
 984:.\Generated_Source\PSoC5/cyPm.c ****         cyPmBackup.imoActFreq12Mhz = CY_PM_DISABLED;
 985:.\Generated_Source\PSoC5/cyPm.c **** 
 986:.\Generated_Source\PSoC5/cyPm.c ****         /* Save IMO frequency */
 987:.\Generated_Source\PSoC5/cyPm.c ****         cyPmBackup.imoActFreq = CY_PM_FASTCLK_IMO_CR_REG & CY_PM_FASTCLK_IMO_CR_FREQ_MASK;
 988:.\Generated_Source\PSoC5/cyPm.c **** 
 989:.\Generated_Source\PSoC5/cyPm.c ****         /* Set IMO frequency to 12 MHz */
 990:.\Generated_Source\PSoC5/cyPm.c ****         CY_PM_FASTCLK_IMO_CR_REG &= ((uint8) (~CY_PM_FASTCLK_IMO_CR_FREQ_MASK));
 991:.\Generated_Source\PSoC5/cyPm.c ****     }
 992:.\Generated_Source\PSoC5/cyPm.c **** 
 993:.\Generated_Source\PSoC5/cyPm.c ****     /* Switch to Sleep mode */
 994:.\Generated_Source\PSoC5/cyPm.c ****     CY_PM_MODE_CSR_REG = ((CY_PM_MODE_CSR_REG & ((uint8)(~CY_PM_MODE_CSR_MASK))) | CY_PM_MODE_CSR_S
 995:.\Generated_Source\PSoC5/cyPm.c **** 
 996:.\Generated_Source\PSoC5/cyPm.c ****     /* Recommended readback. */
 997:.\Generated_Source\PSoC5/cyPm.c ****     (void) CY_PM_MODE_CSR_REG;
 998:.\Generated_Source\PSoC5/cyPm.c **** 
 999:.\Generated_Source\PSoC5/cyPm.c ****     /* Two recommended NOPs to get into mode. */
1000:.\Generated_Source\PSoC5/cyPm.c ****     CY_NOP;
1001:.\Generated_Source\PSoC5/cyPm.c ****     CY_NOP;
ARM GAS  C:\Users\honet\AppData\Local\Temp\ccQxGmyH.s 			page 19


1002:.\Generated_Source\PSoC5/cyPm.c **** 
1003:.\Generated_Source\PSoC5/cyPm.c ****     /* Execute WFI instruction (for ARM-based devices only) */
1004:.\Generated_Source\PSoC5/cyPm.c ****     CY_PM_WFI;
1005:.\Generated_Source\PSoC5/cyPm.c **** 
1006:.\Generated_Source\PSoC5/cyPm.c ****     /* Point of return from Sleep Mode */
1007:.\Generated_Source\PSoC5/cyPm.c **** 
1008:.\Generated_Source\PSoC5/cyPm.c ****     /* Restore last moment IMO frequency change */
1009:.\Generated_Source\PSoC5/cyPm.c ****     if(CY_PM_ENABLED != cyPmBackup.imoActFreq12Mhz)
1010:.\Generated_Source\PSoC5/cyPm.c ****     {
1011:.\Generated_Source\PSoC5/cyPm.c ****         CY_PM_FASTCLK_IMO_CR_REG  = (CY_PM_FASTCLK_IMO_CR_REG & ((uint8)(~CY_PM_FASTCLK_IMO_CR_FREQ
1012:.\Generated_Source\PSoC5/cyPm.c ****                                     cyPmBackup.imoActFreq;
1013:.\Generated_Source\PSoC5/cyPm.c ****     }
1014:.\Generated_Source\PSoC5/cyPm.c **** 
1015:.\Generated_Source\PSoC5/cyPm.c **** 
1016:.\Generated_Source\PSoC5/cyPm.c ****     /*******************************************************************
1017:.\Generated_Source\PSoC5/cyPm.c ****     * Do not use merge region below unless any component datasheet
1018:.\Generated_Source\PSoC5/cyPm.c ****     * suggest to do so.
1019:.\Generated_Source\PSoC5/cyPm.c ****     *******************************************************************/
1020:.\Generated_Source\PSoC5/cyPm.c ****     /* `#START CY_PM_JUST_AFTER_WAKEUP_FROM_SLEEP` */
1021:.\Generated_Source\PSoC5/cyPm.c **** 
1022:.\Generated_Source\PSoC5/cyPm.c ****     /* `#END` */
1023:.\Generated_Source\PSoC5/cyPm.c **** 
1024:.\Generated_Source\PSoC5/cyPm.c ****     #ifdef CY_BOOT_CY_PM_SLEEP_AFTER_SLEEP_CALLBACK
1025:.\Generated_Source\PSoC5/cyPm.c ****         CyBoot_CyPmSleep_AfterSleep_Callback();
1026:.\Generated_Source\PSoC5/cyPm.c ****     #endif /* CY_BOOT_CY_PM_SLEEP_AFTER_SLEEP_CALLBACK */
1027:.\Generated_Source\PSoC5/cyPm.c **** 
1028:.\Generated_Source\PSoC5/cyPm.c ****     /* Restore hardware configuration */
1029:.\Generated_Source\PSoC5/cyPm.c ****     CyPmHibSlpRestore();
1030:.\Generated_Source\PSoC5/cyPm.c **** 
1031:.\Generated_Source\PSoC5/cyPm.c **** 
1032:.\Generated_Source\PSoC5/cyPm.c ****     /* Disable hardware buzz, if it was previously enabled */
1033:.\Generated_Source\PSoC5/cyPm.c ****     #if(CY_PSOC3)
1034:.\Generated_Source\PSoC5/cyPm.c **** 
1035:.\Generated_Source\PSoC5/cyPm.c ****         if(0u != (CY_PM_RESET_CR1_REG & (CY_PM_RESET_CR1_HVIA_EN |
1036:.\Generated_Source\PSoC5/cyPm.c ****             CY_PM_RESET_CR1_LVIA_EN | CY_PM_RESET_CR1_LVID_EN)))
1037:.\Generated_Source\PSoC5/cyPm.c ****         {
1038:.\Generated_Source\PSoC5/cyPm.c ****             if(CYDEV_CHIP_REV_ACTUAL >= 5u)
1039:.\Generated_Source\PSoC5/cyPm.c ****             {
1040:.\Generated_Source\PSoC5/cyPm.c ****                 if (CY_PM_DISABLED == cyPmBackup.hardwareBuzz)
1041:.\Generated_Source\PSoC5/cyPm.c ****                 {
1042:.\Generated_Source\PSoC5/cyPm.c ****                     CY_PM_PWRSYS_WAKE_TR2_REG &= (uint8)(~CY_PM_PWRSYS_WAKE_TR2_EN_BUZZ);
1043:.\Generated_Source\PSoC5/cyPm.c ****                 }
1044:.\Generated_Source\PSoC5/cyPm.c ****             }
1045:.\Generated_Source\PSoC5/cyPm.c ****         }
1046:.\Generated_Source\PSoC5/cyPm.c **** 
1047:.\Generated_Source\PSoC5/cyPm.c ****     #endif /* (CY_PSOC3) */
1048:.\Generated_Source\PSoC5/cyPm.c **** 
1049:.\Generated_Source\PSoC5/cyPm.c **** 
1050:.\Generated_Source\PSoC5/cyPm.c ****     /* Restore current wake up configuration */
1051:.\Generated_Source\PSoC5/cyPm.c ****     CY_PM_WAKEUP_CFG0_REG = cyPmBackup.wakeupCfg0;
1052:.\Generated_Source\PSoC5/cyPm.c ****     CY_PM_WAKEUP_CFG1_REG = cyPmBackup.wakeupCfg1;
1053:.\Generated_Source\PSoC5/cyPm.c ****     CY_PM_WAKEUP_CFG2_REG = cyPmBackup.wakeupCfg2;
1054:.\Generated_Source\PSoC5/cyPm.c **** 
1055:.\Generated_Source\PSoC5/cyPm.c ****     /* Restore global interrupt enable state */
1056:.\Generated_Source\PSoC5/cyPm.c ****     CyExitCriticalSection(interruptState);
1057:.\Generated_Source\PSoC5/cyPm.c **** }
1058:.\Generated_Source\PSoC5/cyPm.c **** 
ARM GAS  C:\Users\honet\AppData\Local\Temp\ccQxGmyH.s 			page 20


1059:.\Generated_Source\PSoC5/cyPm.c **** 
1060:.\Generated_Source\PSoC5/cyPm.c **** /*******************************************************************************
1061:.\Generated_Source\PSoC5/cyPm.c **** * Function Name: CyPmHibernate
1062:.\Generated_Source\PSoC5/cyPm.c **** ****************************************************************************//**
1063:.\Generated_Source\PSoC5/cyPm.c **** *
1064:.\Generated_Source\PSoC5/cyPm.c **** *  Puts the part into the Hibernate state.
1065:.\Generated_Source\PSoC5/cyPm.c **** *
1066:.\Generated_Source\PSoC5/cyPm.c **** *  Before switching to Hibernate, the current status of the PICU wakeup source
1067:.\Generated_Source\PSoC5/cyPm.c **** *  bit is saved and then set. This configures the device to wake up from the
1068:.\Generated_Source\PSoC5/cyPm.c **** *  PICU. Make sure you have at least one pin configured to generate PICU
1069:.\Generated_Source\PSoC5/cyPm.c **** *  interrupt. For pin Px.y, the register "PICU_INTTYPE_PICUx_INTTYPEy" controls
1070:.\Generated_Source\PSoC5/cyPm.c **** *  the PICU behavior. In the TRM, this register is "PICU[0..15]_INTTYPE[0..7]."
1071:.\Generated_Source\PSoC5/cyPm.c **** *  In the Pins component datasheet, this register is referred to as the IRQ
1072:.\Generated_Source\PSoC5/cyPm.c **** *  option. Once the wakeup occurs, the PICU wakeup source bit is restored and
1073:.\Generated_Source\PSoC5/cyPm.c **** *  the PSoC returns to the Active state.
1074:.\Generated_Source\PSoC5/cyPm.c **** *
1075:.\Generated_Source\PSoC5/cyPm.c **** * Reentrant:
1076:.\Generated_Source\PSoC5/cyPm.c **** *  No
1077:.\Generated_Source\PSoC5/cyPm.c **** *
1078:.\Generated_Source\PSoC5/cyPm.c **** * \sideeffect
1079:.\Generated_Source\PSoC5/cyPm.c **** *  Applications must wait 20 us before re-entering hibernate or sleep after
1080:.\Generated_Source\PSoC5/cyPm.c **** *  waking up from hibernate. The 20 us allows the sleep regulator time to
1081:.\Generated_Source\PSoC5/cyPm.c **** *  stabilize before the next hibernate / sleep event occurs. The 20 us
1082:.\Generated_Source\PSoC5/cyPm.c **** *  requirement begins when the device wakes up. There is no hardware check that
1083:.\Generated_Source\PSoC5/cyPm.c **** *  this requirement is met. The specified delay should be done on ISR entry.
1084:.\Generated_Source\PSoC5/cyPm.c **** *
1085:.\Generated_Source\PSoC5/cyPm.c **** *  After the wakeup PICU interrupt occurs, the Pin_ClearInterrupt() (where Pin
1086:.\Generated_Source\PSoC5/cyPm.c **** *  is instance name of the Pins component) function must be called to clear the
1087:.\Generated_Source\PSoC5/cyPm.c **** *  latched pin events to allow the proper Hibernate mode entry and to enable
1088:.\Generated_Source\PSoC5/cyPm.c **** *  detection of future events.
1089:.\Generated_Source\PSoC5/cyPm.c **** *
1090:.\Generated_Source\PSoC5/cyPm.c **** *  The 1 kHz ILO clock is expected to be enabled for PSoC 3 and PSoC 5LP to
1091:.\Generated_Source\PSoC5/cyPm.c **** *  measure Hibernate/Sleep regulator settling time after a reset. The holdoff
1092:.\Generated_Source\PSoC5/cyPm.c **** *  delay is measured using the rising edges of the 1 kHz ILO.
1093:.\Generated_Source\PSoC5/cyPm.c **** *
1094:.\Generated_Source\PSoC5/cyPm.c **** *******************************************************************************/
1095:.\Generated_Source\PSoC5/cyPm.c **** void CyPmHibernate(void) 
1096:.\Generated_Source\PSoC5/cyPm.c **** {
1097:.\Generated_Source\PSoC5/cyPm.c ****     CyPmHibernateEx(CY_PM_HIB_SRC_PICU);
1098:.\Generated_Source\PSoC5/cyPm.c **** }
1099:.\Generated_Source\PSoC5/cyPm.c **** 
1100:.\Generated_Source\PSoC5/cyPm.c **** 
1101:.\Generated_Source\PSoC5/cyPm.c **** /*******************************************************************************
1102:.\Generated_Source\PSoC5/cyPm.c **** * Function Name: CyPmHibernateEx
1103:.\Generated_Source\PSoC5/cyPm.c **** ****************************************************************************//**
1104:.\Generated_Source\PSoC5/cyPm.c **** *
1105:.\Generated_Source\PSoC5/cyPm.c **** *  Puts the part into the Hibernate state.
1106:.\Generated_Source\PSoC5/cyPm.c **** *
1107:.\Generated_Source\PSoC5/cyPm.c **** *  The following wake up sources can be configured: PICU interrupt, Comparator0,
1108:.\Generated_Source\PSoC5/cyPm.c **** *  Comparator1, Comparator2, and Comparator3 output.
1109:.\Generated_Source\PSoC5/cyPm.c **** *
1110:.\Generated_Source\PSoC5/cyPm.c **** *  Before switching to Hibernate, the current status of the PICU wakeup source
1111:.\Generated_Source\PSoC5/cyPm.c **** *  bit is saved and then set.
1112:.\Generated_Source\PSoC5/cyPm.c **** *
1113:.\Generated_Source\PSoC5/cyPm.c **** *  If using PICU as the wake up source, make sure you have at least one pin
1114:.\Generated_Source\PSoC5/cyPm.c **** *  configured to generate a PICU interrupt. For pin Px.y, the register
1115:.\Generated_Source\PSoC5/cyPm.c **** *  "PICU_INTTYPE_PICUx_INTTYPEy" controls  the PICU behavior. In the TRM, this
ARM GAS  C:\Users\honet\AppData\Local\Temp\ccQxGmyH.s 			page 21


1116:.\Generated_Source\PSoC5/cyPm.c **** *  register is "PICU[0..15]_INTTYPE[0..7]." In the Pins component datasheet,
1117:.\Generated_Source\PSoC5/cyPm.c **** *  this register is referred to as the IRQ option. Once the wakeup occurs, the
1118:.\Generated_Source\PSoC5/cyPm.c **** *  PICU wakeup source bit is restored and the PSoC returns to the Active state.
1119:.\Generated_Source\PSoC5/cyPm.c **** *
1120:.\Generated_Source\PSoC5/cyPm.c **** *  If using a comparator as the wake up source, make sure you call this function
1121:.\Generated_Source\PSoC5/cyPm.c **** *  with the 'wakeupSource' parameter set to the appropriate comparator. The part
1122:.\Generated_Source\PSoC5/cyPm.c **** *  is configured for the requested wakeup source by setting the corresponding
1123:.\Generated_Source\PSoC5/cyPm.c **** *  bits in PM_WAKEUP_CFG1 register.
1124:.\Generated_Source\PSoC5/cyPm.c **** *
1125:.\Generated_Source\PSoC5/cyPm.c **** *  Function call CyPmHibernateEx(CY_PM_HIB_SRC_PICU) will act in the same way as
1126:.\Generated_Source\PSoC5/cyPm.c **** *  CyPmHibernate().
1127:.\Generated_Source\PSoC5/cyPm.c **** *
1128:.\Generated_Source\PSoC5/cyPm.c **** *  \param wakeupSource:
1129:.\Generated_Source\PSoC5/cyPm.c **** *           Parameter Value             Description
1130:.\Generated_Source\PSoC5/cyPm.c **** *       CY_PM_HIB_SRC_PICU          PICU interrupt is set as the wake up source.
1131:.\Generated_Source\PSoC5/cyPm.c **** *       CY_PM_HIB_SRC_COMPARATOR0   Comparator 0 is set as the wake up source.
1132:.\Generated_Source\PSoC5/cyPm.c **** *       CY_PM_HIB_SRC_COMPARATOR1   Comparator 1 is set as the wake up source.
1133:.\Generated_Source\PSoC5/cyPm.c **** *       CY_PM_HIB_SRC_COMPARATOR2   Comparator 2 is set as the wake up source.
1134:.\Generated_Source\PSoC5/cyPm.c **** *       CY_PM_HIB_SRC_COMPARATOR3   Comparator 3 is set as the wake up source.
1135:.\Generated_Source\PSoC5/cyPm.c **** *
1136:.\Generated_Source\PSoC5/cyPm.c **** * Reentrant:
1137:.\Generated_Source\PSoC5/cyPm.c **** *  No
1138:.\Generated_Source\PSoC5/cyPm.c **** *
1139:.\Generated_Source\PSoC5/cyPm.c **** * \sideeffect
1140:.\Generated_Source\PSoC5/cyPm.c **** *  Applications must wait 20 us before re-entering hibernate or sleep after
1141:.\Generated_Source\PSoC5/cyPm.c **** *  waking up from hibernate. The 20 us allows the sleep regulator time to
1142:.\Generated_Source\PSoC5/cyPm.c **** *  stabilize before the next hibernate / sleep event occurs. The 20 us
1143:.\Generated_Source\PSoC5/cyPm.c **** *  requirement begins when the device wakes up. There is no hardware check that
1144:.\Generated_Source\PSoC5/cyPm.c **** *  this requirement is met. The specified delay should be done on ISR entry.
1145:.\Generated_Source\PSoC5/cyPm.c **** *
1146:.\Generated_Source\PSoC5/cyPm.c **** *  After the wakeup PICU interrupt occurs, the Pin_ClearInterrupt() (where Pin
1147:.\Generated_Source\PSoC5/cyPm.c **** *  is instance name of the Pins component) function must be called to clear the
1148:.\Generated_Source\PSoC5/cyPm.c **** *  latched pin events to allow the proper Hibernate mode entry and to enable
1149:.\Generated_Source\PSoC5/cyPm.c **** *  detection of future events.
1150:.\Generated_Source\PSoC5/cyPm.c **** *
1151:.\Generated_Source\PSoC5/cyPm.c **** *  The 1 kHz ILO clock is expected to be enabled for PSoC 3 and PSoC 5LP to
1152:.\Generated_Source\PSoC5/cyPm.c **** *  measure Hibernate/Sleep regulator settling time after a reset. The holdoff
1153:.\Generated_Source\PSoC5/cyPm.c **** *  delay is measured using the rising edges of the 1 kHz ILO.
1154:.\Generated_Source\PSoC5/cyPm.c **** *
1155:.\Generated_Source\PSoC5/cyPm.c **** *******************************************************************************/
1156:.\Generated_Source\PSoC5/cyPm.c **** void CyPmHibernateEx(uint16 wakeupSource) 
1157:.\Generated_Source\PSoC5/cyPm.c **** {
1158:.\Generated_Source\PSoC5/cyPm.c ****     uint8 interruptState;
1159:.\Generated_Source\PSoC5/cyPm.c **** 
1160:.\Generated_Source\PSoC5/cyPm.c ****     /* Save current global interrupt enable and disable it */
1161:.\Generated_Source\PSoC5/cyPm.c ****     interruptState = CyEnterCriticalSection();
1162:.\Generated_Source\PSoC5/cyPm.c **** 
1163:.\Generated_Source\PSoC5/cyPm.c ****         /***********************************************************************
1164:.\Generated_Source\PSoC5/cyPm.c ****         * The Hibernate/Sleep regulator has a settling time after a reset.
1165:.\Generated_Source\PSoC5/cyPm.c ****         * During this time, the system ignores requests to enter the Sleep and
1166:.\Generated_Source\PSoC5/cyPm.c ****         * Hibernate modes. The holdoff delay is measured using the rising edges of
1167:.\Generated_Source\PSoC5/cyPm.c ****         * the 1 kHz ILO.
1168:.\Generated_Source\PSoC5/cyPm.c ****         ***********************************************************************/
1169:.\Generated_Source\PSoC5/cyPm.c ****         if(0u == (CY_PM_MODE_CSR_REG & CY_PM_MODE_CSR_PWRUP_PULSE_Q))
1170:.\Generated_Source\PSoC5/cyPm.c ****         {
1171:.\Generated_Source\PSoC5/cyPm.c ****             /* Disable hold off - no action on restore */
1172:.\Generated_Source\PSoC5/cyPm.c ****             CY_PM_PWRSYS_SLP_TR_REG &= CY_PM_PWRSYS_SLP_TR_HIBSLP_HOLDOFF_MASK;
ARM GAS  C:\Users\honet\AppData\Local\Temp\ccQxGmyH.s 			page 22


1173:.\Generated_Source\PSoC5/cyPm.c ****         }
1174:.\Generated_Source\PSoC5/cyPm.c ****         else
1175:.\Generated_Source\PSoC5/cyPm.c ****         {
1176:.\Generated_Source\PSoC5/cyPm.c ****             /* Abort, device is not ready for low power mode entry */
1177:.\Generated_Source\PSoC5/cyPm.c **** 
1178:.\Generated_Source\PSoC5/cyPm.c ****             /* Restore global interrupt enable state */
1179:.\Generated_Source\PSoC5/cyPm.c ****             CyExitCriticalSection(interruptState);
1180:.\Generated_Source\PSoC5/cyPm.c **** 
1181:.\Generated_Source\PSoC5/cyPm.c ****             return;
1182:.\Generated_Source\PSoC5/cyPm.c ****         }
1183:.\Generated_Source\PSoC5/cyPm.c **** 
1184:.\Generated_Source\PSoC5/cyPm.c ****     CyPmHibSaveSet();
1185:.\Generated_Source\PSoC5/cyPm.c **** 
1186:.\Generated_Source\PSoC5/cyPm.c **** 
1187:.\Generated_Source\PSoC5/cyPm.c ****     /* Save and set new wake up configuration */
1188:.\Generated_Source\PSoC5/cyPm.c **** 
1189:.\Generated_Source\PSoC5/cyPm.c ****     /* Save and enable only wakeup on PICU */
1190:.\Generated_Source\PSoC5/cyPm.c ****     cyPmBackup.wakeupCfg0 = CY_PM_WAKEUP_CFG0_REG;
1191:.\Generated_Source\PSoC5/cyPm.c ****     CY_PM_WAKEUP_CFG0_REG = ((uint8) (wakeupSource >> 4u) & CY_PM_WAKEUP_PICU);
1192:.\Generated_Source\PSoC5/cyPm.c **** 
1193:.\Generated_Source\PSoC5/cyPm.c ****     /* Comparators */
1194:.\Generated_Source\PSoC5/cyPm.c ****     cyPmBackup.wakeupCfg1 = CY_PM_WAKEUP_CFG1_REG;
1195:.\Generated_Source\PSoC5/cyPm.c ****     CY_PM_WAKEUP_CFG1_REG = (((uint8) wakeupSource) & CY_PM_WAKEUP_SRC_CMPS_MASK);
1196:.\Generated_Source\PSoC5/cyPm.c **** 
1197:.\Generated_Source\PSoC5/cyPm.c ****     cyPmBackup.wakeupCfg2 = CY_PM_WAKEUP_CFG2_REG;
1198:.\Generated_Source\PSoC5/cyPm.c ****     CY_PM_WAKEUP_CFG2_REG = 0x00u;
1199:.\Generated_Source\PSoC5/cyPm.c **** 
1200:.\Generated_Source\PSoC5/cyPm.c **** 
1201:.\Generated_Source\PSoC5/cyPm.c ****     /* Last moment IMO frequency change */
1202:.\Generated_Source\PSoC5/cyPm.c ****     if(0u == (CY_PM_FASTCLK_IMO_CR_REG & CY_PM_FASTCLK_IMO_CR_FREQ_MASK))
1203:.\Generated_Source\PSoC5/cyPm.c ****     {
1204:.\Generated_Source\PSoC5/cyPm.c ****         /* IMO frequency is 12 MHz */
1205:.\Generated_Source\PSoC5/cyPm.c ****         cyPmBackup.imoActFreq12Mhz = CY_PM_ENABLED;
1206:.\Generated_Source\PSoC5/cyPm.c ****     }
1207:.\Generated_Source\PSoC5/cyPm.c ****     else
1208:.\Generated_Source\PSoC5/cyPm.c ****     {
1209:.\Generated_Source\PSoC5/cyPm.c ****         /* IMO frequency is not 12 MHz */
1210:.\Generated_Source\PSoC5/cyPm.c ****         cyPmBackup.imoActFreq12Mhz = CY_PM_DISABLED;
1211:.\Generated_Source\PSoC5/cyPm.c **** 
1212:.\Generated_Source\PSoC5/cyPm.c ****         /* Save IMO frequency */
1213:.\Generated_Source\PSoC5/cyPm.c ****         cyPmBackup.imoActFreq = CY_PM_FASTCLK_IMO_CR_REG & CY_PM_FASTCLK_IMO_CR_FREQ_MASK;
1214:.\Generated_Source\PSoC5/cyPm.c **** 
1215:.\Generated_Source\PSoC5/cyPm.c ****         /* Set IMO frequency to 12 MHz */
1216:.\Generated_Source\PSoC5/cyPm.c ****         CY_PM_FASTCLK_IMO_CR_REG &= ((uint8) (~CY_PM_FASTCLK_IMO_CR_FREQ_MASK));
1217:.\Generated_Source\PSoC5/cyPm.c ****     }
1218:.\Generated_Source\PSoC5/cyPm.c **** 
1219:.\Generated_Source\PSoC5/cyPm.c **** 
1220:.\Generated_Source\PSoC5/cyPm.c ****     /* Switch to Hibernate Mode */
1221:.\Generated_Source\PSoC5/cyPm.c ****     CY_PM_MODE_CSR_REG = (CY_PM_MODE_CSR_REG & ((uint8) (~CY_PM_MODE_CSR_MASK))) | CY_PM_MODE_CSR_H
1222:.\Generated_Source\PSoC5/cyPm.c **** 
1223:.\Generated_Source\PSoC5/cyPm.c ****     /* Recommended readback. */
1224:.\Generated_Source\PSoC5/cyPm.c ****     (void) CY_PM_MODE_CSR_REG;
1225:.\Generated_Source\PSoC5/cyPm.c **** 
1226:.\Generated_Source\PSoC5/cyPm.c ****     /* Two recommended NOPs to get into mode. */
1227:.\Generated_Source\PSoC5/cyPm.c ****     CY_NOP;
1228:.\Generated_Source\PSoC5/cyPm.c ****     CY_NOP;
1229:.\Generated_Source\PSoC5/cyPm.c **** 
ARM GAS  C:\Users\honet\AppData\Local\Temp\ccQxGmyH.s 			page 23


1230:.\Generated_Source\PSoC5/cyPm.c ****     /* Execute WFI instruction (for ARM-based devices only) */
1231:.\Generated_Source\PSoC5/cyPm.c ****     CY_PM_WFI;
1232:.\Generated_Source\PSoC5/cyPm.c **** 
1233:.\Generated_Source\PSoC5/cyPm.c **** 
1234:.\Generated_Source\PSoC5/cyPm.c ****     /* Point of return from Hibernate mode */
1235:.\Generated_Source\PSoC5/cyPm.c **** 
1236:.\Generated_Source\PSoC5/cyPm.c **** 
1237:.\Generated_Source\PSoC5/cyPm.c ****     /* Restore last moment IMO frequency change */
1238:.\Generated_Source\PSoC5/cyPm.c ****     if(CY_PM_ENABLED != cyPmBackup.imoActFreq12Mhz)
1239:.\Generated_Source\PSoC5/cyPm.c ****     {
1240:.\Generated_Source\PSoC5/cyPm.c ****         CY_PM_FASTCLK_IMO_CR_REG  = (CY_PM_FASTCLK_IMO_CR_REG & ((uint8)(~CY_PM_FASTCLK_IMO_CR_FREQ
1241:.\Generated_Source\PSoC5/cyPm.c ****                                     cyPmBackup.imoActFreq;
1242:.\Generated_Source\PSoC5/cyPm.c ****     }
1243:.\Generated_Source\PSoC5/cyPm.c **** 
1244:.\Generated_Source\PSoC5/cyPm.c **** 
1245:.\Generated_Source\PSoC5/cyPm.c ****     /* Restore device for proper Hibernate mode exit*/
1246:.\Generated_Source\PSoC5/cyPm.c ****     CyPmHibRestore();
1247:.\Generated_Source\PSoC5/cyPm.c **** 
1248:.\Generated_Source\PSoC5/cyPm.c ****     /* Restore current wake up configuration */
1249:.\Generated_Source\PSoC5/cyPm.c ****     CY_PM_WAKEUP_CFG0_REG = cyPmBackup.wakeupCfg0;
1250:.\Generated_Source\PSoC5/cyPm.c ****     CY_PM_WAKEUP_CFG1_REG = cyPmBackup.wakeupCfg1;
1251:.\Generated_Source\PSoC5/cyPm.c ****     CY_PM_WAKEUP_CFG2_REG = cyPmBackup.wakeupCfg2;
1252:.\Generated_Source\PSoC5/cyPm.c **** 
1253:.\Generated_Source\PSoC5/cyPm.c ****     /* Restore global interrupt enable state */
1254:.\Generated_Source\PSoC5/cyPm.c ****     CyExitCriticalSection(interruptState);
1255:.\Generated_Source\PSoC5/cyPm.c **** }
1256:.\Generated_Source\PSoC5/cyPm.c **** 
1257:.\Generated_Source\PSoC5/cyPm.c **** 
1258:.\Generated_Source\PSoC5/cyPm.c **** /*******************************************************************************
1259:.\Generated_Source\PSoC5/cyPm.c **** * Function Name: CyPmReadStatus
1260:.\Generated_Source\PSoC5/cyPm.c **** ****************************************************************************//**
1261:.\Generated_Source\PSoC5/cyPm.c **** *
1262:.\Generated_Source\PSoC5/cyPm.c **** *  Manages the Power Manager Interrupt Status Register.  This register has the
1263:.\Generated_Source\PSoC5/cyPm.c **** *  interrupt status for the one pulse per second, central timewheel and fast
1264:.\Generated_Source\PSoC5/cyPm.c **** *  timewheel timers.  This hardware register clears on read.  To allow for only
1265:.\Generated_Source\PSoC5/cyPm.c **** *  clearing the bits of interest and preserving the other bits, this function
1266:.\Generated_Source\PSoC5/cyPm.c **** *  uses a shadow register that retains the state.  This function reads the
1267:.\Generated_Source\PSoC5/cyPm.c **** *  status register and ORs that value with the shadow register.  That is the
1268:.\Generated_Source\PSoC5/cyPm.c **** *  value that is returned.  Then the bits in the mask that are set are cleared
1269:.\Generated_Source\PSoC5/cyPm.c **** *  from this value and written back to the shadow register.
1270:.\Generated_Source\PSoC5/cyPm.c **** *
1271:.\Generated_Source\PSoC5/cyPm.c **** *  Note You must call this function within 1 ms (1 clock cycle of the ILO)
1272:.\Generated_Source\PSoC5/cyPm.c **** *  after a CTW event has occurred.
1273:.\Generated_Source\PSoC5/cyPm.c **** *
1274:.\Generated_Source\PSoC5/cyPm.c **** *  \param mask: Bits in the shadow register to clear.
1275:.\Generated_Source\PSoC5/cyPm.c **** *
1276:.\Generated_Source\PSoC5/cyPm.c **** *       Define                      Source
1277:.\Generated_Source\PSoC5/cyPm.c **** *  CY_PM_FTW_INT                Fast Timewheel
1278:.\Generated_Source\PSoC5/cyPm.c **** *  CY_PM_CTW_INT                Central Timewheel
1279:.\Generated_Source\PSoC5/cyPm.c **** *  CY_PM_ONEPPS_INT             One Pulse Per Second
1280:.\Generated_Source\PSoC5/cyPm.c **** *
1281:.\Generated_Source\PSoC5/cyPm.c **** * \return
1282:.\Generated_Source\PSoC5/cyPm.c **** *  Status.  Same bits values as the mask parameter.
1283:.\Generated_Source\PSoC5/cyPm.c **** *
1284:.\Generated_Source\PSoC5/cyPm.c **** *******************************************************************************/
1285:.\Generated_Source\PSoC5/cyPm.c **** uint8 CyPmReadStatus(uint8 mask) 
1286:.\Generated_Source\PSoC5/cyPm.c **** {
ARM GAS  C:\Users\honet\AppData\Local\Temp\ccQxGmyH.s 			page 24


1287:.\Generated_Source\PSoC5/cyPm.c ****     static uint8 interruptStatus;
1288:.\Generated_Source\PSoC5/cyPm.c ****     uint8 interruptState;
1289:.\Generated_Source\PSoC5/cyPm.c ****     uint8 tmpStatus;
1290:.\Generated_Source\PSoC5/cyPm.c **** 
1291:.\Generated_Source\PSoC5/cyPm.c ****     /* Enter critical section */
1292:.\Generated_Source\PSoC5/cyPm.c ****     interruptState = CyEnterCriticalSection();
1293:.\Generated_Source\PSoC5/cyPm.c **** 
1294:.\Generated_Source\PSoC5/cyPm.c ****     /* Save value of register, copy it and clear desired bit */
1295:.\Generated_Source\PSoC5/cyPm.c ****     interruptStatus |= CY_PM_INT_SR_REG;
1296:.\Generated_Source\PSoC5/cyPm.c ****     tmpStatus = interruptStatus & (CY_PM_FTW_INT | CY_PM_CTW_INT | CY_PM_ONEPPS_INT);
1297:.\Generated_Source\PSoC5/cyPm.c ****     interruptStatus &= ((uint8)(~mask));
1298:.\Generated_Source\PSoC5/cyPm.c **** 
1299:.\Generated_Source\PSoC5/cyPm.c ****     /* Exit critical section */
1300:.\Generated_Source\PSoC5/cyPm.c ****     CyExitCriticalSection(interruptState);
1301:.\Generated_Source\PSoC5/cyPm.c **** 
1302:.\Generated_Source\PSoC5/cyPm.c ****     return(tmpStatus);
1303:.\Generated_Source\PSoC5/cyPm.c **** }
1304:.\Generated_Source\PSoC5/cyPm.c **** 
1305:.\Generated_Source\PSoC5/cyPm.c **** 
1306:.\Generated_Source\PSoC5/cyPm.c **** /*******************************************************************************
1307:.\Generated_Source\PSoC5/cyPm.c **** * Function Name: CyPmHibSaveSet
1308:.\Generated_Source\PSoC5/cyPm.c **** ****************************************************************************//**
1309:.\Generated_Source\PSoC5/cyPm.c **** *
1310:.\Generated_Source\PSoC5/cyPm.c **** *  Prepare device for proper Hibernate low power mode entry:
1311:.\Generated_Source\PSoC5/cyPm.c **** *  - Disables I2C backup regulator
1312:.\Generated_Source\PSoC5/cyPm.c **** *  - Saves ILO power down mode state and enable it
1313:.\Generated_Source\PSoC5/cyPm.c **** *  - Saves state of 1 kHz and 100 kHz ILO and disable them
1314:.\Generated_Source\PSoC5/cyPm.c **** *  - Disables sleep regulator and shorts vccd to vpwrsleep
1315:.\Generated_Source\PSoC5/cyPm.c **** *  - Save LVI/HVI configuration and disable them - CyPmHviLviSaveDisable()
1316:.\Generated_Source\PSoC5/cyPm.c **** *  - CyPmHibSlpSaveSet() function is called
1317:.\Generated_Source\PSoC5/cyPm.c **** *
1318:.\Generated_Source\PSoC5/cyPm.c **** * Reentrant:
1319:.\Generated_Source\PSoC5/cyPm.c **** *  No
1320:.\Generated_Source\PSoC5/cyPm.c **** *
1321:.\Generated_Source\PSoC5/cyPm.c **** *******************************************************************************/
1322:.\Generated_Source\PSoC5/cyPm.c **** static void CyPmHibSaveSet(void) 
1323:.\Generated_Source\PSoC5/cyPm.c **** {
1324:.\Generated_Source\PSoC5/cyPm.c ****     /* I2C backup reg must be off when the sleep regulator is unavailable */
1325:.\Generated_Source\PSoC5/cyPm.c ****     if(0u != (CY_PM_PWRSYS_CR1_REG & CY_PM_PWRSYS_CR1_I2CREG_BACKUP))
1326:.\Generated_Source\PSoC5/cyPm.c ****     {
1327:.\Generated_Source\PSoC5/cyPm.c ****         /***********************************************************************
1328:.\Generated_Source\PSoC5/cyPm.c ****         * If the I2C backup regulator is enabled, all the fixed-function registers
1329:.\Generated_Source\PSoC5/cyPm.c ****         * store their values while the device is in the low power mode, otherwise their
1330:.\Generated_Source\PSoC5/cyPm.c ****         * configuration is lost. The I2C API makes a decision to restore or not
1331:.\Generated_Source\PSoC5/cyPm.c ****         * to restore I2C registers based on this. If this regulator will be
1332:.\Generated_Source\PSoC5/cyPm.c ****         * disabled and then enabled, I2C API will suppose that the I2C block
1333:.\Generated_Source\PSoC5/cyPm.c ****         * registers preserved their values, while this is not true. So, the
1334:.\Generated_Source\PSoC5/cyPm.c ****         * backup regulator is disabled. The I2C sleep APIs is responsible for
1335:.\Generated_Source\PSoC5/cyPm.c ****         * restoration.
1336:.\Generated_Source\PSoC5/cyPm.c ****         ***********************************************************************/
1337:.\Generated_Source\PSoC5/cyPm.c **** 
1338:.\Generated_Source\PSoC5/cyPm.c ****         /* Disable I2C backup register */
1339:.\Generated_Source\PSoC5/cyPm.c ****         CY_PM_PWRSYS_CR1_REG &= ((uint8)(~CY_PM_PWRSYS_CR1_I2CREG_BACKUP));
1340:.\Generated_Source\PSoC5/cyPm.c ****     }
1341:.\Generated_Source\PSoC5/cyPm.c **** 
1342:.\Generated_Source\PSoC5/cyPm.c **** 
1343:.\Generated_Source\PSoC5/cyPm.c ****     /* Save current ILO power mode and ensure low power mode */
ARM GAS  C:\Users\honet\AppData\Local\Temp\ccQxGmyH.s 			page 25


1344:.\Generated_Source\PSoC5/cyPm.c ****     cyPmBackup.iloPowerMode = CyILO_SetPowerMode(CY_PM_POWERDOWN_MODE);
1345:.\Generated_Source\PSoC5/cyPm.c **** 
1346:.\Generated_Source\PSoC5/cyPm.c ****     /* Save current 1kHz ILO enable state. Disabled automatically. */
1347:.\Generated_Source\PSoC5/cyPm.c ****     cyPmBackup.ilo1kEnable = (0u == (CY_PM_SLOWCLK_ILO_CR0_REG & CY_PM_ILO_CR0_EN_1K)) ?
1348:.\Generated_Source\PSoC5/cyPm.c ****                                 CY_PM_DISABLED : CY_PM_ENABLED;
1349:.\Generated_Source\PSoC5/cyPm.c **** 
1350:.\Generated_Source\PSoC5/cyPm.c ****     /* Save current 100kHz ILO enable state. Disabled automatically. */
1351:.\Generated_Source\PSoC5/cyPm.c ****     cyPmBackup.ilo100kEnable = (0u == (CY_PM_SLOWCLK_ILO_CR0_REG & CY_PM_ILO_CR0_EN_100K)) ?
1352:.\Generated_Source\PSoC5/cyPm.c ****                                 CY_PM_DISABLED : CY_PM_ENABLED;
1353:.\Generated_Source\PSoC5/cyPm.c **** 
1354:.\Generated_Source\PSoC5/cyPm.c **** 
1355:.\Generated_Source\PSoC5/cyPm.c ****     /* Disable the sleep regulator and shorts vccd to vpwrsleep */
1356:.\Generated_Source\PSoC5/cyPm.c ****     if(0u == (CY_PM_PWRSYS_SLP_TR_REG & CY_PM_PWRSYS_SLP_TR_BYPASS))
1357:.\Generated_Source\PSoC5/cyPm.c ****     {
1358:.\Generated_Source\PSoC5/cyPm.c ****         /* Save current bypass state */
1359:.\Generated_Source\PSoC5/cyPm.c ****         cyPmBackup.slpTrBypass = CY_PM_DISABLED;
1360:.\Generated_Source\PSoC5/cyPm.c ****         CY_PM_PWRSYS_SLP_TR_REG |= CY_PM_PWRSYS_SLP_TR_BYPASS;
1361:.\Generated_Source\PSoC5/cyPm.c ****     }
1362:.\Generated_Source\PSoC5/cyPm.c ****     else
1363:.\Generated_Source\PSoC5/cyPm.c ****     {
1364:.\Generated_Source\PSoC5/cyPm.c ****         cyPmBackup.slpTrBypass = CY_PM_ENABLED;
1365:.\Generated_Source\PSoC5/cyPm.c ****     }
1366:.\Generated_Source\PSoC5/cyPm.c **** 
1367:.\Generated_Source\PSoC5/cyPm.c ****     /* LPCOMPs are always enabled (even when BOTH ext_vccd=1 and ext_vcca=1)*/
1368:.\Generated_Source\PSoC5/cyPm.c **** 
1369:.\Generated_Source\PSoC5/cyPm.c **** 
1370:.\Generated_Source\PSoC5/cyPm.c ****     /***************************************************************************
1371:.\Generated_Source\PSoC5/cyPm.c ****     * LVI/HVI must be disabled in Hibernate
1372:.\Generated_Source\PSoC5/cyPm.c ****     ***************************************************************************/
1373:.\Generated_Source\PSoC5/cyPm.c **** 
1374:.\Generated_Source\PSoC5/cyPm.c ****     /* Save LVI/HVI configuration and disable them */
1375:.\Generated_Source\PSoC5/cyPm.c ****     CyPmHviLviSaveDisable();
1376:.\Generated_Source\PSoC5/cyPm.c **** 
1377:.\Generated_Source\PSoC5/cyPm.c **** 
1378:.\Generated_Source\PSoC5/cyPm.c ****     /* Make the same preparations for Hibernate and Sleep modes */
1379:.\Generated_Source\PSoC5/cyPm.c ****     CyPmHibSlpSaveSet();
1380:.\Generated_Source\PSoC5/cyPm.c **** 
1381:.\Generated_Source\PSoC5/cyPm.c **** 
1382:.\Generated_Source\PSoC5/cyPm.c ****     /***************************************************************************
1383:.\Generated_Source\PSoC5/cyPm.c ****     * Save and set the power mode wakeup trim registers
1384:.\Generated_Source\PSoC5/cyPm.c ****     ***************************************************************************/
1385:.\Generated_Source\PSoC5/cyPm.c ****     cyPmBackup.wakeupTrim0 = CY_PM_PWRSYS_WAKE_TR0_REG;
1386:.\Generated_Source\PSoC5/cyPm.c ****     cyPmBackup.wakeupTrim1 = CY_PM_PWRSYS_WAKE_TR1_REG;
1387:.\Generated_Source\PSoC5/cyPm.c **** 
1388:.\Generated_Source\PSoC5/cyPm.c ****     CY_PM_PWRSYS_WAKE_TR0_REG = CY_PM_PWRSYS_WAKE_TR0;
1389:.\Generated_Source\PSoC5/cyPm.c ****     CY_PM_PWRSYS_WAKE_TR1_REG = CY_PM_PWRSYS_WAKE_TR1;
1390:.\Generated_Source\PSoC5/cyPm.c **** }
1391:.\Generated_Source\PSoC5/cyPm.c **** 
1392:.\Generated_Source\PSoC5/cyPm.c **** 
1393:.\Generated_Source\PSoC5/cyPm.c **** /*******************************************************************************
1394:.\Generated_Source\PSoC5/cyPm.c **** * Function Name: CyPmHibRestore
1395:.\Generated_Source\PSoC5/cyPm.c **** ****************************************************************************//**
1396:.\Generated_Source\PSoC5/cyPm.c **** *
1397:.\Generated_Source\PSoC5/cyPm.c **** *  Restores the device for the proper Hibernate mode exit:
1398:.\Generated_Source\PSoC5/cyPm.c **** *  - Restores LVI/HVI configuration - calsl CyPmHviLviRestore()
1399:.\Generated_Source\PSoC5/cyPm.c **** *  - CyPmHibSlpSaveRestore() function is called
1400:.\Generated_Source\PSoC5/cyPm.c **** *  - Restores ILO power down mode state and enables it
ARM GAS  C:\Users\honet\AppData\Local\Temp\ccQxGmyH.s 			page 26


1401:.\Generated_Source\PSoC5/cyPm.c **** *  - Restores the state of 1 kHz and 100 kHz ILO and disables them
1402:.\Generated_Source\PSoC5/cyPm.c **** *  - Restores the sleep regulator settings
1403:.\Generated_Source\PSoC5/cyPm.c **** *
1404:.\Generated_Source\PSoC5/cyPm.c **** *******************************************************************************/
1405:.\Generated_Source\PSoC5/cyPm.c **** static void CyPmHibRestore(void) 
1406:.\Generated_Source\PSoC5/cyPm.c **** {
1407:.\Generated_Source\PSoC5/cyPm.c ****     /* Restore LVI/HVI configuration */
1408:.\Generated_Source\PSoC5/cyPm.c ****     CyPmHviLviRestore();
1409:.\Generated_Source\PSoC5/cyPm.c **** 
1410:.\Generated_Source\PSoC5/cyPm.c ****     /* Restore the same configuration for Hibernate and Sleep modes */
1411:.\Generated_Source\PSoC5/cyPm.c ****     CyPmHibSlpRestore();
1412:.\Generated_Source\PSoC5/cyPm.c **** 
1413:.\Generated_Source\PSoC5/cyPm.c ****     /* Restore 1kHz ILO enable state */
1414:.\Generated_Source\PSoC5/cyPm.c ****     if(CY_PM_ENABLED == cyPmBackup.ilo1kEnable)
1415:.\Generated_Source\PSoC5/cyPm.c ****     {
1416:.\Generated_Source\PSoC5/cyPm.c ****         /* Enable 1kHz ILO */
1417:.\Generated_Source\PSoC5/cyPm.c ****         CyILO_Start1K();
1418:.\Generated_Source\PSoC5/cyPm.c ****     }
1419:.\Generated_Source\PSoC5/cyPm.c **** 
1420:.\Generated_Source\PSoC5/cyPm.c ****     /* Restore 100kHz ILO enable state */
1421:.\Generated_Source\PSoC5/cyPm.c ****     if(CY_PM_ENABLED == cyPmBackup.ilo100kEnable)
1422:.\Generated_Source\PSoC5/cyPm.c ****     {
1423:.\Generated_Source\PSoC5/cyPm.c ****         /* Enable 100kHz ILO */
1424:.\Generated_Source\PSoC5/cyPm.c ****         CyILO_Start100K();
1425:.\Generated_Source\PSoC5/cyPm.c ****     }
1426:.\Generated_Source\PSoC5/cyPm.c **** 
1427:.\Generated_Source\PSoC5/cyPm.c ****     /* Restore ILO power mode */
1428:.\Generated_Source\PSoC5/cyPm.c ****     (void) CyILO_SetPowerMode(cyPmBackup.iloPowerMode);
1429:.\Generated_Source\PSoC5/cyPm.c **** 
1430:.\Generated_Source\PSoC5/cyPm.c **** 
1431:.\Generated_Source\PSoC5/cyPm.c ****     if(CY_PM_DISABLED == cyPmBackup.slpTrBypass)
1432:.\Generated_Source\PSoC5/cyPm.c ****     {
1433:.\Generated_Source\PSoC5/cyPm.c ****         /* Enable the sleep regulator */
1434:.\Generated_Source\PSoC5/cyPm.c ****         CY_PM_PWRSYS_SLP_TR_REG &= ((uint8)(~CY_PM_PWRSYS_SLP_TR_BYPASS));
1435:.\Generated_Source\PSoC5/cyPm.c ****     }
1436:.\Generated_Source\PSoC5/cyPm.c **** 
1437:.\Generated_Source\PSoC5/cyPm.c **** 
1438:.\Generated_Source\PSoC5/cyPm.c ****     /***************************************************************************
1439:.\Generated_Source\PSoC5/cyPm.c ****     * Restore the power mode wakeup trim registers
1440:.\Generated_Source\PSoC5/cyPm.c ****     ***************************************************************************/
1441:.\Generated_Source\PSoC5/cyPm.c ****     CY_PM_PWRSYS_WAKE_TR0_REG = cyPmBackup.wakeupTrim0;
1442:.\Generated_Source\PSoC5/cyPm.c ****     CY_PM_PWRSYS_WAKE_TR1_REG = cyPmBackup.wakeupTrim1;
1443:.\Generated_Source\PSoC5/cyPm.c **** }
1444:.\Generated_Source\PSoC5/cyPm.c **** 
1445:.\Generated_Source\PSoC5/cyPm.c **** 
1446:.\Generated_Source\PSoC5/cyPm.c **** /*******************************************************************************
1447:.\Generated_Source\PSoC5/cyPm.c **** * Function Name: CyPmCtwSetInterval
1448:.\Generated_Source\PSoC5/cyPm.c **** ****************************************************************************//**
1449:.\Generated_Source\PSoC5/cyPm.c **** *
1450:.\Generated_Source\PSoC5/cyPm.c **** *  Performs the CTW configuration:
1451:.\Generated_Source\PSoC5/cyPm.c **** *  - Disables the CTW interrupt
1452:.\Generated_Source\PSoC5/cyPm.c **** *  - Enables 1 kHz ILO
1453:.\Generated_Source\PSoC5/cyPm.c **** *  - Sets a new CTW interval
1454:.\Generated_Source\PSoC5/cyPm.c **** *
1455:.\Generated_Source\PSoC5/cyPm.c **** *  \param ctwInterval: the CTW interval to be set.
1456:.\Generated_Source\PSoC5/cyPm.c **** *
1457:.\Generated_Source\PSoC5/cyPm.c **** * \sideeffect
ARM GAS  C:\Users\honet\AppData\Local\Temp\ccQxGmyH.s 			page 27


1458:.\Generated_Source\PSoC5/cyPm.c **** *  Enables ILO 1 KHz clock and leaves it enabled.
1459:.\Generated_Source\PSoC5/cyPm.c **** *
1460:.\Generated_Source\PSoC5/cyPm.c **** *******************************************************************************/
1461:.\Generated_Source\PSoC5/cyPm.c **** void CyPmCtwSetInterval(uint8 ctwInterval) 
1462:.\Generated_Source\PSoC5/cyPm.c **** {
1463:.\Generated_Source\PSoC5/cyPm.c ****     /* Disable CTW interrupt enable */
1464:.\Generated_Source\PSoC5/cyPm.c ****     CY_PM_TW_CFG2_REG &= ((uint8)(~CY_PM_CTW_IE));
1465:.\Generated_Source\PSoC5/cyPm.c **** 
1466:.\Generated_Source\PSoC5/cyPm.c ****     /* Enable 1kHz ILO (required for CTW operation) */
1467:.\Generated_Source\PSoC5/cyPm.c ****     CyILO_Start1K();
1468:.\Generated_Source\PSoC5/cyPm.c **** 
1469:.\Generated_Source\PSoC5/cyPm.c ****     /* Interval could be set only while CTW is disabled */
1470:.\Generated_Source\PSoC5/cyPm.c ****     if(0u != (CY_PM_TW_CFG2_REG & CY_PM_CTW_EN))
1471:.\Generated_Source\PSoC5/cyPm.c ****     {
1472:.\Generated_Source\PSoC5/cyPm.c ****         /* Set CTW interval if needed */
1473:.\Generated_Source\PSoC5/cyPm.c ****         if(CY_PM_TW_CFG1_REG != ctwInterval)
1474:.\Generated_Source\PSoC5/cyPm.c ****         {
1475:.\Generated_Source\PSoC5/cyPm.c ****             /* Disable the CTW, set new CTW interval and enable it again */
1476:.\Generated_Source\PSoC5/cyPm.c ****             CY_PM_TW_CFG2_REG &= ((uint8)(~CY_PM_CTW_EN));
1477:.\Generated_Source\PSoC5/cyPm.c ****             CY_PM_TW_CFG1_REG = ctwInterval;
1478:.\Generated_Source\PSoC5/cyPm.c ****             CY_PM_TW_CFG2_REG |= CY_PM_CTW_EN;
1479:.\Generated_Source\PSoC5/cyPm.c ****         }   /* Required interval is already set */
1480:.\Generated_Source\PSoC5/cyPm.c ****     }
1481:.\Generated_Source\PSoC5/cyPm.c ****     else
1482:.\Generated_Source\PSoC5/cyPm.c ****     {
1483:.\Generated_Source\PSoC5/cyPm.c ****         /* Set CTW interval if needed */
1484:.\Generated_Source\PSoC5/cyPm.c ****         if(CY_PM_TW_CFG1_REG != ctwInterval)
1485:.\Generated_Source\PSoC5/cyPm.c ****         {
1486:.\Generated_Source\PSoC5/cyPm.c ****             /* Set new CTW interval. Could be changed if CTW is disabled */
1487:.\Generated_Source\PSoC5/cyPm.c ****             CY_PM_TW_CFG1_REG = ctwInterval;
1488:.\Generated_Source\PSoC5/cyPm.c ****         }   /* Required interval is already set */
1489:.\Generated_Source\PSoC5/cyPm.c **** 
1490:.\Generated_Source\PSoC5/cyPm.c ****         /* Enable CTW */
1491:.\Generated_Source\PSoC5/cyPm.c ****         CY_PM_TW_CFG2_REG |= CY_PM_CTW_EN;
1492:.\Generated_Source\PSoC5/cyPm.c ****     }
1493:.\Generated_Source\PSoC5/cyPm.c **** }
1494:.\Generated_Source\PSoC5/cyPm.c **** 
1495:.\Generated_Source\PSoC5/cyPm.c **** 
1496:.\Generated_Source\PSoC5/cyPm.c **** /*******************************************************************************
1497:.\Generated_Source\PSoC5/cyPm.c **** * Function Name: CyPmOppsSet
1498:.\Generated_Source\PSoC5/cyPm.c **** ****************************************************************************//**
1499:.\Generated_Source\PSoC5/cyPm.c **** *
1500:.\Generated_Source\PSoC5/cyPm.c **** *  Performs 1PPS configuration:
1501:.\Generated_Source\PSoC5/cyPm.c **** *  - Starts 32 KHz XTAL
1502:.\Generated_Source\PSoC5/cyPm.c **** *  - Disables 1PPS interrupts
1503:.\Generated_Source\PSoC5/cyPm.c **** *  - Enables 1PPS
1504:.\Generated_Source\PSoC5/cyPm.c **** *
1505:.\Generated_Source\PSoC5/cyPm.c **** *******************************************************************************/
1506:.\Generated_Source\PSoC5/cyPm.c **** void CyPmOppsSet(void) 
1507:.\Generated_Source\PSoC5/cyPm.c **** {
1508:.\Generated_Source\PSoC5/cyPm.c ****     /* Enable 32kHz XTAL if needed */
1509:.\Generated_Source\PSoC5/cyPm.c ****     if(0u == (CY_PM_SLOWCLK_X32_CR_REG & CY_PM_X32_CR_X32EN))
1510:.\Generated_Source\PSoC5/cyPm.c ****     {
1511:.\Generated_Source\PSoC5/cyPm.c ****         /* Enable 32kHz XTAL */
1512:.\Generated_Source\PSoC5/cyPm.c ****         CyXTAL_32KHZ_Start();
1513:.\Generated_Source\PSoC5/cyPm.c ****     }
1514:.\Generated_Source\PSoC5/cyPm.c **** 
ARM GAS  C:\Users\honet\AppData\Local\Temp\ccQxGmyH.s 			page 28


1515:.\Generated_Source\PSoC5/cyPm.c ****     /* Disable 1PPS interrupt enable */
1516:.\Generated_Source\PSoC5/cyPm.c ****     CY_PM_TW_CFG2_REG &= ((uint8)(~CY_PM_1PPS_IE));
1517:.\Generated_Source\PSoC5/cyPm.c **** 
1518:.\Generated_Source\PSoC5/cyPm.c ****     /* Enable 1PPS operation */
1519:.\Generated_Source\PSoC5/cyPm.c ****     CY_PM_TW_CFG2_REG |= CY_PM_1PPS_EN;
1520:.\Generated_Source\PSoC5/cyPm.c **** }
1521:.\Generated_Source\PSoC5/cyPm.c **** 
1522:.\Generated_Source\PSoC5/cyPm.c **** 
1523:.\Generated_Source\PSoC5/cyPm.c **** /*******************************************************************************
1524:.\Generated_Source\PSoC5/cyPm.c **** * Function Name: CyPmFtwSetInterval
1525:.\Generated_Source\PSoC5/cyPm.c **** ****************************************************************************//**
1526:.\Generated_Source\PSoC5/cyPm.c **** *
1527:.\Generated_Source\PSoC5/cyPm.c **** *  Performs the FTW configuration:
1528:.\Generated_Source\PSoC5/cyPm.c **** *  - Disables the FTW interrupt
1529:.\Generated_Source\PSoC5/cyPm.c **** *  - Enables 100 kHz ILO
1530:.\Generated_Source\PSoC5/cyPm.c **** *  - Sets a new FTW interval.
1531:.\Generated_Source\PSoC5/cyPm.c **** *
1532:.\Generated_Source\PSoC5/cyPm.c **** *  \param ftwInterval The FTW counter interval.
1533:.\Generated_Source\PSoC5/cyPm.c **** *
1534:.\Generated_Source\PSoC5/cyPm.c **** * \sideeffect
1535:.\Generated_Source\PSoC5/cyPm.c **** *  Enables the ILO 100 KHz clock and leaves it enabled.
1536:.\Generated_Source\PSoC5/cyPm.c **** *
1537:.\Generated_Source\PSoC5/cyPm.c **** *******************************************************************************/
1538:.\Generated_Source\PSoC5/cyPm.c **** void CyPmFtwSetInterval(uint8 ftwInterval) 
1539:.\Generated_Source\PSoC5/cyPm.c **** {
1540:.\Generated_Source\PSoC5/cyPm.c ****     /* Disable FTW interrupt enable */
1541:.\Generated_Source\PSoC5/cyPm.c ****     CY_PM_TW_CFG2_REG &= ((uint8)(~CY_PM_FTW_IE));
1542:.\Generated_Source\PSoC5/cyPm.c **** 
1543:.\Generated_Source\PSoC5/cyPm.c ****     /* Enable 100kHz ILO */
1544:.\Generated_Source\PSoC5/cyPm.c ****     CyILO_Start100K();
1545:.\Generated_Source\PSoC5/cyPm.c **** 
1546:.\Generated_Source\PSoC5/cyPm.c ****     /* Interval could be set only while FTW is disabled */
1547:.\Generated_Source\PSoC5/cyPm.c ****     if(0u != (CY_PM_TW_CFG2_REG & CY_PM_FTW_EN))
1548:.\Generated_Source\PSoC5/cyPm.c ****     {
1549:.\Generated_Source\PSoC5/cyPm.c ****         /* Disable FTW, set new FTW interval if needed and enable it again */
1550:.\Generated_Source\PSoC5/cyPm.c ****         if(CY_PM_TW_CFG0_REG != ftwInterval)
1551:.\Generated_Source\PSoC5/cyPm.c ****         {
1552:.\Generated_Source\PSoC5/cyPm.c ****             /* Disable CTW, set new CTW interval and enable it again */
1553:.\Generated_Source\PSoC5/cyPm.c ****             CY_PM_TW_CFG2_REG &= ((uint8)(~CY_PM_FTW_EN));
1554:.\Generated_Source\PSoC5/cyPm.c ****             CY_PM_TW_CFG0_REG = ftwInterval;
1555:.\Generated_Source\PSoC5/cyPm.c ****             CY_PM_TW_CFG2_REG |= CY_PM_FTW_EN;
1556:.\Generated_Source\PSoC5/cyPm.c ****         }   /* Required interval is already set */
1557:.\Generated_Source\PSoC5/cyPm.c ****     }
1558:.\Generated_Source\PSoC5/cyPm.c ****     else
1559:.\Generated_Source\PSoC5/cyPm.c ****     {
1560:.\Generated_Source\PSoC5/cyPm.c ****         /* Set new FTW counter interval if needed. FTW is disabled. */
1561:.\Generated_Source\PSoC5/cyPm.c ****         if(CY_PM_TW_CFG0_REG != ftwInterval)
1562:.\Generated_Source\PSoC5/cyPm.c ****         {
1563:.\Generated_Source\PSoC5/cyPm.c ****             /* Set new CTW interval. Could be changed if CTW is disabled */
1564:.\Generated_Source\PSoC5/cyPm.c ****             CY_PM_TW_CFG0_REG = ftwInterval;
1565:.\Generated_Source\PSoC5/cyPm.c ****         }   /* Required interval is already set */
1566:.\Generated_Source\PSoC5/cyPm.c **** 
1567:.\Generated_Source\PSoC5/cyPm.c ****         /* Enable FTW */
1568:.\Generated_Source\PSoC5/cyPm.c ****         CY_PM_TW_CFG2_REG |= CY_PM_FTW_EN;
1569:.\Generated_Source\PSoC5/cyPm.c ****     }
1570:.\Generated_Source\PSoC5/cyPm.c **** }
1571:.\Generated_Source\PSoC5/cyPm.c **** 
ARM GAS  C:\Users\honet\AppData\Local\Temp\ccQxGmyH.s 			page 29


1572:.\Generated_Source\PSoC5/cyPm.c **** 
1573:.\Generated_Source\PSoC5/cyPm.c **** /*******************************************************************************
1574:.\Generated_Source\PSoC5/cyPm.c **** * Function Name: CyPmHibSlpSaveSet
1575:.\Generated_Source\PSoC5/cyPm.c **** ****************************************************************************//**
1576:.\Generated_Source\PSoC5/cyPm.c **** *
1577:.\Generated_Source\PSoC5/cyPm.c **** *  This API is used for preparing the device for the Sleep and Hibernate low
1578:.\Generated_Source\PSoC5/cyPm.c **** *  power modes entry:
1579:.\Generated_Source\PSoC5/cyPm.c **** *  - Saves the COMP, VIDAC, DSM, and SAR routing connections (PSoC 5)
1580:.\Generated_Source\PSoC5/cyPm.c **** *  - Saves the SC/CT routing connections (PSoC 3/5/5LP)
1581:.\Generated_Source\PSoC5/cyPm.c **** *  - Disables the Serial Wire Viewer (SWV) (PSoC 3)
1582:.\Generated_Source\PSoC5/cyPm.c **** *  - Saves the boost reference selection and sets it to internal
1583:.\Generated_Source\PSoC5/cyPm.c **** *
1584:.\Generated_Source\PSoC5/cyPm.c **** * Reentrant:
1585:.\Generated_Source\PSoC5/cyPm.c **** *  No
1586:.\Generated_Source\PSoC5/cyPm.c **** *
1587:.\Generated_Source\PSoC5/cyPm.c **** *******************************************************************************/
1588:.\Generated_Source\PSoC5/cyPm.c **** static void CyPmHibSlpSaveSet(void) 
1589:.\Generated_Source\PSoC5/cyPm.c **** {
  26              		.loc 1 1589 0
  27              		.cfi_startproc
  28              		@ args = 0, pretend = 0, frame = 0
  29              		@ frame_needed = 0, uses_anonymous_args = 0
  30 0000 2DE9F04F 		push	{r4, r5, r6, r7, r8, r9, r10, fp, lr}
  31              		.cfi_def_cfa_offset 36
  32              		.cfi_offset 4, -36
  33              		.cfi_offset 5, -32
  34              		.cfi_offset 6, -28
  35              		.cfi_offset 7, -24
  36              		.cfi_offset 8, -20
  37              		.cfi_offset 9, -16
  38              		.cfi_offset 10, -12
  39              		.cfi_offset 11, -8
  40              		.cfi_offset 14, -4
1590:.\Generated_Source\PSoC5/cyPm.c ****     /* Save SC/CT routing registers */
1591:.\Generated_Source\PSoC5/cyPm.c ****     cyPmBackup.scctData[0u]   = CY_GET_REG8(CYREG_SC0_SW0 );
  41              		.loc 1 1591 0
  42 0004 DFF8A8A1 		ldr	r10, .L7+76
1592:.\Generated_Source\PSoC5/cyPm.c ****     cyPmBackup.scctData[1u]   = CY_GET_REG8(CYREG_SC0_SW2 );
1593:.\Generated_Source\PSoC5/cyPm.c ****     cyPmBackup.scctData[2u]   = CY_GET_REG8(CYREG_SC0_SW3 );
1594:.\Generated_Source\PSoC5/cyPm.c ****     cyPmBackup.scctData[3u]   = CY_GET_REG8(CYREG_SC0_SW4 );
1595:.\Generated_Source\PSoC5/cyPm.c ****     cyPmBackup.scctData[4u]   = CY_GET_REG8(CYREG_SC0_SW6 );
  43              		.loc 1 1595 0
  44 0008 5648     		ldr	r0, .L7
1592:.\Generated_Source\PSoC5/cyPm.c ****     cyPmBackup.scctData[1u]   = CY_GET_REG8(CYREG_SC0_SW2 );
  45              		.loc 1 1592 0
  46 000a DFF8A891 		ldr	r9, .L7+80
1593:.\Generated_Source\PSoC5/cyPm.c ****     cyPmBackup.scctData[3u]   = CY_GET_REG8(CYREG_SC0_SW4 );
  47              		.loc 1 1593 0
  48 000e DFF8A881 		ldr	r8, .L7+84
1594:.\Generated_Source\PSoC5/cyPm.c ****     cyPmBackup.scctData[4u]   = CY_GET_REG8(CYREG_SC0_SW6 );
  49              		.loc 1 1594 0
  50 0012 DFF8A8C1 		ldr	ip, .L7+88
1591:.\Generated_Source\PSoC5/cyPm.c ****     cyPmBackup.scctData[1u]   = CY_GET_REG8(CYREG_SC0_SW2 );
  51              		.loc 1 1591 0
  52 0016 9AF80010 		ldrb	r1, [r10]	@ zero_extendqisi2
  53 001a 534B     		ldr	r3, .L7+4
1592:.\Generated_Source\PSoC5/cyPm.c ****     cyPmBackup.scctData[2u]   = CY_GET_REG8(CYREG_SC0_SW3 );
ARM GAS  C:\Users\honet\AppData\Local\Temp\ccQxGmyH.s 			page 30


  54              		.loc 1 1592 0
  55 001c 99F800B0 		ldrb	fp, [r9]	@ zero_extendqisi2
1596:.\Generated_Source\PSoC5/cyPm.c ****     cyPmBackup.scctData[5u]   = CY_GET_REG8(CYREG_SC0_SW8 );
1597:.\Generated_Source\PSoC5/cyPm.c ****     cyPmBackup.scctData[6u]   = CY_GET_REG8(CYREG_SC0_SW10);
  56              		.loc 1 1597 0
  57 0020 0430     		adds	r0, r0, #4
1593:.\Generated_Source\PSoC5/cyPm.c ****     cyPmBackup.scctData[3u]   = CY_GET_REG8(CYREG_SC0_SW4 );
  58              		.loc 1 1593 0
  59 0022 98F80020 		ldrb	r2, [r8]	@ zero_extendqisi2
1594:.\Generated_Source\PSoC5/cyPm.c ****     cyPmBackup.scctData[4u]   = CY_GET_REG8(CYREG_SC0_SW6 );
  60              		.loc 1 1594 0
  61 0026 9CF80060 		ldrb	r6, [ip]	@ zero_extendqisi2
1595:.\Generated_Source\PSoC5/cyPm.c ****     cyPmBackup.scctData[5u]   = CY_GET_REG8(CYREG_SC0_SW8 );
  62              		.loc 1 1595 0
  63 002a 10F8045C 		ldrb	r5, [r0, #-4]	@ zero_extendqisi2
1596:.\Generated_Source\PSoC5/cyPm.c ****     cyPmBackup.scctData[6u]   = CY_GET_REG8(CYREG_SC0_SW10);
  64              		.loc 1 1596 0
  65 002e 10F8024C 		ldrb	r4, [r0, #-2]	@ zero_extendqisi2
  66              		.loc 1 1597 0
  67 0032 0078     		ldrb	r0, [r0]	@ zero_extendqisi2
1591:.\Generated_Source\PSoC5/cyPm.c ****     cyPmBackup.scctData[1u]   = CY_GET_REG8(CYREG_SC0_SW2 );
  68              		.loc 1 1591 0
  69 0034 5972     		strb	r1, [r3, #9]
1598:.\Generated_Source\PSoC5/cyPm.c **** 
1599:.\Generated_Source\PSoC5/cyPm.c ****     cyPmBackup.scctData[7u]   = CY_GET_REG8(CYREG_SC1_SW0 );
  70              		.loc 1 1599 0
  71 0036 4D49     		ldr	r1, .L7+8
1600:.\Generated_Source\PSoC5/cyPm.c ****     cyPmBackup.scctData[8u]   = CY_GET_REG8(CYREG_SC1_SW2 );
  72              		.loc 1 1600 0
  73 0038 4D4F     		ldr	r7, .L7+12
1599:.\Generated_Source\PSoC5/cyPm.c ****     cyPmBackup.scctData[8u]   = CY_GET_REG8(CYREG_SC1_SW2 );
  74              		.loc 1 1599 0
  75 003a 0978     		ldrb	r1, [r1]	@ zero_extendqisi2
1592:.\Generated_Source\PSoC5/cyPm.c ****     cyPmBackup.scctData[2u]   = CY_GET_REG8(CYREG_SC0_SW3 );
  76              		.loc 1 1592 0
  77 003c 83F80AB0 		strb	fp, [r3, #10]
  78              		.loc 1 1600 0
  79 0040 97F800B0 		ldrb	fp, [r7]	@ zero_extendqisi2
1593:.\Generated_Source\PSoC5/cyPm.c ****     cyPmBackup.scctData[3u]   = CY_GET_REG8(CYREG_SC0_SW4 );
  80              		.loc 1 1593 0
  81 0044 DA72     		strb	r2, [r3, #11]
1601:.\Generated_Source\PSoC5/cyPm.c ****     cyPmBackup.scctData[9u]   = CY_GET_REG8(CYREG_SC1_SW3 );
  82              		.loc 1 1601 0
  83 0046 4B4A     		ldr	r2, .L7+16
1602:.\Generated_Source\PSoC5/cyPm.c ****     cyPmBackup.scctData[10u]  = CY_GET_REG8(CYREG_SC1_SW4 );
1603:.\Generated_Source\PSoC5/cyPm.c ****     cyPmBackup.scctData[11u]  = CY_GET_REG8(CYREG_SC1_SW6 );
1604:.\Generated_Source\PSoC5/cyPm.c ****     cyPmBackup.scctData[12u]  = CY_GET_REG8(CYREG_SC1_SW8 );
1605:.\Generated_Source\PSoC5/cyPm.c ****     cyPmBackup.scctData[13u]  = CY_GET_REG8(CYREG_SC1_SW10);
1606:.\Generated_Source\PSoC5/cyPm.c **** 
1607:.\Generated_Source\PSoC5/cyPm.c ****     cyPmBackup.scctData[14u]  = CY_GET_REG8(CYREG_SC2_SW0 );
1608:.\Generated_Source\PSoC5/cyPm.c ****     cyPmBackup.scctData[15u]  = CY_GET_REG8(CYREG_SC2_SW2 );
1609:.\Generated_Source\PSoC5/cyPm.c ****     cyPmBackup.scctData[16u]  = CY_GET_REG8(CYREG_SC2_SW3 );
1610:.\Generated_Source\PSoC5/cyPm.c ****     cyPmBackup.scctData[17u]  = CY_GET_REG8(CYREG_SC2_SW4 );
1611:.\Generated_Source\PSoC5/cyPm.c ****     cyPmBackup.scctData[18u]  = CY_GET_REG8(CYREG_SC2_SW6 );
1612:.\Generated_Source\PSoC5/cyPm.c ****     cyPmBackup.scctData[19u]  = CY_GET_REG8(CYREG_SC2_SW8 );
1613:.\Generated_Source\PSoC5/cyPm.c ****     cyPmBackup.scctData[20u]  = CY_GET_REG8(CYREG_SC2_SW10);
1614:.\Generated_Source\PSoC5/cyPm.c **** 
ARM GAS  C:\Users\honet\AppData\Local\Temp\ccQxGmyH.s 			page 31


1615:.\Generated_Source\PSoC5/cyPm.c ****     cyPmBackup.scctData[21u]  = CY_GET_REG8(CYREG_SC3_SW0 );
  84              		.loc 1 1615 0
  85 0048 DFF874E1 		ldr	lr, .L7+92
1601:.\Generated_Source\PSoC5/cyPm.c ****     cyPmBackup.scctData[9u]   = CY_GET_REG8(CYREG_SC1_SW3 );
  86              		.loc 1 1601 0
  87 004c 1278     		ldrb	r2, [r2]	@ zero_extendqisi2
1594:.\Generated_Source\PSoC5/cyPm.c ****     cyPmBackup.scctData[4u]   = CY_GET_REG8(CYREG_SC0_SW6 );
  88              		.loc 1 1594 0
  89 004e 1E73     		strb	r6, [r3, #12]
1602:.\Generated_Source\PSoC5/cyPm.c ****     cyPmBackup.scctData[10u]  = CY_GET_REG8(CYREG_SC1_SW4 );
  90              		.loc 1 1602 0
  91 0050 494E     		ldr	r6, .L7+20
1616:.\Generated_Source\PSoC5/cyPm.c ****     cyPmBackup.scctData[22u]  = CY_GET_REG8(CYREG_SC3_SW2 );
1617:.\Generated_Source\PSoC5/cyPm.c ****     cyPmBackup.scctData[23u]  = CY_GET_REG8(CYREG_SC3_SW3 );
1618:.\Generated_Source\PSoC5/cyPm.c ****     cyPmBackup.scctData[24u]  = CY_GET_REG8(CYREG_SC3_SW4 );
1619:.\Generated_Source\PSoC5/cyPm.c ****     cyPmBackup.scctData[25u]  = CY_GET_REG8(CYREG_SC3_SW6 );
1620:.\Generated_Source\PSoC5/cyPm.c ****     cyPmBackup.scctData[26u]  = CY_GET_REG8(CYREG_SC3_SW8 );
1621:.\Generated_Source\PSoC5/cyPm.c ****     cyPmBackup.scctData[27u]  = CY_GET_REG8(CYREG_SC3_SW10);
1622:.\Generated_Source\PSoC5/cyPm.c **** 
1623:.\Generated_Source\PSoC5/cyPm.c ****     CY_SET_REG8(CYREG_SC0_SW0 , 0u);
1624:.\Generated_Source\PSoC5/cyPm.c ****     CY_SET_REG8(CYREG_SC0_SW2 , 0u);
1625:.\Generated_Source\PSoC5/cyPm.c ****     CY_SET_REG8(CYREG_SC0_SW3 , 0u);
1626:.\Generated_Source\PSoC5/cyPm.c ****     CY_SET_REG8(CYREG_SC0_SW4 , 0u);
1627:.\Generated_Source\PSoC5/cyPm.c ****     CY_SET_REG8(CYREG_SC0_SW6 , 0u);
1628:.\Generated_Source\PSoC5/cyPm.c ****     CY_SET_REG8(CYREG_SC0_SW8 , 0u);
1629:.\Generated_Source\PSoC5/cyPm.c ****     CY_SET_REG8(CYREG_SC0_SW10, 0u);
  92              		.loc 1 1629 0
  93 0052 083F     		subs	r7, r7, #8
1602:.\Generated_Source\PSoC5/cyPm.c ****     cyPmBackup.scctData[11u]  = CY_GET_REG8(CYREG_SC1_SW6 );
  94              		.loc 1 1602 0
  95 0054 3678     		ldrb	r6, [r6]	@ zero_extendqisi2
1595:.\Generated_Source\PSoC5/cyPm.c ****     cyPmBackup.scctData[5u]   = CY_GET_REG8(CYREG_SC0_SW8 );
  96              		.loc 1 1595 0
  97 0056 5D73     		strb	r5, [r3, #13]
1603:.\Generated_Source\PSoC5/cyPm.c ****     cyPmBackup.scctData[12u]  = CY_GET_REG8(CYREG_SC1_SW8 );
  98              		.loc 1 1603 0
  99 0058 484D     		ldr	r5, .L7+24
 100 005a 2D78     		ldrb	r5, [r5]	@ zero_extendqisi2
1596:.\Generated_Source\PSoC5/cyPm.c ****     cyPmBackup.scctData[6u]   = CY_GET_REG8(CYREG_SC0_SW10);
 101              		.loc 1 1596 0
 102 005c 9C73     		strb	r4, [r3, #14]
1604:.\Generated_Source\PSoC5/cyPm.c ****     cyPmBackup.scctData[13u]  = CY_GET_REG8(CYREG_SC1_SW10);
 103              		.loc 1 1604 0
 104 005e 484C     		ldr	r4, .L7+28
 105 0060 2478     		ldrb	r4, [r4]	@ zero_extendqisi2
1597:.\Generated_Source\PSoC5/cyPm.c **** 
 106              		.loc 1 1597 0
 107 0062 D873     		strb	r0, [r3, #15]
1605:.\Generated_Source\PSoC5/cyPm.c **** 
 108              		.loc 1 1605 0
 109 0064 4748     		ldr	r0, .L7+32
 110 0066 0078     		ldrb	r0, [r0]	@ zero_extendqisi2
1599:.\Generated_Source\PSoC5/cyPm.c ****     cyPmBackup.scctData[8u]   = CY_GET_REG8(CYREG_SC1_SW2 );
 111              		.loc 1 1599 0
 112 0068 1974     		strb	r1, [r3, #16]
1607:.\Generated_Source\PSoC5/cyPm.c ****     cyPmBackup.scctData[15u]  = CY_GET_REG8(CYREG_SC2_SW2 );
 113              		.loc 1 1607 0
ARM GAS  C:\Users\honet\AppData\Local\Temp\ccQxGmyH.s 			page 32


 114 006a 4749     		ldr	r1, .L7+36
 115 006c 0978     		ldrb	r1, [r1]	@ zero_extendqisi2
1600:.\Generated_Source\PSoC5/cyPm.c ****     cyPmBackup.scctData[9u]   = CY_GET_REG8(CYREG_SC1_SW3 );
 116              		.loc 1 1600 0
 117 006e 83F811B0 		strb	fp, [r3, #17]
1608:.\Generated_Source\PSoC5/cyPm.c ****     cyPmBackup.scctData[16u]  = CY_GET_REG8(CYREG_SC2_SW3 );
 118              		.loc 1 1608 0
 119 0072 97F818B0 		ldrb	fp, [r7, #24]	@ zero_extendqisi2
1601:.\Generated_Source\PSoC5/cyPm.c ****     cyPmBackup.scctData[10u]  = CY_GET_REG8(CYREG_SC1_SW4 );
 120              		.loc 1 1601 0
 121 0076 9A74     		strb	r2, [r3, #18]
1609:.\Generated_Source\PSoC5/cyPm.c ****     cyPmBackup.scctData[17u]  = CY_GET_REG8(CYREG_SC2_SW4 );
 122              		.loc 1 1609 0
 123 0078 444A     		ldr	r2, .L7+40
 124 007a 1278     		ldrb	r2, [r2]	@ zero_extendqisi2
1602:.\Generated_Source\PSoC5/cyPm.c ****     cyPmBackup.scctData[11u]  = CY_GET_REG8(CYREG_SC1_SW6 );
 125              		.loc 1 1602 0
 126 007c DE74     		strb	r6, [r3, #19]
1603:.\Generated_Source\PSoC5/cyPm.c ****     cyPmBackup.scctData[12u]  = CY_GET_REG8(CYREG_SC1_SW8 );
 127              		.loc 1 1603 0
 128 007e 1D75     		strb	r5, [r3, #20]
1604:.\Generated_Source\PSoC5/cyPm.c ****     cyPmBackup.scctData[13u]  = CY_GET_REG8(CYREG_SC1_SW10);
 129              		.loc 1 1604 0
 130 0080 5C75     		strb	r4, [r3, #21]
1605:.\Generated_Source\PSoC5/cyPm.c **** 
 131              		.loc 1 1605 0
 132 0082 9875     		strb	r0, [r3, #22]
1607:.\Generated_Source\PSoC5/cyPm.c ****     cyPmBackup.scctData[15u]  = CY_GET_REG8(CYREG_SC2_SW2 );
 133              		.loc 1 1607 0
 134 0084 D975     		strb	r1, [r3, #23]
1608:.\Generated_Source\PSoC5/cyPm.c ****     cyPmBackup.scctData[16u]  = CY_GET_REG8(CYREG_SC2_SW3 );
 135              		.loc 1 1608 0
 136 0086 83F818B0 		strb	fp, [r3, #24]
1609:.\Generated_Source\PSoC5/cyPm.c ****     cyPmBackup.scctData[17u]  = CY_GET_REG8(CYREG_SC2_SW4 );
 137              		.loc 1 1609 0
 138 008a 5A76     		strb	r2, [r3, #25]
1610:.\Generated_Source\PSoC5/cyPm.c ****     cyPmBackup.scctData[18u]  = CY_GET_REG8(CYREG_SC2_SW6 );
 139              		.loc 1 1610 0
 140 008c 404A     		ldr	r2, .L7+44
1617:.\Generated_Source\PSoC5/cyPm.c ****     cyPmBackup.scctData[24u]  = CY_GET_REG8(CYREG_SC3_SW4 );
 141              		.loc 1 1617 0
 142 008e 414E     		ldr	r6, .L7+48
1610:.\Generated_Source\PSoC5/cyPm.c ****     cyPmBackup.scctData[18u]  = CY_GET_REG8(CYREG_SC2_SW6 );
 143              		.loc 1 1610 0
 144 0090 92F800B0 		ldrb	fp, [r2]	@ zero_extendqisi2
1611:.\Generated_Source\PSoC5/cyPm.c ****     cyPmBackup.scctData[19u]  = CY_GET_REG8(CYREG_SC2_SW8 );
 145              		.loc 1 1611 0
 146 0094 0232     		adds	r2, r2, #2
 147 0096 1278     		ldrb	r2, [r2]	@ zero_extendqisi2
1610:.\Generated_Source\PSoC5/cyPm.c ****     cyPmBackup.scctData[18u]  = CY_GET_REG8(CYREG_SC2_SW6 );
 148              		.loc 1 1610 0
 149 0098 83F81AB0 		strb	fp, [r3, #26]
1612:.\Generated_Source\PSoC5/cyPm.c ****     cyPmBackup.scctData[20u]  = CY_GET_REG8(CYREG_SC2_SW10);
 150              		.loc 1 1612 0
 151 009c 97F81EB0 		ldrb	fp, [r7, #30]	@ zero_extendqisi2
1611:.\Generated_Source\PSoC5/cyPm.c ****     cyPmBackup.scctData[19u]  = CY_GET_REG8(CYREG_SC2_SW8 );
 152              		.loc 1 1611 0
ARM GAS  C:\Users\honet\AppData\Local\Temp\ccQxGmyH.s 			page 33


 153 00a0 DA76     		strb	r2, [r3, #27]
1613:.\Generated_Source\PSoC5/cyPm.c **** 
 154              		.loc 1 1613 0
 155 00a2 3D4A     		ldr	r2, .L7+52
1618:.\Generated_Source\PSoC5/cyPm.c ****     cyPmBackup.scctData[25u]  = CY_GET_REG8(CYREG_SC3_SW6 );
 156              		.loc 1 1618 0
 157 00a4 3D4D     		ldr	r5, .L7+56
1613:.\Generated_Source\PSoC5/cyPm.c **** 
 158              		.loc 1 1613 0
 159 00a6 1278     		ldrb	r2, [r2]	@ zero_extendqisi2
1612:.\Generated_Source\PSoC5/cyPm.c ****     cyPmBackup.scctData[20u]  = CY_GET_REG8(CYREG_SC2_SW10);
 160              		.loc 1 1612 0
 161 00a8 83F81CB0 		strb	fp, [r3, #28]
1615:.\Generated_Source\PSoC5/cyPm.c ****     cyPmBackup.scctData[22u]  = CY_GET_REG8(CYREG_SC3_SW2 );
 162              		.loc 1 1615 0
 163 00ac 9EF800B0 		ldrb	fp, [lr]	@ zero_extendqisi2
1613:.\Generated_Source\PSoC5/cyPm.c **** 
 164              		.loc 1 1613 0
 165 00b0 5A77     		strb	r2, [r3, #29]
1616:.\Generated_Source\PSoC5/cyPm.c ****     cyPmBackup.scctData[23u]  = CY_GET_REG8(CYREG_SC3_SW3 );
 166              		.loc 1 1616 0
 167 00b2 3B4A     		ldr	r2, .L7+60
1619:.\Generated_Source\PSoC5/cyPm.c ****     cyPmBackup.scctData[26u]  = CY_GET_REG8(CYREG_SC3_SW8 );
 168              		.loc 1 1619 0
 169 00b4 3B4C     		ldr	r4, .L7+64
1616:.\Generated_Source\PSoC5/cyPm.c ****     cyPmBackup.scctData[23u]  = CY_GET_REG8(CYREG_SC3_SW3 );
 170              		.loc 1 1616 0
 171 00b6 1278     		ldrb	r2, [r2]	@ zero_extendqisi2
1615:.\Generated_Source\PSoC5/cyPm.c ****     cyPmBackup.scctData[22u]  = CY_GET_REG8(CYREG_SC3_SW2 );
 172              		.loc 1 1615 0
 173 00b8 83F81EB0 		strb	fp, [r3, #30]
1617:.\Generated_Source\PSoC5/cyPm.c ****     cyPmBackup.scctData[24u]  = CY_GET_REG8(CYREG_SC3_SW4 );
 174              		.loc 1 1617 0
 175 00bc 96F800B0 		ldrb	fp, [r6]	@ zero_extendqisi2
1616:.\Generated_Source\PSoC5/cyPm.c ****     cyPmBackup.scctData[23u]  = CY_GET_REG8(CYREG_SC3_SW3 );
 176              		.loc 1 1616 0
 177 00c0 DA77     		strb	r2, [r3, #31]
1618:.\Generated_Source\PSoC5/cyPm.c ****     cyPmBackup.scctData[25u]  = CY_GET_REG8(CYREG_SC3_SW6 );
 178              		.loc 1 1618 0
 179 00c2 2A78     		ldrb	r2, [r5]	@ zero_extendqisi2
1617:.\Generated_Source\PSoC5/cyPm.c ****     cyPmBackup.scctData[24u]  = CY_GET_REG8(CYREG_SC3_SW4 );
 180              		.loc 1 1617 0
 181 00c4 83F820B0 		strb	fp, [r3, #32]
1619:.\Generated_Source\PSoC5/cyPm.c ****     cyPmBackup.scctData[26u]  = CY_GET_REG8(CYREG_SC3_SW8 );
 182              		.loc 1 1619 0
 183 00c8 94F800B0 		ldrb	fp, [r4]	@ zero_extendqisi2
1620:.\Generated_Source\PSoC5/cyPm.c ****     cyPmBackup.scctData[27u]  = CY_GET_REG8(CYREG_SC3_SW10);
 184              		.loc 1 1620 0
 185 00cc 3648     		ldr	r0, .L7+68
1618:.\Generated_Source\PSoC5/cyPm.c ****     cyPmBackup.scctData[25u]  = CY_GET_REG8(CYREG_SC3_SW6 );
 186              		.loc 1 1618 0
 187 00ce 83F82120 		strb	r2, [r3, #33]
1621:.\Generated_Source\PSoC5/cyPm.c **** 
 188              		.loc 1 1621 0
 189 00d2 3649     		ldr	r1, .L7+72
1620:.\Generated_Source\PSoC5/cyPm.c ****     cyPmBackup.scctData[27u]  = CY_GET_REG8(CYREG_SC3_SW10);
 190              		.loc 1 1620 0
ARM GAS  C:\Users\honet\AppData\Local\Temp\ccQxGmyH.s 			page 34


 191 00d4 0278     		ldrb	r2, [r0]	@ zero_extendqisi2
1619:.\Generated_Source\PSoC5/cyPm.c ****     cyPmBackup.scctData[26u]  = CY_GET_REG8(CYREG_SC3_SW8 );
 192              		.loc 1 1619 0
 193 00d6 83F822B0 		strb	fp, [r3, #34]
1621:.\Generated_Source\PSoC5/cyPm.c **** 
 194              		.loc 1 1621 0
 195 00da 91F800B0 		ldrb	fp, [r1]	@ zero_extendqisi2
1620:.\Generated_Source\PSoC5/cyPm.c ****     cyPmBackup.scctData[27u]  = CY_GET_REG8(CYREG_SC3_SW10);
 196              		.loc 1 1620 0
 197 00de 83F82320 		strb	r2, [r3, #35]
1623:.\Generated_Source\PSoC5/cyPm.c ****     CY_SET_REG8(CYREG_SC0_SW2 , 0u);
 198              		.loc 1 1623 0
 199 00e2 0022     		movs	r2, #0
1621:.\Generated_Source\PSoC5/cyPm.c **** 
 200              		.loc 1 1621 0
 201 00e4 83F824B0 		strb	fp, [r3, #36]
1623:.\Generated_Source\PSoC5/cyPm.c ****     CY_SET_REG8(CYREG_SC0_SW2 , 0u);
 202              		.loc 1 1623 0
 203 00e8 8AF80020 		strb	r2, [r10]
1630:.\Generated_Source\PSoC5/cyPm.c **** 
1631:.\Generated_Source\PSoC5/cyPm.c ****     CY_SET_REG8(CYREG_SC1_SW0 , 0u);
1632:.\Generated_Source\PSoC5/cyPm.c ****     CY_SET_REG8(CYREG_SC1_SW2 , 0u);
1633:.\Generated_Source\PSoC5/cyPm.c ****     CY_SET_REG8(CYREG_SC1_SW3 , 0u);
1634:.\Generated_Source\PSoC5/cyPm.c ****     CY_SET_REG8(CYREG_SC1_SW4 , 0u);
1635:.\Generated_Source\PSoC5/cyPm.c ****     CY_SET_REG8(CYREG_SC1_SW6 , 0u);
1636:.\Generated_Source\PSoC5/cyPm.c ****     CY_SET_REG8(CYREG_SC1_SW8 , 0u);
1637:.\Generated_Source\PSoC5/cyPm.c ****     CY_SET_REG8(CYREG_SC1_SW10, 0u);
1638:.\Generated_Source\PSoC5/cyPm.c **** 
1639:.\Generated_Source\PSoC5/cyPm.c ****     CY_SET_REG8(CYREG_SC2_SW0 , 0u);
1640:.\Generated_Source\PSoC5/cyPm.c ****     CY_SET_REG8(CYREG_SC2_SW2 , 0u);
1641:.\Generated_Source\PSoC5/cyPm.c ****     CY_SET_REG8(CYREG_SC2_SW3 , 0u);
1642:.\Generated_Source\PSoC5/cyPm.c ****     CY_SET_REG8(CYREG_SC2_SW4 , 0u);
1643:.\Generated_Source\PSoC5/cyPm.c ****     CY_SET_REG8(CYREG_SC2_SW6 , 0u);
1644:.\Generated_Source\PSoC5/cyPm.c ****     CY_SET_REG8(CYREG_SC2_SW8 , 0u);
1645:.\Generated_Source\PSoC5/cyPm.c ****     CY_SET_REG8(CYREG_SC2_SW10, 0u);
1646:.\Generated_Source\PSoC5/cyPm.c **** 
1647:.\Generated_Source\PSoC5/cyPm.c ****     CY_SET_REG8(CYREG_SC3_SW0 , 0u);
1648:.\Generated_Source\PSoC5/cyPm.c ****     CY_SET_REG8(CYREG_SC3_SW2 , 0u);
1649:.\Generated_Source\PSoC5/cyPm.c ****     CY_SET_REG8(CYREG_SC3_SW3 , 0u);
1650:.\Generated_Source\PSoC5/cyPm.c ****     CY_SET_REG8(CYREG_SC3_SW4 , 0u);
1651:.\Generated_Source\PSoC5/cyPm.c ****     CY_SET_REG8(CYREG_SC3_SW6 , 0u);
1652:.\Generated_Source\PSoC5/cyPm.c ****     CY_SET_REG8(CYREG_SC3_SW8 , 0u);
1653:.\Generated_Source\PSoC5/cyPm.c ****     CY_SET_REG8(CYREG_SC3_SW10, 0u);
1654:.\Generated_Source\PSoC5/cyPm.c **** 
1655:.\Generated_Source\PSoC5/cyPm.c **** 
1656:.\Generated_Source\PSoC5/cyPm.c ****     #if(CY_PSOC3)
1657:.\Generated_Source\PSoC5/cyPm.c **** 
1658:.\Generated_Source\PSoC5/cyPm.c ****         /* Serial Wire Viewer (SWV) workaround */
1659:.\Generated_Source\PSoC5/cyPm.c **** 
1660:.\Generated_Source\PSoC5/cyPm.c ****         /* Disable SWV before entering low power mode */
1661:.\Generated_Source\PSoC5/cyPm.c ****         if(0u != (CY_PM_MLOGIC_DBG_REG & CY_PM_MLOGIC_DBG_SWV_CLK_EN))
1662:.\Generated_Source\PSoC5/cyPm.c ****         {
1663:.\Generated_Source\PSoC5/cyPm.c ****             /* Save SWV clock enabled state */
1664:.\Generated_Source\PSoC5/cyPm.c ****             cyPmBackup.swvClkEnabled = CY_PM_ENABLED;
1665:.\Generated_Source\PSoC5/cyPm.c **** 
1666:.\Generated_Source\PSoC5/cyPm.c ****             /* Save current ports drive mode settings */
1667:.\Generated_Source\PSoC5/cyPm.c ****             cyPmBackup.prt1Dm = CY_PM_PRT1_PC3_REG & ((uint8)(~CY_PM_PRT1_PC3_DM_MASK));
ARM GAS  C:\Users\honet\AppData\Local\Temp\ccQxGmyH.s 			page 35


1668:.\Generated_Source\PSoC5/cyPm.c **** 
1669:.\Generated_Source\PSoC5/cyPm.c ****             /* Set drive mode to strong output */
1670:.\Generated_Source\PSoC5/cyPm.c ****             CY_PM_PRT1_PC3_REG = (CY_PM_PRT1_PC3_REG & CY_PM_PRT1_PC3_DM_MASK) |
1671:.\Generated_Source\PSoC5/cyPm.c ****                                 CY_PM_PRT1_PC3_DM_STRONG;
1672:.\Generated_Source\PSoC5/cyPm.c **** 
1673:.\Generated_Source\PSoC5/cyPm.c ****             /* Disable SWV clocks */
1674:.\Generated_Source\PSoC5/cyPm.c ****             CY_PM_MLOGIC_DBG_REG &= ((uint8)(~CY_PM_MLOGIC_DBG_SWV_CLK_EN));
1675:.\Generated_Source\PSoC5/cyPm.c ****         }
1676:.\Generated_Source\PSoC5/cyPm.c ****         else
1677:.\Generated_Source\PSoC5/cyPm.c ****         {
1678:.\Generated_Source\PSoC5/cyPm.c ****             /* Save SWV clock disabled state */
1679:.\Generated_Source\PSoC5/cyPm.c ****             cyPmBackup.swvClkEnabled = CY_PM_DISABLED;
1680:.\Generated_Source\PSoC5/cyPm.c ****         }
1681:.\Generated_Source\PSoC5/cyPm.c **** 
1682:.\Generated_Source\PSoC5/cyPm.c ****     #endif  /* (CY_PSOC3) */
1683:.\Generated_Source\PSoC5/cyPm.c **** 
1684:.\Generated_Source\PSoC5/cyPm.c **** 
1685:.\Generated_Source\PSoC5/cyPm.c ****     /***************************************************************************
1686:.\Generated_Source\PSoC5/cyPm.c ****     * Save boost reference and set it to boost's internal by clearing the bit.
1687:.\Generated_Source\PSoC5/cyPm.c ****     * External (chip bandgap) reference is not available in Sleep and Hibernate.
1688:.\Generated_Source\PSoC5/cyPm.c ****     ***************************************************************************/
1689:.\Generated_Source\PSoC5/cyPm.c ****     if(0u != (CY_PM_BOOST_CR2_REG & CY_PM_BOOST_CR2_EREFSEL_EXT))
 204              		.loc 1 1689 0
 205 00ec DFF8D4B0 		ldr	fp, .L7+96
1624:.\Generated_Source\PSoC5/cyPm.c ****     CY_SET_REG8(CYREG_SC0_SW3 , 0u);
 206              		.loc 1 1624 0
 207 00f0 89F80020 		strb	r2, [r9]
1625:.\Generated_Source\PSoC5/cyPm.c ****     CY_SET_REG8(CYREG_SC0_SW4 , 0u);
 208              		.loc 1 1625 0
 209 00f4 88F80020 		strb	r2, [r8]
1626:.\Generated_Source\PSoC5/cyPm.c ****     CY_SET_REG8(CYREG_SC0_SW6 , 0u);
 210              		.loc 1 1626 0
 211 00f8 8CF80020 		strb	r2, [ip]
1627:.\Generated_Source\PSoC5/cyPm.c ****     CY_SET_REG8(CYREG_SC0_SW8 , 0u);
 212              		.loc 1 1627 0
 213 00fc 07F8042C 		strb	r2, [r7, #-4]
1628:.\Generated_Source\PSoC5/cyPm.c ****     CY_SET_REG8(CYREG_SC0_SW10, 0u);
 214              		.loc 1 1628 0
 215 0100 07F8022C 		strb	r2, [r7, #-2]
1629:.\Generated_Source\PSoC5/cyPm.c **** 
 216              		.loc 1 1629 0
 217 0104 3A70     		strb	r2, [r7]
1631:.\Generated_Source\PSoC5/cyPm.c ****     CY_SET_REG8(CYREG_SC1_SW2 , 0u);
 218              		.loc 1 1631 0
 219 0106 BA71     		strb	r2, [r7, #6]
1632:.\Generated_Source\PSoC5/cyPm.c ****     CY_SET_REG8(CYREG_SC1_SW3 , 0u);
 220              		.loc 1 1632 0
 221 0108 3A72     		strb	r2, [r7, #8]
1633:.\Generated_Source\PSoC5/cyPm.c ****     CY_SET_REG8(CYREG_SC1_SW4 , 0u);
 222              		.loc 1 1633 0
 223 010a 7A72     		strb	r2, [r7, #9]
1634:.\Generated_Source\PSoC5/cyPm.c ****     CY_SET_REG8(CYREG_SC1_SW6 , 0u);
 224              		.loc 1 1634 0
 225 010c BA72     		strb	r2, [r7, #10]
1635:.\Generated_Source\PSoC5/cyPm.c ****     CY_SET_REG8(CYREG_SC1_SW8 , 0u);
 226              		.loc 1 1635 0
 227 010e 3A73     		strb	r2, [r7, #12]
ARM GAS  C:\Users\honet\AppData\Local\Temp\ccQxGmyH.s 			page 36


1636:.\Generated_Source\PSoC5/cyPm.c ****     CY_SET_REG8(CYREG_SC1_SW10, 0u);
 228              		.loc 1 1636 0
 229 0110 BA73     		strb	r2, [r7, #14]
1637:.\Generated_Source\PSoC5/cyPm.c **** 
 230              		.loc 1 1637 0
 231 0112 3A74     		strb	r2, [r7, #16]
1639:.\Generated_Source\PSoC5/cyPm.c ****     CY_SET_REG8(CYREG_SC2_SW2 , 0u);
 232              		.loc 1 1639 0
 233 0114 BA75     		strb	r2, [r7, #22]
1640:.\Generated_Source\PSoC5/cyPm.c ****     CY_SET_REG8(CYREG_SC2_SW3 , 0u);
 234              		.loc 1 1640 0
 235 0116 3A76     		strb	r2, [r7, #24]
1641:.\Generated_Source\PSoC5/cyPm.c ****     CY_SET_REG8(CYREG_SC2_SW4 , 0u);
 236              		.loc 1 1641 0
 237 0118 7A76     		strb	r2, [r7, #25]
1642:.\Generated_Source\PSoC5/cyPm.c ****     CY_SET_REG8(CYREG_SC2_SW6 , 0u);
 238              		.loc 1 1642 0
 239 011a BA76     		strb	r2, [r7, #26]
1643:.\Generated_Source\PSoC5/cyPm.c ****     CY_SET_REG8(CYREG_SC2_SW8 , 0u);
 240              		.loc 1 1643 0
 241 011c 3A77     		strb	r2, [r7, #28]
1644:.\Generated_Source\PSoC5/cyPm.c ****     CY_SET_REG8(CYREG_SC2_SW10, 0u);
 242              		.loc 1 1644 0
 243 011e BA77     		strb	r2, [r7, #30]
1645:.\Generated_Source\PSoC5/cyPm.c **** 
 244              		.loc 1 1645 0
 245 0120 87F82020 		strb	r2, [r7, #32]
1647:.\Generated_Source\PSoC5/cyPm.c ****     CY_SET_REG8(CYREG_SC3_SW2 , 0u);
 246              		.loc 1 1647 0
 247 0124 8EF80020 		strb	r2, [lr]
1648:.\Generated_Source\PSoC5/cyPm.c ****     CY_SET_REG8(CYREG_SC3_SW3 , 0u);
 248              		.loc 1 1648 0
 249 0128 87F82820 		strb	r2, [r7, #40]
1649:.\Generated_Source\PSoC5/cyPm.c ****     CY_SET_REG8(CYREG_SC3_SW4 , 0u);
 250              		.loc 1 1649 0
 251 012c 3270     		strb	r2, [r6]
1650:.\Generated_Source\PSoC5/cyPm.c ****     CY_SET_REG8(CYREG_SC3_SW6 , 0u);
 252              		.loc 1 1650 0
 253 012e 2A70     		strb	r2, [r5]
1651:.\Generated_Source\PSoC5/cyPm.c ****     CY_SET_REG8(CYREG_SC3_SW8 , 0u);
 254              		.loc 1 1651 0
 255 0130 2270     		strb	r2, [r4]
1652:.\Generated_Source\PSoC5/cyPm.c ****     CY_SET_REG8(CYREG_SC3_SW10, 0u);
 256              		.loc 1 1652 0
 257 0132 0270     		strb	r2, [r0]
1653:.\Generated_Source\PSoC5/cyPm.c **** 
 258              		.loc 1 1653 0
 259 0134 0A70     		strb	r2, [r1]
 260              		.loc 1 1689 0
 261 0136 9BF80020 		ldrb	r2, [fp]	@ zero_extendqisi2
 262 013a 02F00802 		and	r2, r2, #8
 263 013e 02F0FF01 		and	r1, r2, #255
 264 0142 1AB9     		cbnz	r2, .L6
1690:.\Generated_Source\PSoC5/cyPm.c ****     {
1691:.\Generated_Source\PSoC5/cyPm.c ****         cyPmBackup.boostRefExt = CY_PM_ENABLED;
1692:.\Generated_Source\PSoC5/cyPm.c ****         CY_PM_BOOST_CR2_REG &= ((uint8)(~CY_PM_BOOST_CR2_EREFSEL_EXT));
1693:.\Generated_Source\PSoC5/cyPm.c ****     }
ARM GAS  C:\Users\honet\AppData\Local\Temp\ccQxGmyH.s 			page 37


1694:.\Generated_Source\PSoC5/cyPm.c ****     else
1695:.\Generated_Source\PSoC5/cyPm.c ****     {
1696:.\Generated_Source\PSoC5/cyPm.c ****         cyPmBackup.boostRefExt = CY_PM_DISABLED;
 265              		.loc 1 1696 0
 266 0144 83F82E10 		strb	r1, [r3, #46]
 267 0148 BDE8F08F 		pop	{r4, r5, r6, r7, r8, r9, r10, fp, pc}
 268              	.L6:
1692:.\Generated_Source\PSoC5/cyPm.c ****     }
 269              		.loc 1 1692 0
 270 014c 9BF80020 		ldrb	r2, [fp]	@ zero_extendqisi2
1691:.\Generated_Source\PSoC5/cyPm.c ****         CY_PM_BOOST_CR2_REG &= ((uint8)(~CY_PM_BOOST_CR2_EREFSEL_EXT));
 271              		.loc 1 1691 0
 272 0150 0121     		movs	r1, #1
1692:.\Generated_Source\PSoC5/cyPm.c ****     }
 273              		.loc 1 1692 0
 274 0152 02F0F702 		and	r2, r2, #247
 275 0156 8BF80020 		strb	r2, [fp]
1691:.\Generated_Source\PSoC5/cyPm.c ****         CY_PM_BOOST_CR2_REG &= ((uint8)(~CY_PM_BOOST_CR2_EREFSEL_EXT));
 276              		.loc 1 1691 0
 277 015a 83F82E10 		strb	r1, [r3, #46]
 278 015e BDE8F08F 		pop	{r4, r5, r6, r7, r8, r9, r10, fp, pc}
 279              	.L8:
 280 0162 00BF     		.align	2
 281              	.L7:
 282 0164 065A0040 		.word	1073764870
 283 0168 00000000 		.word	.LANCHOR0
 284 016c 105A0040 		.word	1073764880
 285 0170 125A0040 		.word	1073764882
 286 0174 135A0040 		.word	1073764883
 287 0178 145A0040 		.word	1073764884
 288 017c 165A0040 		.word	1073764886
 289 0180 185A0040 		.word	1073764888
 290 0184 1A5A0040 		.word	1073764890
 291 0188 205A0040 		.word	1073764896
 292 018c 235A0040 		.word	1073764899
 293 0190 245A0040 		.word	1073764900
 294 0194 335A0040 		.word	1073764915
 295 0198 2A5A0040 		.word	1073764906
 296 019c 345A0040 		.word	1073764916
 297 01a0 325A0040 		.word	1073764914
 298 01a4 365A0040 		.word	1073764918
 299 01a8 385A0040 		.word	1073764920
 300 01ac 3A5A0040 		.word	1073764922
 301 01b0 005A0040 		.word	1073764864
 302 01b4 025A0040 		.word	1073764866
 303 01b8 035A0040 		.word	1073764867
 304 01bc 045A0040 		.word	1073764868
 305 01c0 305A0040 		.word	1073764912
 306 01c4 22430040 		.word	1073759010
 307              		.cfi_endproc
 308              	.LFE12:
 309              		.size	CyPmHibSlpSaveSet, .-CyPmHibSlpSaveSet
 310              		.section	.text.CyPmHibSlpRestore,"ax",%progbits
 311              		.align	2
 312              		.thumb
 313              		.thumb_func
 314              		.type	CyPmHibSlpRestore, %function
ARM GAS  C:\Users\honet\AppData\Local\Temp\ccQxGmyH.s 			page 38


 315              	CyPmHibSlpRestore:
 316              	.LFB13:
1697:.\Generated_Source\PSoC5/cyPm.c ****     }
1698:.\Generated_Source\PSoC5/cyPm.c **** }
1699:.\Generated_Source\PSoC5/cyPm.c **** 
1700:.\Generated_Source\PSoC5/cyPm.c **** 
1701:.\Generated_Source\PSoC5/cyPm.c **** /*******************************************************************************
1702:.\Generated_Source\PSoC5/cyPm.c **** * Function Name: CyPmHibSlpRestore
1703:.\Generated_Source\PSoC5/cyPm.c **** ****************************************************************************//**
1704:.\Generated_Source\PSoC5/cyPm.c **** *
1705:.\Generated_Source\PSoC5/cyPm.c **** *  This API is used for restoring the device configurations after wakeup from
1706:.\Generated_Source\PSoC5/cyPm.c **** *  the Sleep and Hibernate low power modes:
1707:.\Generated_Source\PSoC5/cyPm.c **** *  - Restores the SC/CT routing connections
1708:.\Generated_Source\PSoC5/cyPm.c **** *  - Restores the enable state of the Serial Wire Viewer (SWV) (PSoC 3)
1709:.\Generated_Source\PSoC5/cyPm.c **** *  - Restores the  boost reference selection
1710:.\Generated_Source\PSoC5/cyPm.c **** *
1711:.\Generated_Source\PSoC5/cyPm.c **** *******************************************************************************/
1712:.\Generated_Source\PSoC5/cyPm.c **** static void CyPmHibSlpRestore(void) 
1713:.\Generated_Source\PSoC5/cyPm.c **** {
 317              		.loc 1 1713 0
 318              		.cfi_startproc
 319              		@ args = 0, pretend = 0, frame = 0
 320              		@ frame_needed = 0, uses_anonymous_args = 0
 321 0000 2DE9F04F 		push	{r4, r5, r6, r7, r8, r9, r10, fp, lr}
 322              		.cfi_def_cfa_offset 36
 323              		.cfi_offset 4, -36
 324              		.cfi_offset 5, -32
 325              		.cfi_offset 6, -28
 326              		.cfi_offset 7, -24
 327              		.cfi_offset 8, -20
 328              		.cfi_offset 9, -16
 329              		.cfi_offset 10, -12
 330              		.cfi_offset 11, -8
 331              		.cfi_offset 14, -4
1714:.\Generated_Source\PSoC5/cyPm.c ****     /* Restore SC/CT routing registers */
1715:.\Generated_Source\PSoC5/cyPm.c ****     CY_SET_REG8(CYREG_SC0_SW0 , cyPmBackup.scctData[0u] );
 332              		.loc 1 1715 0
 333 0004 3F4B     		ldr	r3, .L12
 334 0006 404D     		ldr	r5, .L12+4
 335 0008 93F809C0 		ldrb	ip, [r3, #9]	@ zero_extendqisi2
1716:.\Generated_Source\PSoC5/cyPm.c ****     CY_SET_REG8(CYREG_SC0_SW2 , cyPmBackup.scctData[1u] );
 336              		.loc 1 1716 0
 337 000c 93F80AE0 		ldrb	lr, [r3, #10]	@ zero_extendqisi2
 338 0010 3E48     		ldr	r0, .L12+8
1717:.\Generated_Source\PSoC5/cyPm.c ****     CY_SET_REG8(CYREG_SC0_SW3 , cyPmBackup.scctData[2u] );
 339              		.loc 1 1717 0
 340 0012 DE7A     		ldrb	r6, [r3, #11]	@ zero_extendqisi2
1718:.\Generated_Source\PSoC5/cyPm.c ****     CY_SET_REG8(CYREG_SC0_SW4 , cyPmBackup.scctData[3u] );
 341              		.loc 1 1718 0
 342 0014 93F80CB0 		ldrb	fp, [r3, #12]	@ zero_extendqisi2
1719:.\Generated_Source\PSoC5/cyPm.c ****     CY_SET_REG8(CYREG_SC0_SW6 , cyPmBackup.scctData[4u] );
 343              		.loc 1 1719 0
 344 0018 93F80DA0 		ldrb	r10, [r3, #13]	@ zero_extendqisi2
1720:.\Generated_Source\PSoC5/cyPm.c ****     CY_SET_REG8(CYREG_SC0_SW8 , cyPmBackup.scctData[5u] );
 345              		.loc 1 1720 0
 346 001c 93F80E90 		ldrb	r9, [r3, #14]	@ zero_extendqisi2
1721:.\Generated_Source\PSoC5/cyPm.c ****     CY_SET_REG8(CYREG_SC0_SW10, cyPmBackup.scctData[6u] );
ARM GAS  C:\Users\honet\AppData\Local\Temp\ccQxGmyH.s 			page 39


 347              		.loc 1 1721 0
 348 0020 93F80F80 		ldrb	r8, [r3, #15]	@ zero_extendqisi2
1717:.\Generated_Source\PSoC5/cyPm.c ****     CY_SET_REG8(CYREG_SC0_SW4 , cyPmBackup.scctData[3u] );
 349              		.loc 1 1717 0
 350 0024 3A4A     		ldr	r2, .L12+12
1715:.\Generated_Source\PSoC5/cyPm.c ****     CY_SET_REG8(CYREG_SC0_SW2 , cyPmBackup.scctData[1u] );
 351              		.loc 1 1715 0
 352 0026 85F800C0 		strb	ip, [r5]
1722:.\Generated_Source\PSoC5/cyPm.c **** 
1723:.\Generated_Source\PSoC5/cyPm.c ****     CY_SET_REG8(CYREG_SC1_SW0 , cyPmBackup.scctData[7u] );
 353              		.loc 1 1723 0
 354 002a 93F810C0 		ldrb	ip, [r3, #16]	@ zero_extendqisi2
1718:.\Generated_Source\PSoC5/cyPm.c ****     CY_SET_REG8(CYREG_SC0_SW6 , cyPmBackup.scctData[4u] );
 355              		.loc 1 1718 0
 356 002e 394C     		ldr	r4, .L12+16
1716:.\Generated_Source\PSoC5/cyPm.c ****     CY_SET_REG8(CYREG_SC0_SW3 , cyPmBackup.scctData[2u] );
 357              		.loc 1 1716 0
 358 0030 80F800E0 		strb	lr, [r0]
1724:.\Generated_Source\PSoC5/cyPm.c ****     CY_SET_REG8(CYREG_SC1_SW2 , cyPmBackup.scctData[8u] );
 359              		.loc 1 1724 0
 360 0034 93F811E0 		ldrb	lr, [r3, #17]	@ zero_extendqisi2
1719:.\Generated_Source\PSoC5/cyPm.c ****     CY_SET_REG8(CYREG_SC0_SW8 , cyPmBackup.scctData[5u] );
 361              		.loc 1 1719 0
 362 0038 3749     		ldr	r1, .L12+20
1717:.\Generated_Source\PSoC5/cyPm.c ****     CY_SET_REG8(CYREG_SC0_SW4 , cyPmBackup.scctData[3u] );
 363              		.loc 1 1717 0
 364 003a 1670     		strb	r6, [r2]
1725:.\Generated_Source\PSoC5/cyPm.c ****     CY_SET_REG8(CYREG_SC1_SW3 , cyPmBackup.scctData[9u] );
 365              		.loc 1 1725 0
 366 003c 9E7C     		ldrb	r6, [r3, #18]	@ zero_extendqisi2
1720:.\Generated_Source\PSoC5/cyPm.c ****     CY_SET_REG8(CYREG_SC0_SW10, cyPmBackup.scctData[6u] );
 367              		.loc 1 1720 0
 368 003e 374F     		ldr	r7, .L12+24
1718:.\Generated_Source\PSoC5/cyPm.c ****     CY_SET_REG8(CYREG_SC0_SW6 , cyPmBackup.scctData[4u] );
 369              		.loc 1 1718 0
 370 0040 84F800B0 		strb	fp, [r4]
1726:.\Generated_Source\PSoC5/cyPm.c ****     CY_SET_REG8(CYREG_SC1_SW4 , cyPmBackup.scctData[10u]);
 371              		.loc 1 1726 0
 372 0044 93F813B0 		ldrb	fp, [r3, #19]	@ zero_extendqisi2
1719:.\Generated_Source\PSoC5/cyPm.c ****     CY_SET_REG8(CYREG_SC0_SW8 , cyPmBackup.scctData[5u] );
 373              		.loc 1 1719 0
 374 0048 81F800A0 		strb	r10, [r1]
1727:.\Generated_Source\PSoC5/cyPm.c ****     CY_SET_REG8(CYREG_SC1_SW6 , cyPmBackup.scctData[11u]);
 375              		.loc 1 1727 0
 376 004c 93F814A0 		ldrb	r10, [r3, #20]	@ zero_extendqisi2
1720:.\Generated_Source\PSoC5/cyPm.c ****     CY_SET_REG8(CYREG_SC0_SW10, cyPmBackup.scctData[6u] );
 377              		.loc 1 1720 0
 378 0050 87F80090 		strb	r9, [r7]
1728:.\Generated_Source\PSoC5/cyPm.c ****     CY_SET_REG8(CYREG_SC1_SW8 , cyPmBackup.scctData[12u]);
 379              		.loc 1 1728 0
 380 0054 93F81590 		ldrb	r9, [r3, #21]	@ zero_extendqisi2
1721:.\Generated_Source\PSoC5/cyPm.c **** 
 381              		.loc 1 1721 0
 382 0058 85F80A80 		strb	r8, [r5, #10]
1729:.\Generated_Source\PSoC5/cyPm.c ****     CY_SET_REG8(CYREG_SC1_SW10, cyPmBackup.scctData[13u]);
 383              		.loc 1 1729 0
 384 005c 93F81680 		ldrb	r8, [r3, #22]	@ zero_extendqisi2
ARM GAS  C:\Users\honet\AppData\Local\Temp\ccQxGmyH.s 			page 40


1723:.\Generated_Source\PSoC5/cyPm.c ****     CY_SET_REG8(CYREG_SC1_SW2 , cyPmBackup.scctData[8u] );
 385              		.loc 1 1723 0
 386 0060 80F80EC0 		strb	ip, [r0, #14]
1730:.\Generated_Source\PSoC5/cyPm.c **** 
1731:.\Generated_Source\PSoC5/cyPm.c ****     CY_SET_REG8(CYREG_SC2_SW0 , cyPmBackup.scctData[14u]);
 387              		.loc 1 1731 0
 388 0064 93F817C0 		ldrb	ip, [r3, #23]	@ zero_extendqisi2
1724:.\Generated_Source\PSoC5/cyPm.c ****     CY_SET_REG8(CYREG_SC1_SW3 , cyPmBackup.scctData[9u] );
 389              		.loc 1 1724 0
 390 0068 82F80FE0 		strb	lr, [r2, #15]
1732:.\Generated_Source\PSoC5/cyPm.c ****     CY_SET_REG8(CYREG_SC2_SW2 , cyPmBackup.scctData[15u]);
 391              		.loc 1 1732 0
 392 006c 93F818E0 		ldrb	lr, [r3, #24]	@ zero_extendqisi2
1725:.\Generated_Source\PSoC5/cyPm.c ****     CY_SET_REG8(CYREG_SC1_SW4 , cyPmBackup.scctData[10u]);
 393              		.loc 1 1725 0
 394 0070 E673     		strb	r6, [r4, #15]
1733:.\Generated_Source\PSoC5/cyPm.c ****     CY_SET_REG8(CYREG_SC2_SW3 , cyPmBackup.scctData[16u]);
 395              		.loc 1 1733 0
 396 0072 5C7E     		ldrb	r4, [r3, #25]	@ zero_extendqisi2
1732:.\Generated_Source\PSoC5/cyPm.c ****     CY_SET_REG8(CYREG_SC2_SW2 , cyPmBackup.scctData[15u]);
 397              		.loc 1 1732 0
 398 0074 2A4E     		ldr	r6, .L12+28
1726:.\Generated_Source\PSoC5/cyPm.c ****     CY_SET_REG8(CYREG_SC1_SW6 , cyPmBackup.scctData[11u]);
 399              		.loc 1 1726 0
 400 0076 81F80EB0 		strb	fp, [r1, #14]
1727:.\Generated_Source\PSoC5/cyPm.c ****     CY_SET_REG8(CYREG_SC1_SW8 , cyPmBackup.scctData[12u]);
 401              		.loc 1 1727 0
 402 007a 87F80EA0 		strb	r10, [r7, #14]
1728:.\Generated_Source\PSoC5/cyPm.c ****     CY_SET_REG8(CYREG_SC1_SW10, cyPmBackup.scctData[13u]);
 403              		.loc 1 1728 0
 404 007e 85F81890 		strb	r9, [r5, #24]
1729:.\Generated_Source\PSoC5/cyPm.c **** 
 405              		.loc 1 1729 0
 406 0082 80F81880 		strb	r8, [r0, #24]
1731:.\Generated_Source\PSoC5/cyPm.c ****     CY_SET_REG8(CYREG_SC2_SW2 , cyPmBackup.scctData[15u]);
 407              		.loc 1 1731 0
 408 0086 82F81DC0 		strb	ip, [r2, #29]
1732:.\Generated_Source\PSoC5/cyPm.c ****     CY_SET_REG8(CYREG_SC2_SW3 , cyPmBackup.scctData[16u]);
 409              		.loc 1 1732 0
 410 008a 86F800E0 		strb	lr, [r6]
 411              		.loc 1 1733 0
 412 008e 4C77     		strb	r4, [r1, #29]
1734:.\Generated_Source\PSoC5/cyPm.c ****     CY_SET_REG8(CYREG_SC2_SW4 , cyPmBackup.scctData[17u]);
 413              		.loc 1 1734 0
 414 0090 93F81AE0 		ldrb	lr, [r3, #26]	@ zero_extendqisi2
1735:.\Generated_Source\PSoC5/cyPm.c ****     CY_SET_REG8(CYREG_SC2_SW6 , cyPmBackup.scctData[18u]);
 415              		.loc 1 1735 0
 416 0094 DE7E     		ldrb	r6, [r3, #27]	@ zero_extendqisi2
1736:.\Generated_Source\PSoC5/cyPm.c ****     CY_SET_REG8(CYREG_SC2_SW8 , cyPmBackup.scctData[19u]);
 417              		.loc 1 1736 0
 418 0096 1C7F     		ldrb	r4, [r3, #28]	@ zero_extendqisi2
1737:.\Generated_Source\PSoC5/cyPm.c ****     CY_SET_REG8(CYREG_SC2_SW10, cyPmBackup.scctData[20u]);
 419              		.loc 1 1737 0
 420 0098 597F     		ldrb	r1, [r3, #29]	@ zero_extendqisi2
1738:.\Generated_Source\PSoC5/cyPm.c **** 
1739:.\Generated_Source\PSoC5/cyPm.c ****     CY_SET_REG8(CYREG_SC3_SW0 , cyPmBackup.scctData[21u]);
 421              		.loc 1 1739 0
ARM GAS  C:\Users\honet\AppData\Local\Temp\ccQxGmyH.s 			page 41


 422 009a 93F81EB0 		ldrb	fp, [r3, #30]	@ zero_extendqisi2
1740:.\Generated_Source\PSoC5/cyPm.c ****     CY_SET_REG8(CYREG_SC3_SW2 , cyPmBackup.scctData[22u]);
 423              		.loc 1 1740 0
 424 009e 93F81F90 		ldrb	r9, [r3, #31]	@ zero_extendqisi2
1741:.\Generated_Source\PSoC5/cyPm.c ****     CY_SET_REG8(CYREG_SC3_SW3 , cyPmBackup.scctData[23u]);
 425              		.loc 1 1741 0
 426 00a2 93F820C0 		ldrb	ip, [r3, #32]	@ zero_extendqisi2
1734:.\Generated_Source\PSoC5/cyPm.c ****     CY_SET_REG8(CYREG_SC2_SW6 , cyPmBackup.scctData[18u]);
 427              		.loc 1 1734 0
 428 00a6 87F81CE0 		strb	lr, [r7, #28]
1742:.\Generated_Source\PSoC5/cyPm.c ****     CY_SET_REG8(CYREG_SC3_SW4 , cyPmBackup.scctData[24u]);
 429              		.loc 1 1742 0
 430 00aa 93F82170 		ldrb	r7, [r3, #33]	@ zero_extendqisi2
1735:.\Generated_Source\PSoC5/cyPm.c ****     CY_SET_REG8(CYREG_SC2_SW8 , cyPmBackup.scctData[19u]);
 431              		.loc 1 1735 0
 432 00ae 85F82660 		strb	r6, [r5, #38]
1743:.\Generated_Source\PSoC5/cyPm.c ****     CY_SET_REG8(CYREG_SC3_SW6 , cyPmBackup.scctData[25u]);
 433              		.loc 1 1743 0
 434 00b2 93F82250 		ldrb	r5, [r3, #34]	@ zero_extendqisi2
1736:.\Generated_Source\PSoC5/cyPm.c ****     CY_SET_REG8(CYREG_SC2_SW10, cyPmBackup.scctData[20u]);
 435              		.loc 1 1736 0
 436 00b6 80F82640 		strb	r4, [r0, #38]
1744:.\Generated_Source\PSoC5/cyPm.c ****     CY_SET_REG8(CYREG_SC3_SW8 , cyPmBackup.scctData[26u]);
 437              		.loc 1 1744 0
 438 00ba 93F82300 		ldrb	r0, [r3, #35]	@ zero_extendqisi2
1737:.\Generated_Source\PSoC5/cyPm.c **** 
 439              		.loc 1 1737 0
 440 00be 82F82710 		strb	r1, [r2, #39]
1745:.\Generated_Source\PSoC5/cyPm.c ****     CY_SET_REG8(CYREG_SC3_SW10, cyPmBackup.scctData[27u]);
 441              		.loc 1 1745 0
 442 00c2 93F82420 		ldrb	r2, [r3, #36]	@ zero_extendqisi2
1746:.\Generated_Source\PSoC5/cyPm.c **** 
1747:.\Generated_Source\PSoC5/cyPm.c **** 
1748:.\Generated_Source\PSoC5/cyPm.c ****     #if(CY_PSOC3)
1749:.\Generated_Source\PSoC5/cyPm.c **** 
1750:.\Generated_Source\PSoC5/cyPm.c ****         /* Serial Wire Viewer (SWV) workaround */
1751:.\Generated_Source\PSoC5/cyPm.c ****         if(CY_PM_ENABLED == cyPmBackup.swvClkEnabled)
1752:.\Generated_Source\PSoC5/cyPm.c ****         {
1753:.\Generated_Source\PSoC5/cyPm.c ****             /* Restore ports drive mode */
1754:.\Generated_Source\PSoC5/cyPm.c ****             CY_PM_PRT1_PC3_REG = (CY_PM_PRT1_PC3_REG & CY_PM_PRT1_PC3_DM_MASK) |
1755:.\Generated_Source\PSoC5/cyPm.c ****                                     cyPmBackup.prt1Dm;
1756:.\Generated_Source\PSoC5/cyPm.c **** 
1757:.\Generated_Source\PSoC5/cyPm.c ****             /* Enable SWV clocks */
1758:.\Generated_Source\PSoC5/cyPm.c ****             CY_PM_MLOGIC_DBG_REG |= CY_PM_MLOGIC_DBG_SWV_CLK_EN;
1759:.\Generated_Source\PSoC5/cyPm.c ****         }
1760:.\Generated_Source\PSoC5/cyPm.c **** 
1761:.\Generated_Source\PSoC5/cyPm.c ****     #endif /* (CY_PSOC3) */
1762:.\Generated_Source\PSoC5/cyPm.c **** 
1763:.\Generated_Source\PSoC5/cyPm.c **** 
1764:.\Generated_Source\PSoC5/cyPm.c ****     /* Restore boost reference */
1765:.\Generated_Source\PSoC5/cyPm.c ****     if(CY_PM_ENABLED == cyPmBackup.boostRefExt)
 443              		.loc 1 1765 0
 444 00c6 93F82E30 		ldrb	r3, [r3, #46]	@ zero_extendqisi2
1739:.\Generated_Source\PSoC5/cyPm.c ****     CY_SET_REG8(CYREG_SC3_SW2 , cyPmBackup.scctData[22u]);
 445              		.loc 1 1739 0
 446 00ca DFF868A0 		ldr	r10, .L12+48
1740:.\Generated_Source\PSoC5/cyPm.c ****     CY_SET_REG8(CYREG_SC3_SW3 , cyPmBackup.scctData[23u]);
ARM GAS  C:\Users\honet\AppData\Local\Temp\ccQxGmyH.s 			page 42


 447              		.loc 1 1740 0
 448 00ce DFF86880 		ldr	r8, .L12+52
1741:.\Generated_Source\PSoC5/cyPm.c ****     CY_SET_REG8(CYREG_SC3_SW4 , cyPmBackup.scctData[24u]);
 449              		.loc 1 1741 0
 450 00d2 DFF868E0 		ldr	lr, .L12+56
1742:.\Generated_Source\PSoC5/cyPm.c ****     CY_SET_REG8(CYREG_SC3_SW6 , cyPmBackup.scctData[25u]);
 451              		.loc 1 1742 0
 452 00d6 134E     		ldr	r6, .L12+32
1743:.\Generated_Source\PSoC5/cyPm.c ****     CY_SET_REG8(CYREG_SC3_SW8 , cyPmBackup.scctData[26u]);
 453              		.loc 1 1743 0
 454 00d8 134C     		ldr	r4, .L12+36
1744:.\Generated_Source\PSoC5/cyPm.c ****     CY_SET_REG8(CYREG_SC3_SW10, cyPmBackup.scctData[27u]);
 455              		.loc 1 1744 0
 456 00da 1449     		ldr	r1, .L12+40
 457              		.loc 1 1765 0
 458 00dc 012B     		cmp	r3, #1
1739:.\Generated_Source\PSoC5/cyPm.c ****     CY_SET_REG8(CYREG_SC3_SW2 , cyPmBackup.scctData[22u]);
 459              		.loc 1 1739 0
 460 00de 8AF800B0 		strb	fp, [r10]
1740:.\Generated_Source\PSoC5/cyPm.c ****     CY_SET_REG8(CYREG_SC3_SW3 , cyPmBackup.scctData[23u]);
 461              		.loc 1 1740 0
 462 00e2 88F80090 		strb	r9, [r8]
1741:.\Generated_Source\PSoC5/cyPm.c ****     CY_SET_REG8(CYREG_SC3_SW4 , cyPmBackup.scctData[24u]);
 463              		.loc 1 1741 0
 464 00e6 8EF800C0 		strb	ip, [lr]
1742:.\Generated_Source\PSoC5/cyPm.c ****     CY_SET_REG8(CYREG_SC3_SW6 , cyPmBackup.scctData[25u]);
 465              		.loc 1 1742 0
 466 00ea 3770     		strb	r7, [r6]
1743:.\Generated_Source\PSoC5/cyPm.c ****     CY_SET_REG8(CYREG_SC3_SW8 , cyPmBackup.scctData[26u]);
 467              		.loc 1 1743 0
 468 00ec 2570     		strb	r5, [r4]
1744:.\Generated_Source\PSoC5/cyPm.c ****     CY_SET_REG8(CYREG_SC3_SW10, cyPmBackup.scctData[27u]);
 469              		.loc 1 1744 0
 470 00ee 0870     		strb	r0, [r1]
1745:.\Generated_Source\PSoC5/cyPm.c **** 
 471              		.loc 1 1745 0
 472 00f0 8AF80A20 		strb	r2, [r10, #10]
 473              		.loc 1 1765 0
 474 00f4 04D1     		bne	.L9
1766:.\Generated_Source\PSoC5/cyPm.c ****     {
1767:.\Generated_Source\PSoC5/cyPm.c ****         CY_PM_BOOST_CR2_REG |= CY_PM_BOOST_CR2_EREFSEL_EXT;
 475              		.loc 1 1767 0
 476 00f6 0E4A     		ldr	r2, .L12+44
 477 00f8 1378     		ldrb	r3, [r2]	@ zero_extendqisi2
 478 00fa 43F00803 		orr	r3, r3, #8
 479 00fe 1370     		strb	r3, [r2]
 480              	.L9:
 481 0100 BDE8F08F 		pop	{r4, r5, r6, r7, r8, r9, r10, fp, pc}
 482              	.L13:
 483              		.align	2
 484              	.L12:
 485 0104 00000000 		.word	.LANCHOR0
 486 0108 005A0040 		.word	1073764864
 487 010c 025A0040 		.word	1073764866
 488 0110 035A0040 		.word	1073764867
 489 0114 045A0040 		.word	1073764868
 490 0118 065A0040 		.word	1073764870
ARM GAS  C:\Users\honet\AppData\Local\Temp\ccQxGmyH.s 			page 43


 491 011c 085A0040 		.word	1073764872
 492 0120 225A0040 		.word	1073764898
 493 0124 345A0040 		.word	1073764916
 494 0128 365A0040 		.word	1073764918
 495 012c 385A0040 		.word	1073764920
 496 0130 22430040 		.word	1073759010
 497 0134 305A0040 		.word	1073764912
 498 0138 325A0040 		.word	1073764914
 499 013c 335A0040 		.word	1073764915
 500              		.cfi_endproc
 501              	.LFE13:
 502              		.size	CyPmHibSlpRestore, .-CyPmHibSlpRestore
 503              		.section	.text.CyPmSaveClocks,"ax",%progbits
 504              		.align	2
 505              		.global	CyPmSaveClocks
 506              		.thumb
 507              		.thumb_func
 508              		.type	CyPmSaveClocks, %function
 509              	CyPmSaveClocks:
 510              	.LFB0:
  74:.\Generated_Source\PSoC5/cyPm.c ****     /* Digital and analog clocks - save enable state and disable them all */
 511              		.loc 1 74 0
 512              		.cfi_startproc
 513              		@ args = 0, pretend = 0, frame = 0
 514              		@ frame_needed = 0, uses_anonymous_args = 0
 515 0000 70B5     		push	{r4, r5, r6, lr}
 516              		.cfi_def_cfa_offset 16
 517              		.cfi_offset 4, -16
 518              		.cfi_offset 5, -12
 519              		.cfi_offset 6, -8
 520              		.cfi_offset 14, -4
  76:.\Generated_Source\PSoC5/cyPm.c ****     cyPmClockBackup.enClkD = CY_PM_ACT_CFG2_REG;
 521              		.loc 1 76 0
 522 0002 6A49     		ldr	r1, .L57
  77:.\Generated_Source\PSoC5/cyPm.c ****     CY_PM_ACT_CFG1_REG &= ((uint8)(~CY_PM_ACT_EN_CLK_A_MASK));
 523              		.loc 1 77 0
 524 0004 6A4B     		ldr	r3, .L57+4
  76:.\Generated_Source\PSoC5/cyPm.c ****     cyPmClockBackup.enClkD = CY_PM_ACT_CFG2_REG;
 525              		.loc 1 76 0
 526 0006 0A78     		ldrb	r2, [r1]	@ zero_extendqisi2
  77:.\Generated_Source\PSoC5/cyPm.c ****     CY_PM_ACT_CFG1_REG &= ((uint8)(~CY_PM_ACT_EN_CLK_A_MASK));
 527              		.loc 1 77 0
 528 0008 1E78     		ldrb	r6, [r3]	@ zero_extendqisi2
  78:.\Generated_Source\PSoC5/cyPm.c ****     CY_PM_ACT_CFG2_REG &= ((uint8)(~CY_PM_ACT_EN_CLK_D_MASK));
 529              		.loc 1 78 0
 530 000a 0878     		ldrb	r0, [r1]	@ zero_extendqisi2
  79:.\Generated_Source\PSoC5/cyPm.c **** 
 531              		.loc 1 79 0
 532 000c 0025     		movs	r5, #0
  78:.\Generated_Source\PSoC5/cyPm.c ****     CY_PM_ACT_CFG2_REG &= ((uint8)(~CY_PM_ACT_EN_CLK_D_MASK));
 533              		.loc 1 78 0
 534 000e 00F0F000 		and	r0, r0, #240
 535 0012 0870     		strb	r0, [r1]
  79:.\Generated_Source\PSoC5/cyPm.c **** 
 536              		.loc 1 79 0
 537 0014 1878     		ldrb	r0, [r3]	@ zero_extendqisi2
 538 0016 1D70     		strb	r5, [r3]
ARM GAS  C:\Users\honet\AppData\Local\Temp\ccQxGmyH.s 			page 44


  82:.\Generated_Source\PSoC5/cyPm.c ****     CyFlash_SetWaitCycles(CY_PM_MAX_FLASH_WAIT_CYCLES);
 539              		.loc 1 82 0
 540 0018 91F85F34 		ldrb	r3, [r1, #1119]	@ zero_extendqisi2
  76:.\Generated_Source\PSoC5/cyPm.c ****     cyPmClockBackup.enClkD = CY_PM_ACT_CFG2_REG;
 541              		.loc 1 76 0
 542 001c 654C     		ldr	r4, .L57+8
 543 001e 02F00F02 		and	r2, r2, #15
  82:.\Generated_Source\PSoC5/cyPm.c ****     CyFlash_SetWaitCycles(CY_PM_MAX_FLASH_WAIT_CYCLES);
 544              		.loc 1 82 0
 545 0022 03F0C003 		and	r3, r3, #192
  83:.\Generated_Source\PSoC5/cyPm.c **** 
 546              		.loc 1 83 0
 547 0026 3720     		movs	r0, #55
  76:.\Generated_Source\PSoC5/cyPm.c ****     cyPmClockBackup.enClkD = CY_PM_ACT_CFG2_REG;
 548              		.loc 1 76 0
 549 0028 84F83020 		strb	r2, [r4, #48]
  77:.\Generated_Source\PSoC5/cyPm.c ****     CY_PM_ACT_CFG1_REG &= ((uint8)(~CY_PM_ACT_EN_CLK_A_MASK));
 550              		.loc 1 77 0
 551 002c 84F83160 		strb	r6, [r4, #49]
  82:.\Generated_Source\PSoC5/cyPm.c ****     CyFlash_SetWaitCycles(CY_PM_MAX_FLASH_WAIT_CYCLES);
 552              		.loc 1 82 0
 553 0030 84F83530 		strb	r3, [r4, #53]
 102:.\Generated_Source\PSoC5/cyPm.c **** 
 554              		.loc 1 102 0
 555 0034 604E     		ldr	r6, .L57+12
  83:.\Generated_Source\PSoC5/cyPm.c **** 
 556              		.loc 1 83 0
 557 0036 FFF7FEFF 		bl	CyFlash_SetWaitCycles
 558              	.LVL0:
  86:.\Generated_Source\PSoC5/cyPm.c ****     cyPmClockBackup.imoUsbClk = CY_PM_FASTCLK_IMO_CR_REG & CY_PM_FASTCLK_IMO_CR_USB;
 559              		.loc 1 86 0
 560 003a 604B     		ldr	r3, .L57+16
 561 003c 1878     		ldrb	r0, [r3]	@ zero_extendqisi2
  87:.\Generated_Source\PSoC5/cyPm.c **** 
 562              		.loc 1 87 0
 563 003e 1978     		ldrb	r1, [r3]	@ zero_extendqisi2
  90:.\Generated_Source\PSoC5/cyPm.c ****     {
 564              		.loc 1 90 0
 565 0040 1A78     		ldrb	r2, [r3]	@ zero_extendqisi2
 102:.\Generated_Source\PSoC5/cyPm.c **** 
 566              		.loc 1 102 0
 567 0042 3378     		ldrb	r3, [r6]	@ zero_extendqisi2
  86:.\Generated_Source\PSoC5/cyPm.c ****     cyPmClockBackup.imoUsbClk = CY_PM_FASTCLK_IMO_CR_REG & CY_PM_FASTCLK_IMO_CR_USB;
 568              		.loc 1 86 0
 569 0044 00F00700 		and	r0, r0, #7
 102:.\Generated_Source\PSoC5/cyPm.c **** 
 570              		.loc 1 102 0
 571 0048 03F00303 		and	r3, r3, #3
  87:.\Generated_Source\PSoC5/cyPm.c **** 
 572              		.loc 1 87 0
 573 004c 01F04001 		and	r1, r1, #64
  90:.\Generated_Source\PSoC5/cyPm.c ****     {
 574              		.loc 1 90 0
 575 0050 C2F30012 		ubfx	r2, r2, #4, #1
 105:.\Generated_Source\PSoC5/cyPm.c ****     {
 576              		.loc 1 105 0
 577 0054 012B     		cmp	r3, #1
ARM GAS  C:\Users\honet\AppData\Local\Temp\ccQxGmyH.s 			page 45


  86:.\Generated_Source\PSoC5/cyPm.c ****     cyPmClockBackup.imoUsbClk = CY_PM_FASTCLK_IMO_CR_REG & CY_PM_FASTCLK_IMO_CR_USB;
 578              		.loc 1 86 0
 579 0056 84F83300 		strb	r0, [r4, #51]
  87:.\Generated_Source\PSoC5/cyPm.c **** 
 580              		.loc 1 87 0
 581 005a 84F83410 		strb	r1, [r4, #52]
 582 005e 84F83920 		strb	r2, [r4, #57]
 102:.\Generated_Source\PSoC5/cyPm.c **** 
 583              		.loc 1 102 0
 584 0062 84F83230 		strb	r3, [r4, #50]
 105:.\Generated_Source\PSoC5/cyPm.c ****     {
 585              		.loc 1 105 0
 586 0066 00F08980 		beq	.L50
 587              	.L15:
 128:.\Generated_Source\PSoC5/cyPm.c ****     {
 588              		.loc 1 128 0
 589 006a 554B     		ldr	r3, .L57+20
 590 006c 1B78     		ldrb	r3, [r3]	@ zero_extendqisi2
 591 006e 13F00103 		ands	r3, r3, #1
 592 0072 5FD1     		bne	.L51
 137:.\Generated_Source\PSoC5/cyPm.c ****     }
 593              		.loc 1 137 0
 594 0074 84F83E30 		strb	r3, [r4, #62]
 595              	.L20:
 141:.\Generated_Source\PSoC5/cyPm.c **** 
 596              		.loc 1 141 0
 597 0078 0420     		movs	r0, #4
 598 007a FFF7FEFF 		bl	CyIMO_SetFreq
 599              	.LVL1:
 144:.\Generated_Source\PSoC5/cyPm.c ****     {
 600              		.loc 1 144 0
 601 007e 514B     		ldr	r3, .L57+24
 602 0080 1B78     		ldrb	r3, [r3]	@ zero_extendqisi2
 603 0082 03F01003 		and	r3, r3, #16
 604 0086 03F0FF02 		and	r2, r3, #255
 605 008a 002B     		cmp	r3, #0
 606 008c 6DD0     		beq	.L21
 147:.\Generated_Source\PSoC5/cyPm.c ****     }
 607              		.loc 1 147 0
 608 008e 0123     		movs	r3, #1
 609 0090 84F83630 		strb	r3, [r4, #54]
 610              	.L22:
 162:.\Generated_Source\PSoC5/cyPm.c ****     {
 611              		.loc 1 162 0
 612 0094 494B     		ldr	r3, .L57+16
 613 0096 1B78     		ldrb	r3, [r3]	@ zero_extendqisi2
 614 0098 03F02003 		and	r3, r3, #32
 615 009c 03F0FF02 		and	r2, r3, #255
 616 00a0 002B     		cmp	r3, #0
 617 00a2 44D0     		beq	.L23
 166:.\Generated_Source\PSoC5/cyPm.c **** 
 618              		.loc 1 166 0
 619 00a4 4FF04023 		mov	r3, #1073758208
 620 00a8 1B78     		ldrb	r3, [r3]	@ zero_extendqisi2
 169:.\Generated_Source\PSoC5/cyPm.c ****     }
 621              		.loc 1 169 0
 622 00aa 0020     		movs	r0, #0
ARM GAS  C:\Users\honet\AppData\Local\Temp\ccQxGmyH.s 			page 46


 165:.\Generated_Source\PSoC5/cyPm.c ****             (0u == (CY_PM_CLKDIST_CR_REG & CY_PM_CLKDIST_IMO2X_SRC)) ? CY_IMO_SOURCE_DSI : CY_IMO_S
 623              		.loc 1 165 0
 624 00ac 13F0400F 		tst	r3, #64
 625 00b0 0CBF     		ite	eq
 626 00b2 0223     		moveq	r3, #2
 627 00b4 0123     		movne	r3, #1
 628 00b6 84F83730 		strb	r3, [r4, #55]
 169:.\Generated_Source\PSoC5/cyPm.c ****     }
 629              		.loc 1 169 0
 630 00ba FFF7FEFF 		bl	CyIMO_SetSource
 631              	.LVL2:
 632              	.L25:
 178:.\Generated_Source\PSoC5/cyPm.c **** 
 633              		.loc 1 178 0
 634 00be 4FF04022 		mov	r2, #1073758208
 635 00c2 1378     		ldrb	r3, [r2]	@ zero_extendqisi2
 636 00c4 03F03003 		and	r3, r3, #48
 637 00c8 84F83830 		strb	r3, [r4, #56]
 181:.\Generated_Source\PSoC5/cyPm.c ****     {
 638              		.loc 1 181 0
 639 00cc 1BB1     		cbz	r3, .L26
 184:.\Generated_Source\PSoC5/cyPm.c ****                                 CY_PM_CLKDIST_IMO_OUT_IMO;
 640              		.loc 1 184 0
 641 00ce 1378     		ldrb	r3, [r2]	@ zero_extendqisi2
 642 00d0 03F0CF03 		and	r3, r3, #207
 643 00d4 1370     		strb	r3, [r2]
 644              	.L26:
 189:.\Generated_Source\PSoC5/cyPm.c ****     {
 645              		.loc 1 189 0
 646 00d6 394B     		ldr	r3, .L57+16
 647 00d8 1B78     		ldrb	r3, [r3]	@ zero_extendqisi2
 648 00da DB06     		lsls	r3, r3, #27
 649 00dc 42D4     		bmi	.L52
 650              	.L27:
 195:.\Generated_Source\PSoC5/cyPm.c ****     if(CY_PM_DIV_BY_ONE != cyPmClockBackup.clkSyncDiv)
 651              		.loc 1 195 0
 652 00de 3A4B     		ldr	r3, .L57+28
 653 00e0 1B78     		ldrb	r3, [r3]	@ zero_extendqisi2
 654 00e2 DBB2     		uxtb	r3, r3
 655 00e4 84F83A30 		strb	r3, [r4, #58]
 196:.\Generated_Source\PSoC5/cyPm.c ****     {
 656              		.loc 1 196 0
 657 00e8 002B     		cmp	r3, #0
 658 00ea 37D1     		bne	.L53
 659              	.L28:
 202:.\Generated_Source\PSoC5/cyPm.c ****     {
 660              		.loc 1 202 0
 661 00ec 94F83230 		ldrb	r3, [r4, #50]	@ zero_extendqisi2
 662 00f0 83BB     		cbnz	r3, .L54
 663              	.L29:
 208:.\Generated_Source\PSoC5/cyPm.c ****     cyPmClockBackup.clkBusDiv |= CY_PM_CLK_BUS_LSB_DIV_REG;
 664              		.loc 1 208 0
 665 00f2 364A     		ldr	r2, .L57+32
 209:.\Generated_Source\PSoC5/cyPm.c ****     if(CY_PM_BUS_CLK_DIV_BY_ONE != cyPmClockBackup.clkBusDiv)
 666              		.loc 1 209 0
 667 00f4 364B     		ldr	r3, .L57+36
 208:.\Generated_Source\PSoC5/cyPm.c ****     cyPmClockBackup.clkBusDiv |= CY_PM_CLK_BUS_LSB_DIV_REG;
ARM GAS  C:\Users\honet\AppData\Local\Temp\ccQxGmyH.s 			page 47


 668              		.loc 1 208 0
 669 00f6 1278     		ldrb	r2, [r2]	@ zero_extendqisi2
 209:.\Generated_Source\PSoC5/cyPm.c ****     if(CY_PM_BUS_CLK_DIV_BY_ONE != cyPmClockBackup.clkBusDiv)
 670              		.loc 1 209 0
 671 00f8 1B78     		ldrb	r3, [r3]	@ zero_extendqisi2
 208:.\Generated_Source\PSoC5/cyPm.c ****     cyPmClockBackup.clkBusDiv |= CY_PM_CLK_BUS_LSB_DIV_REG;
 672              		.loc 1 208 0
 673 00fa 1202     		lsls	r2, r2, #8
 209:.\Generated_Source\PSoC5/cyPm.c ****     if(CY_PM_BUS_CLK_DIV_BY_ONE != cyPmClockBackup.clkBusDiv)
 674              		.loc 1 209 0
 675 00fc 1343     		orrs	r3, r3, r2
 676 00fe A387     		strh	r3, [r4, #60]	@ movhi
 210:.\Generated_Source\PSoC5/cyPm.c ****     {
 677              		.loc 1 210 0
 678 0100 23BB     		cbnz	r3, .L55
 679              	.L30:
 216:.\Generated_Source\PSoC5/cyPm.c **** 
 680              		.loc 1 216 0
 681 0102 2E4B     		ldr	r3, .L57+16
 682 0104 334A     		ldr	r2, .L57+40
 683 0106 1B78     		ldrb	r3, [r3]	@ zero_extendqisi2
 684 0108 03F00703 		and	r3, r3, #7
 685 010c D05C     		ldrb	r0, [r2, r3]	@ zero_extendqisi2
 686 010e FFF7FEFF 		bl	CyFlash_SetWaitCycles
 687              	.LVL3:
 219:.\Generated_Source\PSoC5/cyPm.c ****     {
 688              		.loc 1 219 0
 689 0112 314B     		ldr	r3, .L57+44
 690 0114 1B78     		ldrb	r3, [r3]	@ zero_extendqisi2
 691 0116 13F00103 		ands	r3, r3, #1
 692 011a 11D1     		bne	.L56
 228:.\Generated_Source\PSoC5/cyPm.c ****     }
 693              		.loc 1 228 0
 694 011c 84F83F30 		strb	r3, [r4, #63]
 695              	.L32:
 237:.\Generated_Source\PSoC5/cyPm.c ****     {
 696              		.loc 1 237 0
 697 0120 2E4B     		ldr	r3, .L57+48
 698 0122 1B78     		ldrb	r3, [r3]	@ zero_extendqisi2
 699 0124 C3F38003 		ubfx	r3, r3, #2, #1
 700 0128 84F84030 		strb	r3, [r4, #64]
 701 012c 70BD     		pop	{r4, r5, r6, pc}
 702              	.L23:
 174:.\Generated_Source\PSoC5/cyPm.c ****     }
 703              		.loc 1 174 0
 704 012e 84F83720 		strb	r2, [r4, #55]
 705 0132 C4E7     		b	.L25
 706              	.L51:
 131:.\Generated_Source\PSoC5/cyPm.c ****         CyPLL_OUT_Stop();
 707              		.loc 1 131 0
 708 0134 0123     		movs	r3, #1
 709 0136 84F83E30 		strb	r3, [r4, #62]
 132:.\Generated_Source\PSoC5/cyPm.c ****     }
 710              		.loc 1 132 0
 711 013a FFF7FEFF 		bl	CyPLL_OUT_Stop
 712              	.LVL4:
 713 013e 9BE7     		b	.L20
ARM GAS  C:\Users\honet\AppData\Local\Temp\ccQxGmyH.s 			page 48


 714              	.L56:
 222:.\Generated_Source\PSoC5/cyPm.c ****         CyXTAL_Stop();
 715              		.loc 1 222 0
 716 0140 0123     		movs	r3, #1
 717 0142 84F83F30 		strb	r3, [r4, #63]
 223:.\Generated_Source\PSoC5/cyPm.c ****     }
 718              		.loc 1 223 0
 719 0146 FFF7FEFF 		bl	CyXTAL_Stop
 720              	.LVL5:
 721 014a E9E7     		b	.L32
 722              	.L55:
 212:.\Generated_Source\PSoC5/cyPm.c ****     }    /* Do nothing if saved and actual values are equal */
 723              		.loc 1 212 0
 724 014c 0020     		movs	r0, #0
 725 014e FFF7FEFF 		bl	CyBusClk_SetDivider
 726              	.LVL6:
 727 0152 D6E7     		b	.L30
 728              	.L54:
 204:.\Generated_Source\PSoC5/cyPm.c ****     }    /* No change if master clock source is IMO */
 729              		.loc 1 204 0
 730 0154 0020     		movs	r0, #0
 731 0156 FFF7FEFF 		bl	CyMasterClk_SetSource
 732              	.LVL7:
 733 015a CAE7     		b	.L29
 734              	.L53:
 198:.\Generated_Source\PSoC5/cyPm.c ****     }    /* No change if master clock divider is 1 */
 735              		.loc 1 198 0
 736 015c 0020     		movs	r0, #0
 737 015e FFF7FEFF 		bl	CyMasterClk_SetDivider
 738              	.LVL8:
 739 0162 C3E7     		b	.L28
 740              	.L52:
 191:.\Generated_Source\PSoC5/cyPm.c ****     }
 741              		.loc 1 191 0
 742 0164 FFF7FEFF 		bl	CyIMO_DisableDoubler
 743              	.LVL9:
 744 0168 B9E7     		b	.L27
 745              	.L21:
 155:.\Generated_Source\PSoC5/cyPm.c **** 
 746              		.loc 1 155 0
 747 016a 1046     		mov	r0, r2
 152:.\Generated_Source\PSoC5/cyPm.c **** 
 748              		.loc 1 152 0
 749 016c 84F83620 		strb	r2, [r4, #54]
 155:.\Generated_Source\PSoC5/cyPm.c **** 
 750              		.loc 1 155 0
 751 0170 FFF7FEFF 		bl	CyIMO_Start
 752              	.LVL10:
 158:.\Generated_Source\PSoC5/cyPm.c ****     }
 753              		.loc 1 158 0
 754 0174 0620     		movs	r0, #6
 755 0176 FFF7FEFF 		bl	CyDelayUs
 756              	.LVL11:
 757 017a 8BE7     		b	.L22
 758              	.L50:
 107:.\Generated_Source\PSoC5/cyPm.c ****         {
 759              		.loc 1 107 0
ARM GAS  C:\Users\honet\AppData\Local\Temp\ccQxGmyH.s 			page 49


 760 017c 4FF04023 		mov	r3, #1073758208
 761 0180 1B78     		ldrb	r3, [r3]	@ zero_extendqisi2
 762 0182 03F00303 		and	r3, r3, #3
 763 0186 012B     		cmp	r3, #1
 764 0188 0BD0     		beq	.L16
 765 018a 06D3     		bcc	.L17
 766 018c 022B     		cmp	r3, #2
 767 018e 7FF46CAF 		bne	.L15
 118:.\Generated_Source\PSoC5/cyPm.c ****             break;
 768              		.loc 1 118 0
 769 0192 0320     		movs	r0, #3
 770 0194 FFF7FEFF 		bl	CyMasterClk_SetSource
 771              	.LVL12:
 119:.\Generated_Source\PSoC5/cyPm.c **** 
 772              		.loc 1 119 0
 773 0198 67E7     		b	.L15
 774              	.L17:
 110:.\Generated_Source\PSoC5/cyPm.c ****             break;
 775              		.loc 1 110 0
 776 019a 2846     		mov	r0, r5
 777 019c FFF7FEFF 		bl	CyMasterClk_SetSource
 778              	.LVL13:
 111:.\Generated_Source\PSoC5/cyPm.c **** 
 779              		.loc 1 111 0
 780 01a0 63E7     		b	.L15
 781              	.L16:
 114:.\Generated_Source\PSoC5/cyPm.c ****             break;
 782              		.loc 1 114 0
 783 01a2 0220     		movs	r0, #2
 784 01a4 FFF7FEFF 		bl	CyMasterClk_SetSource
 785              	.LVL14:
 115:.\Generated_Source\PSoC5/cyPm.c **** 
 786              		.loc 1 115 0
 787 01a8 5FE7     		b	.L15
 788              	.L58:
 789 01aa 00BF     		.align	2
 790              	.L57:
 791 01ac A1430040 		.word	1073759137
 792 01b0 A2430040 		.word	1073759138
 793 01b4 00000000 		.word	.LANCHOR0
 794 01b8 05400040 		.word	1073758213
 795 01bc 00420040 		.word	1073758720
 796 01c0 20420040 		.word	1073758752
 797 01c4 A0430040 		.word	1073759136
 798 01c8 04400040 		.word	1073758212
 799 01cc 07400040 		.word	1073758215
 800 01d0 06400040 		.word	1073758214
 801 01d4 00000000 		.word	.LANCHOR1
 802 01d8 10420040 		.word	1073758736
 803 01dc 0B400040 		.word	1073758219
 804              		.cfi_endproc
 805              	.LFE0:
 806              		.size	CyPmSaveClocks, .-CyPmSaveClocks
 807              		.section	.text.CyPmRestoreClocks,"ax",%progbits
 808              		.align	2
 809              		.global	CyPmRestoreClocks
 810              		.thumb
ARM GAS  C:\Users\honet\AppData\Local\Temp\ccQxGmyH.s 			page 50


 811              		.thumb_func
 812              		.type	CyPmRestoreClocks, %function
 813              	CyPmRestoreClocks:
 814              	.LFB1:
 269:.\Generated_Source\PSoC5/cyPm.c ****     cystatus status = CYRET_TIMEOUT;
 815              		.loc 1 269 0
 816              		.cfi_startproc
 817              		@ args = 0, pretend = 0, frame = 8
 818              		@ frame_needed = 0, uses_anonymous_args = 0
 819              	.LVL15:
 820 0000 2DE9F043 		push	{r4, r5, r6, r7, r8, r9, lr}
 821              		.cfi_def_cfa_offset 28
 822              		.cfi_offset 4, -28
 823              		.cfi_offset 5, -24
 824              		.cfi_offset 6, -20
 825              		.cfi_offset 7, -16
 826              		.cfi_offset 8, -12
 827              		.cfi_offset 9, -8
 828              		.cfi_offset 14, -4
 276:.\Generated_Source\PSoC5/cyPm.c ****         CY_IMO_FREQ_12MHZ, CY_IMO_FREQ_6MHZ,  CY_IMO_FREQ_24MHZ, CY_IMO_FREQ_3MHZ,
 829              		.loc 1 276 0
 830 0004 814E     		ldr	r6, .L102
 281:.\Generated_Source\PSoC5/cyPm.c ****     {
 831              		.loc 1 281 0
 832 0006 824D     		ldr	r5, .L102+4
 276:.\Generated_Source\PSoC5/cyPm.c ****         CY_IMO_FREQ_12MHZ, CY_IMO_FREQ_6MHZ,  CY_IMO_FREQ_24MHZ, CY_IMO_FREQ_3MHZ,
 833              		.loc 1 276 0
 834 0008 3346     		mov	r3, r6
 835 000a 53F8080F 		ldr	r0, [r3, #8]!	@ unaligned
 281:.\Generated_Source\PSoC5/cyPm.c ****     {
 836              		.loc 1 281 0
 837 000e 95F84020 		ldrb	r2, [r5, #64]	@ zero_extendqisi2
 276:.\Generated_Source\PSoC5/cyPm.c ****         CY_IMO_FREQ_12MHZ, CY_IMO_FREQ_6MHZ,  CY_IMO_FREQ_24MHZ, CY_IMO_FREQ_3MHZ,
 838              		.loc 1 276 0
 839 0012 9988     		ldrh	r1, [r3, #4]	@ unaligned
 840 0014 9B79     		ldrb	r3, [r3, #6]	@ zero_extendqisi2
 269:.\Generated_Source\PSoC5/cyPm.c ****     cystatus status = CYRET_TIMEOUT;
 841              		.loc 1 269 0
 842 0016 83B0     		sub	sp, sp, #12
 843              		.cfi_def_cfa_offset 40
 281:.\Generated_Source\PSoC5/cyPm.c ****     {
 844              		.loc 1 281 0
 845 0018 012A     		cmp	r2, #1
 276:.\Generated_Source\PSoC5/cyPm.c ****         CY_IMO_FREQ_12MHZ, CY_IMO_FREQ_6MHZ,  CY_IMO_FREQ_24MHZ, CY_IMO_FREQ_3MHZ,
 846              		.loc 1 276 0
 847 001a 0090     		str	r0, [sp]	@ unaligned
 848 001c ADF80410 		strh	r1, [sp, #4]	@ unaligned
 849 0020 8DF80630 		strb	r3, [sp, #6]
 281:.\Generated_Source\PSoC5/cyPm.c ****     {
 850              		.loc 1 281 0
 851 0024 00F0A180 		beq	.L95
 291:.\Generated_Source\PSoC5/cyPm.c ****     {
 852              		.loc 1 291 0
 853 0028 95F83F30 		ldrb	r3, [r5, #63]	@ zero_extendqisi2
 854 002c 012B     		cmp	r3, #1
 855 002e 00F0B180 		beq	.L61
 856              	.L64:
ARM GAS  C:\Users\honet\AppData\Local\Temp\ccQxGmyH.s 			page 51


 338:.\Generated_Source\PSoC5/cyPm.c **** 
 857              		.loc 1 338 0
 858 0032 3720     		movs	r0, #55
 859 0034 FFF7FEFF 		bl	CyFlash_SetWaitCycles
 860              	.LVL16:
 341:.\Generated_Source\PSoC5/cyPm.c ****        (CY_PM_MASTER_CLK_SRC_DSI  == cyPmClockBackup.masterClkSrc))
 861              		.loc 1 341 0
 862 0038 95F83200 		ldrb	r0, [r5, #50]	@ zero_extendqisi2
 863 003c 744C     		ldr	r4, .L102+4
 864 003e 831E     		subs	r3, r0, #2
 865 0040 012B     		cmp	r3, #1
 866 0042 7ED9     		bls	.L96
 867              	.L63:
 356:.\Generated_Source\PSoC5/cyPm.c ****         (CY_IMO_FREQ_24MHZ == cyPmImoFreqMhz2Reg[cyPmClockBackup.imoFreq]))
 868              		.loc 1 356 0
 869 0044 724B     		ldr	r3, .L102+4
 870 0046 95F83420 		ldrb	r2, [r5, #52]	@ zero_extendqisi2
 357:.\Generated_Source\PSoC5/cyPm.c ****     {
 871              		.loc 1 357 0
 872 004a 93F83330 		ldrb	r3, [r3, #51]	@ zero_extendqisi2
 356:.\Generated_Source\PSoC5/cyPm.c ****         (CY_IMO_FREQ_24MHZ == cyPmImoFreqMhz2Reg[cyPmClockBackup.imoFreq]))
 873              		.loc 1 356 0
 874 004e 12F0400F 		tst	r2, #64
 357:.\Generated_Source\PSoC5/cyPm.c ****     {
 875              		.loc 1 357 0
 876 0052 02AA     		add	r2, sp, #8
 877 0054 1344     		add	r3, r3, r2
 878 0056 13F8080C 		ldrb	r0, [r3, #-8]	@ zero_extendqisi2
 356:.\Generated_Source\PSoC5/cyPm.c ****         (CY_IMO_FREQ_24MHZ == cyPmImoFreqMhz2Reg[cyPmClockBackup.imoFreq]))
 879              		.loc 1 356 0
 880 005a 02D0     		beq	.L68
 356:.\Generated_Source\PSoC5/cyPm.c ****         (CY_IMO_FREQ_24MHZ == cyPmImoFreqMhz2Reg[cyPmClockBackup.imoFreq]))
 881              		.loc 1 356 0 is_stmt 0 discriminator 1
 882 005c 0328     		cmp	r0, #3
 883 005e 00F0D180 		beq	.L97
 884              	.L68:
 365:.\Generated_Source\PSoC5/cyPm.c **** 
 885              		.loc 1 365 0 is_stmt 1
 886 0062 FFF7FEFF 		bl	CyIMO_SetFreq
 887              	.LVL17:
 367:.\Generated_Source\PSoC5/cyPm.c ****         {
 888              		.loc 1 367 0
 889 0066 95F83430 		ldrb	r3, [r5, #52]	@ zero_extendqisi2
 369:.\Generated_Source\PSoC5/cyPm.c ****         }
 890              		.loc 1 369 0
 891 006a 6A4A     		ldr	r2, .L102+8
 367:.\Generated_Source\PSoC5/cyPm.c ****         {
 892              		.loc 1 367 0
 893 006c 13F0400F 		tst	r3, #64
 369:.\Generated_Source\PSoC5/cyPm.c ****         }
 894              		.loc 1 369 0
 895 0070 1378     		ldrb	r3, [r2]	@ zero_extendqisi2
 896 0072 14BF     		ite	ne
 897 0074 43F04003 		orrne	r3, r3, #64
 373:.\Generated_Source\PSoC5/cyPm.c ****         }
 898              		.loc 1 373 0
 899 0078 03F0BF03 		andeq	r3, r3, #191
ARM GAS  C:\Users\honet\AppData\Local\Temp\ccQxGmyH.s 			page 52


 900 007c 1370     		strb	r3, [r2]
 901              	.L69:
 378:.\Generated_Source\PSoC5/cyPm.c ****        (0u == (CY_PM_ACT_CFG0_IMO & CY_PM_ACT_CFG0_REG)))
 902              		.loc 1 378 0
 903 007e 95F83630 		ldrb	r3, [r5, #54]	@ zero_extendqisi2
 904 0082 012B     		cmp	r3, #1
 905 0084 44D0     		beq	.L98
 906              	.L71:
 386:.\Generated_Source\PSoC5/cyPm.c **** 
 907              		.loc 1 386 0
 908 0086 95F83700 		ldrb	r0, [r5, #55]	@ zero_extendqisi2
 909 008a FFF7FEFF 		bl	CyIMO_SetSource
 910              	.LVL18:
 389:.\Generated_Source\PSoC5/cyPm.c ****     {
 911              		.loc 1 389 0
 912 008e 95F83930 		ldrb	r3, [r5, #57]	@ zero_extendqisi2
 913 0092 012B     		cmp	r3, #1
 914 0094 66D0     		beq	.L99
 915              	.L72:
 395:.\Generated_Source\PSoC5/cyPm.c ****     {
 916              		.loc 1 395 0
 917 0096 4FF04021 		mov	r1, #1073758208
 918 009a 0A78     		ldrb	r2, [r1]	@ zero_extendqisi2
 919 009c 95F83830 		ldrb	r3, [r5, #56]	@ zero_extendqisi2
 920 00a0 02F03002 		and	r2, r2, #48
 921 00a4 9A42     		cmp	r2, r3
 922 00a6 04D0     		beq	.L73
 397:.\Generated_Source\PSoC5/cyPm.c ****                                 cyPmClockBackup.clkImoSrc;
 923              		.loc 1 397 0
 924 00a8 0A78     		ldrb	r2, [r1]	@ zero_extendqisi2
 925 00aa 02F0CF02 		and	r2, r2, #207
 926 00ae 1343     		orrs	r3, r3, r2
 927 00b0 0B70     		strb	r3, [r1]
 928              	.L73:
 403:.\Generated_Source\PSoC5/cyPm.c ****     {
 929              		.loc 1 403 0
 930 00b2 95F83E30 		ldrb	r3, [r5, #62]	@ zero_extendqisi2
 931 00b6 012B     		cmp	r3, #1
 932 00b8 00F08A80 		beq	.L74
 933              	.L78:
 451:.\Generated_Source\PSoC5/cyPm.c ****        (CY_PM_MASTER_CLK_SRC_PLL == cyPmClockBackup.masterClkSrc))
 934              		.loc 1 451 0
 935 00bc 95F83200 		ldrb	r0, [r5, #50]	@ zero_extendqisi2
 936 00c0 534C     		ldr	r4, .L102+4
 937 00c2 0128     		cmp	r0, #1
 938 00c4 2FD9     		bls	.L100
 939              	.L76:
 465:.\Generated_Source\PSoC5/cyPm.c ****        (0u != (CY_PM_ACT_CFG0_IMO & CY_PM_ACT_CFG0_REG)))
 940              		.loc 1 465 0
 941 00c6 95F83630 		ldrb	r3, [r5, #54]	@ zero_extendqisi2
 942 00ca 1BB9     		cbnz	r3, .L81
 466:.\Generated_Source\PSoC5/cyPm.c ****     {
 943              		.loc 1 466 0 discriminator 1
 944 00cc 524B     		ldr	r3, .L102+12
 945 00ce 1B78     		ldrb	r3, [r3]	@ zero_extendqisi2
 465:.\Generated_Source\PSoC5/cyPm.c ****        (0u != (CY_PM_ACT_CFG0_IMO & CY_PM_ACT_CFG0_REG)))
 946              		.loc 1 465 0 discriminator 1
ARM GAS  C:\Users\honet\AppData\Local\Temp\ccQxGmyH.s 			page 53


 947 00d0 DB06     		lsls	r3, r3, #27
 948 00d2 44D4     		bmi	.L101
 949              	.L81:
 472:.\Generated_Source\PSoC5/cyPm.c ****     clkBusDivTmp |= CY_PM_CLK_BUS_LSB_DIV_REG;
 950              		.loc 1 472 0
 951 00d4 514A     		ldr	r2, .L102+16
 473:.\Generated_Source\PSoC5/cyPm.c ****     if(cyPmClockBackup.clkBusDiv != clkBusDivTmp)
 952              		.loc 1 473 0
 953 00d6 524B     		ldr	r3, .L102+20
 472:.\Generated_Source\PSoC5/cyPm.c ****     clkBusDivTmp |= CY_PM_CLK_BUS_LSB_DIV_REG;
 954              		.loc 1 472 0
 955 00d8 1278     		ldrb	r2, [r2]	@ zero_extendqisi2
 956              	.LVL19:
 473:.\Generated_Source\PSoC5/cyPm.c ****     if(cyPmClockBackup.clkBusDiv != clkBusDivTmp)
 957              		.loc 1 473 0
 958 00da 1B78     		ldrb	r3, [r3]	@ zero_extendqisi2
 959              	.LVL20:
 474:.\Generated_Source\PSoC5/cyPm.c ****     {
 960              		.loc 1 474 0
 961 00dc A88F     		ldrh	r0, [r5, #60]
 962 00de 43EA0223 		orr	r3, r3, r2, lsl #8
 963              	.LVL21:
 964 00e2 9842     		cmp	r0, r3
 965 00e4 01D0     		beq	.L82
 476:.\Generated_Source\PSoC5/cyPm.c ****     }
 966              		.loc 1 476 0
 967 00e6 FFF7FEFF 		bl	CyBusClk_SetDivider
 968              	.LVL22:
 969              	.L82:
 480:.\Generated_Source\PSoC5/cyPm.c ****                            cyPmClockBackup.flashWaitCycles);
 970              		.loc 1 480 0
 971 00ea 4E49     		ldr	r1, .L102+24
 972 00ec 95F83520 		ldrb	r2, [r5, #53]	@ zero_extendqisi2
 973 00f0 0B78     		ldrb	r3, [r1]	@ zero_extendqisi2
 484:.\Generated_Source\PSoC5/cyPm.c ****     CY_PM_ACT_CFG2_REG = cyPmClockBackup.enClkD;
 974              		.loc 1 484 0
 975 00f2 95F83060 		ldrb	r6, [r5, #48]	@ zero_extendqisi2
 485:.\Generated_Source\PSoC5/cyPm.c **** }
 976              		.loc 1 485 0
 977 00f6 95F83140 		ldrb	r4, [r5, #49]	@ zero_extendqisi2
 978 00fa 4B48     		ldr	r0, .L102+28
 484:.\Generated_Source\PSoC5/cyPm.c ****     CY_PM_ACT_CFG2_REG = cyPmClockBackup.enClkD;
 979              		.loc 1 484 0
 980 00fc 4B4D     		ldr	r5, .L102+32
 480:.\Generated_Source\PSoC5/cyPm.c ****                            cyPmClockBackup.flashWaitCycles);
 981              		.loc 1 480 0
 982 00fe 03F03F03 		and	r3, r3, #63
 983 0102 1343     		orrs	r3, r3, r2
 984 0104 0B70     		strb	r3, [r1]
 484:.\Generated_Source\PSoC5/cyPm.c ****     CY_PM_ACT_CFG2_REG = cyPmClockBackup.enClkD;
 985              		.loc 1 484 0
 986 0106 2E70     		strb	r6, [r5]
 485:.\Generated_Source\PSoC5/cyPm.c **** }
 987              		.loc 1 485 0
 988 0108 0470     		strb	r4, [r0]
 486:.\Generated_Source\PSoC5/cyPm.c **** 
 989              		.loc 1 486 0
ARM GAS  C:\Users\honet\AppData\Local\Temp\ccQxGmyH.s 			page 54


 990 010a 03B0     		add	sp, sp, #12
 991              		.cfi_remember_state
 992              		.cfi_def_cfa_offset 28
 993              		@ sp needed
 994 010c BDE8F083 		pop	{r4, r5, r6, r7, r8, r9, pc}
 995              	.L98:
 996              		.cfi_restore_state
 379:.\Generated_Source\PSoC5/cyPm.c ****     {
 997              		.loc 1 379 0 discriminator 1
 998 0110 414B     		ldr	r3, .L102+12
 999 0112 1B78     		ldrb	r3, [r3]	@ zero_extendqisi2
 1000 0114 03F01003 		and	r3, r3, #16
 378:.\Generated_Source\PSoC5/cyPm.c ****        (0u == (CY_PM_ACT_CFG0_IMO & CY_PM_ACT_CFG0_REG)))
 1001              		.loc 1 378 0 discriminator 1
 1002 0118 03F0FF00 		and	r0, r3, #255
 1003 011c 002B     		cmp	r3, #0
 1004 011e B2D1     		bne	.L71
 382:.\Generated_Source\PSoC5/cyPm.c ****     }
 1005              		.loc 1 382 0
 1006 0120 FFF7FEFF 		bl	CyIMO_Start
 1007              	.LVL23:
 1008 0124 AFE7     		b	.L71
 1009              	.L100:
 455:.\Generated_Source\PSoC5/cyPm.c ****         {
 1010              		.loc 1 455 0
 1011 0126 424A     		ldr	r2, .L102+36
 1012 0128 94F83A30 		ldrb	r3, [r4, #58]	@ zero_extendqisi2
 1013 012c 1278     		ldrb	r2, [r2]	@ zero_extendqisi2
 1014 012e 9A42     		cmp	r2, r3
 1015 0130 04D0     		beq	.L80
 457:.\Generated_Source\PSoC5/cyPm.c ****         }
 1016              		.loc 1 457 0
 1017 0132 1846     		mov	r0, r3
 1018 0134 FFF7FEFF 		bl	CyMasterClk_SetDivider
 1019              	.LVL24:
 1020 0138 94F83200 		ldrb	r0, [r4, #50]	@ zero_extendqisi2
 1021              	.L80:
 461:.\Generated_Source\PSoC5/cyPm.c ****     }
 1022              		.loc 1 461 0
 1023 013c FFF7FEFF 		bl	CyMasterClk_SetSource
 1024              	.LVL25:
 1025 0140 C1E7     		b	.L76
 1026              	.L96:
 345:.\Generated_Source\PSoC5/cyPm.c ****         {
 1027              		.loc 1 345 0
 1028 0142 3B4A     		ldr	r2, .L102+36
 1029 0144 94F83A30 		ldrb	r3, [r4, #58]	@ zero_extendqisi2
 1030 0148 1278     		ldrb	r2, [r2]	@ zero_extendqisi2
 1031 014a 9A42     		cmp	r2, r3
 1032 014c 04D0     		beq	.L66
 348:.\Generated_Source\PSoC5/cyPm.c ****         }
 1033              		.loc 1 348 0
 1034 014e 1846     		mov	r0, r3
 1035 0150 FFF7FEFF 		bl	CyMasterClk_SetDivider
 1036              	.LVL26:
 1037 0154 94F83200 		ldrb	r0, [r4, #50]	@ zero_extendqisi2
 1038              	.L66:
ARM GAS  C:\Users\honet\AppData\Local\Temp\ccQxGmyH.s 			page 55


 352:.\Generated_Source\PSoC5/cyPm.c ****     }
 1039              		.loc 1 352 0
 1040 0158 FFF7FEFF 		bl	CyMasterClk_SetSource
 1041              	.LVL27:
 1042 015c 72E7     		b	.L63
 1043              	.L101:
 468:.\Generated_Source\PSoC5/cyPm.c ****     }
 1044              		.loc 1 468 0
 1045 015e FFF7FEFF 		bl	CyIMO_Stop
 1046              	.LVL28:
 1047 0162 B7E7     		b	.L81
 1048              	.L99:
 391:.\Generated_Source\PSoC5/cyPm.c ****     }
 1049              		.loc 1 391 0
 1050 0164 FFF7FEFF 		bl	CyIMO_EnableDoubler
 1051              	.LVL29:
 1052 0168 95E7     		b	.L72
 1053              	.L95:
 285:.\Generated_Source\PSoC5/cyPm.c **** 
 1054              		.loc 1 285 0
 1055 016a 2A4B     		ldr	r3, .L102+8
 1056 016c 1B78     		ldrb	r3, [r3]	@ zero_extendqisi2
 1057 016e 03F00703 		and	r3, r3, #7
 284:.\Generated_Source\PSoC5/cyPm.c ****                         CY_PM_GET_CPU_FREQ_MHZ);
 1058              		.loc 1 284 0
 1059 0172 F05C     		ldrb	r0, [r6, r3]	@ zero_extendqisi2
 1060 0174 00EB8000 		add	r0, r0, r0, lsl #2
 1061 0178 C0EB0010 		rsb	r0, r0, r0, lsl #4
 1062 017c FFF7FEFF 		bl	CyDelayCycles
 1063              	.LVL30:
 287:.\Generated_Source\PSoC5/cyPm.c ****     }
 1064              		.loc 1 287 0
 1065 0180 2C4A     		ldr	r2, .L102+40
 1066 0182 1378     		ldrb	r3, [r2]	@ zero_extendqisi2
 1067 0184 43F00403 		orr	r3, r3, #4
 1068 0188 1370     		strb	r3, [r2]
 291:.\Generated_Source\PSoC5/cyPm.c ****     {
 1069              		.loc 1 291 0
 1070 018a 95F83F30 		ldrb	r3, [r5, #63]	@ zero_extendqisi2
 1071 018e 012B     		cmp	r3, #1
 1072 0190 7FF44FAF 		bne	.L64
 1073              	.L61:
 301:.\Generated_Source\PSoC5/cyPm.c **** 
 1074              		.loc 1 301 0
 1075 0194 0020     		movs	r0, #0
 1076 0196 FFF7FEFF 		bl	CyXTAL_Start
 1077              	.LVL31:
 304:.\Generated_Source\PSoC5/cyPm.c **** 
 1078              		.loc 1 304 0
 1079 019a 274B     		ldr	r3, .L102+44
 310:.\Generated_Source\PSoC5/cyPm.c **** 
 1080              		.loc 1 310 0
 1081 019c DFF87490 		ldr	r9, .L102+8
 313:.\Generated_Source\PSoC5/cyPm.c ****             {
 1082              		.loc 1 313 0
 1083 01a0 9846     		mov	r8, r3
 304:.\Generated_Source\PSoC5/cyPm.c **** 
ARM GAS  C:\Users\honet\AppData\Local\Temp\ccQxGmyH.s 			page 56


 1084              		.loc 1 304 0
 1085 01a2 1B78     		ldrb	r3, [r3]	@ zero_extendqisi2
 1086              	.LVL32:
 1087 01a4 0524     		movs	r4, #5
 310:.\Generated_Source\PSoC5/cyPm.c **** 
 1088              		.loc 1 310 0
 1089 01a6 C827     		movs	r7, #200
 1090              	.LVL33:
 1091              	.L65:
 1092 01a8 99F80030 		ldrb	r3, [r9]	@ zero_extendqisi2
 1093 01ac 013C     		subs	r4, r4, #1
 1094 01ae 03F00703 		and	r3, r3, #7
 1095 01b2 F05C     		ldrb	r0, [r6, r3]	@ zero_extendqisi2
 1096 01b4 A4B2     		uxth	r4, r4
 1097 01b6 07FB00F0 		mul	r0, r7, r0
 1098 01ba FFF7FEFF 		bl	CyDelayCycles
 1099              	.LVL34:
 313:.\Generated_Source\PSoC5/cyPm.c ****             {
 1100              		.loc 1 313 0
 1101 01be 98F80030 		ldrb	r3, [r8]	@ zero_extendqisi2
 1102 01c2 13F0800F 		tst	r3, #128
 1103 01c6 3FF434AF 		beq	.L64
 307:.\Generated_Source\PSoC5/cyPm.c ****         {
 1104              		.loc 1 307 0 discriminator 2
 1105 01ca 002C     		cmp	r4, #0
 1106 01cc ECD1     		bne	.L65
 1107 01ce 30E7     		b	.L64
 1108              	.L74:
 414:.\Generated_Source\PSoC5/cyPm.c **** 
 1109              		.loc 1 414 0
 1110 01d0 0020     		movs	r0, #0
 1111 01d2 FFF7FEFF 		bl	CyPLL_OUT_Start
 1112              	.LVL35:
 417:.\Generated_Source\PSoC5/cyPm.c ****         (void) CY_PM_FASTCLK_PLL_SR_REG;
 1113              		.loc 1 417 0
 1114 01d6 5020     		movs	r0, #80
 1115 01d8 FFF7FEFF 		bl	CyDelayUs
 1116              	.LVL36:
 418:.\Generated_Source\PSoC5/cyPm.c **** 
 1117              		.loc 1 418 0
 1118 01dc 174B     		ldr	r3, .L102+48
 1119 01de AB24     		movs	r4, #171
 426:.\Generated_Source\PSoC5/cyPm.c ****                (0u != (CY_PM_FASTCLK_PLL_SR_REG & CY_PM_FASTCLK_PLL_LOCKED)))
 1120              		.loc 1 426 0
 1121 01e0 1E46     		mov	r6, r3
 418:.\Generated_Source\PSoC5/cyPm.c **** 
 1122              		.loc 1 418 0
 1123 01e2 1B78     		ldrb	r3, [r3]	@ zero_extendqisi2
 1124              	.LVL37:
 1125              	.L79:
 423:.\Generated_Source\PSoC5/cyPm.c **** 
 1126              		.loc 1 423 0
 1127 01e4 0120     		movs	r0, #1
 1128 01e6 FFF7FEFF 		bl	CyDelayUs
 1129              	.LVL38:
 426:.\Generated_Source\PSoC5/cyPm.c ****                (0u != (CY_PM_FASTCLK_PLL_SR_REG & CY_PM_FASTCLK_PLL_LOCKED)))
 1130              		.loc 1 426 0
ARM GAS  C:\Users\honet\AppData\Local\Temp\ccQxGmyH.s 			page 57


 1131 01ea 3378     		ldrb	r3, [r6]	@ zero_extendqisi2
 1132 01ec 013C     		subs	r4, r4, #1
 1133 01ee 13F0010F 		tst	r3, #1
 1134 01f2 A4B2     		uxth	r4, r4
 1135 01f4 03D0     		beq	.L77
 427:.\Generated_Source\PSoC5/cyPm.c ****             {
 1136              		.loc 1 427 0 discriminator 1
 1137 01f6 3378     		ldrb	r3, [r6]	@ zero_extendqisi2
 426:.\Generated_Source\PSoC5/cyPm.c ****                (0u != (CY_PM_FASTCLK_PLL_SR_REG & CY_PM_FASTCLK_PLL_LOCKED)))
 1138              		.loc 1 426 0 discriminator 1
 1139 01f8 DA07     		lsls	r2, r3, #31
 1140 01fa 3FF55FAF 		bmi	.L78
 1141              	.L77:
 421:.\Generated_Source\PSoC5/cyPm.c ****         {
 1142              		.loc 1 421 0 discriminator 2
 1143 01fe 002C     		cmp	r4, #0
 1144 0200 F0D1     		bne	.L79
 1145 0202 5BE7     		b	.L78
 1146              	.L97:
 360:.\Generated_Source\PSoC5/cyPm.c ****     }
 1147              		.loc 1 360 0
 1148 0204 0820     		movs	r0, #8
 1149 0206 FFF7FEFF 		bl	CyIMO_SetFreq
 1150              	.LVL39:
 1151 020a 38E7     		b	.L69
 1152              	.L103:
 1153              		.align	2
 1154              	.L102:
 1155 020c 00000000 		.word	.LANCHOR1
 1156 0210 00000000 		.word	.LANCHOR0
 1157 0214 00420040 		.word	1073758720
 1158 0218 A0430040 		.word	1073759136
 1159 021c 07400040 		.word	1073758215
 1160 0220 06400040 		.word	1073758214
 1161 0224 00480040 		.word	1073760256
 1162 0228 A2430040 		.word	1073759138
 1163 022c A1430040 		.word	1073759137
 1164 0230 04400040 		.word	1073758212
 1165 0234 0B400040 		.word	1073758219
 1166 0238 10420040 		.word	1073758736
 1167 023c 25420040 		.word	1073758757
 1168              		.cfi_endproc
 1169              	.LFE1:
 1170              		.size	CyPmRestoreClocks, .-CyPmRestoreClocks
 1171              		.section	.text.CyPmAltAct,"ax",%progbits
 1172              		.align	2
 1173              		.global	CyPmAltAct
 1174              		.thumb
 1175              		.thumb_func
 1176              		.type	CyPmAltAct, %function
 1177              	CyPmAltAct:
 1178              	.LFB2:
 626:.\Generated_Source\PSoC5/cyPm.c ****     #if(CY_PSOC5)
 1179              		.loc 1 626 0
 1180              		.cfi_startproc
 1181              		@ args = 0, pretend = 0, frame = 0
 1182              		@ frame_needed = 0, uses_anonymous_args = 0
ARM GAS  C:\Users\honet\AppData\Local\Temp\ccQxGmyH.s 			page 58


 1183              	.LVL40:
 1184 0000 F0B5     		push	{r4, r5, r6, r7, lr}
 1185              		.cfi_def_cfa_offset 20
 1186              		.cfi_offset 4, -20
 1187              		.cfi_offset 5, -16
 1188              		.cfi_offset 6, -12
 1189              		.cfi_offset 7, -8
 1190              		.cfi_offset 14, -4
 677:.\Generated_Source\PSoC5/cyPm.c ****     CY_PM_WAKEUP_CFG0_REG = (uint8) (wakeupSource >> 4u);
 1191              		.loc 1 677 0
 1192 0002 154D     		ldr	r5, .L106
 678:.\Generated_Source\PSoC5/cyPm.c **** 
 1193              		.loc 1 678 0
 1194 0004 C1F30712 		ubfx	r2, r1, #4, #8
 681:.\Generated_Source\PSoC5/cyPm.c ****     CY_PM_WAKEUP_CFG1_REG = (((uint8) wakeupSource) & CY_PM_WAKEUP_SRC_CMPS_MASK);
 1195              		.loc 1 681 0
 1196 0008 144C     		ldr	r4, .L106+4
 677:.\Generated_Source\PSoC5/cyPm.c ****     CY_PM_WAKEUP_CFG0_REG = (uint8) (wakeupSource >> 4u);
 1197              		.loc 1 677 0
 1198 000a 95F800C0 		ldrb	ip, [r5]	@ zero_extendqisi2
 682:.\Generated_Source\PSoC5/cyPm.c **** 
 1199              		.loc 1 682 0
 1200 000e 01F00F03 		and	r3, r1, #15
 678:.\Generated_Source\PSoC5/cyPm.c **** 
 1201              		.loc 1 678 0
 1202 0012 2A70     		strb	r2, [r5]
 685:.\Generated_Source\PSoC5/cyPm.c ****     CY_PM_WAKEUP_CFG2_REG = ((uint8) ((wakeupSource >> 12u) & 0x01u));
 1203              		.loc 1 685 0
 1204 0014 1248     		ldr	r0, .L106+8
 1205              	.LVL41:
 681:.\Generated_Source\PSoC5/cyPm.c ****     CY_PM_WAKEUP_CFG1_REG = (((uint8) wakeupSource) & CY_PM_WAKEUP_SRC_CMPS_MASK);
 1206              		.loc 1 681 0
 1207 0016 94F800E0 		ldrb	lr, [r4]	@ zero_extendqisi2
 690:.\Generated_Source\PSoC5/cyPm.c **** 
 1208              		.loc 1 690 0
 1209 001a 124E     		ldr	r6, .L106+12
 682:.\Generated_Source\PSoC5/cyPm.c **** 
 1210              		.loc 1 682 0
 1211 001c 2370     		strb	r3, [r4]
 686:.\Generated_Source\PSoC5/cyPm.c **** 
 1212              		.loc 1 686 0
 1213 001e C1F30031 		ubfx	r1, r1, #12, #1
 1214              	.LVL42:
 685:.\Generated_Source\PSoC5/cyPm.c ****     CY_PM_WAKEUP_CFG2_REG = ((uint8) ((wakeupSource >> 12u) & 0x01u));
 1215              		.loc 1 685 0
 1216 0022 0778     		ldrb	r7, [r0]	@ zero_extendqisi2
 686:.\Generated_Source\PSoC5/cyPm.c **** 
 1217              		.loc 1 686 0
 1218 0024 0170     		strb	r1, [r0]
 690:.\Generated_Source\PSoC5/cyPm.c **** 
 1219              		.loc 1 690 0
 1220 0026 3278     		ldrb	r2, [r6]	@ zero_extendqisi2
 677:.\Generated_Source\PSoC5/cyPm.c ****     CY_PM_WAKEUP_CFG0_REG = (uint8) (wakeupSource >> 4u);
 1221              		.loc 1 677 0
 1222 0028 0F4B     		ldr	r3, .L106+16
 690:.\Generated_Source\PSoC5/cyPm.c **** 
 1223              		.loc 1 690 0
ARM GAS  C:\Users\honet\AppData\Local\Temp\ccQxGmyH.s 			page 59


 1224 002a 02F0F802 		and	r2, r2, #248
 1225 002e 42F00102 		orr	r2, r2, #1
 1226 0032 3270     		strb	r2, [r6]
 677:.\Generated_Source\PSoC5/cyPm.c ****     CY_PM_WAKEUP_CFG0_REG = (uint8) (wakeupSource >> 4u);
 1227              		.loc 1 677 0
 1228 0034 83F804C0 		strb	ip, [r3, #4]
 681:.\Generated_Source\PSoC5/cyPm.c ****     CY_PM_WAKEUP_CFG1_REG = (((uint8) wakeupSource) & CY_PM_WAKEUP_SRC_CMPS_MASK);
 1229              		.loc 1 681 0
 1230 0038 83F805E0 		strb	lr, [r3, #5]
 685:.\Generated_Source\PSoC5/cyPm.c ****     CY_PM_WAKEUP_CFG2_REG = ((uint8) ((wakeupSource >> 12u) & 0x01u));
 1231              		.loc 1 685 0
 1232 003c 9F71     		strb	r7, [r3, #6]
 693:.\Generated_Source\PSoC5/cyPm.c **** 
 1233              		.loc 1 693 0
 1234 003e 3278     		ldrb	r2, [r6]	@ zero_extendqisi2
 696:.\Generated_Source\PSoC5/cyPm.c ****     CY_NOP;
 1235              		.loc 1 696 0
 1236              	@ 696 ".\Generated_Source\PSoC5\cyPm.c" 1
 1237 0040 00BF     		NOP
 1238              	
 1239              	@ 0 "" 2
 697:.\Generated_Source\PSoC5/cyPm.c **** 
 1240              		.loc 1 697 0
 1241              	@ 697 ".\Generated_Source\PSoC5\cyPm.c" 1
 1242 0042 00BF     		NOP
 1243              	
 1244              	@ 0 "" 2
 700:.\Generated_Source\PSoC5/cyPm.c **** 
 1245              		.loc 1 700 0
 1246              	@ 700 ".\Generated_Source\PSoC5\cyPm.c" 1
 1247 0044 30BF     		WFI 
 1248              	
 1249              	@ 0 "" 2
 705:.\Generated_Source\PSoC5/cyPm.c ****     CY_PM_WAKEUP_CFG1_REG = cyPmBackup.wakeupCfg1;
 1250              		.loc 1 705 0
 1251              		.thumb
 1252 0046 5FFA8CF1 		uxtb	r1, ip
 706:.\Generated_Source\PSoC5/cyPm.c ****     CY_PM_WAKEUP_CFG2_REG = cyPmBackup.wakeupCfg2;
 1253              		.loc 1 706 0
 1254 004a 5FFA8EF2 		uxtb	r2, lr
 707:.\Generated_Source\PSoC5/cyPm.c **** }
 1255              		.loc 1 707 0
 1256 004e FBB2     		uxtb	r3, r7
 705:.\Generated_Source\PSoC5/cyPm.c ****     CY_PM_WAKEUP_CFG1_REG = cyPmBackup.wakeupCfg1;
 1257              		.loc 1 705 0
 1258 0050 2970     		strb	r1, [r5]
 706:.\Generated_Source\PSoC5/cyPm.c ****     CY_PM_WAKEUP_CFG2_REG = cyPmBackup.wakeupCfg2;
 1259              		.loc 1 706 0
 1260 0052 2270     		strb	r2, [r4]
 707:.\Generated_Source\PSoC5/cyPm.c **** }
 1261              		.loc 1 707 0
 1262 0054 0370     		strb	r3, [r0]
 1263 0056 F0BD     		pop	{r4, r5, r6, r7, pc}
 1264              	.L107:
 1265              		.align	2
 1266              	.L106:
 1267 0058 98430040 		.word	1073759128
ARM GAS  C:\Users\honet\AppData\Local\Temp\ccQxGmyH.s 			page 60


 1268 005c 99430040 		.word	1073759129
 1269 0060 9A430040 		.word	1073759130
 1270 0064 93430040 		.word	1073759123
 1271 0068 00000000 		.word	.LANCHOR0
 1272              		.cfi_endproc
 1273              	.LFE2:
 1274              		.size	CyPmAltAct, .-CyPmAltAct
 1275              		.section	.text.CyPmSleep,"ax",%progbits
 1276              		.align	2
 1277              		.global	CyPmSleep
 1278              		.thumb
 1279              		.thumb_func
 1280              		.type	CyPmSleep, %function
 1281              	CyPmSleep:
 1282              	.LFB3:
 825:.\Generated_Source\PSoC5/cyPm.c ****     uint8 interruptState;
 1283              		.loc 1 825 0
 1284              		.cfi_startproc
 1285              		@ args = 0, pretend = 0, frame = 0
 1286              		@ frame_needed = 0, uses_anonymous_args = 0
 1287              	.LVL43:
 1288 0000 F8B5     		push	{r3, r4, r5, r6, r7, lr}
 1289              		.cfi_def_cfa_offset 24
 1290              		.cfi_offset 3, -24
 1291              		.cfi_offset 4, -20
 1292              		.cfi_offset 5, -16
 1293              		.cfi_offset 6, -12
 1294              		.cfi_offset 7, -8
 1295              		.cfi_offset 14, -4
 825:.\Generated_Source\PSoC5/cyPm.c ****     uint8 interruptState;
 1296              		.loc 1 825 0
 1297 0002 0D46     		mov	r5, r1
 829:.\Generated_Source\PSoC5/cyPm.c **** 
 1298              		.loc 1 829 0
 1299 0004 FFF7FEFF 		bl	CyEnterCriticalSection
 1300              	.LVL44:
 838:.\Generated_Source\PSoC5/cyPm.c ****     {
 1301              		.loc 1 838 0
 1302 0008 314B     		ldr	r3, .L122
 1303 000a 1B78     		ldrb	r3, [r3]	@ zero_extendqisi2
 1304 000c 03F00803 		and	r3, r3, #8
 1305 0010 03F0FF07 		and	r7, r3, #255
 1306 0014 002B     		cmp	r3, #0
 1307 0016 52D1     		bne	.L119
 841:.\Generated_Source\PSoC5/cyPm.c ****     }
 1308              		.loc 1 841 0
 1309 0018 2E4A     		ldr	r2, .L122+4
 1310 001a 0646     		mov	r6, r0
 1311              	.LVL45:
 1312 001c 1378     		ldrb	r3, [r2]	@ zero_extendqisi2
 951:.\Generated_Source\PSoC5/cyPm.c ****     CY_PM_WAKEUP_CFG0_REG = (uint8) (wakeupSource >> 4u);
 1313              		.loc 1 951 0
 1314 001e 2E4C     		ldr	r4, .L122+8
 841:.\Generated_Source\PSoC5/cyPm.c ****     }
 1315              		.loc 1 841 0
 1316 0020 03F01F03 		and	r3, r3, #31
 1317 0024 1370     		strb	r3, [r2]
ARM GAS  C:\Users\honet\AppData\Local\Temp\ccQxGmyH.s 			page 61


 920:.\Generated_Source\PSoC5/cyPm.c **** 
 1318              		.loc 1 920 0
 1319 0026 FFF7FEFF 		bl	CyPmHibSlpSaveSet
 1320              	.LVL46:
 951:.\Generated_Source\PSoC5/cyPm.c ****     CY_PM_WAKEUP_CFG0_REG = (uint8) (wakeupSource >> 4u);
 1321              		.loc 1 951 0
 1322 002a 2C4A     		ldr	r2, .L122+12
 952:.\Generated_Source\PSoC5/cyPm.c **** 
 1323              		.loc 1 952 0
 1324 002c C5F30710 		ubfx	r0, r5, #4, #8
 955:.\Generated_Source\PSoC5/cyPm.c ****     CY_PM_WAKEUP_CFG1_REG = (((uint8) wakeupSource) & CY_PM_WAKEUP_SRC_CMPS_MASK);
 1325              		.loc 1 955 0
 1326 0030 2B4B     		ldr	r3, .L122+16
 951:.\Generated_Source\PSoC5/cyPm.c ****     CY_PM_WAKEUP_CFG0_REG = (uint8) (wakeupSource >> 4u);
 1327              		.loc 1 951 0
 1328 0032 92F800E0 		ldrb	lr, [r2]	@ zero_extendqisi2
 956:.\Generated_Source\PSoC5/cyPm.c **** 
 1329              		.loc 1 956 0
 1330 0036 05F00F01 		and	r1, r5, #15
 952:.\Generated_Source\PSoC5/cyPm.c **** 
 1331              		.loc 1 952 0
 1332 003a 1070     		strb	r0, [r2]
 955:.\Generated_Source\PSoC5/cyPm.c ****     CY_PM_WAKEUP_CFG1_REG = (((uint8) wakeupSource) & CY_PM_WAKEUP_SRC_CMPS_MASK);
 1333              		.loc 1 955 0
 1334 003c 1878     		ldrb	r0, [r3]	@ zero_extendqisi2
 960:.\Generated_Source\PSoC5/cyPm.c **** 
 1335              		.loc 1 960 0
 1336 003e C5F30035 		ubfx	r5, r5, #12, #1
 956:.\Generated_Source\PSoC5/cyPm.c **** 
 1337              		.loc 1 956 0
 1338 0042 1970     		strb	r1, [r3]
 976:.\Generated_Source\PSoC5/cyPm.c ****     {
 1339              		.loc 1 976 0
 1340 0044 6FF4CC71 		mvn	r1, #408
 1341 0048 0B44     		add	r3, r3, r1
 959:.\Generated_Source\PSoC5/cyPm.c ****     CY_PM_WAKEUP_CFG2_REG = ((uint8) ((wakeupSource >> 12u) & 0x01u));
 1342              		.loc 1 959 0
 1343 004a 9178     		ldrb	r1, [r2, #2]	@ zero_extendqisi2
 960:.\Generated_Source\PSoC5/cyPm.c **** 
 1344              		.loc 1 960 0
 1345 004c 9570     		strb	r5, [r2, #2]
 976:.\Generated_Source\PSoC5/cyPm.c ****     {
 1346              		.loc 1 976 0
 1347 004e 1A78     		ldrb	r2, [r3]	@ zero_extendqisi2
 955:.\Generated_Source\PSoC5/cyPm.c ****     CY_PM_WAKEUP_CFG1_REG = (((uint8) wakeupSource) & CY_PM_WAKEUP_SRC_CMPS_MASK);
 1348              		.loc 1 955 0
 1349 0050 6071     		strb	r0, [r4, #5]
 976:.\Generated_Source\PSoC5/cyPm.c ****     {
 1350              		.loc 1 976 0
 1351 0052 5007     		lsls	r0, r2, #29
 951:.\Generated_Source\PSoC5/cyPm.c ****     CY_PM_WAKEUP_CFG0_REG = (uint8) (wakeupSource >> 4u);
 1352              		.loc 1 951 0
 1353 0054 84F804E0 		strb	lr, [r4, #4]
 959:.\Generated_Source\PSoC5/cyPm.c ****     CY_PM_WAKEUP_CFG2_REG = ((uint8) ((wakeupSource >> 12u) & 0x01u));
 1354              		.loc 1 959 0
 1355 0058 A171     		strb	r1, [r4, #6]
 976:.\Generated_Source\PSoC5/cyPm.c ****     {
ARM GAS  C:\Users\honet\AppData\Local\Temp\ccQxGmyH.s 			page 62


 1356              		.loc 1 976 0
 1357 005a 34D0     		beq	.L121
 987:.\Generated_Source\PSoC5/cyPm.c **** 
 1358              		.loc 1 987 0
 1359 005c 1978     		ldrb	r1, [r3]	@ zero_extendqisi2
 990:.\Generated_Source\PSoC5/cyPm.c ****     }
 1360              		.loc 1 990 0
 1361 005e 1A78     		ldrb	r2, [r3]	@ zero_extendqisi2
 987:.\Generated_Source\PSoC5/cyPm.c **** 
 1362              		.loc 1 987 0
 1363 0060 01F00701 		and	r1, r1, #7
 990:.\Generated_Source\PSoC5/cyPm.c ****     }
 1364              		.loc 1 990 0
 1365 0064 02F0F802 		and	r2, r2, #248
 984:.\Generated_Source\PSoC5/cyPm.c **** 
 1366              		.loc 1 984 0
 1367 0068 84F82D70 		strb	r7, [r4, #45]
 987:.\Generated_Source\PSoC5/cyPm.c **** 
 1368              		.loc 1 987 0
 1369 006c 84F82C10 		strb	r1, [r4, #44]
 990:.\Generated_Source\PSoC5/cyPm.c ****     }
 1370              		.loc 1 990 0
 1371 0070 1A70     		strb	r2, [r3]
 1372              	.L112:
 994:.\Generated_Source\PSoC5/cyPm.c **** 
 1373              		.loc 1 994 0
 1374 0072 174A     		ldr	r2, .L122
 1375 0074 1378     		ldrb	r3, [r2]	@ zero_extendqisi2
 1376 0076 03F0F803 		and	r3, r3, #248
 1377 007a 43F00303 		orr	r3, r3, #3
 1378 007e 1370     		strb	r3, [r2]
 997:.\Generated_Source\PSoC5/cyPm.c **** 
 1379              		.loc 1 997 0
 1380 0080 1378     		ldrb	r3, [r2]	@ zero_extendqisi2
1000:.\Generated_Source\PSoC5/cyPm.c ****     CY_NOP;
 1381              		.loc 1 1000 0
 1382              	@ 1000 ".\Generated_Source\PSoC5\cyPm.c" 1
 1383 0082 00BF     		NOP
 1384              	
 1385              	@ 0 "" 2
1001:.\Generated_Source\PSoC5/cyPm.c **** 
 1386              		.loc 1 1001 0
 1387              	@ 1001 ".\Generated_Source\PSoC5\cyPm.c" 1
 1388 0084 00BF     		NOP
 1389              	
 1390              	@ 0 "" 2
1004:.\Generated_Source\PSoC5/cyPm.c **** 
 1391              		.loc 1 1004 0
 1392              	@ 1004 ".\Generated_Source\PSoC5\cyPm.c" 1
 1393 0086 30BF     		WFI 
 1394              	
 1395              	@ 0 "" 2
1009:.\Generated_Source\PSoC5/cyPm.c ****     {
 1396              		.loc 1 1009 0
 1397              		.thumb
 1398 0088 94F82D30 		ldrb	r3, [r4, #45]	@ zero_extendqisi2
 1399 008c 124A     		ldr	r2, .L122+8
ARM GAS  C:\Users\honet\AppData\Local\Temp\ccQxGmyH.s 			page 63


 1400 008e 012B     		cmp	r3, #1
 1401 0090 07D0     		beq	.L113
1011:.\Generated_Source\PSoC5/cyPm.c ****                                     cyPmBackup.imoActFreq;
 1402              		.loc 1 1011 0
 1403 0092 1449     		ldr	r1, .L122+20
 1404 0094 92F82C20 		ldrb	r2, [r2, #44]	@ zero_extendqisi2
 1405 0098 0B78     		ldrb	r3, [r1]	@ zero_extendqisi2
 1406 009a 03F0F803 		and	r3, r3, #248
 1407 009e 1343     		orrs	r3, r3, r2
 1408 00a0 0B70     		strb	r3, [r1]
 1409              	.L113:
1029:.\Generated_Source\PSoC5/cyPm.c **** 
 1410              		.loc 1 1029 0
 1411 00a2 FFF7FEFF 		bl	CyPmHibSlpRestore
 1412              	.LVL47:
1056:.\Generated_Source\PSoC5/cyPm.c **** }
 1413              		.loc 1 1056 0
 1414 00a6 3046     		mov	r0, r6
1051:.\Generated_Source\PSoC5/cyPm.c ****     CY_PM_WAKEUP_CFG1_REG = cyPmBackup.wakeupCfg1;
 1415              		.loc 1 1051 0
 1416 00a8 94F804E0 		ldrb	lr, [r4, #4]	@ zero_extendqisi2
1052:.\Generated_Source\PSoC5/cyPm.c ****     CY_PM_WAKEUP_CFG2_REG = cyPmBackup.wakeupCfg2;
 1417              		.loc 1 1052 0
 1418 00ac 6579     		ldrb	r5, [r4, #5]	@ zero_extendqisi2
1053:.\Generated_Source\PSoC5/cyPm.c **** 
 1419              		.loc 1 1053 0
 1420 00ae A279     		ldrb	r2, [r4, #6]	@ zero_extendqisi2
1051:.\Generated_Source\PSoC5/cyPm.c ****     CY_PM_WAKEUP_CFG1_REG = cyPmBackup.wakeupCfg1;
 1421              		.loc 1 1051 0
 1422 00b0 0A4F     		ldr	r7, .L122+12
1052:.\Generated_Source\PSoC5/cyPm.c ****     CY_PM_WAKEUP_CFG2_REG = cyPmBackup.wakeupCfg2;
 1423              		.loc 1 1052 0
 1424 00b2 0B49     		ldr	r1, .L122+16
1053:.\Generated_Source\PSoC5/cyPm.c **** 
 1425              		.loc 1 1053 0
 1426 00b4 0C4B     		ldr	r3, .L122+24
1051:.\Generated_Source\PSoC5/cyPm.c ****     CY_PM_WAKEUP_CFG1_REG = cyPmBackup.wakeupCfg1;
 1427              		.loc 1 1051 0
 1428 00b6 87F800E0 		strb	lr, [r7]
1052:.\Generated_Source\PSoC5/cyPm.c ****     CY_PM_WAKEUP_CFG2_REG = cyPmBackup.wakeupCfg2;
 1429              		.loc 1 1052 0
 1430 00ba 0D70     		strb	r5, [r1]
1053:.\Generated_Source\PSoC5/cyPm.c **** 
 1431              		.loc 1 1053 0
 1432 00bc 1A70     		strb	r2, [r3]
 1433              	.L119:
1057:.\Generated_Source\PSoC5/cyPm.c **** 
 1434              		.loc 1 1057 0
 1435 00be BDE8F840 		pop	{r3, r4, r5, r6, r7, lr}
 1436              		.cfi_remember_state
 1437              		.cfi_restore 14
 1438              		.cfi_restore 7
 1439              		.cfi_restore 6
 1440              		.cfi_restore 5
 1441              		.cfi_restore 4
 1442              		.cfi_restore 3
 1443              		.cfi_def_cfa_offset 0
ARM GAS  C:\Users\honet\AppData\Local\Temp\ccQxGmyH.s 			page 64


1056:.\Generated_Source\PSoC5/cyPm.c **** }
 1444              		.loc 1 1056 0
 1445 00c2 FFF7FEBF 		b	CyExitCriticalSection
 1446              	.LVL48:
 1447              	.L121:
 1448              		.cfi_restore_state
 979:.\Generated_Source\PSoC5/cyPm.c ****     }
 1449              		.loc 1 979 0
 1450 00c6 0123     		movs	r3, #1
 1451 00c8 84F82D30 		strb	r3, [r4, #45]
 1452 00cc D1E7     		b	.L112
 1453              	.L123:
 1454 00ce 00BF     		.align	2
 1455              	.L122:
 1456 00d0 93430040 		.word	1073759123
 1457 00d4 83460040 		.word	1073759875
 1458 00d8 00000000 		.word	.LANCHOR0
 1459 00dc 98430040 		.word	1073759128
 1460 00e0 99430040 		.word	1073759129
 1461 00e4 00420040 		.word	1073758720
 1462 00e8 9A430040 		.word	1073759130
 1463              		.cfi_endproc
 1464              	.LFE3:
 1465              		.size	CyPmSleep, .-CyPmSleep
 1466              		.section	.text.CyPmHibernateEx,"ax",%progbits
 1467              		.align	2
 1468              		.global	CyPmHibernateEx
 1469              		.thumb
 1470              		.thumb_func
 1471              		.type	CyPmHibernateEx, %function
 1472              	CyPmHibernateEx:
 1473              	.LFB5:
1157:.\Generated_Source\PSoC5/cyPm.c ****     uint8 interruptState;
 1474              		.loc 1 1157 0
 1475              		.cfi_startproc
 1476              		@ args = 0, pretend = 0, frame = 0
 1477              		@ frame_needed = 0, uses_anonymous_args = 0
 1478              	.LVL49:
 1479 0000 2DE9F047 		push	{r4, r5, r6, r7, r8, r9, r10, lr}
 1480              		.cfi_def_cfa_offset 32
 1481              		.cfi_offset 4, -32
 1482              		.cfi_offset 5, -28
 1483              		.cfi_offset 6, -24
 1484              		.cfi_offset 7, -20
 1485              		.cfi_offset 8, -16
 1486              		.cfi_offset 9, -12
 1487              		.cfi_offset 10, -8
 1488              		.cfi_offset 14, -4
1157:.\Generated_Source\PSoC5/cyPm.c ****     uint8 interruptState;
 1489              		.loc 1 1157 0
 1490 0004 0646     		mov	r6, r0
1161:.\Generated_Source\PSoC5/cyPm.c **** 
 1491              		.loc 1 1161 0
 1492 0006 FFF7FEFF 		bl	CyEnterCriticalSection
 1493              	.LVL50:
1169:.\Generated_Source\PSoC5/cyPm.c ****         {
 1494              		.loc 1 1169 0
ARM GAS  C:\Users\honet\AppData\Local\Temp\ccQxGmyH.s 			page 65


 1495 000a 924B     		ldr	r3, .L164
 1496 000c 1B78     		ldrb	r3, [r3]	@ zero_extendqisi2
 1497 000e 1C07     		lsls	r4, r3, #28
 1498 0010 00F1C680 		bmi	.L153
1172:.\Generated_Source\PSoC5/cyPm.c ****         }
 1499              		.loc 1 1172 0
 1500 0014 9049     		ldr	r1, .L164+4
 1501              	.LBB10:
 1502              	.LBB11:
1325:.\Generated_Source\PSoC5/cyPm.c ****     {
 1503              		.loc 1 1325 0
 1504 0016 914A     		ldr	r2, .L164+8
 1505              	.LBE11:
 1506              	.LBE10:
1172:.\Generated_Source\PSoC5/cyPm.c ****         }
 1507              		.loc 1 1172 0
 1508 0018 0B78     		ldrb	r3, [r1]	@ zero_extendqisi2
 1509 001a 0546     		mov	r5, r0
 1510              	.LVL51:
 1511 001c 03F01F03 		and	r3, r3, #31
 1512 0020 0B70     		strb	r3, [r1]
 1513              	.LBB27:
 1514              	.LBB18:
1325:.\Generated_Source\PSoC5/cyPm.c ****     {
 1515              		.loc 1 1325 0
 1516 0022 1378     		ldrb	r3, [r2]	@ zero_extendqisi2
 1517 0024 5807     		lsls	r0, r3, #29
 1518 0026 03D5     		bpl	.L126
1339:.\Generated_Source\PSoC5/cyPm.c ****     }
 1519              		.loc 1 1339 0
 1520 0028 1378     		ldrb	r3, [r2]	@ zero_extendqisi2
 1521 002a 03F0FB03 		and	r3, r3, #251
 1522 002e 1370     		strb	r3, [r2]
 1523              	.L126:
1344:.\Generated_Source\PSoC5/cyPm.c **** 
 1524              		.loc 1 1344 0
 1525 0030 0120     		movs	r0, #1
 1526 0032 FFF7FEFF 		bl	CyILO_SetPowerMode
 1527              	.LVL52:
 1528 0036 8A4C     		ldr	r4, .L164+12
1347:.\Generated_Source\PSoC5/cyPm.c ****                                 CY_PM_DISABLED : CY_PM_ENABLED;
 1529              		.loc 1 1347 0
 1530 0038 8A4B     		ldr	r3, .L164+16
1356:.\Generated_Source\PSoC5/cyPm.c ****     {
 1531              		.loc 1 1356 0
 1532 003a 874F     		ldr	r7, .L164+4
1344:.\Generated_Source\PSoC5/cyPm.c **** 
 1533              		.loc 1 1344 0
 1534 003c 2070     		strb	r0, [r4]
1347:.\Generated_Source\PSoC5/cyPm.c ****                                 CY_PM_DISABLED : CY_PM_ENABLED;
 1535              		.loc 1 1347 0
 1536 003e 1978     		ldrb	r1, [r3]	@ zero_extendqisi2
1351:.\Generated_Source\PSoC5/cyPm.c ****                                 CY_PM_DISABLED : CY_PM_ENABLED;
 1537              		.loc 1 1351 0
 1538 0040 1A78     		ldrb	r2, [r3]	@ zero_extendqisi2
1356:.\Generated_Source\PSoC5/cyPm.c ****     {
 1539              		.loc 1 1356 0
ARM GAS  C:\Users\honet\AppData\Local\Temp\ccQxGmyH.s 			page 66


 1540 0042 3B78     		ldrb	r3, [r7]	@ zero_extendqisi2
1352:.\Generated_Source\PSoC5/cyPm.c **** 
 1541              		.loc 1 1352 0
 1542 0044 C2F38002 		ubfx	r2, r2, #2, #1
1348:.\Generated_Source\PSoC5/cyPm.c **** 
 1543              		.loc 1 1348 0
 1544 0048 C1F34001 		ubfx	r1, r1, #1, #1
1356:.\Generated_Source\PSoC5/cyPm.c ****     {
 1545              		.loc 1 1356 0
 1546 004c 03F01003 		and	r3, r3, #16
1351:.\Generated_Source\PSoC5/cyPm.c ****                                 CY_PM_DISABLED : CY_PM_ENABLED;
 1547              		.loc 1 1351 0
 1548 0050 A270     		strb	r2, [r4, #2]
1347:.\Generated_Source\PSoC5/cyPm.c ****                                 CY_PM_DISABLED : CY_PM_ENABLED;
 1549              		.loc 1 1347 0
 1550 0052 6170     		strb	r1, [r4, #1]
1356:.\Generated_Source\PSoC5/cyPm.c ****     {
 1551              		.loc 1 1356 0
 1552 0054 03F0FF02 		and	r2, r3, #255
 1553 0058 002B     		cmp	r3, #0
 1554 005a 00F0A580 		beq	.L155
1364:.\Generated_Source\PSoC5/cyPm.c ****     }
 1555              		.loc 1 1364 0
 1556 005e 0123     		movs	r3, #1
 1557 0060 E370     		strb	r3, [r4, #3]
 1558              	.LBB12:
 1559              	.LBB13:
1768:.\Generated_Source\PSoC5/cyPm.c ****     }
1769:.\Generated_Source\PSoC5/cyPm.c **** }
1770:.\Generated_Source\PSoC5/cyPm.c **** 
1771:.\Generated_Source\PSoC5/cyPm.c **** 
1772:.\Generated_Source\PSoC5/cyPm.c **** /*******************************************************************************
1773:.\Generated_Source\PSoC5/cyPm.c **** * Function Name: CyPmHviLviSaveDisable
1774:.\Generated_Source\PSoC5/cyPm.c **** ****************************************************************************//**
1775:.\Generated_Source\PSoC5/cyPm.c **** *
1776:.\Generated_Source\PSoC5/cyPm.c **** *  Saves analog and digital LVI and HVI configuration and disables them.
1777:.\Generated_Source\PSoC5/cyPm.c **** *
1778:.\Generated_Source\PSoC5/cyPm.c **** * Reentrant:
1779:.\Generated_Source\PSoC5/cyPm.c **** *  No
1780:.\Generated_Source\PSoC5/cyPm.c **** *
1781:.\Generated_Source\PSoC5/cyPm.c **** *******************************************************************************/
1782:.\Generated_Source\PSoC5/cyPm.c **** static void CyPmHviLviSaveDisable(void) 
1783:.\Generated_Source\PSoC5/cyPm.c **** {
1784:.\Generated_Source\PSoC5/cyPm.c ****     if(0u != (CY_VD_LVI_HVI_CONTROL_REG & CY_VD_LVID_EN))
 1560              		.loc 1 1784 0
 1561 0062 814B     		ldr	r3, .L164+20
 1562 0064 1B78     		ldrb	r3, [r3]	@ zero_extendqisi2
 1563 0066 13F00103 		ands	r3, r3, #1
 1564 006a 40F0A880 		bne	.L156
 1565              	.L129:
1785:.\Generated_Source\PSoC5/cyPm.c ****     {
1786:.\Generated_Source\PSoC5/cyPm.c ****         cyPmBackup.lvidEn = CY_PM_ENABLED;
1787:.\Generated_Source\PSoC5/cyPm.c ****         cyPmBackup.lvidTrip = CY_VD_LVI_TRIP_REG & CY_VD_LVI_TRIP_LVID_MASK;
1788:.\Generated_Source\PSoC5/cyPm.c **** 
1789:.\Generated_Source\PSoC5/cyPm.c ****         /* Save state of reset device at specified Vddd threshold */
1790:.\Generated_Source\PSoC5/cyPm.c ****         cyPmBackup.lvidRst = (0u == (CY_VD_PRES_CONTROL_REG & CY_VD_PRESD_EN)) ? \
1791:.\Generated_Source\PSoC5/cyPm.c ****                              CY_PM_DISABLED : CY_PM_ENABLED;
ARM GAS  C:\Users\honet\AppData\Local\Temp\ccQxGmyH.s 			page 67


1792:.\Generated_Source\PSoC5/cyPm.c **** 
1793:.\Generated_Source\PSoC5/cyPm.c ****         CyVdLvDigitDisable();
1794:.\Generated_Source\PSoC5/cyPm.c ****     }
1795:.\Generated_Source\PSoC5/cyPm.c ****     else
1796:.\Generated_Source\PSoC5/cyPm.c ****     {
1797:.\Generated_Source\PSoC5/cyPm.c ****         cyPmBackup.lvidEn = CY_PM_DISABLED;
 1566              		.loc 1 1797 0
 1567 006e 84F82530 		strb	r3, [r4, #37]
 1568              	.L130:
1798:.\Generated_Source\PSoC5/cyPm.c ****     }
1799:.\Generated_Source\PSoC5/cyPm.c **** 
1800:.\Generated_Source\PSoC5/cyPm.c ****     if(0u != (CY_VD_LVI_HVI_CONTROL_REG & CY_VD_LVIA_EN))
 1569              		.loc 1 1800 0
 1570 0072 7D4B     		ldr	r3, .L164+20
 1571 0074 1B78     		ldrb	r3, [r3]	@ zero_extendqisi2
 1572 0076 03F00203 		and	r3, r3, #2
 1573 007a 03F0FF02 		and	r2, r3, #255
 1574 007e 002B     		cmp	r3, #0
 1575 0080 40F0BB80 		bne	.L157
1801:.\Generated_Source\PSoC5/cyPm.c ****     {
1802:.\Generated_Source\PSoC5/cyPm.c ****         cyPmBackup.lviaEn = CY_PM_ENABLED;
1803:.\Generated_Source\PSoC5/cyPm.c ****         cyPmBackup.lviaTrip = CY_VD_LVI_TRIP_REG >> 4u;
1804:.\Generated_Source\PSoC5/cyPm.c **** 
1805:.\Generated_Source\PSoC5/cyPm.c ****         /* Save state of reset device at specified Vdda threshold */
1806:.\Generated_Source\PSoC5/cyPm.c ****         cyPmBackup.lviaRst = (0u == (CY_VD_PRES_CONTROL_REG & CY_VD_PRESA_EN)) ? \
1807:.\Generated_Source\PSoC5/cyPm.c ****                              CY_PM_DISABLED : CY_PM_ENABLED;
1808:.\Generated_Source\PSoC5/cyPm.c **** 
1809:.\Generated_Source\PSoC5/cyPm.c ****         CyVdLvAnalogDisable();
1810:.\Generated_Source\PSoC5/cyPm.c ****     }
1811:.\Generated_Source\PSoC5/cyPm.c ****     else
1812:.\Generated_Source\PSoC5/cyPm.c ****     {
1813:.\Generated_Source\PSoC5/cyPm.c ****         cyPmBackup.lviaEn = CY_PM_DISABLED;
 1576              		.loc 1 1813 0
 1577 0084 84F82720 		strb	r2, [r4, #39]
 1578              	.L132:
1814:.\Generated_Source\PSoC5/cyPm.c ****     }
1815:.\Generated_Source\PSoC5/cyPm.c **** 
1816:.\Generated_Source\PSoC5/cyPm.c ****     if(0u != (CY_VD_LVI_HVI_CONTROL_REG & CY_VD_HVIA_EN))
 1579              		.loc 1 1816 0
 1580 0088 774B     		ldr	r3, .L164+20
 1581 008a 1B78     		ldrb	r3, [r3]	@ zero_extendqisi2
 1582 008c 03F00403 		and	r3, r3, #4
 1583 0090 03F0FF02 		and	r2, r3, #255
 1584 0094 002B     		cmp	r3, #0
 1585 0096 40F0C080 		bne	.L158
1817:.\Generated_Source\PSoC5/cyPm.c ****     {
1818:.\Generated_Source\PSoC5/cyPm.c ****         cyPmBackup.hviaEn = CY_PM_ENABLED;
1819:.\Generated_Source\PSoC5/cyPm.c ****         CyVdHvAnalogDisable();
1820:.\Generated_Source\PSoC5/cyPm.c ****     }
1821:.\Generated_Source\PSoC5/cyPm.c ****     else
1822:.\Generated_Source\PSoC5/cyPm.c ****     {
1823:.\Generated_Source\PSoC5/cyPm.c ****         cyPmBackup.hviaEn = CY_PM_DISABLED;
 1586              		.loc 1 1823 0
 1587 009a 84F82920 		strb	r2, [r4, #41]
 1588              	.L134:
 1589              	.LBE13:
 1590              	.LBE12:
ARM GAS  C:\Users\honet\AppData\Local\Temp\ccQxGmyH.s 			page 68


1379:.\Generated_Source\PSoC5/cyPm.c **** 
 1591              		.loc 1 1379 0
 1592 009e FFF7FEFF 		bl	CyPmHibSlpSaveSet
 1593              	.LVL53:
1385:.\Generated_Source\PSoC5/cyPm.c ****     cyPmBackup.wakeupTrim1 = CY_PM_PWRSYS_WAKE_TR1_REG;
 1594              		.loc 1 1385 0
 1595 00a2 724F     		ldr	r7, .L164+24
1386:.\Generated_Source\PSoC5/cyPm.c **** 
 1596              		.loc 1 1386 0
 1597 00a4 7248     		ldr	r0, .L164+28
 1598              	.LBE18:
 1599              	.LBE27:
1191:.\Generated_Source\PSoC5/cyPm.c **** 
 1600              		.loc 1 1191 0
 1601 00a6 3309     		lsrs	r3, r6, #4
1190:.\Generated_Source\PSoC5/cyPm.c ****     CY_PM_WAKEUP_CFG0_REG = ((uint8) (wakeupSource >> 4u) & CY_PM_WAKEUP_PICU);
 1602              		.loc 1 1190 0
 1603 00a8 724A     		ldr	r2, .L164+32
 1604              	.LBB28:
 1605              	.LBB19:
1389:.\Generated_Source\PSoC5/cyPm.c **** }
 1606              		.loc 1 1389 0
 1607 00aa 4FF0B008 		mov	r8, #176
1388:.\Generated_Source\PSoC5/cyPm.c ****     CY_PM_PWRSYS_WAKE_TR1_REG = CY_PM_PWRSYS_WAKE_TR1;
 1608              		.loc 1 1388 0
 1609 00ae 4FF0FF09 		mov	r9, #255
 1610              	.LBE19:
 1611              	.LBE28:
1191:.\Generated_Source\PSoC5/cyPm.c **** 
 1612              		.loc 1 1191 0
 1613 00b2 03F00403 		and	r3, r3, #4
 1614              	.LBB29:
 1615              	.LBB20:
1385:.\Generated_Source\PSoC5/cyPm.c ****     cyPmBackup.wakeupTrim1 = CY_PM_PWRSYS_WAKE_TR1_REG;
 1616              		.loc 1 1385 0
 1617 00b6 97F800E0 		ldrb	lr, [r7]	@ zero_extendqisi2
 1618              	.LBE20:
 1619              	.LBE29:
1194:.\Generated_Source\PSoC5/cyPm.c ****     CY_PM_WAKEUP_CFG1_REG = (((uint8) wakeupSource) & CY_PM_WAKEUP_SRC_CMPS_MASK);
 1620              		.loc 1 1194 0
 1621 00ba 6F49     		ldr	r1, .L164+36
 1622              	.LBB30:
 1623              	.LBB21:
1386:.\Generated_Source\PSoC5/cyPm.c **** 
 1624              		.loc 1 1386 0
 1625 00bc 90F800C0 		ldrb	ip, [r0]	@ zero_extendqisi2
 1626              	.LBE21:
 1627              	.LBE30:
1191:.\Generated_Source\PSoC5/cyPm.c **** 
 1628              		.loc 1 1191 0
 1629 00c0 DBB2     		uxtb	r3, r3
 1630              	.LBB31:
 1631              	.LBB22:
1388:.\Generated_Source\PSoC5/cyPm.c ****     CY_PM_PWRSYS_WAKE_TR1_REG = CY_PM_PWRSYS_WAKE_TR1;
 1632              		.loc 1 1388 0
 1633 00c2 87F80090 		strb	r9, [r7]
1389:.\Generated_Source\PSoC5/cyPm.c **** }
ARM GAS  C:\Users\honet\AppData\Local\Temp\ccQxGmyH.s 			page 69


 1634              		.loc 1 1389 0
 1635 00c6 80F80080 		strb	r8, [r0]
 1636              	.LBE22:
 1637              	.LBE31:
1190:.\Generated_Source\PSoC5/cyPm.c ****     CY_PM_WAKEUP_CFG0_REG = ((uint8) (wakeupSource >> 4u) & CY_PM_WAKEUP_PICU);
 1638              		.loc 1 1190 0
 1639 00ca 1778     		ldrb	r7, [r2]	@ zero_extendqisi2
1195:.\Generated_Source\PSoC5/cyPm.c **** 
 1640              		.loc 1 1195 0
 1641 00cc 06F00F06 		and	r6, r6, #15
1191:.\Generated_Source\PSoC5/cyPm.c **** 
 1642              		.loc 1 1191 0
 1643 00d0 1370     		strb	r3, [r2]
1194:.\Generated_Source\PSoC5/cyPm.c ****     CY_PM_WAKEUP_CFG1_REG = (((uint8) wakeupSource) & CY_PM_WAKEUP_SRC_CMPS_MASK);
 1644              		.loc 1 1194 0
 1645 00d2 91F80080 		ldrb	r8, [r1]	@ zero_extendqisi2
1198:.\Generated_Source\PSoC5/cyPm.c **** 
 1646              		.loc 1 1198 0
 1647 00d6 0020     		movs	r0, #0
1195:.\Generated_Source\PSoC5/cyPm.c **** 
 1648              		.loc 1 1195 0
 1649 00d8 0E70     		strb	r6, [r1]
1202:.\Generated_Source\PSoC5/cyPm.c ****     {
 1650              		.loc 1 1202 0
 1651 00da 684B     		ldr	r3, .L164+40
1197:.\Generated_Source\PSoC5/cyPm.c ****     CY_PM_WAKEUP_CFG2_REG = 0x00u;
 1652              		.loc 1 1197 0
 1653 00dc 9678     		ldrb	r6, [r2, #2]	@ zero_extendqisi2
1198:.\Generated_Source\PSoC5/cyPm.c **** 
 1654              		.loc 1 1198 0
 1655 00de 9070     		strb	r0, [r2, #2]
1202:.\Generated_Source\PSoC5/cyPm.c ****     {
 1656              		.loc 1 1202 0
 1657 00e0 1978     		ldrb	r1, [r3]	@ zero_extendqisi2
 1658              	.LBB32:
 1659              	.LBB23:
1385:.\Generated_Source\PSoC5/cyPm.c ****     cyPmBackup.wakeupTrim1 = CY_PM_PWRSYS_WAKE_TR1_REG;
 1660              		.loc 1 1385 0
 1661 00e2 5F4A     		ldr	r2, .L164+12
 1662              	.LBE23:
 1663              	.LBE32:
1202:.\Generated_Source\PSoC5/cyPm.c ****     {
 1664              		.loc 1 1202 0
 1665 00e4 4907     		lsls	r1, r1, #29
 1666              	.LBB33:
 1667              	.LBB24:
1385:.\Generated_Source\PSoC5/cyPm.c ****     cyPmBackup.wakeupTrim1 = CY_PM_PWRSYS_WAKE_TR1_REG;
 1668              		.loc 1 1385 0
 1669 00e6 84F807E0 		strb	lr, [r4, #7]
1386:.\Generated_Source\PSoC5/cyPm.c **** 
 1670              		.loc 1 1386 0
 1671 00ea 84F808C0 		strb	ip, [r4, #8]
 1672              	.LBE24:
 1673              	.LBE33:
1190:.\Generated_Source\PSoC5/cyPm.c ****     CY_PM_WAKEUP_CFG0_REG = ((uint8) (wakeupSource >> 4u) & CY_PM_WAKEUP_PICU);
 1674              		.loc 1 1190 0
 1675 00ee 2771     		strb	r7, [r4, #4]
ARM GAS  C:\Users\honet\AppData\Local\Temp\ccQxGmyH.s 			page 70


1194:.\Generated_Source\PSoC5/cyPm.c ****     CY_PM_WAKEUP_CFG1_REG = (((uint8) wakeupSource) & CY_PM_WAKEUP_SRC_CMPS_MASK);
 1676              		.loc 1 1194 0
 1677 00f0 84F80580 		strb	r8, [r4, #5]
1197:.\Generated_Source\PSoC5/cyPm.c ****     CY_PM_WAKEUP_CFG2_REG = 0x00u;
 1678              		.loc 1 1197 0
 1679 00f4 A671     		strb	r6, [r4, #6]
1202:.\Generated_Source\PSoC5/cyPm.c ****     {
 1680              		.loc 1 1202 0
 1681 00f6 74D1     		bne	.L154
1205:.\Generated_Source\PSoC5/cyPm.c ****     }
 1682              		.loc 1 1205 0
 1683 00f8 0123     		movs	r3, #1
 1684 00fa 82F82D30 		strb	r3, [r2, #45]
 1685              	.L137:
1221:.\Generated_Source\PSoC5/cyPm.c **** 
 1686              		.loc 1 1221 0
 1687 00fe 554A     		ldr	r2, .L164
 1688 0100 1378     		ldrb	r3, [r2]	@ zero_extendqisi2
 1689 0102 03F0F803 		and	r3, r3, #248
 1690 0106 43F00403 		orr	r3, r3, #4
 1691 010a 1370     		strb	r3, [r2]
1224:.\Generated_Source\PSoC5/cyPm.c **** 
 1692              		.loc 1 1224 0
 1693 010c 1378     		ldrb	r3, [r2]	@ zero_extendqisi2
1227:.\Generated_Source\PSoC5/cyPm.c ****     CY_NOP;
 1694              		.loc 1 1227 0
 1695              	@ 1227 ".\Generated_Source\PSoC5\cyPm.c" 1
 1696 010e 00BF     		NOP
 1697              	
 1698              	@ 0 "" 2
1228:.\Generated_Source\PSoC5/cyPm.c **** 
 1699              		.loc 1 1228 0
 1700              	@ 1228 ".\Generated_Source\PSoC5\cyPm.c" 1
 1701 0110 00BF     		NOP
 1702              	
 1703              	@ 0 "" 2
1231:.\Generated_Source\PSoC5/cyPm.c **** 
 1704              		.loc 1 1231 0
 1705              	@ 1231 ".\Generated_Source\PSoC5\cyPm.c" 1
 1706 0112 30BF     		WFI 
 1707              	
 1708              	@ 0 "" 2
1238:.\Generated_Source\PSoC5/cyPm.c ****     {
 1709              		.loc 1 1238 0
 1710              		.thumb
 1711 0114 94F82D30 		ldrb	r3, [r4, #45]	@ zero_extendqisi2
 1712 0118 514A     		ldr	r2, .L164+12
 1713 011a 012B     		cmp	r3, #1
 1714 011c 07D0     		beq	.L138
1240:.\Generated_Source\PSoC5/cyPm.c ****                                     cyPmBackup.imoActFreq;
 1715              		.loc 1 1240 0
 1716 011e 5749     		ldr	r1, .L164+40
 1717 0120 92F82C20 		ldrb	r2, [r2, #44]	@ zero_extendqisi2
 1718 0124 0B78     		ldrb	r3, [r1]	@ zero_extendqisi2
 1719 0126 03F0F803 		and	r3, r3, #248
 1720 012a 1343     		orrs	r3, r3, r2
 1721 012c 0B70     		strb	r3, [r1]
ARM GAS  C:\Users\honet\AppData\Local\Temp\ccQxGmyH.s 			page 71


 1722              	.L138:
 1723              	.LBB34:
 1724              	.LBB35:
 1725              	.LBB36:
 1726              	.LBB37:
1824:.\Generated_Source\PSoC5/cyPm.c ****     }
1825:.\Generated_Source\PSoC5/cyPm.c **** }
1826:.\Generated_Source\PSoC5/cyPm.c **** 
1827:.\Generated_Source\PSoC5/cyPm.c **** 
1828:.\Generated_Source\PSoC5/cyPm.c **** /*******************************************************************************
1829:.\Generated_Source\PSoC5/cyPm.c **** * Function Name: CyPmHviLviRestore
1830:.\Generated_Source\PSoC5/cyPm.c **** ****************************************************************************//**
1831:.\Generated_Source\PSoC5/cyPm.c **** *
1832:.\Generated_Source\PSoC5/cyPm.c **** *  Restores the analog and digital LVI and HVI configuration.
1833:.\Generated_Source\PSoC5/cyPm.c **** *
1834:.\Generated_Source\PSoC5/cyPm.c **** * Reentrant:
1835:.\Generated_Source\PSoC5/cyPm.c **** *  No
1836:.\Generated_Source\PSoC5/cyPm.c **** *
1837:.\Generated_Source\PSoC5/cyPm.c **** *******************************************************************************/
1838:.\Generated_Source\PSoC5/cyPm.c **** static void CyPmHviLviRestore(void) 
1839:.\Generated_Source\PSoC5/cyPm.c **** {
1840:.\Generated_Source\PSoC5/cyPm.c ****     /* Restore LVI/HVI configuration */
1841:.\Generated_Source\PSoC5/cyPm.c ****     if(CY_PM_ENABLED == cyPmBackup.lvidEn)
 1727              		.loc 1 1841 0
 1728 012e 94F82530 		ldrb	r3, [r4, #37]	@ zero_extendqisi2
 1729 0132 4B4A     		ldr	r2, .L164+12
 1730 0134 012B     		cmp	r3, #1
 1731 0136 00F08680 		beq	.L159
 1732              	.L139:
1842:.\Generated_Source\PSoC5/cyPm.c ****     {
1843:.\Generated_Source\PSoC5/cyPm.c ****         CyVdLvDigitEnable(cyPmBackup.lvidRst, cyPmBackup.lvidTrip);
1844:.\Generated_Source\PSoC5/cyPm.c ****     }
1845:.\Generated_Source\PSoC5/cyPm.c **** 
1846:.\Generated_Source\PSoC5/cyPm.c ****     if(CY_PM_ENABLED == cyPmBackup.lviaEn)
 1733              		.loc 1 1846 0
 1734 013a 94F82730 		ldrb	r3, [r4, #39]	@ zero_extendqisi2
 1735 013e 484A     		ldr	r2, .L164+12
 1736 0140 012B     		cmp	r3, #1
 1737 0142 79D0     		beq	.L160
 1738              	.L140:
1847:.\Generated_Source\PSoC5/cyPm.c ****     {
1848:.\Generated_Source\PSoC5/cyPm.c ****         CyVdLvAnalogEnable(cyPmBackup.lviaRst, cyPmBackup.lviaTrip);
1849:.\Generated_Source\PSoC5/cyPm.c ****     }
1850:.\Generated_Source\PSoC5/cyPm.c **** 
1851:.\Generated_Source\PSoC5/cyPm.c ****     if(CY_PM_ENABLED == cyPmBackup.hviaEn)
 1739              		.loc 1 1851 0
 1740 0144 94F82930 		ldrb	r3, [r4, #41]	@ zero_extendqisi2
 1741 0148 012B     		cmp	r3, #1
 1742 014a 6CD0     		beq	.L161
 1743              	.L141:
 1744              	.LBE37:
 1745              	.LBE36:
1411:.\Generated_Source\PSoC5/cyPm.c **** 
 1746              		.loc 1 1411 0
 1747 014c FFF7FEFF 		bl	CyPmHibSlpRestore
 1748              	.LVL54:
1414:.\Generated_Source\PSoC5/cyPm.c ****     {
ARM GAS  C:\Users\honet\AppData\Local\Temp\ccQxGmyH.s 			page 72


 1749              		.loc 1 1414 0
 1750 0150 6378     		ldrb	r3, [r4, #1]	@ zero_extendqisi2
 1751 0152 012B     		cmp	r3, #1
 1752 0154 6DD0     		beq	.L162
 1753              	.L142:
1421:.\Generated_Source\PSoC5/cyPm.c ****     {
 1754              		.loc 1 1421 0
 1755 0156 A378     		ldrb	r3, [r4, #2]	@ zero_extendqisi2
 1756 0158 012B     		cmp	r3, #1
 1757 015a 67D0     		beq	.L163
 1758              	.L143:
1428:.\Generated_Source\PSoC5/cyPm.c **** 
 1759              		.loc 1 1428 0
 1760 015c 2078     		ldrb	r0, [r4]	@ zero_extendqisi2
 1761 015e FFF7FEFF 		bl	CyILO_SetPowerMode
 1762              	.LVL55:
1431:.\Generated_Source\PSoC5/cyPm.c ****     {
 1763              		.loc 1 1431 0
 1764 0162 E378     		ldrb	r3, [r4, #3]	@ zero_extendqisi2
 1765 0164 23B9     		cbnz	r3, .L144
1434:.\Generated_Source\PSoC5/cyPm.c ****     }
 1766              		.loc 1 1434 0
 1767 0166 3C4A     		ldr	r2, .L164+4
 1768 0168 1378     		ldrb	r3, [r2]	@ zero_extendqisi2
 1769 016a 03F0EF03 		and	r3, r3, #239
 1770 016e 1370     		strb	r3, [r2]
 1771              	.L144:
 1772              	.LBE35:
 1773              	.LBE34:
1254:.\Generated_Source\PSoC5/cyPm.c **** }
 1774              		.loc 1 1254 0
 1775 0170 2846     		mov	r0, r5
 1776              	.LBB46:
 1777              	.LBB42:
1441:.\Generated_Source\PSoC5/cyPm.c ****     CY_PM_PWRSYS_WAKE_TR1_REG = cyPmBackup.wakeupTrim1;
 1778              		.loc 1 1441 0
 1779 0172 94F807A0 		ldrb	r10, [r4, #7]	@ zero_extendqisi2
1442:.\Generated_Source\PSoC5/cyPm.c **** }
 1780              		.loc 1 1442 0
 1781 0176 94F80880 		ldrb	r8, [r4, #8]	@ zero_extendqisi2
 1782              	.LBE42:
 1783              	.LBE46:
1249:.\Generated_Source\PSoC5/cyPm.c ****     CY_PM_WAKEUP_CFG1_REG = cyPmBackup.wakeupCfg1;
 1784              		.loc 1 1249 0
 1785 017a 94F804E0 		ldrb	lr, [r4, #4]	@ zero_extendqisi2
1250:.\Generated_Source\PSoC5/cyPm.c ****     CY_PM_WAKEUP_CFG2_REG = cyPmBackup.wakeupCfg2;
 1786              		.loc 1 1250 0
 1787 017e 6679     		ldrb	r6, [r4, #5]	@ zero_extendqisi2
1251:.\Generated_Source\PSoC5/cyPm.c **** 
 1788              		.loc 1 1251 0
 1789 0180 A279     		ldrb	r2, [r4, #6]	@ zero_extendqisi2
 1790              	.LBB47:
 1791              	.LBB43:
1441:.\Generated_Source\PSoC5/cyPm.c ****     CY_PM_PWRSYS_WAKE_TR1_REG = cyPmBackup.wakeupTrim1;
 1792              		.loc 1 1441 0
 1793 0182 DFF8E890 		ldr	r9, .L164+24
1442:.\Generated_Source\PSoC5/cyPm.c **** }
ARM GAS  C:\Users\honet\AppData\Local\Temp\ccQxGmyH.s 			page 73


 1794              		.loc 1 1442 0
 1795 0186 DFF8E8C0 		ldr	ip, .L164+28
 1796              	.LBE43:
 1797              	.LBE47:
1249:.\Generated_Source\PSoC5/cyPm.c ****     CY_PM_WAKEUP_CFG1_REG = cyPmBackup.wakeupCfg1;
 1798              		.loc 1 1249 0
 1799 018a 3A4F     		ldr	r7, .L164+32
1250:.\Generated_Source\PSoC5/cyPm.c ****     CY_PM_WAKEUP_CFG2_REG = cyPmBackup.wakeupCfg2;
 1800              		.loc 1 1250 0
 1801 018c 3A49     		ldr	r1, .L164+36
1251:.\Generated_Source\PSoC5/cyPm.c **** 
 1802              		.loc 1 1251 0
 1803 018e 3C4B     		ldr	r3, .L164+44
 1804              	.LBB48:
 1805              	.LBB44:
1441:.\Generated_Source\PSoC5/cyPm.c ****     CY_PM_PWRSYS_WAKE_TR1_REG = cyPmBackup.wakeupTrim1;
 1806              		.loc 1 1441 0
 1807 0190 89F800A0 		strb	r10, [r9]
1442:.\Generated_Source\PSoC5/cyPm.c **** }
 1808              		.loc 1 1442 0
 1809 0194 8CF80080 		strb	r8, [ip]
 1810              	.LBE44:
 1811              	.LBE48:
1249:.\Generated_Source\PSoC5/cyPm.c ****     CY_PM_WAKEUP_CFG1_REG = cyPmBackup.wakeupCfg1;
 1812              		.loc 1 1249 0
 1813 0198 87F800E0 		strb	lr, [r7]
1250:.\Generated_Source\PSoC5/cyPm.c ****     CY_PM_WAKEUP_CFG2_REG = cyPmBackup.wakeupCfg2;
 1814              		.loc 1 1250 0
 1815 019c 0E70     		strb	r6, [r1]
1251:.\Generated_Source\PSoC5/cyPm.c **** 
 1816              		.loc 1 1251 0
 1817 019e 1A70     		strb	r2, [r3]
 1818              	.L153:
1255:.\Generated_Source\PSoC5/cyPm.c **** 
 1819              		.loc 1 1255 0
 1820 01a0 BDE8F047 		pop	{r4, r5, r6, r7, r8, r9, r10, lr}
 1821              		.cfi_remember_state
 1822              		.cfi_restore 14
 1823              		.cfi_restore 10
 1824              		.cfi_restore 9
 1825              		.cfi_restore 8
 1826              		.cfi_restore 7
 1827              		.cfi_restore 6
 1828              		.cfi_restore 5
 1829              		.cfi_restore 4
 1830              		.cfi_def_cfa_offset 0
1254:.\Generated_Source\PSoC5/cyPm.c **** }
 1831              		.loc 1 1254 0
 1832 01a4 FFF7FEBF 		b	CyExitCriticalSection
 1833              	.LVL56:
 1834              	.L155:
 1835              		.cfi_restore_state
 1836              	.LBB49:
 1837              	.LBB25:
1360:.\Generated_Source\PSoC5/cyPm.c ****     }
 1838              		.loc 1 1360 0
 1839 01a8 3B78     		ldrb	r3, [r7]	@ zero_extendqisi2
ARM GAS  C:\Users\honet\AppData\Local\Temp\ccQxGmyH.s 			page 74


1359:.\Generated_Source\PSoC5/cyPm.c ****         CY_PM_PWRSYS_SLP_TR_REG |= CY_PM_PWRSYS_SLP_TR_BYPASS;
 1840              		.loc 1 1359 0
 1841 01aa E270     		strb	r2, [r4, #3]
1360:.\Generated_Source\PSoC5/cyPm.c ****     }
 1842              		.loc 1 1360 0
 1843 01ac 43F01003 		orr	r3, r3, #16
 1844 01b0 3B70     		strb	r3, [r7]
 1845              	.LBB16:
 1846              	.LBB14:
1784:.\Generated_Source\PSoC5/cyPm.c ****     {
 1847              		.loc 1 1784 0
 1848 01b2 2D4B     		ldr	r3, .L164+20
 1849 01b4 1B78     		ldrb	r3, [r3]	@ zero_extendqisi2
 1850 01b6 13F00103 		ands	r3, r3, #1
 1851 01ba 3FF458AF 		beq	.L129
 1852              	.L156:
1787:.\Generated_Source\PSoC5/cyPm.c **** 
 1853              		.loc 1 1787 0
 1854 01be 314A     		ldr	r2, .L164+48
1790:.\Generated_Source\PSoC5/cyPm.c ****                              CY_PM_DISABLED : CY_PM_ENABLED;
 1855              		.loc 1 1790 0
 1856 01c0 314B     		ldr	r3, .L164+52
1787:.\Generated_Source\PSoC5/cyPm.c **** 
 1857              		.loc 1 1787 0
 1858 01c2 1278     		ldrb	r2, [r2]	@ zero_extendqisi2
1790:.\Generated_Source\PSoC5/cyPm.c ****                              CY_PM_DISABLED : CY_PM_ENABLED;
 1859              		.loc 1 1790 0
 1860 01c4 1B78     		ldrb	r3, [r3]	@ zero_extendqisi2
1787:.\Generated_Source\PSoC5/cyPm.c **** 
 1861              		.loc 1 1787 0
 1862 01c6 02F00F02 		and	r2, r2, #15
1791:.\Generated_Source\PSoC5/cyPm.c **** 
 1863              		.loc 1 1791 0
 1864 01ca C3F38013 		ubfx	r3, r3, #6, #1
1786:.\Generated_Source\PSoC5/cyPm.c ****         cyPmBackup.lvidTrip = CY_VD_LVI_TRIP_REG & CY_VD_LVI_TRIP_LVID_MASK;
 1865              		.loc 1 1786 0
 1866 01ce 0121     		movs	r1, #1
1787:.\Generated_Source\PSoC5/cyPm.c **** 
 1867              		.loc 1 1787 0
 1868 01d0 84F82620 		strb	r2, [r4, #38]
1790:.\Generated_Source\PSoC5/cyPm.c ****                              CY_PM_DISABLED : CY_PM_ENABLED;
 1869              		.loc 1 1790 0
 1870 01d4 84F82A30 		strb	r3, [r4, #42]
1786:.\Generated_Source\PSoC5/cyPm.c ****         cyPmBackup.lvidTrip = CY_VD_LVI_TRIP_REG & CY_VD_LVI_TRIP_LVID_MASK;
 1871              		.loc 1 1786 0
 1872 01d8 84F82510 		strb	r1, [r4, #37]
1793:.\Generated_Source\PSoC5/cyPm.c ****     }
 1873              		.loc 1 1793 0
 1874 01dc FFF7FEFF 		bl	CyVdLvDigitDisable
 1875              	.LVL57:
 1876 01e0 47E7     		b	.L130
 1877              	.L154:
 1878              	.LBE14:
 1879              	.LBE16:
 1880              	.LBE25:
 1881              	.LBE49:
1213:.\Generated_Source\PSoC5/cyPm.c **** 
ARM GAS  C:\Users\honet\AppData\Local\Temp\ccQxGmyH.s 			page 75


 1882              		.loc 1 1213 0
 1883 01e2 1E78     		ldrb	r6, [r3]	@ zero_extendqisi2
1216:.\Generated_Source\PSoC5/cyPm.c ****     }
 1884              		.loc 1 1216 0
 1885 01e4 1978     		ldrb	r1, [r3]	@ zero_extendqisi2
1213:.\Generated_Source\PSoC5/cyPm.c **** 
 1886              		.loc 1 1213 0
 1887 01e6 06F00706 		and	r6, r6, #7
1216:.\Generated_Source\PSoC5/cyPm.c ****     }
 1888              		.loc 1 1216 0
 1889 01ea 01F0F801 		and	r1, r1, #248
1210:.\Generated_Source\PSoC5/cyPm.c **** 
 1890              		.loc 1 1210 0
 1891 01ee 82F82D00 		strb	r0, [r2, #45]
1213:.\Generated_Source\PSoC5/cyPm.c **** 
 1892              		.loc 1 1213 0
 1893 01f2 82F82C60 		strb	r6, [r2, #44]
1216:.\Generated_Source\PSoC5/cyPm.c ****     }
 1894              		.loc 1 1216 0
 1895 01f6 1970     		strb	r1, [r3]
 1896 01f8 81E7     		b	.L137
 1897              	.L157:
 1898              	.LBB50:
 1899              	.LBB26:
 1900              	.LBB17:
 1901              	.LBB15:
1803:.\Generated_Source\PSoC5/cyPm.c **** 
 1902              		.loc 1 1803 0
 1903 01fa 224A     		ldr	r2, .L164+48
1806:.\Generated_Source\PSoC5/cyPm.c ****                              CY_PM_DISABLED : CY_PM_ENABLED;
 1904              		.loc 1 1806 0
 1905 01fc 224B     		ldr	r3, .L164+52
1803:.\Generated_Source\PSoC5/cyPm.c **** 
 1906              		.loc 1 1803 0
 1907 01fe 1278     		ldrb	r2, [r2]	@ zero_extendqisi2
1806:.\Generated_Source\PSoC5/cyPm.c ****                              CY_PM_DISABLED : CY_PM_ENABLED;
 1908              		.loc 1 1806 0
 1909 0200 1B78     		ldrb	r3, [r3]	@ zero_extendqisi2
1803:.\Generated_Source\PSoC5/cyPm.c **** 
 1910              		.loc 1 1803 0
 1911 0202 1209     		lsrs	r2, r2, #4
1807:.\Generated_Source\PSoC5/cyPm.c **** 
 1912              		.loc 1 1807 0
 1913 0204 DB09     		lsrs	r3, r3, #7
1802:.\Generated_Source\PSoC5/cyPm.c ****         cyPmBackup.lviaTrip = CY_VD_LVI_TRIP_REG >> 4u;
 1914              		.loc 1 1802 0
 1915 0206 0121     		movs	r1, #1
1803:.\Generated_Source\PSoC5/cyPm.c **** 
 1916              		.loc 1 1803 0
 1917 0208 84F82820 		strb	r2, [r4, #40]
1806:.\Generated_Source\PSoC5/cyPm.c ****                              CY_PM_DISABLED : CY_PM_ENABLED;
 1918              		.loc 1 1806 0
 1919 020c 84F82B30 		strb	r3, [r4, #43]
1802:.\Generated_Source\PSoC5/cyPm.c ****         cyPmBackup.lviaTrip = CY_VD_LVI_TRIP_REG >> 4u;
 1920              		.loc 1 1802 0
 1921 0210 84F82710 		strb	r1, [r4, #39]
1809:.\Generated_Source\PSoC5/cyPm.c ****     }
ARM GAS  C:\Users\honet\AppData\Local\Temp\ccQxGmyH.s 			page 76


 1922              		.loc 1 1809 0
 1923 0214 FFF7FEFF 		bl	CyVdLvAnalogDisable
 1924              	.LVL58:
 1925 0218 36E7     		b	.L132
 1926              	.L158:
1818:.\Generated_Source\PSoC5/cyPm.c ****         CyVdHvAnalogDisable();
 1927              		.loc 1 1818 0
 1928 021a 0123     		movs	r3, #1
 1929 021c 84F82930 		strb	r3, [r4, #41]
1819:.\Generated_Source\PSoC5/cyPm.c ****     }
 1930              		.loc 1 1819 0
 1931 0220 FFF7FEFF 		bl	CyVdHvAnalogDisable
 1932              	.LVL59:
 1933 0224 3BE7     		b	.L134
 1934              	.L161:
 1935              	.LBE15:
 1936              	.LBE17:
 1937              	.LBE26:
 1938              	.LBE50:
 1939              	.LBB51:
 1940              	.LBB45:
 1941              	.LBB40:
 1942              	.LBB38:
1852:.\Generated_Source\PSoC5/cyPm.c ****     {
1853:.\Generated_Source\PSoC5/cyPm.c ****         CyVdHvAnalogEnable();
 1943              		.loc 1 1853 0
 1944 0226 FFF7FEFF 		bl	CyVdHvAnalogEnable
 1945              	.LVL60:
 1946 022a 8FE7     		b	.L141
 1947              	.L163:
 1948              	.LBE38:
 1949              	.LBE40:
1424:.\Generated_Source\PSoC5/cyPm.c ****     }
 1950              		.loc 1 1424 0
 1951 022c FFF7FEFF 		bl	CyILO_Start100K
 1952              	.LVL61:
 1953 0230 94E7     		b	.L143
 1954              	.L162:
1417:.\Generated_Source\PSoC5/cyPm.c ****     }
 1955              		.loc 1 1417 0
 1956 0232 FFF7FEFF 		bl	CyILO_Start1K
 1957              	.LVL62:
 1958 0236 8EE7     		b	.L142
 1959              	.L160:
 1960              	.LBB41:
 1961              	.LBB39:
1848:.\Generated_Source\PSoC5/cyPm.c ****     }
 1962              		.loc 1 1848 0
 1963 0238 92F82B00 		ldrb	r0, [r2, #43]	@ zero_extendqisi2
 1964 023c 92F82810 		ldrb	r1, [r2, #40]	@ zero_extendqisi2
 1965 0240 FFF7FEFF 		bl	CyVdLvAnalogEnable
 1966              	.LVL63:
 1967 0244 7EE7     		b	.L140
 1968              	.L159:
1843:.\Generated_Source\PSoC5/cyPm.c ****     }
 1969              		.loc 1 1843 0
 1970 0246 92F82A00 		ldrb	r0, [r2, #42]	@ zero_extendqisi2
ARM GAS  C:\Users\honet\AppData\Local\Temp\ccQxGmyH.s 			page 77


 1971 024a 92F82610 		ldrb	r1, [r2, #38]	@ zero_extendqisi2
 1972 024e FFF7FEFF 		bl	CyVdLvDigitEnable
 1973              	.LVL64:
 1974 0252 72E7     		b	.L139
 1975              	.L165:
 1976              		.align	2
 1977              	.L164:
 1978 0254 93430040 		.word	1073759123
 1979 0258 83460040 		.word	1073759875
 1980 025c 31430040 		.word	1073759025
 1981 0260 00000000 		.word	.LANCHOR0
 1982 0264 00430040 		.word	1073758976
 1983 0268 F5460040 		.word	1073759989
 1984 026c 85460040 		.word	1073759877
 1985 0270 86460040 		.word	1073759878
 1986 0274 98430040 		.word	1073759128
 1987 0278 99430040 		.word	1073759129
 1988 027c 00420040 		.word	1073758720
 1989 0280 9A430040 		.word	1073759130
 1990 0284 F4460040 		.word	1073759988
 1991 0288 F7460040 		.word	1073759991
 1992              	.LBE39:
 1993              	.LBE41:
 1994              	.LBE45:
 1995              	.LBE51:
 1996              		.cfi_endproc
 1997              	.LFE5:
 1998              		.size	CyPmHibernateEx, .-CyPmHibernateEx
 1999              		.section	.text.CyPmHibernate,"ax",%progbits
 2000              		.align	2
 2001              		.global	CyPmHibernate
 2002              		.thumb
 2003              		.thumb_func
 2004              		.type	CyPmHibernate, %function
 2005              	CyPmHibernate:
 2006              	.LFB4:
1096:.\Generated_Source\PSoC5/cyPm.c ****     CyPmHibernateEx(CY_PM_HIB_SRC_PICU);
 2007              		.loc 1 1096 0
 2008              		.cfi_startproc
 2009              		@ args = 0, pretend = 0, frame = 0
 2010              		@ frame_needed = 0, uses_anonymous_args = 0
 2011              		@ link register save eliminated.
1097:.\Generated_Source\PSoC5/cyPm.c **** }
 2012              		.loc 1 1097 0
 2013 0000 4020     		movs	r0, #64
 2014 0002 FFF7FEBF 		b	CyPmHibernateEx
 2015              	.LVL65:
 2016              		.cfi_endproc
 2017              	.LFE4:
 2018              		.size	CyPmHibernate, .-CyPmHibernate
 2019 0006 00BF     		.section	.text.CyPmReadStatus,"ax",%progbits
 2020              		.align	2
 2021              		.global	CyPmReadStatus
 2022              		.thumb
 2023              		.thumb_func
 2024              		.type	CyPmReadStatus, %function
 2025              	CyPmReadStatus:
ARM GAS  C:\Users\honet\AppData\Local\Temp\ccQxGmyH.s 			page 78


 2026              	.LFB6:
1286:.\Generated_Source\PSoC5/cyPm.c ****     static uint8 interruptStatus;
 2027              		.loc 1 1286 0
 2028              		.cfi_startproc
 2029              		@ args = 0, pretend = 0, frame = 0
 2030              		@ frame_needed = 0, uses_anonymous_args = 0
 2031              	.LVL66:
 2032 0000 38B5     		push	{r3, r4, r5, lr}
 2033              		.cfi_def_cfa_offset 16
 2034              		.cfi_offset 3, -16
 2035              		.cfi_offset 4, -12
 2036              		.cfi_offset 5, -8
 2037              		.cfi_offset 14, -4
1286:.\Generated_Source\PSoC5/cyPm.c ****     static uint8 interruptStatus;
 2038              		.loc 1 1286 0
 2039 0002 0546     		mov	r5, r0
1292:.\Generated_Source\PSoC5/cyPm.c **** 
 2040              		.loc 1 1292 0
 2041 0004 FFF7FEFF 		bl	CyEnterCriticalSection
 2042              	.LVL67:
1295:.\Generated_Source\PSoC5/cyPm.c ****     tmpStatus = interruptStatus & (CY_PM_FTW_INT | CY_PM_CTW_INT | CY_PM_ONEPPS_INT);
 2043              		.loc 1 1295 0
 2044 0008 074A     		ldr	r2, .L169
 2045 000a 084B     		ldr	r3, .L169+4
 2046 000c 1C78     		ldrb	r4, [r3]	@ zero_extendqisi2
 2047 000e 92F84230 		ldrb	r3, [r2, #66]	@ zero_extendqisi2
 2048 0012 1C43     		orrs	r4, r4, r3
 2049              	.LVL68:
1297:.\Generated_Source\PSoC5/cyPm.c **** 
 2050              		.loc 1 1297 0
 2051 0014 24EA0505 		bic	r5, r4, r5
 2052 0018 82F84250 		strb	r5, [r2, #66]
1300:.\Generated_Source\PSoC5/cyPm.c **** 
 2053              		.loc 1 1300 0
 2054 001c FFF7FEFF 		bl	CyExitCriticalSection
 2055              	.LVL69:
1303:.\Generated_Source\PSoC5/cyPm.c **** 
 2056              		.loc 1 1303 0
 2057 0020 04F00700 		and	r0, r4, #7
 2058 0024 38BD     		pop	{r3, r4, r5, pc}
 2059              	.LVL70:
 2060              	.L170:
 2061 0026 00BF     		.align	2
 2062              	.L169:
 2063 0028 00000000 		.word	.LANCHOR0
 2064 002c 90430040 		.word	1073759120
 2065              		.cfi_endproc
 2066              	.LFE6:
 2067              		.size	CyPmReadStatus, .-CyPmReadStatus
 2068              		.section	.text.CyPmCtwSetInterval,"ax",%progbits
 2069              		.align	2
 2070              		.global	CyPmCtwSetInterval
 2071              		.thumb
 2072              		.thumb_func
 2073              		.type	CyPmCtwSetInterval, %function
 2074              	CyPmCtwSetInterval:
 2075              	.LFB9:
ARM GAS  C:\Users\honet\AppData\Local\Temp\ccQxGmyH.s 			page 79


1462:.\Generated_Source\PSoC5/cyPm.c ****     /* Disable CTW interrupt enable */
 2076              		.loc 1 1462 0
 2077              		.cfi_startproc
 2078              		@ args = 0, pretend = 0, frame = 0
 2079              		@ frame_needed = 0, uses_anonymous_args = 0
 2080              	.LVL71:
 2081 0000 38B5     		push	{r3, r4, r5, lr}
 2082              		.cfi_def_cfa_offset 16
 2083              		.cfi_offset 3, -16
 2084              		.cfi_offset 4, -12
 2085              		.cfi_offset 5, -8
 2086              		.cfi_offset 14, -4
1464:.\Generated_Source\PSoC5/cyPm.c **** 
 2087              		.loc 1 1464 0
 2088 0002 124C     		ldr	r4, .L176
1462:.\Generated_Source\PSoC5/cyPm.c ****     /* Disable CTW interrupt enable */
 2089              		.loc 1 1462 0
 2090 0004 0546     		mov	r5, r0
1464:.\Generated_Source\PSoC5/cyPm.c **** 
 2091              		.loc 1 1464 0
 2092 0006 2378     		ldrb	r3, [r4]	@ zero_extendqisi2
 2093 0008 03F0F703 		and	r3, r3, #247
 2094 000c 2370     		strb	r3, [r4]
1467:.\Generated_Source\PSoC5/cyPm.c **** 
 2095              		.loc 1 1467 0
 2096 000e FFF7FEFF 		bl	CyILO_Start1K
 2097              	.LVL72:
1470:.\Generated_Source\PSoC5/cyPm.c ****     {
 2098              		.loc 1 1470 0
 2099 0012 2378     		ldrb	r3, [r4]	@ zero_extendqisi2
 2100 0014 5B07     		lsls	r3, r3, #29
 2101 0016 0DD5     		bpl	.L172
1473:.\Generated_Source\PSoC5/cyPm.c ****         {
 2102              		.loc 1 1473 0
 2103 0018 0D4A     		ldr	r2, .L176+4
 2104 001a 1378     		ldrb	r3, [r2]	@ zero_extendqisi2
 2105 001c AB42     		cmp	r3, r5
 2106 001e 13D0     		beq	.L171
1476:.\Generated_Source\PSoC5/cyPm.c ****             CY_PM_TW_CFG1_REG = ctwInterval;
 2107              		.loc 1 1476 0
 2108 0020 2378     		ldrb	r3, [r4]	@ zero_extendqisi2
 2109 0022 03F0FB03 		and	r3, r3, #251
 2110 0026 2370     		strb	r3, [r4]
1477:.\Generated_Source\PSoC5/cyPm.c ****             CY_PM_TW_CFG2_REG |= CY_PM_CTW_EN;
 2111              		.loc 1 1477 0
 2112 0028 1570     		strb	r5, [r2]
1478:.\Generated_Source\PSoC5/cyPm.c ****         }   /* Required interval is already set */
 2113              		.loc 1 1478 0
 2114 002a 2378     		ldrb	r3, [r4]	@ zero_extendqisi2
 2115 002c 43F00403 		orr	r3, r3, #4
 2116 0030 2370     		strb	r3, [r4]
 2117 0032 38BD     		pop	{r3, r4, r5, pc}
 2118              	.L172:
1484:.\Generated_Source\PSoC5/cyPm.c ****         {
 2119              		.loc 1 1484 0
 2120 0034 064B     		ldr	r3, .L176+4
 2121 0036 1A78     		ldrb	r2, [r3]	@ zero_extendqisi2
ARM GAS  C:\Users\honet\AppData\Local\Temp\ccQxGmyH.s 			page 80


 2122 0038 AA42     		cmp	r2, r5
1491:.\Generated_Source\PSoC5/cyPm.c ****     }
 2123              		.loc 1 1491 0
 2124 003a 044A     		ldr	r2, .L176
1487:.\Generated_Source\PSoC5/cyPm.c ****         }   /* Required interval is already set */
 2125              		.loc 1 1487 0
 2126 003c 18BF     		it	ne
 2127 003e 1D70     		strbne	r5, [r3]
1491:.\Generated_Source\PSoC5/cyPm.c ****     }
 2128              		.loc 1 1491 0
 2129 0040 1378     		ldrb	r3, [r2]	@ zero_extendqisi2
 2130 0042 43F00403 		orr	r3, r3, #4
 2131 0046 1370     		strb	r3, [r2]
 2132              	.L171:
 2133 0048 38BD     		pop	{r3, r4, r5, pc}
 2134              	.L177:
 2135 004a 00BF     		.align	2
 2136              	.L176:
 2137 004c 82430040 		.word	1073759106
 2138 0050 81430040 		.word	1073759105
 2139              		.cfi_endproc
 2140              	.LFE9:
 2141              		.size	CyPmCtwSetInterval, .-CyPmCtwSetInterval
 2142              		.section	.text.CyPmOppsSet,"ax",%progbits
 2143              		.align	2
 2144              		.global	CyPmOppsSet
 2145              		.thumb
 2146              		.thumb_func
 2147              		.type	CyPmOppsSet, %function
 2148              	CyPmOppsSet:
 2149              	.LFB10:
1507:.\Generated_Source\PSoC5/cyPm.c ****     /* Enable 32kHz XTAL if needed */
 2150              		.loc 1 1507 0
 2151              		.cfi_startproc
 2152              		@ args = 0, pretend = 0, frame = 0
 2153              		@ frame_needed = 0, uses_anonymous_args = 0
 2154 0000 08B5     		push	{r3, lr}
 2155              		.cfi_def_cfa_offset 8
 2156              		.cfi_offset 3, -8
 2157              		.cfi_offset 14, -4
1509:.\Generated_Source\PSoC5/cyPm.c ****     {
 2158              		.loc 1 1509 0
 2159 0002 084B     		ldr	r3, .L181
 2160 0004 1B78     		ldrb	r3, [r3]	@ zero_extendqisi2
 2161 0006 DB07     		lsls	r3, r3, #31
 2162 0008 01D4     		bmi	.L179
1512:.\Generated_Source\PSoC5/cyPm.c ****     }
 2163              		.loc 1 1512 0
 2164 000a FFF7FEFF 		bl	CyXTAL_32KHZ_Start
 2165              	.LVL73:
 2166              	.L179:
1516:.\Generated_Source\PSoC5/cyPm.c **** 
 2167              		.loc 1 1516 0
 2168 000e 064B     		ldr	r3, .L181+4
 2169 0010 1A78     		ldrb	r2, [r3]	@ zero_extendqisi2
 2170 0012 02F0DF02 		and	r2, r2, #223
 2171 0016 1A70     		strb	r2, [r3]
ARM GAS  C:\Users\honet\AppData\Local\Temp\ccQxGmyH.s 			page 81


1519:.\Generated_Source\PSoC5/cyPm.c **** }
 2172              		.loc 1 1519 0
 2173 0018 1A78     		ldrb	r2, [r3]	@ zero_extendqisi2
 2174 001a 42F01002 		orr	r2, r2, #16
 2175 001e 1A70     		strb	r2, [r3]
 2176 0020 08BD     		pop	{r3, pc}
 2177              	.L182:
 2178 0022 00BF     		.align	2
 2179              	.L181:
 2180 0024 08430040 		.word	1073758984
 2181 0028 82430040 		.word	1073759106
 2182              		.cfi_endproc
 2183              	.LFE10:
 2184              		.size	CyPmOppsSet, .-CyPmOppsSet
 2185              		.section	.text.CyPmFtwSetInterval,"ax",%progbits
 2186              		.align	2
 2187              		.global	CyPmFtwSetInterval
 2188              		.thumb
 2189              		.thumb_func
 2190              		.type	CyPmFtwSetInterval, %function
 2191              	CyPmFtwSetInterval:
 2192              	.LFB11:
1539:.\Generated_Source\PSoC5/cyPm.c ****     /* Disable FTW interrupt enable */
 2193              		.loc 1 1539 0
 2194              		.cfi_startproc
 2195              		@ args = 0, pretend = 0, frame = 0
 2196              		@ frame_needed = 0, uses_anonymous_args = 0
 2197              	.LVL74:
 2198 0000 38B5     		push	{r3, r4, r5, lr}
 2199              		.cfi_def_cfa_offset 16
 2200              		.cfi_offset 3, -16
 2201              		.cfi_offset 4, -12
 2202              		.cfi_offset 5, -8
 2203              		.cfi_offset 14, -4
1541:.\Generated_Source\PSoC5/cyPm.c **** 
 2204              		.loc 1 1541 0
 2205 0002 124C     		ldr	r4, .L188
1539:.\Generated_Source\PSoC5/cyPm.c ****     /* Disable FTW interrupt enable */
 2206              		.loc 1 1539 0
 2207 0004 0546     		mov	r5, r0
1541:.\Generated_Source\PSoC5/cyPm.c **** 
 2208              		.loc 1 1541 0
 2209 0006 2378     		ldrb	r3, [r4]	@ zero_extendqisi2
 2210 0008 03F0FD03 		and	r3, r3, #253
 2211 000c 2370     		strb	r3, [r4]
1544:.\Generated_Source\PSoC5/cyPm.c **** 
 2212              		.loc 1 1544 0
 2213 000e FFF7FEFF 		bl	CyILO_Start100K
 2214              	.LVL75:
1547:.\Generated_Source\PSoC5/cyPm.c ****     {
 2215              		.loc 1 1547 0
 2216 0012 2378     		ldrb	r3, [r4]	@ zero_extendqisi2
 2217 0014 DB07     		lsls	r3, r3, #31
 2218 0016 0DD5     		bpl	.L184
1550:.\Generated_Source\PSoC5/cyPm.c ****         {
 2219              		.loc 1 1550 0
 2220 0018 0D4A     		ldr	r2, .L188+4
ARM GAS  C:\Users\honet\AppData\Local\Temp\ccQxGmyH.s 			page 82


 2221 001a 1378     		ldrb	r3, [r2]	@ zero_extendqisi2
 2222 001c AB42     		cmp	r3, r5
 2223 001e 13D0     		beq	.L183
1553:.\Generated_Source\PSoC5/cyPm.c ****             CY_PM_TW_CFG0_REG = ftwInterval;
 2224              		.loc 1 1553 0
 2225 0020 2378     		ldrb	r3, [r4]	@ zero_extendqisi2
 2226 0022 03F0FE03 		and	r3, r3, #254
 2227 0026 2370     		strb	r3, [r4]
1554:.\Generated_Source\PSoC5/cyPm.c ****             CY_PM_TW_CFG2_REG |= CY_PM_FTW_EN;
 2228              		.loc 1 1554 0
 2229 0028 1570     		strb	r5, [r2]
1555:.\Generated_Source\PSoC5/cyPm.c ****         }   /* Required interval is already set */
 2230              		.loc 1 1555 0
 2231 002a 2378     		ldrb	r3, [r4]	@ zero_extendqisi2
 2232 002c 43F00103 		orr	r3, r3, #1
 2233 0030 2370     		strb	r3, [r4]
 2234 0032 38BD     		pop	{r3, r4, r5, pc}
 2235              	.L184:
1561:.\Generated_Source\PSoC5/cyPm.c ****         {
 2236              		.loc 1 1561 0
 2237 0034 064B     		ldr	r3, .L188+4
 2238 0036 1A78     		ldrb	r2, [r3]	@ zero_extendqisi2
 2239 0038 AA42     		cmp	r2, r5
1568:.\Generated_Source\PSoC5/cyPm.c ****     }
 2240              		.loc 1 1568 0
 2241 003a 044A     		ldr	r2, .L188
1564:.\Generated_Source\PSoC5/cyPm.c ****         }   /* Required interval is already set */
 2242              		.loc 1 1564 0
 2243 003c 18BF     		it	ne
 2244 003e 1D70     		strbne	r5, [r3]
1568:.\Generated_Source\PSoC5/cyPm.c ****     }
 2245              		.loc 1 1568 0
 2246 0040 1378     		ldrb	r3, [r2]	@ zero_extendqisi2
 2247 0042 43F00103 		orr	r3, r3, #1
 2248 0046 1370     		strb	r3, [r2]
 2249              	.L183:
 2250 0048 38BD     		pop	{r3, r4, r5, pc}
 2251              	.L189:
 2252 004a 00BF     		.align	2
 2253              	.L188:
 2254 004c 82430040 		.word	1073759106
 2255 0050 80430040 		.word	1073759104
 2256              		.cfi_endproc
 2257              	.LFE11:
 2258              		.size	CyPmFtwSetInterval, .-CyPmFtwSetInterval
 2259              		.section	.rodata
 2260              		.align	2
 2261              		.set	.LANCHOR1,. + 0
 2262              		.type	cyPmImoFreqReg2Mhz, %object
 2263              		.size	cyPmImoFreqReg2Mhz, 7
 2264              	cyPmImoFreqReg2Mhz:
 2265 0000 0C       		.byte	12
 2266 0001 06       		.byte	6
 2267 0002 18       		.byte	24
 2268 0003 03       		.byte	3
 2269 0004 30       		.byte	48
 2270 0005 3E       		.byte	62
ARM GAS  C:\Users\honet\AppData\Local\Temp\ccQxGmyH.s 			page 83


 2271 0006 4A       		.byte	74
 2272 0007 00       		.space	1
 2273              	.LC0:
 2274 0008 02       		.byte	2
 2275 0009 01       		.byte	1
 2276 000a 03       		.byte	3
 2277 000b 00       		.byte	0
 2278 000c 04       		.byte	4
 2279 000d 05       		.byte	5
 2280 000e 06       		.byte	6
 2281 000f 00       		.bss
 2282              		.align	2
 2283              		.set	.LANCHOR0,. + 0
 2284              		.type	cyPmBackup, %object
 2285              		.size	cyPmBackup, 47
 2286              	cyPmBackup:
 2287 0000 00000000 		.space	47
 2287      00000000 
 2287      00000000 
 2287      00000000 
 2287      00000000 
 2288 002f 00       		.space	1
 2289              		.type	cyPmClockBackup, %object
 2290              		.size	cyPmClockBackup, 18
 2291              	cyPmClockBackup:
 2292 0030 00000000 		.space	18
 2292      00000000 
 2292      00000000 
 2292      00000000 
 2292      0000
 2293              		.type	interruptStatus.4852, %object
 2294              		.size	interruptStatus.4852, 1
 2295              	interruptStatus.4852:
 2296 0042 00       		.space	1
 2297 0043 00       		.text
 2298              	.Letext0:
 2299              		.file 2 ".\\Generated_Source\\PSoC5\\cytypes.h"
 2300              		.file 3 ".\\Generated_Source\\PSoC5\\cyPm.h"
 2301              		.file 4 ".\\Generated_Source\\PSoC5\\CyFlash.h"
 2302              		.file 5 ".\\Generated_Source\\PSoC5\\CyLib.h"
 2303              		.section	.debug_info,"",%progbits
 2304              	.Ldebug_info0:
 2305 0000 CE090000 		.4byte	0x9ce
 2306 0004 0400     		.2byte	0x4
 2307 0006 00000000 		.4byte	.Ldebug_abbrev0
 2308 000a 04       		.byte	0x4
 2309 000b 01       		.uleb128 0x1
 2310 000c 93060000 		.4byte	.LASF113
 2311 0010 01       		.byte	0x1
 2312 0011 AE010000 		.4byte	.LASF114
 2313 0015 49040000 		.4byte	.LASF115
 2314 0019 C8000000 		.4byte	.Ldebug_ranges0+0xc8
 2315 001d 00000000 		.4byte	0
 2316 0021 00000000 		.4byte	.Ldebug_line0
 2317 0025 02       		.uleb128 0x2
 2318 0026 01       		.byte	0x1
 2319 0027 06       		.byte	0x6
ARM GAS  C:\Users\honet\AppData\Local\Temp\ccQxGmyH.s 			page 84


 2320 0028 33010000 		.4byte	.LASF0
 2321 002c 02       		.uleb128 0x2
 2322 002d 01       		.byte	0x1
 2323 002e 08       		.byte	0x8
 2324 002f A2040000 		.4byte	.LASF1
 2325 0033 02       		.uleb128 0x2
 2326 0034 02       		.byte	0x2
 2327 0035 05       		.byte	0x5
 2328 0036 DB040000 		.4byte	.LASF2
 2329 003a 02       		.uleb128 0x2
 2330 003b 02       		.byte	0x2
 2331 003c 07       		.byte	0x7
 2332 003d C1020000 		.4byte	.LASF3
 2333 0041 02       		.uleb128 0x2
 2334 0042 04       		.byte	0x4
 2335 0043 05       		.byte	0x5
 2336 0044 6C010000 		.4byte	.LASF4
 2337 0048 02       		.uleb128 0x2
 2338 0049 04       		.byte	0x4
 2339 004a 07       		.byte	0x7
 2340 004b 32020000 		.4byte	.LASF5
 2341 004f 02       		.uleb128 0x2
 2342 0050 08       		.byte	0x8
 2343 0051 05       		.byte	0x5
 2344 0052 25010000 		.4byte	.LASF6
 2345 0056 02       		.uleb128 0x2
 2346 0057 08       		.byte	0x8
 2347 0058 07       		.byte	0x7
 2348 0059 A2000000 		.4byte	.LASF7
 2349 005d 03       		.uleb128 0x3
 2350 005e 04       		.byte	0x4
 2351 005f 05       		.byte	0x5
 2352 0060 696E7400 		.ascii	"int\000"
 2353 0064 02       		.uleb128 0x2
 2354 0065 04       		.byte	0x4
 2355 0066 07       		.byte	0x7
 2356 0067 04020000 		.4byte	.LASF8
 2357 006b 04       		.uleb128 0x4
 2358 006c 87010000 		.4byte	.LASF9
 2359 0070 02       		.byte	0x2
 2360 0071 9201     		.2byte	0x192
 2361 0073 2C000000 		.4byte	0x2c
 2362 0077 04       		.uleb128 0x4
 2363 0078 14000000 		.4byte	.LASF10
 2364 007c 02       		.byte	0x2
 2365 007d 9301     		.2byte	0x193
 2366 007f 3A000000 		.4byte	0x3a
 2367 0083 04       		.uleb128 0x4
 2368 0084 CE010000 		.4byte	.LASF11
 2369 0088 02       		.byte	0x2
 2370 0089 9401     		.2byte	0x194
 2371 008b 48000000 		.4byte	0x48
 2372 008f 02       		.uleb128 0x2
 2373 0090 04       		.byte	0x4
 2374 0091 04       		.byte	0x4
 2375 0092 FD030000 		.4byte	.LASF12
 2376 0096 02       		.uleb128 0x2
ARM GAS  C:\Users\honet\AppData\Local\Temp\ccQxGmyH.s 			page 85


 2377 0097 08       		.byte	0x8
 2378 0098 04       		.byte	0x4
 2379 0099 A7010000 		.4byte	.LASF13
 2380 009d 02       		.uleb128 0x2
 2381 009e 01       		.byte	0x1
 2382 009f 08       		.byte	0x8
 2383 00a0 05050000 		.4byte	.LASF14
 2384 00a4 04       		.uleb128 0x4
 2385 00a5 25060000 		.4byte	.LASF15
 2386 00a9 02       		.byte	0x2
 2387 00aa 3402     		.2byte	0x234
 2388 00ac 48000000 		.4byte	0x48
 2389 00b0 04       		.uleb128 0x4
 2390 00b1 44040000 		.4byte	.LASF16
 2391 00b5 02       		.byte	0x2
 2392 00b6 3C02     		.2byte	0x23c
 2393 00b8 BC000000 		.4byte	0xbc
 2394 00bc 05       		.uleb128 0x5
 2395 00bd 6B000000 		.4byte	0x6b
 2396 00c1 02       		.uleb128 0x2
 2397 00c2 04       		.byte	0x4
 2398 00c3 07       		.byte	0x7
 2399 00c4 76030000 		.4byte	.LASF17
 2400 00c8 06       		.uleb128 0x6
 2401 00c9 4B020000 		.4byte	.LASF34
 2402 00cd 12       		.byte	0x12
 2403 00ce 03       		.byte	0x3
 2404 00cf F8       		.byte	0xf8
 2405 00d0 93010000 		.4byte	0x193
 2406 00d4 07       		.uleb128 0x7
 2407 00d5 A2030000 		.4byte	.LASF18
 2408 00d9 03       		.byte	0x3
 2409 00da FB       		.byte	0xfb
 2410 00db 6B000000 		.4byte	0x6b
 2411 00df 00       		.byte	0
 2412 00e0 07       		.uleb128 0x7
 2413 00e1 A9030000 		.4byte	.LASF19
 2414 00e5 03       		.byte	0x3
 2415 00e6 FC       		.byte	0xfc
 2416 00e7 6B000000 		.4byte	0x6b
 2417 00eb 01       		.byte	0x1
 2418 00ec 07       		.uleb128 0x7
 2419 00ed 51000000 		.4byte	.LASF20
 2420 00f1 03       		.byte	0x3
 2421 00f2 FD       		.byte	0xfd
 2422 00f3 6B000000 		.4byte	0x6b
 2423 00f7 02       		.byte	0x2
 2424 00f8 07       		.uleb128 0x7
 2425 00f9 2A020000 		.4byte	.LASF21
 2426 00fd 03       		.byte	0x3
 2427 00fe FE       		.byte	0xfe
 2428 00ff 6B000000 		.4byte	0x6b
 2429 0103 03       		.byte	0x3
 2430 0104 07       		.uleb128 0x7
 2431 0105 E2000000 		.4byte	.LASF22
 2432 0109 03       		.byte	0x3
 2433 010a FF       		.byte	0xff
ARM GAS  C:\Users\honet\AppData\Local\Temp\ccQxGmyH.s 			page 86


 2434 010b 6B000000 		.4byte	0x6b
 2435 010f 04       		.byte	0x4
 2436 0110 08       		.uleb128 0x8
 2437 0111 2E060000 		.4byte	.LASF23
 2438 0115 03       		.byte	0x3
 2439 0116 0001     		.2byte	0x100
 2440 0118 6B000000 		.4byte	0x6b
 2441 011c 05       		.byte	0x5
 2442 011d 08       		.uleb128 0x8
 2443 011e 79060000 		.4byte	.LASF24
 2444 0122 03       		.byte	0x3
 2445 0123 0101     		.2byte	0x101
 2446 0125 6B000000 		.4byte	0x6b
 2447 0129 06       		.byte	0x6
 2448 012a 08       		.uleb128 0x8
 2449 012b F3030000 		.4byte	.LASF25
 2450 012f 03       		.byte	0x3
 2451 0130 0201     		.2byte	0x102
 2452 0132 6B000000 		.4byte	0x6b
 2453 0136 07       		.byte	0x7
 2454 0137 08       		.uleb128 0x8
 2455 0138 44030000 		.4byte	.LASF26
 2456 013c 03       		.byte	0x3
 2457 013d 0301     		.2byte	0x103
 2458 013f 6B000000 		.4byte	0x6b
 2459 0143 08       		.byte	0x8
 2460 0144 08       		.uleb128 0x8
 2461 0145 66010000 		.4byte	.LASF27
 2462 0149 03       		.byte	0x3
 2463 014a 0401     		.2byte	0x104
 2464 014c 6B000000 		.4byte	0x6b
 2465 0150 09       		.byte	0x9
 2466 0151 08       		.uleb128 0x8
 2467 0152 85000000 		.4byte	.LASF28
 2468 0156 03       		.byte	0x3
 2469 0157 0501     		.2byte	0x105
 2470 0159 6B000000 		.4byte	0x6b
 2471 015d 0A       		.byte	0xa
 2472 015e 08       		.uleb128 0x8
 2473 015f 3F010000 		.4byte	.LASF29
 2474 0163 03       		.byte	0x3
 2475 0164 0601     		.2byte	0x106
 2476 0166 77000000 		.4byte	0x77
 2477 016a 0C       		.byte	0xc
 2478 016b 08       		.uleb128 0x8
 2479 016c C0040000 		.4byte	.LASF30
 2480 0170 03       		.byte	0x3
 2481 0171 0701     		.2byte	0x107
 2482 0173 6B000000 		.4byte	0x6b
 2483 0177 0E       		.byte	0xe
 2484 0178 08       		.uleb128 0x8
 2485 0179 D5010000 		.4byte	.LASF31
 2486 017d 03       		.byte	0x3
 2487 017e 0801     		.2byte	0x108
 2488 0180 6B000000 		.4byte	0x6b
 2489 0184 0F       		.byte	0xf
 2490 0185 08       		.uleb128 0x8
ARM GAS  C:\Users\honet\AppData\Local\Temp\ccQxGmyH.s 			page 87


 2491 0186 A8050000 		.4byte	.LASF32
 2492 018a 03       		.byte	0x3
 2493 018b 0901     		.2byte	0x109
 2494 018d 6B000000 		.4byte	0x6b
 2495 0191 10       		.byte	0x10
 2496 0192 00       		.byte	0
 2497 0193 04       		.uleb128 0x4
 2498 0194 A7020000 		.4byte	.LASF33
 2499 0198 03       		.byte	0x3
 2500 0199 0B01     		.2byte	0x10b
 2501 019b C8000000 		.4byte	0xc8
 2502 019f 09       		.uleb128 0x9
 2503 01a0 78020000 		.4byte	.LASF35
 2504 01a4 2F       		.byte	0x2f
 2505 01a5 03       		.byte	0x3
 2506 01a6 0E01     		.2byte	0x10e
 2507 01a8 B1020000 		.4byte	0x2b1
 2508 01ac 08       		.uleb128 0x8
 2509 01ad 18010000 		.4byte	.LASF36
 2510 01b1 03       		.byte	0x3
 2511 01b2 1001     		.2byte	0x110
 2512 01b4 6B000000 		.4byte	0x6b
 2513 01b8 00       		.byte	0
 2514 01b9 08       		.uleb128 0x8
 2515 01ba CF040000 		.4byte	.LASF37
 2516 01be 03       		.byte	0x3
 2517 01bf 1101     		.2byte	0x111
 2518 01c1 6B000000 		.4byte	0x6b
 2519 01c5 01       		.byte	0x1
 2520 01c6 08       		.uleb128 0x8
 2521 01c7 F7040000 		.4byte	.LASF38
 2522 01cb 03       		.byte	0x3
 2523 01cc 1201     		.2byte	0x112
 2524 01ce 6B000000 		.4byte	0x6b
 2525 01d2 02       		.byte	0x2
 2526 01d3 08       		.uleb128 0x8
 2527 01d4 6A030000 		.4byte	.LASF39
 2528 01d8 03       		.byte	0x3
 2529 01d9 1401     		.2byte	0x114
 2530 01db 6B000000 		.4byte	0x6b
 2531 01df 03       		.byte	0x3
 2532 01e0 08       		.uleb128 0x8
 2533 01e1 0A030000 		.4byte	.LASF40
 2534 01e5 03       		.byte	0x3
 2535 01e6 1E01     		.2byte	0x11e
 2536 01e8 6B000000 		.4byte	0x6b
 2537 01ec 04       		.byte	0x4
 2538 01ed 08       		.uleb128 0x8
 2539 01ee 15030000 		.4byte	.LASF41
 2540 01f2 03       		.byte	0x3
 2541 01f3 1F01     		.2byte	0x11f
 2542 01f5 6B000000 		.4byte	0x6b
 2543 01f9 05       		.byte	0x5
 2544 01fa 08       		.uleb128 0x8
 2545 01fb 20030000 		.4byte	.LASF42
 2546 01ff 03       		.byte	0x3
 2547 0200 2001     		.2byte	0x120
ARM GAS  C:\Users\honet\AppData\Local\Temp\ccQxGmyH.s 			page 88


 2548 0202 6B000000 		.4byte	0x6b
 2549 0206 06       		.byte	0x6
 2550 0207 08       		.uleb128 0x8
 2551 0208 39000000 		.4byte	.LASF43
 2552 020c 03       		.byte	0x3
 2553 020d 2201     		.2byte	0x122
 2554 020f 6B000000 		.4byte	0x6b
 2555 0213 07       		.byte	0x7
 2556 0214 08       		.uleb128 0x8
 2557 0215 45000000 		.4byte	.LASF44
 2558 0219 03       		.byte	0x3
 2559 021a 2301     		.2byte	0x123
 2560 021c 6B000000 		.4byte	0x6b
 2561 0220 08       		.byte	0x8
 2562 0221 08       		.uleb128 0x8
 2563 0222 11020000 		.4byte	.LASF45
 2564 0226 03       		.byte	0x3
 2565 0227 2501     		.2byte	0x125
 2566 0229 B1020000 		.4byte	0x2b1
 2567 022d 09       		.byte	0x9
 2568 022e 08       		.uleb128 0x8
 2569 022f 44020000 		.4byte	.LASF46
 2570 0233 03       		.byte	0x3
 2571 0234 2801     		.2byte	0x128
 2572 0236 6B000000 		.4byte	0x6b
 2573 023a 25       		.byte	0x25
 2574 023b 08       		.uleb128 0x8
 2575 023c 70060000 		.4byte	.LASF47
 2576 0240 03       		.byte	0x3
 2577 0241 2901     		.2byte	0x129
 2578 0243 6B000000 		.4byte	0x6b
 2579 0247 26       		.byte	0x26
 2580 0248 08       		.uleb128 0x8
 2581 0249 CF050000 		.4byte	.LASF48
 2582 024d 03       		.byte	0x3
 2583 024e 2A01     		.2byte	0x12a
 2584 0250 6B000000 		.4byte	0x6b
 2585 0254 27       		.byte	0x27
 2586 0255 08       		.uleb128 0x8
 2587 0256 D9000000 		.4byte	.LASF49
 2588 025a 03       		.byte	0x3
 2589 025b 2B01     		.2byte	0x12b
 2590 025d 6B000000 		.4byte	0x6b
 2591 0261 28       		.byte	0x28
 2592 0262 08       		.uleb128 0x8
 2593 0263 FF000000 		.4byte	.LASF50
 2594 0267 03       		.byte	0x3
 2595 0268 2C01     		.2byte	0x12c
 2596 026a 6B000000 		.4byte	0x6b
 2597 026e 29       		.byte	0x29
 2598 026f 08       		.uleb128 0x8
 2599 0270 23040000 		.4byte	.LASF51
 2600 0274 03       		.byte	0x3
 2601 0275 2D01     		.2byte	0x12d
 2602 0277 6B000000 		.4byte	0x6b
 2603 027b 2A       		.byte	0x2a
 2604 027c 08       		.uleb128 0x8
ARM GAS  C:\Users\honet\AppData\Local\Temp\ccQxGmyH.s 			page 89


 2605 027d 3E060000 		.4byte	.LASF52
 2606 0281 03       		.byte	0x3
 2607 0282 2E01     		.2byte	0x12e
 2608 0284 6B000000 		.4byte	0x6b
 2609 0288 2B       		.byte	0x2b
 2610 0289 08       		.uleb128 0x8
 2611 028a F9010000 		.4byte	.LASF53
 2612 028e 03       		.byte	0x3
 2613 028f 3001     		.2byte	0x130
 2614 0291 6B000000 		.4byte	0x6b
 2615 0295 2C       		.byte	0x2c
 2616 0296 08       		.uleb128 0x8
 2617 0297 32050000 		.4byte	.LASF54
 2618 029b 03       		.byte	0x3
 2619 029c 3101     		.2byte	0x131
 2620 029e 6B000000 		.4byte	0x6b
 2621 02a2 2D       		.byte	0x2d
 2622 02a3 08       		.uleb128 0x8
 2623 02a4 38030000 		.4byte	.LASF55
 2624 02a8 03       		.byte	0x3
 2625 02a9 3301     		.2byte	0x133
 2626 02ab 6B000000 		.4byte	0x6b
 2627 02af 2E       		.byte	0x2e
 2628 02b0 00       		.byte	0
 2629 02b1 0A       		.uleb128 0xa
 2630 02b2 6B000000 		.4byte	0x6b
 2631 02b6 C1020000 		.4byte	0x2c1
 2632 02ba 0B       		.uleb128 0xb
 2633 02bb C1000000 		.4byte	0xc1
 2634 02bf 1B       		.byte	0x1b
 2635 02c0 00       		.byte	0
 2636 02c1 04       		.uleb128 0x4
 2637 02c2 5E000000 		.4byte	.LASF56
 2638 02c6 03       		.byte	0x3
 2639 02c7 3501     		.2byte	0x135
 2640 02c9 9F010000 		.4byte	0x19f
 2641 02cd 0C       		.uleb128 0xc
 2642 02ce E5040000 		.4byte	.LASF57
 2643 02d2 01       		.byte	0x1
 2644 02d3 3406     		.2byte	0x634
 2645 02d5 00000000 		.4byte	.LFB12
 2646 02d9 C8010000 		.4byte	.LFE12-.LFB12
 2647 02dd 01       		.uleb128 0x1
 2648 02de 9C       		.byte	0x9c
 2649 02df 0C       		.uleb128 0xc
 2650 02e0 27000000 		.4byte	.LASF58
 2651 02e4 01       		.byte	0x1
 2652 02e5 B006     		.2byte	0x6b0
 2653 02e7 00000000 		.4byte	.LFB13
 2654 02eb 40010000 		.4byte	.LFE13-.LFB13
 2655 02ef 01       		.uleb128 0x1
 2656 02f0 9C       		.byte	0x9c
 2657 02f1 0D       		.uleb128 0xd
 2658 02f2 4E030000 		.4byte	.LASF59
 2659 02f6 01       		.byte	0x1
 2660 02f7 49       		.byte	0x49
 2661 02f8 00000000 		.4byte	.LFB0
ARM GAS  C:\Users\honet\AppData\Local\Temp\ccQxGmyH.s 			page 90


 2662 02fc E0010000 		.4byte	.LFE0-.LFB0
 2663 0300 01       		.uleb128 0x1
 2664 0301 9C       		.byte	0x9c
 2665 0302 F4030000 		.4byte	0x3f4
 2666 0306 0E       		.uleb128 0xe
 2667 0307 3A000000 		.4byte	.LVL0
 2668 030b 5D080000 		.4byte	0x85d
 2669 030f 1A030000 		.4byte	0x31a
 2670 0313 0F       		.uleb128 0xf
 2671 0314 01       		.uleb128 0x1
 2672 0315 50       		.byte	0x50
 2673 0316 02       		.uleb128 0x2
 2674 0317 08       		.byte	0x8
 2675 0318 37       		.byte	0x37
 2676 0319 00       		.byte	0
 2677 031a 0E       		.uleb128 0xe
 2678 031b 7E000000 		.4byte	.LVL1
 2679 031f 6E080000 		.4byte	0x86e
 2680 0323 2D030000 		.4byte	0x32d
 2681 0327 0F       		.uleb128 0xf
 2682 0328 01       		.uleb128 0x1
 2683 0329 50       		.byte	0x50
 2684 032a 01       		.uleb128 0x1
 2685 032b 34       		.byte	0x34
 2686 032c 00       		.byte	0
 2687 032d 0E       		.uleb128 0xe
 2688 032e BE000000 		.4byte	.LVL2
 2689 0332 7F080000 		.4byte	0x87f
 2690 0336 41030000 		.4byte	0x341
 2691 033a 0F       		.uleb128 0xf
 2692 033b 01       		.uleb128 0x1
 2693 033c 50       		.byte	0x50
 2694 033d 02       		.uleb128 0x2
 2695 033e 75       		.byte	0x75
 2696 033f 00       		.sleb128 0
 2697 0340 00       		.byte	0
 2698 0341 10       		.uleb128 0x10
 2699 0342 12010000 		.4byte	.LVL3
 2700 0346 5D080000 		.4byte	0x85d
 2701 034a 10       		.uleb128 0x10
 2702 034b 3E010000 		.4byte	.LVL4
 2703 034f 90080000 		.4byte	0x890
 2704 0353 10       		.uleb128 0x10
 2705 0354 4A010000 		.4byte	.LVL5
 2706 0358 97080000 		.4byte	0x897
 2707 035c 0E       		.uleb128 0xe
 2708 035d 52010000 		.4byte	.LVL6
 2709 0361 9E080000 		.4byte	0x89e
 2710 0365 70030000 		.4byte	0x370
 2711 0369 0F       		.uleb128 0xf
 2712 036a 01       		.uleb128 0x1
 2713 036b 50       		.byte	0x50
 2714 036c 02       		.uleb128 0x2
 2715 036d 75       		.byte	0x75
 2716 036e 00       		.sleb128 0
 2717 036f 00       		.byte	0
 2718 0370 0E       		.uleb128 0xe
ARM GAS  C:\Users\honet\AppData\Local\Temp\ccQxGmyH.s 			page 91


 2719 0371 5A010000 		.4byte	.LVL7
 2720 0375 AF080000 		.4byte	0x8af
 2721 0379 84030000 		.4byte	0x384
 2722 037d 0F       		.uleb128 0xf
 2723 037e 01       		.uleb128 0x1
 2724 037f 50       		.byte	0x50
 2725 0380 02       		.uleb128 0x2
 2726 0381 75       		.byte	0x75
 2727 0382 00       		.sleb128 0
 2728 0383 00       		.byte	0
 2729 0384 0E       		.uleb128 0xe
 2730 0385 62010000 		.4byte	.LVL8
 2731 0389 C0080000 		.4byte	0x8c0
 2732 038d 98030000 		.4byte	0x398
 2733 0391 0F       		.uleb128 0xf
 2734 0392 01       		.uleb128 0x1
 2735 0393 50       		.byte	0x50
 2736 0394 02       		.uleb128 0x2
 2737 0395 75       		.byte	0x75
 2738 0396 00       		.sleb128 0
 2739 0397 00       		.byte	0
 2740 0398 10       		.uleb128 0x10
 2741 0399 68010000 		.4byte	.LVL9
 2742 039d D1080000 		.4byte	0x8d1
 2743 03a1 10       		.uleb128 0x10
 2744 03a2 74010000 		.4byte	.LVL10
 2745 03a6 D8080000 		.4byte	0x8d8
 2746 03aa 0E       		.uleb128 0xe
 2747 03ab 7A010000 		.4byte	.LVL11
 2748 03af E9080000 		.4byte	0x8e9
 2749 03b3 BD030000 		.4byte	0x3bd
 2750 03b7 0F       		.uleb128 0xf
 2751 03b8 01       		.uleb128 0x1
 2752 03b9 50       		.byte	0x50
 2753 03ba 01       		.uleb128 0x1
 2754 03bb 36       		.byte	0x36
 2755 03bc 00       		.byte	0
 2756 03bd 0E       		.uleb128 0xe
 2757 03be 98010000 		.4byte	.LVL12
 2758 03c2 AF080000 		.4byte	0x8af
 2759 03c6 D0030000 		.4byte	0x3d0
 2760 03ca 0F       		.uleb128 0xf
 2761 03cb 01       		.uleb128 0x1
 2762 03cc 50       		.byte	0x50
 2763 03cd 01       		.uleb128 0x1
 2764 03ce 33       		.byte	0x33
 2765 03cf 00       		.byte	0
 2766 03d0 0E       		.uleb128 0xe
 2767 03d1 A0010000 		.4byte	.LVL13
 2768 03d5 AF080000 		.4byte	0x8af
 2769 03d9 E4030000 		.4byte	0x3e4
 2770 03dd 0F       		.uleb128 0xf
 2771 03de 01       		.uleb128 0x1
 2772 03df 50       		.byte	0x50
 2773 03e0 02       		.uleb128 0x2
 2774 03e1 75       		.byte	0x75
 2775 03e2 00       		.sleb128 0
ARM GAS  C:\Users\honet\AppData\Local\Temp\ccQxGmyH.s 			page 92


 2776 03e3 00       		.byte	0
 2777 03e4 11       		.uleb128 0x11
 2778 03e5 A8010000 		.4byte	.LVL14
 2779 03e9 AF080000 		.4byte	0x8af
 2780 03ed 0F       		.uleb128 0xf
 2781 03ee 01       		.uleb128 0x1
 2782 03ef 50       		.byte	0x50
 2783 03f0 01       		.uleb128 0x1
 2784 03f1 32       		.byte	0x32
 2785 03f2 00       		.byte	0
 2786 03f3 00       		.byte	0
 2787 03f4 12       		.uleb128 0x12
 2788 03f5 90000000 		.4byte	.LASF60
 2789 03f9 01       		.byte	0x1
 2790 03fa 0C01     		.2byte	0x10c
 2791 03fc 00000000 		.4byte	.LFB1
 2792 0400 40020000 		.4byte	.LFE1-.LFB1
 2793 0404 01       		.uleb128 0x1
 2794 0405 9C       		.byte	0x9c
 2795 0406 21050000 		.4byte	0x521
 2796 040a 13       		.uleb128 0x13
 2797 040b C8050000 		.4byte	.LASF61
 2798 040f 01       		.byte	0x1
 2799 0410 0E01     		.2byte	0x10e
 2800 0412 A4000000 		.4byte	0xa4
 2801 0416 10       		.byte	0x10
 2802 0417 14       		.uleb128 0x14
 2803 0418 6900     		.ascii	"i\000"
 2804 041a 01       		.byte	0x1
 2805 041b 0F01     		.2byte	0x10f
 2806 041d 77000000 		.4byte	0x77
 2807 0421 00000000 		.4byte	.LLST0
 2808 0425 15       		.uleb128 0x15
 2809 0426 2B030000 		.4byte	.LASF62
 2810 042a 01       		.byte	0x1
 2811 042b 1001     		.2byte	0x110
 2812 042d 77000000 		.4byte	0x77
 2813 0431 14000000 		.4byte	.LLST1
 2814 0435 16       		.uleb128 0x16
 2815 0436 8F030000 		.4byte	.LASF63
 2816 043a 01       		.byte	0x1
 2817 043b 1401     		.2byte	0x114
 2818 043d 31050000 		.4byte	0x531
 2819 0441 02       		.uleb128 0x2
 2820 0442 91       		.byte	0x91
 2821 0443 58       		.sleb128 -40
 2822 0444 0E       		.uleb128 0xe
 2823 0445 38000000 		.4byte	.LVL16
 2824 0449 5D080000 		.4byte	0x85d
 2825 044d 58040000 		.4byte	0x458
 2826 0451 0F       		.uleb128 0xf
 2827 0452 01       		.uleb128 0x1
 2828 0453 50       		.byte	0x50
 2829 0454 02       		.uleb128 0x2
 2830 0455 08       		.byte	0x8
 2831 0456 37       		.byte	0x37
 2832 0457 00       		.byte	0
ARM GAS  C:\Users\honet\AppData\Local\Temp\ccQxGmyH.s 			page 93


 2833 0458 10       		.uleb128 0x10
 2834 0459 66000000 		.4byte	.LVL17
 2835 045d 6E080000 		.4byte	0x86e
 2836 0461 10       		.uleb128 0x10
 2837 0462 8E000000 		.4byte	.LVL18
 2838 0466 7F080000 		.4byte	0x87f
 2839 046a 10       		.uleb128 0x10
 2840 046b EA000000 		.4byte	.LVL22
 2841 046f 9E080000 		.4byte	0x89e
 2842 0473 10       		.uleb128 0x10
 2843 0474 24010000 		.4byte	.LVL23
 2844 0478 D8080000 		.4byte	0x8d8
 2845 047c 10       		.uleb128 0x10
 2846 047d 38010000 		.4byte	.LVL24
 2847 0481 C0080000 		.4byte	0x8c0
 2848 0485 10       		.uleb128 0x10
 2849 0486 40010000 		.4byte	.LVL25
 2850 048a AF080000 		.4byte	0x8af
 2851 048e 10       		.uleb128 0x10
 2852 048f 54010000 		.4byte	.LVL26
 2853 0493 C0080000 		.4byte	0x8c0
 2854 0497 10       		.uleb128 0x10
 2855 0498 5C010000 		.4byte	.LVL27
 2856 049c AF080000 		.4byte	0x8af
 2857 04a0 10       		.uleb128 0x10
 2858 04a1 62010000 		.4byte	.LVL28
 2859 04a5 FA080000 		.4byte	0x8fa
 2860 04a9 10       		.uleb128 0x10
 2861 04aa 68010000 		.4byte	.LVL29
 2862 04ae 01090000 		.4byte	0x901
 2863 04b2 10       		.uleb128 0x10
 2864 04b3 80010000 		.4byte	.LVL30
 2865 04b7 08090000 		.4byte	0x908
 2866 04bb 0E       		.uleb128 0xe
 2867 04bc 9A010000 		.4byte	.LVL31
 2868 04c0 19090000 		.4byte	0x919
 2869 04c4 CE040000 		.4byte	0x4ce
 2870 04c8 0F       		.uleb128 0xf
 2871 04c9 01       		.uleb128 0x1
 2872 04ca 50       		.byte	0x50
 2873 04cb 01       		.uleb128 0x1
 2874 04cc 30       		.byte	0x30
 2875 04cd 00       		.byte	0
 2876 04ce 10       		.uleb128 0x10
 2877 04cf BE010000 		.4byte	.LVL34
 2878 04d3 08090000 		.4byte	0x908
 2879 04d7 0E       		.uleb128 0xe
 2880 04d8 D6010000 		.4byte	.LVL35
 2881 04dc 2E090000 		.4byte	0x92e
 2882 04e0 EA040000 		.4byte	0x4ea
 2883 04e4 0F       		.uleb128 0xf
 2884 04e5 01       		.uleb128 0x1
 2885 04e6 50       		.byte	0x50
 2886 04e7 01       		.uleb128 0x1
 2887 04e8 30       		.byte	0x30
 2888 04e9 00       		.byte	0
 2889 04ea 0E       		.uleb128 0xe
ARM GAS  C:\Users\honet\AppData\Local\Temp\ccQxGmyH.s 			page 94


 2890 04eb DC010000 		.4byte	.LVL36
 2891 04ef E9080000 		.4byte	0x8e9
 2892 04f3 FE040000 		.4byte	0x4fe
 2893 04f7 0F       		.uleb128 0xf
 2894 04f8 01       		.uleb128 0x1
 2895 04f9 50       		.byte	0x50
 2896 04fa 02       		.uleb128 0x2
 2897 04fb 08       		.byte	0x8
 2898 04fc 50       		.byte	0x50
 2899 04fd 00       		.byte	0
 2900 04fe 0E       		.uleb128 0xe
 2901 04ff EA010000 		.4byte	.LVL38
 2902 0503 E9080000 		.4byte	0x8e9
 2903 0507 11050000 		.4byte	0x511
 2904 050b 0F       		.uleb128 0xf
 2905 050c 01       		.uleb128 0x1
 2906 050d 50       		.byte	0x50
 2907 050e 01       		.uleb128 0x1
 2908 050f 31       		.byte	0x31
 2909 0510 00       		.byte	0
 2910 0511 11       		.uleb128 0x11
 2911 0512 0A020000 		.4byte	.LVL39
 2912 0516 6E080000 		.4byte	0x86e
 2913 051a 0F       		.uleb128 0xf
 2914 051b 01       		.uleb128 0x1
 2915 051c 50       		.byte	0x50
 2916 051d 01       		.uleb128 0x1
 2917 051e 38       		.byte	0x38
 2918 051f 00       		.byte	0
 2919 0520 00       		.byte	0
 2920 0521 0A       		.uleb128 0xa
 2921 0522 6B000000 		.4byte	0x6b
 2922 0526 31050000 		.4byte	0x531
 2923 052a 0B       		.uleb128 0xb
 2924 052b C1000000 		.4byte	0xc1
 2925 052f 06       		.byte	0x6
 2926 0530 00       		.byte	0
 2927 0531 17       		.uleb128 0x17
 2928 0532 21050000 		.4byte	0x521
 2929 0536 12       		.uleb128 0x12
 2930 0537 2B040000 		.4byte	.LASF64
 2931 053b 01       		.byte	0x1
 2932 053c 7102     		.2byte	0x271
 2933 053e 00000000 		.4byte	.LFB2
 2934 0542 6C000000 		.4byte	.LFE2-.LFB2
 2935 0546 01       		.uleb128 0x1
 2936 0547 9C       		.byte	0x9c
 2937 0548 6D050000 		.4byte	0x56d
 2938 054c 18       		.uleb128 0x18
 2939 054d 07060000 		.4byte	.LASF65
 2940 0551 01       		.byte	0x1
 2941 0552 7102     		.2byte	0x271
 2942 0554 77000000 		.4byte	0x77
 2943 0558 40000000 		.4byte	.LLST2
 2944 055c 18       		.uleb128 0x18
 2945 055d C0030000 		.4byte	.LASF66
 2946 0561 01       		.byte	0x1
ARM GAS  C:\Users\honet\AppData\Local\Temp\ccQxGmyH.s 			page 95


 2947 0562 7102     		.2byte	0x271
 2948 0564 77000000 		.4byte	0x77
 2949 0568 61000000 		.4byte	.LLST3
 2950 056c 00       		.byte	0
 2951 056d 12       		.uleb128 0x12
 2952 056e 19040000 		.4byte	.LASF67
 2953 0572 01       		.byte	0x1
 2954 0573 3803     		.2byte	0x338
 2955 0575 00000000 		.4byte	.LFB3
 2956 0579 EC000000 		.4byte	.LFE3-.LFB3
 2957 057d 01       		.uleb128 0x1
 2958 057e 9C       		.byte	0x9c
 2959 057f D8050000 		.4byte	0x5d8
 2960 0583 18       		.uleb128 0x18
 2961 0584 07060000 		.4byte	.LASF65
 2962 0588 01       		.byte	0x1
 2963 0589 3803     		.2byte	0x338
 2964 058b 6B000000 		.4byte	0x6b
 2965 058f 82000000 		.4byte	.LLST4
 2966 0593 18       		.uleb128 0x18
 2967 0594 C0030000 		.4byte	.LASF66
 2968 0598 01       		.byte	0x1
 2969 0599 3803     		.2byte	0x338
 2970 059b 77000000 		.4byte	0x77
 2971 059f A3000000 		.4byte	.LLST5
 2972 05a3 15       		.uleb128 0x15
 2973 05a4 49010000 		.4byte	.LASF68
 2974 05a8 01       		.byte	0x1
 2975 05a9 3A03     		.2byte	0x33a
 2976 05ab 6B000000 		.4byte	0x6b
 2977 05af C4000000 		.4byte	.LLST6
 2978 05b3 10       		.uleb128 0x10
 2979 05b4 08000000 		.4byte	.LVL44
 2980 05b8 43090000 		.4byte	0x943
 2981 05bc 10       		.uleb128 0x10
 2982 05bd 2A000000 		.4byte	.LVL46
 2983 05c1 CD020000 		.4byte	0x2cd
 2984 05c5 10       		.uleb128 0x10
 2985 05c6 A6000000 		.4byte	.LVL47
 2986 05ca DF020000 		.4byte	0x2df
 2987 05ce 19       		.uleb128 0x19
 2988 05cf C6000000 		.4byte	.LVL48
 2989 05d3 4E090000 		.4byte	0x94e
 2990 05d7 00       		.byte	0
 2991 05d8 1A       		.uleb128 0x1a
 2992 05d9 F8050000 		.4byte	.LASF69
 2993 05dd 01       		.byte	0x1
 2994 05de 2A05     		.2byte	0x52a
 2995 05e0 01       		.byte	0x1
 2996 05e1 1A       		.uleb128 0x1a
 2997 05e2 B9000000 		.4byte	.LASF70
 2998 05e6 01       		.byte	0x1
 2999 05e7 F606     		.2byte	0x6f6
 3000 05e9 01       		.byte	0x1
 3001 05ea 1A       		.uleb128 0x1a
 3002 05eb E5010000 		.4byte	.LASF71
 3003 05ef 01       		.byte	0x1
ARM GAS  C:\Users\honet\AppData\Local\Temp\ccQxGmyH.s 			page 96


 3004 05f0 7D05     		.2byte	0x57d
 3005 05f2 01       		.byte	0x1
 3006 05f3 1A       		.uleb128 0x1a
 3007 05f4 75010000 		.4byte	.LASF72
 3008 05f8 01       		.byte	0x1
 3009 05f9 2E07     		.2byte	0x72e
 3010 05fb 01       		.byte	0x1
 3011 05fc 12       		.uleb128 0x12
 3012 05fd 7F030000 		.4byte	.LASF73
 3013 0601 01       		.byte	0x1
 3014 0602 8404     		.2byte	0x484
 3015 0604 00000000 		.4byte	.LFB5
 3016 0608 8C020000 		.4byte	.LFE5-.LFB5
 3017 060c 01       		.uleb128 0x1
 3018 060d 9C       		.byte	0x9c
 3019 060e 0F070000 		.4byte	0x70f
 3020 0612 18       		.uleb128 0x18
 3021 0613 C0030000 		.4byte	.LASF66
 3022 0617 01       		.byte	0x1
 3023 0618 8404     		.2byte	0x484
 3024 061a 77000000 		.4byte	0x77
 3025 061e D7000000 		.4byte	.LLST7
 3026 0622 15       		.uleb128 0x15
 3027 0623 49010000 		.4byte	.LASF68
 3028 0627 01       		.byte	0x1
 3029 0628 8604     		.2byte	0x486
 3030 062a 6B000000 		.4byte	0x6b
 3031 062e F8000000 		.4byte	.LLST8
 3032 0632 1B       		.uleb128 0x1b
 3033 0633 D8050000 		.4byte	0x5d8
 3034 0637 16000000 		.4byte	.LBB10
 3035 063b 00000000 		.4byte	.Ldebug_ranges0+0
 3036 063f 01       		.byte	0x1
 3037 0640 A004     		.2byte	0x4a0
 3038 0642 93060000 		.4byte	0x693
 3039 0646 1B       		.uleb128 0x1b
 3040 0647 E1050000 		.4byte	0x5e1
 3041 064b 62000000 		.4byte	.LBB12
 3042 064f 58000000 		.4byte	.Ldebug_ranges0+0x58
 3043 0653 01       		.byte	0x1
 3044 0654 5F05     		.2byte	0x55f
 3045 0656 76060000 		.4byte	0x676
 3046 065a 10       		.uleb128 0x10
 3047 065b E0010000 		.4byte	.LVL57
 3048 065f 5F090000 		.4byte	0x95f
 3049 0663 10       		.uleb128 0x10
 3050 0664 18020000 		.4byte	.LVL58
 3051 0668 66090000 		.4byte	0x966
 3052 066c 10       		.uleb128 0x10
 3053 066d 24020000 		.4byte	.LVL59
 3054 0671 6D090000 		.4byte	0x96d
 3055 0675 00       		.byte	0
 3056 0676 0E       		.uleb128 0xe
 3057 0677 36000000 		.4byte	.LVL52
 3058 067b 74090000 		.4byte	0x974
 3059 067f 89060000 		.4byte	0x689
 3060 0683 0F       		.uleb128 0xf
ARM GAS  C:\Users\honet\AppData\Local\Temp\ccQxGmyH.s 			page 97


 3061 0684 01       		.uleb128 0x1
 3062 0685 50       		.byte	0x50
 3063 0686 01       		.uleb128 0x1
 3064 0687 31       		.byte	0x31
 3065 0688 00       		.byte	0
 3066 0689 10       		.uleb128 0x10
 3067 068a A2000000 		.4byte	.LVL53
 3068 068e CD020000 		.4byte	0x2cd
 3069 0692 00       		.byte	0
 3070 0693 1B       		.uleb128 0x1b
 3071 0694 EA050000 		.4byte	0x5ea
 3072 0698 2E010000 		.4byte	.LBB34
 3073 069c 78000000 		.4byte	.Ldebug_ranges0+0x78
 3074 06a0 01       		.byte	0x1
 3075 06a1 DE04     		.2byte	0x4de
 3076 06a3 FC060000 		.4byte	0x6fc
 3077 06a7 1B       		.uleb128 0x1b
 3078 06a8 F3050000 		.4byte	0x5f3
 3079 06ac 2E010000 		.4byte	.LBB36
 3080 06b0 A8000000 		.4byte	.Ldebug_ranges0+0xa8
 3081 06b4 01       		.byte	0x1
 3082 06b5 8005     		.2byte	0x580
 3083 06b7 D7060000 		.4byte	0x6d7
 3084 06bb 10       		.uleb128 0x10
 3085 06bc 2A020000 		.4byte	.LVL60
 3086 06c0 89090000 		.4byte	0x989
 3087 06c4 10       		.uleb128 0x10
 3088 06c5 44020000 		.4byte	.LVL63
 3089 06c9 90090000 		.4byte	0x990
 3090 06cd 10       		.uleb128 0x10
 3091 06ce 52020000 		.4byte	.LVL64
 3092 06d2 A6090000 		.4byte	0x9a6
 3093 06d6 00       		.byte	0
 3094 06d7 10       		.uleb128 0x10
 3095 06d8 50010000 		.4byte	.LVL54
 3096 06dc DF020000 		.4byte	0x2df
 3097 06e0 10       		.uleb128 0x10
 3098 06e1 62010000 		.4byte	.LVL55
 3099 06e5 74090000 		.4byte	0x974
 3100 06e9 10       		.uleb128 0x10
 3101 06ea 30020000 		.4byte	.LVL61
 3102 06ee BC090000 		.4byte	0x9bc
 3103 06f2 10       		.uleb128 0x10
 3104 06f3 36020000 		.4byte	.LVL62
 3105 06f7 C3090000 		.4byte	0x9c3
 3106 06fb 00       		.byte	0
 3107 06fc 10       		.uleb128 0x10
 3108 06fd 0A000000 		.4byte	.LVL50
 3109 0701 43090000 		.4byte	0x943
 3110 0705 19       		.uleb128 0x19
 3111 0706 A8010000 		.4byte	.LVL56
 3112 070a 4E090000 		.4byte	0x94e
 3113 070e 00       		.byte	0
 3114 070f 12       		.uleb128 0x12
 3115 0710 42050000 		.4byte	.LASF74
 3116 0714 01       		.byte	0x1
 3117 0715 4704     		.2byte	0x447
ARM GAS  C:\Users\honet\AppData\Local\Temp\ccQxGmyH.s 			page 98


 3118 0717 00000000 		.4byte	.LFB4
 3119 071b 06000000 		.4byte	.LFE4-.LFB4
 3120 071f 01       		.uleb128 0x1
 3121 0720 9C       		.byte	0x9c
 3122 0721 36070000 		.4byte	0x736
 3123 0725 1C       		.uleb128 0x1c
 3124 0726 06000000 		.4byte	.LVL65
 3125 072a FC050000 		.4byte	0x5fc
 3126 072e 0F       		.uleb128 0xf
 3127 072f 01       		.uleb128 0x1
 3128 0730 50       		.byte	0x50
 3129 0731 02       		.uleb128 0x2
 3130 0732 08       		.byte	0x8
 3131 0733 40       		.byte	0x40
 3132 0734 00       		.byte	0
 3133 0735 00       		.byte	0
 3134 0736 1D       		.uleb128 0x1d
 3135 0737 85050000 		.4byte	.LASF116
 3136 073b 01       		.byte	0x1
 3137 073c 0505     		.2byte	0x505
 3138 073e 6B000000 		.4byte	0x6b
 3139 0742 00000000 		.4byte	.LFB6
 3140 0746 30000000 		.4byte	.LFE6-.LFB6
 3141 074a 01       		.uleb128 0x1
 3142 074b 9C       		.byte	0x9c
 3143 074c A5070000 		.4byte	0x7a5
 3144 0750 18       		.uleb128 0x18
 3145 0751 F4010000 		.4byte	.LASF75
 3146 0755 01       		.byte	0x1
 3147 0756 0505     		.2byte	0x505
 3148 0758 6B000000 		.4byte	0x6b
 3149 075c 0B010000 		.4byte	.LLST9
 3150 0760 16       		.uleb128 0x16
 3151 0761 83060000 		.4byte	.LASF76
 3152 0765 01       		.byte	0x1
 3153 0766 0705     		.2byte	0x507
 3154 0768 6B000000 		.4byte	0x6b
 3155 076c 05       		.uleb128 0x5
 3156 076d 03       		.byte	0x3
 3157 076e 42000000 		.4byte	interruptStatus.4852
 3158 0772 15       		.uleb128 0x15
 3159 0773 49010000 		.4byte	.LASF68
 3160 0777 01       		.byte	0x1
 3161 0778 0805     		.2byte	0x508
 3162 077a 6B000000 		.4byte	0x6b
 3163 077e 2C010000 		.4byte	.LLST10
 3164 0782 15       		.uleb128 0x15
 3165 0783 CF000000 		.4byte	.LASF77
 3166 0787 01       		.byte	0x1
 3167 0788 0905     		.2byte	0x509
 3168 078a 6B000000 		.4byte	0x6b
 3169 078e 3F010000 		.4byte	.LLST11
 3170 0792 10       		.uleb128 0x10
 3171 0793 08000000 		.4byte	.LVL67
 3172 0797 43090000 		.4byte	0x943
 3173 079b 10       		.uleb128 0x10
 3174 079c 20000000 		.4byte	.LVL69
ARM GAS  C:\Users\honet\AppData\Local\Temp\ccQxGmyH.s 			page 99


 3175 07a0 4E090000 		.4byte	0x94e
 3176 07a4 00       		.byte	0
 3177 07a5 12       		.uleb128 0x12
 3178 07a6 B5050000 		.4byte	.LASF78
 3179 07aa 01       		.byte	0x1
 3180 07ab B505     		.2byte	0x5b5
 3181 07ad 00000000 		.4byte	.LFB9
 3182 07b1 54000000 		.4byte	.LFE9-.LFB9
 3183 07b5 01       		.uleb128 0x1
 3184 07b6 9C       		.byte	0x9c
 3185 07b7 D5070000 		.4byte	0x7d5
 3186 07bb 18       		.uleb128 0x18
 3187 07bc D4020000 		.4byte	.LASF79
 3188 07c0 01       		.byte	0x1
 3189 07c1 B505     		.2byte	0x5b5
 3190 07c3 6B000000 		.4byte	0x6b
 3191 07c7 56010000 		.4byte	.LLST12
 3192 07cb 10       		.uleb128 0x10
 3193 07cc 12000000 		.4byte	.LVL72
 3194 07d0 C3090000 		.4byte	0x9c3
 3195 07d4 00       		.byte	0
 3196 07d5 12       		.uleb128 0x12
 3197 07d6 96040000 		.4byte	.LASF80
 3198 07da 01       		.byte	0x1
 3199 07db E205     		.2byte	0x5e2
 3200 07dd 00000000 		.4byte	.LFB10
 3201 07e1 2C000000 		.4byte	.LFE10-.LFB10
 3202 07e5 01       		.uleb128 0x1
 3203 07e6 9C       		.byte	0x9c
 3204 07e7 F5070000 		.4byte	0x7f5
 3205 07eb 10       		.uleb128 0x10
 3206 07ec 0E000000 		.4byte	.LVL73
 3207 07f0 CA090000 		.4byte	0x9ca
 3208 07f4 00       		.byte	0
 3209 07f5 12       		.uleb128 0x12
 3210 07f6 EC000000 		.4byte	.LASF81
 3211 07fa 01       		.byte	0x1
 3212 07fb 0206     		.2byte	0x602
 3213 07fd 00000000 		.4byte	.LFB11
 3214 0801 54000000 		.4byte	.LFE11-.LFB11
 3215 0805 01       		.uleb128 0x1
 3216 0806 9C       		.byte	0x9c
 3217 0807 25080000 		.4byte	0x825
 3218 080b 18       		.uleb128 0x18
 3219 080c 66050000 		.4byte	.LASF82
 3220 0810 01       		.byte	0x1
 3221 0811 0206     		.2byte	0x602
 3222 0813 6B000000 		.4byte	0x6b
 3223 0817 77010000 		.4byte	.LLST13
 3224 081b 10       		.uleb128 0x10
 3225 081c 12000000 		.4byte	.LVL75
 3226 0820 BC090000 		.4byte	0x9bc
 3227 0824 00       		.byte	0
 3228 0825 1E       		.uleb128 0x1e
 3229 0826 65060000 		.4byte	.LASF83
 3230 082a 01       		.byte	0x1
 3231 082b 1F       		.byte	0x1f
ARM GAS  C:\Users\honet\AppData\Local\Temp\ccQxGmyH.s 			page 100


 3232 082c C1020000 		.4byte	0x2c1
 3233 0830 05       		.uleb128 0x5
 3234 0831 03       		.byte	0x3
 3235 0832 00000000 		.4byte	cyPmBackup
 3236 0836 1E       		.uleb128 0x1e
 3237 0837 B0040000 		.4byte	.LASF84
 3238 083b 01       		.byte	0x1
 3239 083c 20       		.byte	0x20
 3240 083d 93010000 		.4byte	0x193
 3241 0841 05       		.uleb128 0x5
 3242 0842 03       		.byte	0x3
 3243 0843 30000000 		.4byte	cyPmClockBackup
 3244 0847 1E       		.uleb128 0x1e
 3245 0848 72050000 		.4byte	.LASF85
 3246 084c 01       		.byte	0x1
 3247 084d 23       		.byte	0x23
 3248 084e 58080000 		.4byte	0x858
 3249 0852 05       		.uleb128 0x5
 3250 0853 03       		.byte	0x3
 3251 0854 00000000 		.4byte	cyPmImoFreqReg2Mhz
 3252 0858 17       		.uleb128 0x17
 3253 0859 21050000 		.4byte	0x521
 3254 085d 1F       		.uleb128 0x1f
 3255 085e 50050000 		.4byte	.LASF86
 3256 0862 04       		.byte	0x4
 3257 0863 50       		.byte	0x50
 3258 0864 6E080000 		.4byte	0x86e
 3259 0868 20       		.uleb128 0x20
 3260 0869 6B000000 		.4byte	0x6b
 3261 086d 00       		.byte	0
 3262 086e 1F       		.uleb128 0x1f
 3263 086f D6050000 		.4byte	.LASF87
 3264 0873 05       		.byte	0x5
 3265 0874 48       		.byte	0x48
 3266 0875 7F080000 		.4byte	0x87f
 3267 0879 20       		.uleb128 0x20
 3268 087a 6B000000 		.4byte	0x6b
 3269 087e 00       		.byte	0
 3270 087f 1F       		.uleb128 0x1f
 3271 0880 1A020000 		.4byte	.LASF88
 3272 0884 05       		.byte	0x5
 3273 0885 49       		.byte	0x49
 3274 0886 90080000 		.4byte	0x890
 3275 088a 20       		.uleb128 0x20
 3276 088b 6B000000 		.4byte	0x6b
 3277 088f 00       		.byte	0
 3278 0890 21       		.uleb128 0x21
 3279 0891 CD030000 		.4byte	.LASF89
 3280 0895 05       		.byte	0x5
 3281 0896 42       		.byte	0x42
 3282 0897 21       		.uleb128 0x21
 3283 0898 59060000 		.4byte	.LASF90
 3284 089c 05       		.byte	0x5
 3285 089d 66       		.byte	0x66
 3286 089e 1F       		.uleb128 0x1f
 3287 089f 94050000 		.4byte	.LASF91
 3288 08a3 05       		.byte	0x5
ARM GAS  C:\Users\honet\AppData\Local\Temp\ccQxGmyH.s 			page 101


 3289 08a4 4F       		.byte	0x4f
 3290 08a5 AF080000 		.4byte	0x8af
 3291 08a9 20       		.uleb128 0x20
 3292 08aa 77000000 		.4byte	0x77
 3293 08ae 00       		.byte	0
 3294 08af 1F       		.uleb128 0x1f
 3295 08b0 F4020000 		.4byte	.LASF92
 3296 08b4 05       		.byte	0x5
 3297 08b5 4D       		.byte	0x4d
 3298 08b6 C0080000 		.4byte	0x8c0
 3299 08ba 20       		.uleb128 0x20
 3300 08bb 6B000000 		.4byte	0x6b
 3301 08bf 00       		.byte	0
 3302 08c0 1F       		.uleb128 0x1f
 3303 08c1 DC030000 		.4byte	.LASF93
 3304 08c5 05       		.byte	0x5
 3305 08c6 4E       		.byte	0x4e
 3306 08c7 D1080000 		.4byte	0x8d1
 3307 08cb 20       		.uleb128 0x20
 3308 08cc 6B000000 		.4byte	0x6b
 3309 08d0 00       		.byte	0
 3310 08d1 21       		.uleb128 0x21
 3311 08d2 0A050000 		.4byte	.LASF94
 3312 08d6 05       		.byte	0x5
 3313 08d7 4B       		.byte	0x4b
 3314 08d8 1F       		.uleb128 0x1f
 3315 08d9 1B000000 		.4byte	.LASF95
 3316 08dd 05       		.byte	0x5
 3317 08de 46       		.byte	0x46
 3318 08df E9080000 		.4byte	0x8e9
 3319 08e3 20       		.uleb128 0x20
 3320 08e4 6B000000 		.4byte	0x6b
 3321 08e8 00       		.byte	0
 3322 08e9 1F       		.uleb128 0x1f
 3323 08ea 9D010000 		.4byte	.LASF96
 3324 08ee 05       		.byte	0x5
 3325 08ef 77       		.byte	0x77
 3326 08f0 FA080000 		.4byte	0x8fa
 3327 08f4 20       		.uleb128 0x20
 3328 08f5 77000000 		.4byte	0x77
 3329 08f9 00       		.byte	0
 3330 08fa 21       		.uleb128 0x21
 3331 08fb 9C020000 		.4byte	.LASF97
 3332 08ff 05       		.byte	0x5
 3333 0900 47       		.byte	0x47
 3334 0901 21       		.uleb128 0x21
 3335 0902 E4050000 		.4byte	.LASF98
 3336 0906 05       		.byte	0x5
 3337 0907 4A       		.byte	0x4a
 3338 0908 1F       		.uleb128 0x1f
 3339 0909 36040000 		.4byte	.LASF99
 3340 090d 05       		.byte	0x5
 3341 090e 79       		.byte	0x79
 3342 090f 19090000 		.4byte	0x919
 3343 0913 20       		.uleb128 0x20
 3344 0914 83000000 		.4byte	0x83
 3345 0918 00       		.byte	0
ARM GAS  C:\Users\honet\AppData\Local\Temp\ccQxGmyH.s 			page 102


 3346 0919 22       		.uleb128 0x22
 3347 091a 5D030000 		.4byte	.LASF100
 3348 091e 05       		.byte	0x5
 3349 091f 65       		.byte	0x65
 3350 0920 A4000000 		.4byte	0xa4
 3351 0924 2E090000 		.4byte	0x92e
 3352 0928 20       		.uleb128 0x20
 3353 0929 6B000000 		.4byte	0x6b
 3354 092d 00       		.byte	0
 3355 092e 22       		.uleb128 0x22
 3356 092f 8D010000 		.4byte	.LASF101
 3357 0933 05       		.byte	0x5
 3358 0934 41       		.byte	0x41
 3359 0935 A4000000 		.4byte	0xa4
 3360 0939 43090000 		.4byte	0x943
 3361 093d 20       		.uleb128 0x20
 3362 093e 6B000000 		.4byte	0x6b
 3363 0942 00       		.byte	0
 3364 0943 23       		.uleb128 0x23
 3365 0944 61020000 		.4byte	.LASF117
 3366 0948 05       		.byte	0x5
 3367 0949 7D       		.byte	0x7d
 3368 094a 6B000000 		.4byte	0x6b
 3369 094e 1F       		.uleb128 0x1f
 3370 094f 03040000 		.4byte	.LASF102
 3371 0953 05       		.byte	0x5
 3372 0954 7E       		.byte	0x7e
 3373 0955 5F090000 		.4byte	0x95f
 3374 0959 20       		.uleb128 0x20
 3375 095a 6B000000 		.4byte	0x6b
 3376 095e 00       		.byte	0
 3377 095f 21       		.uleb128 0x21
 3378 0960 1F050000 		.4byte	.LASF103
 3379 0964 05       		.byte	0x5
 3380 0965 9C       		.byte	0x9c
 3381 0966 21       		.uleb128 0x21
 3382 0967 00000000 		.4byte	.LASF104
 3383 096b 05       		.byte	0x5
 3384 096c 9D       		.byte	0x9d
 3385 096d 21       		.uleb128 0x21
 3386 096e E0020000 		.4byte	.LASF105
 3387 0972 05       		.byte	0x5
 3388 0973 9F       		.byte	0x9f
 3389 0974 22       		.uleb128 0x22
 3390 0975 89020000 		.4byte	.LASF106
 3391 0979 05       		.byte	0x5
 3392 097a 5E       		.byte	0x5e
 3393 097b 6B000000 		.4byte	0x6b
 3394 097f 89090000 		.4byte	0x989
 3395 0983 20       		.uleb128 0x20
 3396 0984 6B000000 		.4byte	0x6b
 3397 0988 00       		.byte	0
 3398 0989 21       		.uleb128 0x21
 3399 098a 46060000 		.4byte	.LASF107
 3400 098e 05       		.byte	0x5
 3401 098f 9E       		.byte	0x9e
 3402 0990 1F       		.uleb128 0x1f
ARM GAS  C:\Users\honet\AppData\Local\Temp\ccQxGmyH.s 			page 103


 3403 0991 12060000 		.4byte	.LASF108
 3404 0995 05       		.byte	0x5
 3405 0996 9B       		.byte	0x9b
 3406 0997 A6090000 		.4byte	0x9a6
 3407 099b 20       		.uleb128 0x20
 3408 099c 6B000000 		.4byte	0x6b
 3409 09a0 20       		.uleb128 0x20
 3410 09a1 6B000000 		.4byte	0x6b
 3411 09a5 00       		.byte	0
 3412 09a6 1F       		.uleb128 0x1f
 3413 09a7 06010000 		.4byte	.LASF109
 3414 09ab 05       		.byte	0x5
 3415 09ac 9A       		.byte	0x9a
 3416 09ad BC090000 		.4byte	0x9bc
 3417 09b1 20       		.uleb128 0x20
 3418 09b2 6B000000 		.4byte	0x6b
 3419 09b6 20       		.uleb128 0x20
 3420 09b7 6B000000 		.4byte	0x6b
 3421 09bb 00       		.byte	0
 3422 09bc 21       		.uleb128 0x21
 3423 09bd B0030000 		.4byte	.LASF110
 3424 09c1 05       		.byte	0x5
 3425 09c2 59       		.byte	0x59
 3426 09c3 21       		.uleb128 0x21
 3427 09c4 58010000 		.4byte	.LASF111
 3428 09c8 05       		.byte	0x5
 3429 09c9 57       		.byte	0x57
 3430 09ca 21       		.uleb128 0x21
 3431 09cb 72000000 		.4byte	.LASF112
 3432 09cf 05       		.byte	0x5
 3433 09d0 62       		.byte	0x62
 3434 09d1 00       		.byte	0
 3435              		.section	.debug_abbrev,"",%progbits
 3436              	.Ldebug_abbrev0:
 3437 0000 01       		.uleb128 0x1
 3438 0001 11       		.uleb128 0x11
 3439 0002 01       		.byte	0x1
 3440 0003 25       		.uleb128 0x25
 3441 0004 0E       		.uleb128 0xe
 3442 0005 13       		.uleb128 0x13
 3443 0006 0B       		.uleb128 0xb
 3444 0007 03       		.uleb128 0x3
 3445 0008 0E       		.uleb128 0xe
 3446 0009 1B       		.uleb128 0x1b
 3447 000a 0E       		.uleb128 0xe
 3448 000b 55       		.uleb128 0x55
 3449 000c 17       		.uleb128 0x17
 3450 000d 11       		.uleb128 0x11
 3451 000e 01       		.uleb128 0x1
 3452 000f 10       		.uleb128 0x10
 3453 0010 17       		.uleb128 0x17
 3454 0011 00       		.byte	0
 3455 0012 00       		.byte	0
 3456 0013 02       		.uleb128 0x2
 3457 0014 24       		.uleb128 0x24
 3458 0015 00       		.byte	0
 3459 0016 0B       		.uleb128 0xb
ARM GAS  C:\Users\honet\AppData\Local\Temp\ccQxGmyH.s 			page 104


 3460 0017 0B       		.uleb128 0xb
 3461 0018 3E       		.uleb128 0x3e
 3462 0019 0B       		.uleb128 0xb
 3463 001a 03       		.uleb128 0x3
 3464 001b 0E       		.uleb128 0xe
 3465 001c 00       		.byte	0
 3466 001d 00       		.byte	0
 3467 001e 03       		.uleb128 0x3
 3468 001f 24       		.uleb128 0x24
 3469 0020 00       		.byte	0
 3470 0021 0B       		.uleb128 0xb
 3471 0022 0B       		.uleb128 0xb
 3472 0023 3E       		.uleb128 0x3e
 3473 0024 0B       		.uleb128 0xb
 3474 0025 03       		.uleb128 0x3
 3475 0026 08       		.uleb128 0x8
 3476 0027 00       		.byte	0
 3477 0028 00       		.byte	0
 3478 0029 04       		.uleb128 0x4
 3479 002a 16       		.uleb128 0x16
 3480 002b 00       		.byte	0
 3481 002c 03       		.uleb128 0x3
 3482 002d 0E       		.uleb128 0xe
 3483 002e 3A       		.uleb128 0x3a
 3484 002f 0B       		.uleb128 0xb
 3485 0030 3B       		.uleb128 0x3b
 3486 0031 05       		.uleb128 0x5
 3487 0032 49       		.uleb128 0x49
 3488 0033 13       		.uleb128 0x13
 3489 0034 00       		.byte	0
 3490 0035 00       		.byte	0
 3491 0036 05       		.uleb128 0x5
 3492 0037 35       		.uleb128 0x35
 3493 0038 00       		.byte	0
 3494 0039 49       		.uleb128 0x49
 3495 003a 13       		.uleb128 0x13
 3496 003b 00       		.byte	0
 3497 003c 00       		.byte	0
 3498 003d 06       		.uleb128 0x6
 3499 003e 13       		.uleb128 0x13
 3500 003f 01       		.byte	0x1
 3501 0040 03       		.uleb128 0x3
 3502 0041 0E       		.uleb128 0xe
 3503 0042 0B       		.uleb128 0xb
 3504 0043 0B       		.uleb128 0xb
 3505 0044 3A       		.uleb128 0x3a
 3506 0045 0B       		.uleb128 0xb
 3507 0046 3B       		.uleb128 0x3b
 3508 0047 0B       		.uleb128 0xb
 3509 0048 01       		.uleb128 0x1
 3510 0049 13       		.uleb128 0x13
 3511 004a 00       		.byte	0
 3512 004b 00       		.byte	0
 3513 004c 07       		.uleb128 0x7
 3514 004d 0D       		.uleb128 0xd
 3515 004e 00       		.byte	0
 3516 004f 03       		.uleb128 0x3
ARM GAS  C:\Users\honet\AppData\Local\Temp\ccQxGmyH.s 			page 105


 3517 0050 0E       		.uleb128 0xe
 3518 0051 3A       		.uleb128 0x3a
 3519 0052 0B       		.uleb128 0xb
 3520 0053 3B       		.uleb128 0x3b
 3521 0054 0B       		.uleb128 0xb
 3522 0055 49       		.uleb128 0x49
 3523 0056 13       		.uleb128 0x13
 3524 0057 38       		.uleb128 0x38
 3525 0058 0B       		.uleb128 0xb
 3526 0059 00       		.byte	0
 3527 005a 00       		.byte	0
 3528 005b 08       		.uleb128 0x8
 3529 005c 0D       		.uleb128 0xd
 3530 005d 00       		.byte	0
 3531 005e 03       		.uleb128 0x3
 3532 005f 0E       		.uleb128 0xe
 3533 0060 3A       		.uleb128 0x3a
 3534 0061 0B       		.uleb128 0xb
 3535 0062 3B       		.uleb128 0x3b
 3536 0063 05       		.uleb128 0x5
 3537 0064 49       		.uleb128 0x49
 3538 0065 13       		.uleb128 0x13
 3539 0066 38       		.uleb128 0x38
 3540 0067 0B       		.uleb128 0xb
 3541 0068 00       		.byte	0
 3542 0069 00       		.byte	0
 3543 006a 09       		.uleb128 0x9
 3544 006b 13       		.uleb128 0x13
 3545 006c 01       		.byte	0x1
 3546 006d 03       		.uleb128 0x3
 3547 006e 0E       		.uleb128 0xe
 3548 006f 0B       		.uleb128 0xb
 3549 0070 0B       		.uleb128 0xb
 3550 0071 3A       		.uleb128 0x3a
 3551 0072 0B       		.uleb128 0xb
 3552 0073 3B       		.uleb128 0x3b
 3553 0074 05       		.uleb128 0x5
 3554 0075 01       		.uleb128 0x1
 3555 0076 13       		.uleb128 0x13
 3556 0077 00       		.byte	0
 3557 0078 00       		.byte	0
 3558 0079 0A       		.uleb128 0xa
 3559 007a 01       		.uleb128 0x1
 3560 007b 01       		.byte	0x1
 3561 007c 49       		.uleb128 0x49
 3562 007d 13       		.uleb128 0x13
 3563 007e 01       		.uleb128 0x1
 3564 007f 13       		.uleb128 0x13
 3565 0080 00       		.byte	0
 3566 0081 00       		.byte	0
 3567 0082 0B       		.uleb128 0xb
 3568 0083 21       		.uleb128 0x21
 3569 0084 00       		.byte	0
 3570 0085 49       		.uleb128 0x49
 3571 0086 13       		.uleb128 0x13
 3572 0087 2F       		.uleb128 0x2f
 3573 0088 0B       		.uleb128 0xb
ARM GAS  C:\Users\honet\AppData\Local\Temp\ccQxGmyH.s 			page 106


 3574 0089 00       		.byte	0
 3575 008a 00       		.byte	0
 3576 008b 0C       		.uleb128 0xc
 3577 008c 2E       		.uleb128 0x2e
 3578 008d 00       		.byte	0
 3579 008e 03       		.uleb128 0x3
 3580 008f 0E       		.uleb128 0xe
 3581 0090 3A       		.uleb128 0x3a
 3582 0091 0B       		.uleb128 0xb
 3583 0092 3B       		.uleb128 0x3b
 3584 0093 05       		.uleb128 0x5
 3585 0094 27       		.uleb128 0x27
 3586 0095 19       		.uleb128 0x19
 3587 0096 11       		.uleb128 0x11
 3588 0097 01       		.uleb128 0x1
 3589 0098 12       		.uleb128 0x12
 3590 0099 06       		.uleb128 0x6
 3591 009a 40       		.uleb128 0x40
 3592 009b 18       		.uleb128 0x18
 3593 009c 9742     		.uleb128 0x2117
 3594 009e 19       		.uleb128 0x19
 3595 009f 00       		.byte	0
 3596 00a0 00       		.byte	0
 3597 00a1 0D       		.uleb128 0xd
 3598 00a2 2E       		.uleb128 0x2e
 3599 00a3 01       		.byte	0x1
 3600 00a4 3F       		.uleb128 0x3f
 3601 00a5 19       		.uleb128 0x19
 3602 00a6 03       		.uleb128 0x3
 3603 00a7 0E       		.uleb128 0xe
 3604 00a8 3A       		.uleb128 0x3a
 3605 00a9 0B       		.uleb128 0xb
 3606 00aa 3B       		.uleb128 0x3b
 3607 00ab 0B       		.uleb128 0xb
 3608 00ac 27       		.uleb128 0x27
 3609 00ad 19       		.uleb128 0x19
 3610 00ae 11       		.uleb128 0x11
 3611 00af 01       		.uleb128 0x1
 3612 00b0 12       		.uleb128 0x12
 3613 00b1 06       		.uleb128 0x6
 3614 00b2 40       		.uleb128 0x40
 3615 00b3 18       		.uleb128 0x18
 3616 00b4 9742     		.uleb128 0x2117
 3617 00b6 19       		.uleb128 0x19
 3618 00b7 01       		.uleb128 0x1
 3619 00b8 13       		.uleb128 0x13
 3620 00b9 00       		.byte	0
 3621 00ba 00       		.byte	0
 3622 00bb 0E       		.uleb128 0xe
 3623 00bc 898201   		.uleb128 0x4109
 3624 00bf 01       		.byte	0x1
 3625 00c0 11       		.uleb128 0x11
 3626 00c1 01       		.uleb128 0x1
 3627 00c2 31       		.uleb128 0x31
 3628 00c3 13       		.uleb128 0x13
 3629 00c4 01       		.uleb128 0x1
 3630 00c5 13       		.uleb128 0x13
ARM GAS  C:\Users\honet\AppData\Local\Temp\ccQxGmyH.s 			page 107


 3631 00c6 00       		.byte	0
 3632 00c7 00       		.byte	0
 3633 00c8 0F       		.uleb128 0xf
 3634 00c9 8A8201   		.uleb128 0x410a
 3635 00cc 00       		.byte	0
 3636 00cd 02       		.uleb128 0x2
 3637 00ce 18       		.uleb128 0x18
 3638 00cf 9142     		.uleb128 0x2111
 3639 00d1 18       		.uleb128 0x18
 3640 00d2 00       		.byte	0
 3641 00d3 00       		.byte	0
 3642 00d4 10       		.uleb128 0x10
 3643 00d5 898201   		.uleb128 0x4109
 3644 00d8 00       		.byte	0
 3645 00d9 11       		.uleb128 0x11
 3646 00da 01       		.uleb128 0x1
 3647 00db 31       		.uleb128 0x31
 3648 00dc 13       		.uleb128 0x13
 3649 00dd 00       		.byte	0
 3650 00de 00       		.byte	0
 3651 00df 11       		.uleb128 0x11
 3652 00e0 898201   		.uleb128 0x4109
 3653 00e3 01       		.byte	0x1
 3654 00e4 11       		.uleb128 0x11
 3655 00e5 01       		.uleb128 0x1
 3656 00e6 31       		.uleb128 0x31
 3657 00e7 13       		.uleb128 0x13
 3658 00e8 00       		.byte	0
 3659 00e9 00       		.byte	0
 3660 00ea 12       		.uleb128 0x12
 3661 00eb 2E       		.uleb128 0x2e
 3662 00ec 01       		.byte	0x1
 3663 00ed 3F       		.uleb128 0x3f
 3664 00ee 19       		.uleb128 0x19
 3665 00ef 03       		.uleb128 0x3
 3666 00f0 0E       		.uleb128 0xe
 3667 00f1 3A       		.uleb128 0x3a
 3668 00f2 0B       		.uleb128 0xb
 3669 00f3 3B       		.uleb128 0x3b
 3670 00f4 05       		.uleb128 0x5
 3671 00f5 27       		.uleb128 0x27
 3672 00f6 19       		.uleb128 0x19
 3673 00f7 11       		.uleb128 0x11
 3674 00f8 01       		.uleb128 0x1
 3675 00f9 12       		.uleb128 0x12
 3676 00fa 06       		.uleb128 0x6
 3677 00fb 40       		.uleb128 0x40
 3678 00fc 18       		.uleb128 0x18
 3679 00fd 9742     		.uleb128 0x2117
 3680 00ff 19       		.uleb128 0x19
 3681 0100 01       		.uleb128 0x1
 3682 0101 13       		.uleb128 0x13
 3683 0102 00       		.byte	0
 3684 0103 00       		.byte	0
 3685 0104 13       		.uleb128 0x13
 3686 0105 34       		.uleb128 0x34
 3687 0106 00       		.byte	0
ARM GAS  C:\Users\honet\AppData\Local\Temp\ccQxGmyH.s 			page 108


 3688 0107 03       		.uleb128 0x3
 3689 0108 0E       		.uleb128 0xe
 3690 0109 3A       		.uleb128 0x3a
 3691 010a 0B       		.uleb128 0xb
 3692 010b 3B       		.uleb128 0x3b
 3693 010c 05       		.uleb128 0x5
 3694 010d 49       		.uleb128 0x49
 3695 010e 13       		.uleb128 0x13
 3696 010f 1C       		.uleb128 0x1c
 3697 0110 0B       		.uleb128 0xb
 3698 0111 00       		.byte	0
 3699 0112 00       		.byte	0
 3700 0113 14       		.uleb128 0x14
 3701 0114 34       		.uleb128 0x34
 3702 0115 00       		.byte	0
 3703 0116 03       		.uleb128 0x3
 3704 0117 08       		.uleb128 0x8
 3705 0118 3A       		.uleb128 0x3a
 3706 0119 0B       		.uleb128 0xb
 3707 011a 3B       		.uleb128 0x3b
 3708 011b 05       		.uleb128 0x5
 3709 011c 49       		.uleb128 0x49
 3710 011d 13       		.uleb128 0x13
 3711 011e 02       		.uleb128 0x2
 3712 011f 17       		.uleb128 0x17
 3713 0120 00       		.byte	0
 3714 0121 00       		.byte	0
 3715 0122 15       		.uleb128 0x15
 3716 0123 34       		.uleb128 0x34
 3717 0124 00       		.byte	0
 3718 0125 03       		.uleb128 0x3
 3719 0126 0E       		.uleb128 0xe
 3720 0127 3A       		.uleb128 0x3a
 3721 0128 0B       		.uleb128 0xb
 3722 0129 3B       		.uleb128 0x3b
 3723 012a 05       		.uleb128 0x5
 3724 012b 49       		.uleb128 0x49
 3725 012c 13       		.uleb128 0x13
 3726 012d 02       		.uleb128 0x2
 3727 012e 17       		.uleb128 0x17
 3728 012f 00       		.byte	0
 3729 0130 00       		.byte	0
 3730 0131 16       		.uleb128 0x16
 3731 0132 34       		.uleb128 0x34
 3732 0133 00       		.byte	0
 3733 0134 03       		.uleb128 0x3
 3734 0135 0E       		.uleb128 0xe
 3735 0136 3A       		.uleb128 0x3a
 3736 0137 0B       		.uleb128 0xb
 3737 0138 3B       		.uleb128 0x3b
 3738 0139 05       		.uleb128 0x5
 3739 013a 49       		.uleb128 0x49
 3740 013b 13       		.uleb128 0x13
 3741 013c 02       		.uleb128 0x2
 3742 013d 18       		.uleb128 0x18
 3743 013e 00       		.byte	0
 3744 013f 00       		.byte	0
ARM GAS  C:\Users\honet\AppData\Local\Temp\ccQxGmyH.s 			page 109


 3745 0140 17       		.uleb128 0x17
 3746 0141 26       		.uleb128 0x26
 3747 0142 00       		.byte	0
 3748 0143 49       		.uleb128 0x49
 3749 0144 13       		.uleb128 0x13
 3750 0145 00       		.byte	0
 3751 0146 00       		.byte	0
 3752 0147 18       		.uleb128 0x18
 3753 0148 05       		.uleb128 0x5
 3754 0149 00       		.byte	0
 3755 014a 03       		.uleb128 0x3
 3756 014b 0E       		.uleb128 0xe
 3757 014c 3A       		.uleb128 0x3a
 3758 014d 0B       		.uleb128 0xb
 3759 014e 3B       		.uleb128 0x3b
 3760 014f 05       		.uleb128 0x5
 3761 0150 49       		.uleb128 0x49
 3762 0151 13       		.uleb128 0x13
 3763 0152 02       		.uleb128 0x2
 3764 0153 17       		.uleb128 0x17
 3765 0154 00       		.byte	0
 3766 0155 00       		.byte	0
 3767 0156 19       		.uleb128 0x19
 3768 0157 898201   		.uleb128 0x4109
 3769 015a 00       		.byte	0
 3770 015b 11       		.uleb128 0x11
 3771 015c 01       		.uleb128 0x1
 3772 015d 9542     		.uleb128 0x2115
 3773 015f 19       		.uleb128 0x19
 3774 0160 31       		.uleb128 0x31
 3775 0161 13       		.uleb128 0x13
 3776 0162 00       		.byte	0
 3777 0163 00       		.byte	0
 3778 0164 1A       		.uleb128 0x1a
 3779 0165 2E       		.uleb128 0x2e
 3780 0166 00       		.byte	0
 3781 0167 03       		.uleb128 0x3
 3782 0168 0E       		.uleb128 0xe
 3783 0169 3A       		.uleb128 0x3a
 3784 016a 0B       		.uleb128 0xb
 3785 016b 3B       		.uleb128 0x3b
 3786 016c 05       		.uleb128 0x5
 3787 016d 27       		.uleb128 0x27
 3788 016e 19       		.uleb128 0x19
 3789 016f 20       		.uleb128 0x20
 3790 0170 0B       		.uleb128 0xb
 3791 0171 00       		.byte	0
 3792 0172 00       		.byte	0
 3793 0173 1B       		.uleb128 0x1b
 3794 0174 1D       		.uleb128 0x1d
 3795 0175 01       		.byte	0x1
 3796 0176 31       		.uleb128 0x31
 3797 0177 13       		.uleb128 0x13
 3798 0178 52       		.uleb128 0x52
 3799 0179 01       		.uleb128 0x1
 3800 017a 55       		.uleb128 0x55
 3801 017b 17       		.uleb128 0x17
ARM GAS  C:\Users\honet\AppData\Local\Temp\ccQxGmyH.s 			page 110


 3802 017c 58       		.uleb128 0x58
 3803 017d 0B       		.uleb128 0xb
 3804 017e 59       		.uleb128 0x59
 3805 017f 05       		.uleb128 0x5
 3806 0180 01       		.uleb128 0x1
 3807 0181 13       		.uleb128 0x13
 3808 0182 00       		.byte	0
 3809 0183 00       		.byte	0
 3810 0184 1C       		.uleb128 0x1c
 3811 0185 898201   		.uleb128 0x4109
 3812 0188 01       		.byte	0x1
 3813 0189 11       		.uleb128 0x11
 3814 018a 01       		.uleb128 0x1
 3815 018b 9542     		.uleb128 0x2115
 3816 018d 19       		.uleb128 0x19
 3817 018e 31       		.uleb128 0x31
 3818 018f 13       		.uleb128 0x13
 3819 0190 00       		.byte	0
 3820 0191 00       		.byte	0
 3821 0192 1D       		.uleb128 0x1d
 3822 0193 2E       		.uleb128 0x2e
 3823 0194 01       		.byte	0x1
 3824 0195 3F       		.uleb128 0x3f
 3825 0196 19       		.uleb128 0x19
 3826 0197 03       		.uleb128 0x3
 3827 0198 0E       		.uleb128 0xe
 3828 0199 3A       		.uleb128 0x3a
 3829 019a 0B       		.uleb128 0xb
 3830 019b 3B       		.uleb128 0x3b
 3831 019c 05       		.uleb128 0x5
 3832 019d 27       		.uleb128 0x27
 3833 019e 19       		.uleb128 0x19
 3834 019f 49       		.uleb128 0x49
 3835 01a0 13       		.uleb128 0x13
 3836 01a1 11       		.uleb128 0x11
 3837 01a2 01       		.uleb128 0x1
 3838 01a3 12       		.uleb128 0x12
 3839 01a4 06       		.uleb128 0x6
 3840 01a5 40       		.uleb128 0x40
 3841 01a6 18       		.uleb128 0x18
 3842 01a7 9742     		.uleb128 0x2117
 3843 01a9 19       		.uleb128 0x19
 3844 01aa 01       		.uleb128 0x1
 3845 01ab 13       		.uleb128 0x13
 3846 01ac 00       		.byte	0
 3847 01ad 00       		.byte	0
 3848 01ae 1E       		.uleb128 0x1e
 3849 01af 34       		.uleb128 0x34
 3850 01b0 00       		.byte	0
 3851 01b1 03       		.uleb128 0x3
 3852 01b2 0E       		.uleb128 0xe
 3853 01b3 3A       		.uleb128 0x3a
 3854 01b4 0B       		.uleb128 0xb
 3855 01b5 3B       		.uleb128 0x3b
 3856 01b6 0B       		.uleb128 0xb
 3857 01b7 49       		.uleb128 0x49
 3858 01b8 13       		.uleb128 0x13
ARM GAS  C:\Users\honet\AppData\Local\Temp\ccQxGmyH.s 			page 111


 3859 01b9 02       		.uleb128 0x2
 3860 01ba 18       		.uleb128 0x18
 3861 01bb 00       		.byte	0
 3862 01bc 00       		.byte	0
 3863 01bd 1F       		.uleb128 0x1f
 3864 01be 2E       		.uleb128 0x2e
 3865 01bf 01       		.byte	0x1
 3866 01c0 3F       		.uleb128 0x3f
 3867 01c1 19       		.uleb128 0x19
 3868 01c2 03       		.uleb128 0x3
 3869 01c3 0E       		.uleb128 0xe
 3870 01c4 3A       		.uleb128 0x3a
 3871 01c5 0B       		.uleb128 0xb
 3872 01c6 3B       		.uleb128 0x3b
 3873 01c7 0B       		.uleb128 0xb
 3874 01c8 27       		.uleb128 0x27
 3875 01c9 19       		.uleb128 0x19
 3876 01ca 3C       		.uleb128 0x3c
 3877 01cb 19       		.uleb128 0x19
 3878 01cc 01       		.uleb128 0x1
 3879 01cd 13       		.uleb128 0x13
 3880 01ce 00       		.byte	0
 3881 01cf 00       		.byte	0
 3882 01d0 20       		.uleb128 0x20
 3883 01d1 05       		.uleb128 0x5
 3884 01d2 00       		.byte	0
 3885 01d3 49       		.uleb128 0x49
 3886 01d4 13       		.uleb128 0x13
 3887 01d5 00       		.byte	0
 3888 01d6 00       		.byte	0
 3889 01d7 21       		.uleb128 0x21
 3890 01d8 2E       		.uleb128 0x2e
 3891 01d9 00       		.byte	0
 3892 01da 3F       		.uleb128 0x3f
 3893 01db 19       		.uleb128 0x19
 3894 01dc 03       		.uleb128 0x3
 3895 01dd 0E       		.uleb128 0xe
 3896 01de 3A       		.uleb128 0x3a
 3897 01df 0B       		.uleb128 0xb
 3898 01e0 3B       		.uleb128 0x3b
 3899 01e1 0B       		.uleb128 0xb
 3900 01e2 27       		.uleb128 0x27
 3901 01e3 19       		.uleb128 0x19
 3902 01e4 3C       		.uleb128 0x3c
 3903 01e5 19       		.uleb128 0x19
 3904 01e6 00       		.byte	0
 3905 01e7 00       		.byte	0
 3906 01e8 22       		.uleb128 0x22
 3907 01e9 2E       		.uleb128 0x2e
 3908 01ea 01       		.byte	0x1
 3909 01eb 3F       		.uleb128 0x3f
 3910 01ec 19       		.uleb128 0x19
 3911 01ed 03       		.uleb128 0x3
 3912 01ee 0E       		.uleb128 0xe
 3913 01ef 3A       		.uleb128 0x3a
 3914 01f0 0B       		.uleb128 0xb
 3915 01f1 3B       		.uleb128 0x3b
ARM GAS  C:\Users\honet\AppData\Local\Temp\ccQxGmyH.s 			page 112


 3916 01f2 0B       		.uleb128 0xb
 3917 01f3 27       		.uleb128 0x27
 3918 01f4 19       		.uleb128 0x19
 3919 01f5 49       		.uleb128 0x49
 3920 01f6 13       		.uleb128 0x13
 3921 01f7 3C       		.uleb128 0x3c
 3922 01f8 19       		.uleb128 0x19
 3923 01f9 01       		.uleb128 0x1
 3924 01fa 13       		.uleb128 0x13
 3925 01fb 00       		.byte	0
 3926 01fc 00       		.byte	0
 3927 01fd 23       		.uleb128 0x23
 3928 01fe 2E       		.uleb128 0x2e
 3929 01ff 00       		.byte	0
 3930 0200 3F       		.uleb128 0x3f
 3931 0201 19       		.uleb128 0x19
 3932 0202 03       		.uleb128 0x3
 3933 0203 0E       		.uleb128 0xe
 3934 0204 3A       		.uleb128 0x3a
 3935 0205 0B       		.uleb128 0xb
 3936 0206 3B       		.uleb128 0x3b
 3937 0207 0B       		.uleb128 0xb
 3938 0208 27       		.uleb128 0x27
 3939 0209 19       		.uleb128 0x19
 3940 020a 49       		.uleb128 0x49
 3941 020b 13       		.uleb128 0x13
 3942 020c 3C       		.uleb128 0x3c
 3943 020d 19       		.uleb128 0x19
 3944 020e 00       		.byte	0
 3945 020f 00       		.byte	0
 3946 0210 00       		.byte	0
 3947              		.section	.debug_loc,"",%progbits
 3948              	.Ldebug_loc0:
 3949              	.LLST0:
 3950 0000 A4010000 		.4byte	.LVL32
 3951 0004 A8010000 		.4byte	.LVL33
 3952 0008 0200     		.2byte	0x2
 3953 000a 35       		.byte	0x35
 3954 000b 9F       		.byte	0x9f
 3955 000c 00000000 		.4byte	0
 3956 0010 00000000 		.4byte	0
 3957              	.LLST1:
 3958 0014 DA000000 		.4byte	.LVL19
 3959 0018 DC000000 		.4byte	.LVL20
 3960 001c 0500     		.2byte	0x5
 3961 001e 72       		.byte	0x72
 3962 001f 00       		.sleb128 0
 3963 0020 38       		.byte	0x38
 3964 0021 24       		.byte	0x24
 3965 0022 9F       		.byte	0x9f
 3966 0023 DC000000 		.4byte	.LVL20
 3967 0027 E2000000 		.4byte	.LVL21
 3968 002b 0B00     		.2byte	0xb
 3969 002d 72       		.byte	0x72
 3970 002e 00       		.sleb128 0
 3971 002f 38       		.byte	0x38
 3972 0030 24       		.byte	0x24
ARM GAS  C:\Users\honet\AppData\Local\Temp\ccQxGmyH.s 			page 113


 3973 0031 73       		.byte	0x73
 3974 0032 00       		.sleb128 0
 3975 0033 08       		.byte	0x8
 3976 0034 FF       		.byte	0xff
 3977 0035 1A       		.byte	0x1a
 3978 0036 21       		.byte	0x21
 3979 0037 9F       		.byte	0x9f
 3980 0038 00000000 		.4byte	0
 3981 003c 00000000 		.4byte	0
 3982              	.LLST2:
 3983 0040 00000000 		.4byte	.LVL40
 3984 0044 16000000 		.4byte	.LVL41
 3985 0048 0100     		.2byte	0x1
 3986 004a 50       		.byte	0x50
 3987 004b 16000000 		.4byte	.LVL41
 3988 004f 6C000000 		.4byte	.LFE2
 3989 0053 0400     		.2byte	0x4
 3990 0055 F3       		.byte	0xf3
 3991 0056 01       		.uleb128 0x1
 3992 0057 50       		.byte	0x50
 3993 0058 9F       		.byte	0x9f
 3994 0059 00000000 		.4byte	0
 3995 005d 00000000 		.4byte	0
 3996              	.LLST3:
 3997 0061 00000000 		.4byte	.LVL40
 3998 0065 22000000 		.4byte	.LVL42
 3999 0069 0100     		.2byte	0x1
 4000 006b 51       		.byte	0x51
 4001 006c 22000000 		.4byte	.LVL42
 4002 0070 6C000000 		.4byte	.LFE2
 4003 0074 0400     		.2byte	0x4
 4004 0076 F3       		.byte	0xf3
 4005 0077 01       		.uleb128 0x1
 4006 0078 51       		.byte	0x51
 4007 0079 9F       		.byte	0x9f
 4008 007a 00000000 		.4byte	0
 4009 007e 00000000 		.4byte	0
 4010              	.LLST4:
 4011 0082 00000000 		.4byte	.LVL43
 4012 0086 07000000 		.4byte	.LVL44-1
 4013 008a 0100     		.2byte	0x1
 4014 008c 50       		.byte	0x50
 4015 008d 07000000 		.4byte	.LVL44-1
 4016 0091 EC000000 		.4byte	.LFE3
 4017 0095 0400     		.2byte	0x4
 4018 0097 F3       		.byte	0xf3
 4019 0098 01       		.uleb128 0x1
 4020 0099 50       		.byte	0x50
 4021 009a 9F       		.byte	0x9f
 4022 009b 00000000 		.4byte	0
 4023 009f 00000000 		.4byte	0
 4024              	.LLST5:
 4025 00a3 00000000 		.4byte	.LVL43
 4026 00a7 07000000 		.4byte	.LVL44-1
 4027 00ab 0100     		.2byte	0x1
 4028 00ad 51       		.byte	0x51
 4029 00ae 07000000 		.4byte	.LVL44-1
ARM GAS  C:\Users\honet\AppData\Local\Temp\ccQxGmyH.s 			page 114


 4030 00b2 EC000000 		.4byte	.LFE3
 4031 00b6 0400     		.2byte	0x4
 4032 00b8 F3       		.byte	0xf3
 4033 00b9 01       		.uleb128 0x1
 4034 00ba 51       		.byte	0x51
 4035 00bb 9F       		.byte	0x9f
 4036 00bc 00000000 		.4byte	0
 4037 00c0 00000000 		.4byte	0
 4038              	.LLST6:
 4039 00c4 08000000 		.4byte	.LVL44
 4040 00c8 1C000000 		.4byte	.LVL45
 4041 00cc 0100     		.2byte	0x1
 4042 00ce 56       		.byte	0x56
 4043 00cf 00000000 		.4byte	0
 4044 00d3 00000000 		.4byte	0
 4045              	.LLST7:
 4046 00d7 00000000 		.4byte	.LVL49
 4047 00db 09000000 		.4byte	.LVL50-1
 4048 00df 0100     		.2byte	0x1
 4049 00e1 50       		.byte	0x50
 4050 00e2 09000000 		.4byte	.LVL50-1
 4051 00e6 8C020000 		.4byte	.LFE5
 4052 00ea 0400     		.2byte	0x4
 4053 00ec F3       		.byte	0xf3
 4054 00ed 01       		.uleb128 0x1
 4055 00ee 50       		.byte	0x50
 4056 00ef 9F       		.byte	0x9f
 4057 00f0 00000000 		.4byte	0
 4058 00f4 00000000 		.4byte	0
 4059              	.LLST8:
 4060 00f8 0A000000 		.4byte	.LVL50
 4061 00fc 1C000000 		.4byte	.LVL51
 4062 0100 0100     		.2byte	0x1
 4063 0102 55       		.byte	0x55
 4064 0103 00000000 		.4byte	0
 4065 0107 00000000 		.4byte	0
 4066              	.LLST9:
 4067 010b 00000000 		.4byte	.LVL66
 4068 010f 07000000 		.4byte	.LVL67-1
 4069 0113 0100     		.2byte	0x1
 4070 0115 50       		.byte	0x50
 4071 0116 07000000 		.4byte	.LVL67-1
 4072 011a 30000000 		.4byte	.LFE6
 4073 011e 0400     		.2byte	0x4
 4074 0120 F3       		.byte	0xf3
 4075 0121 01       		.uleb128 0x1
 4076 0122 50       		.byte	0x50
 4077 0123 9F       		.byte	0x9f
 4078 0124 00000000 		.4byte	0
 4079 0128 00000000 		.4byte	0
 4080              	.LLST10:
 4081 012c 08000000 		.4byte	.LVL67
 4082 0130 1F000000 		.4byte	.LVL69-1
 4083 0134 0100     		.2byte	0x1
 4084 0136 50       		.byte	0x50
 4085 0137 00000000 		.4byte	0
 4086 013b 00000000 		.4byte	0
ARM GAS  C:\Users\honet\AppData\Local\Temp\ccQxGmyH.s 			page 115


 4087              	.LLST11:
 4088 013f 14000000 		.4byte	.LVL68
 4089 0143 26000000 		.4byte	.LVL70
 4090 0147 0500     		.2byte	0x5
 4091 0149 74       		.byte	0x74
 4092 014a 00       		.sleb128 0
 4093 014b 37       		.byte	0x37
 4094 014c 1A       		.byte	0x1a
 4095 014d 9F       		.byte	0x9f
 4096 014e 00000000 		.4byte	0
 4097 0152 00000000 		.4byte	0
 4098              	.LLST12:
 4099 0156 00000000 		.4byte	.LVL71
 4100 015a 11000000 		.4byte	.LVL72-1
 4101 015e 0100     		.2byte	0x1
 4102 0160 50       		.byte	0x50
 4103 0161 11000000 		.4byte	.LVL72-1
 4104 0165 54000000 		.4byte	.LFE9
 4105 0169 0400     		.2byte	0x4
 4106 016b F3       		.byte	0xf3
 4107 016c 01       		.uleb128 0x1
 4108 016d 50       		.byte	0x50
 4109 016e 9F       		.byte	0x9f
 4110 016f 00000000 		.4byte	0
 4111 0173 00000000 		.4byte	0
 4112              	.LLST13:
 4113 0177 00000000 		.4byte	.LVL74
 4114 017b 11000000 		.4byte	.LVL75-1
 4115 017f 0100     		.2byte	0x1
 4116 0181 50       		.byte	0x50
 4117 0182 11000000 		.4byte	.LVL75-1
 4118 0186 54000000 		.4byte	.LFE11
 4119 018a 0400     		.2byte	0x4
 4120 018c F3       		.byte	0xf3
 4121 018d 01       		.uleb128 0x1
 4122 018e 50       		.byte	0x50
 4123 018f 9F       		.byte	0x9f
 4124 0190 00000000 		.4byte	0
 4125 0194 00000000 		.4byte	0
 4126              		.section	.debug_aranges,"",%progbits
 4127 0000 74000000 		.4byte	0x74
 4128 0004 0200     		.2byte	0x2
 4129 0006 00000000 		.4byte	.Ldebug_info0
 4130 000a 04       		.byte	0x4
 4131 000b 00       		.byte	0
 4132 000c 0000     		.2byte	0
 4133 000e 0000     		.2byte	0
 4134 0010 00000000 		.4byte	.LFB12
 4135 0014 C8010000 		.4byte	.LFE12-.LFB12
 4136 0018 00000000 		.4byte	.LFB13
 4137 001c 40010000 		.4byte	.LFE13-.LFB13
 4138 0020 00000000 		.4byte	.LFB0
 4139 0024 E0010000 		.4byte	.LFE0-.LFB0
 4140 0028 00000000 		.4byte	.LFB1
 4141 002c 40020000 		.4byte	.LFE1-.LFB1
 4142 0030 00000000 		.4byte	.LFB2
 4143 0034 6C000000 		.4byte	.LFE2-.LFB2
ARM GAS  C:\Users\honet\AppData\Local\Temp\ccQxGmyH.s 			page 116


 4144 0038 00000000 		.4byte	.LFB3
 4145 003c EC000000 		.4byte	.LFE3-.LFB3
 4146 0040 00000000 		.4byte	.LFB5
 4147 0044 8C020000 		.4byte	.LFE5-.LFB5
 4148 0048 00000000 		.4byte	.LFB4
 4149 004c 06000000 		.4byte	.LFE4-.LFB4
 4150 0050 00000000 		.4byte	.LFB6
 4151 0054 30000000 		.4byte	.LFE6-.LFB6
 4152 0058 00000000 		.4byte	.LFB9
 4153 005c 54000000 		.4byte	.LFE9-.LFB9
 4154 0060 00000000 		.4byte	.LFB10
 4155 0064 2C000000 		.4byte	.LFE10-.LFB10
 4156 0068 00000000 		.4byte	.LFB11
 4157 006c 54000000 		.4byte	.LFE11-.LFB11
 4158 0070 00000000 		.4byte	0
 4159 0074 00000000 		.4byte	0
 4160              		.section	.debug_ranges,"",%progbits
 4161              	.Ldebug_ranges0:
 4162 0000 16000000 		.4byte	.LBB10
 4163 0004 18000000 		.4byte	.LBE10
 4164 0008 22000000 		.4byte	.LBB27
 4165 000c A6000000 		.4byte	.LBE27
 4166 0010 AA000000 		.4byte	.LBB28
 4167 0014 B2000000 		.4byte	.LBE28
 4168 0018 B6000000 		.4byte	.LBB29
 4169 001c BA000000 		.4byte	.LBE29
 4170 0020 BC000000 		.4byte	.LBB30
 4171 0024 C0000000 		.4byte	.LBE30
 4172 0028 C2000000 		.4byte	.LBB31
 4173 002c CA000000 		.4byte	.LBE31
 4174 0030 E2000000 		.4byte	.LBB32
 4175 0034 E4000000 		.4byte	.LBE32
 4176 0038 E6000000 		.4byte	.LBB33
 4177 003c EE000000 		.4byte	.LBE33
 4178 0040 A8010000 		.4byte	.LBB49
 4179 0044 E2010000 		.4byte	.LBE49
 4180 0048 FA010000 		.4byte	.LBB50
 4181 004c 26020000 		.4byte	.LBE50
 4182 0050 00000000 		.4byte	0
 4183 0054 00000000 		.4byte	0
 4184 0058 62000000 		.4byte	.LBB12
 4185 005c 9E000000 		.4byte	.LBE12
 4186 0060 B2010000 		.4byte	.LBB16
 4187 0064 E2010000 		.4byte	.LBE16
 4188 0068 FA010000 		.4byte	.LBB17
 4189 006c 26020000 		.4byte	.LBE17
 4190 0070 00000000 		.4byte	0
 4191 0074 00000000 		.4byte	0
 4192 0078 2E010000 		.4byte	.LBB34
 4193 007c 70010000 		.4byte	.LBE34
 4194 0080 72010000 		.4byte	.LBB46
 4195 0084 7A010000 		.4byte	.LBE46
 4196 0088 82010000 		.4byte	.LBB47
 4197 008c 8A010000 		.4byte	.LBE47
 4198 0090 90010000 		.4byte	.LBB48
 4199 0094 98010000 		.4byte	.LBE48
 4200 0098 26020000 		.4byte	.LBB51
ARM GAS  C:\Users\honet\AppData\Local\Temp\ccQxGmyH.s 			page 117


 4201 009c 8C020000 		.4byte	.LBE51
 4202 00a0 00000000 		.4byte	0
 4203 00a4 00000000 		.4byte	0
 4204 00a8 2E010000 		.4byte	.LBB36
 4205 00ac 4C010000 		.4byte	.LBE36
 4206 00b0 26020000 		.4byte	.LBB40
 4207 00b4 2C020000 		.4byte	.LBE40
 4208 00b8 38020000 		.4byte	.LBB41
 4209 00bc 8C020000 		.4byte	.LBE41
 4210 00c0 00000000 		.4byte	0
 4211 00c4 00000000 		.4byte	0
 4212 00c8 00000000 		.4byte	.LFB12
 4213 00cc C8010000 		.4byte	.LFE12
 4214 00d0 00000000 		.4byte	.LFB13
 4215 00d4 40010000 		.4byte	.LFE13
 4216 00d8 00000000 		.4byte	.LFB0
 4217 00dc E0010000 		.4byte	.LFE0
 4218 00e0 00000000 		.4byte	.LFB1
 4219 00e4 40020000 		.4byte	.LFE1
 4220 00e8 00000000 		.4byte	.LFB2
 4221 00ec 6C000000 		.4byte	.LFE2
 4222 00f0 00000000 		.4byte	.LFB3
 4223 00f4 EC000000 		.4byte	.LFE3
 4224 00f8 00000000 		.4byte	.LFB5
 4225 00fc 8C020000 		.4byte	.LFE5
 4226 0100 00000000 		.4byte	.LFB4
 4227 0104 06000000 		.4byte	.LFE4
 4228 0108 00000000 		.4byte	.LFB6
 4229 010c 30000000 		.4byte	.LFE6
 4230 0110 00000000 		.4byte	.LFB9
 4231 0114 54000000 		.4byte	.LFE9
 4232 0118 00000000 		.4byte	.LFB10
 4233 011c 2C000000 		.4byte	.LFE10
 4234 0120 00000000 		.4byte	.LFB11
 4235 0124 54000000 		.4byte	.LFE11
 4236 0128 00000000 		.4byte	0
 4237 012c 00000000 		.4byte	0
 4238              		.section	.debug_line,"",%progbits
 4239              	.Ldebug_line0:
 4240 0000 01050000 		.section	.debug_str,"MS",%progbits,1
 4240      02006500 
 4240      00000201 
 4240      FB0E0D00 
 4240      01010101 
 4241              	.LASF104:
 4242 0000 43795664 		.ascii	"CyVdLvAnalogDisable\000"
 4242      4C76416E 
 4242      616C6F67 
 4242      44697361 
 4242      626C6500 
 4243              	.LASF10:
 4244 0014 75696E74 		.ascii	"uint16\000"
 4244      313600
 4245              	.LASF95:
 4246 001b 4379494D 		.ascii	"CyIMO_Start\000"
 4246      4F5F5374 
 4246      61727400 
ARM GAS  C:\Users\honet\AppData\Local\Temp\ccQxGmyH.s 			page 118


 4247              	.LASF58:
 4248 0027 4379506D 		.ascii	"CyPmHibSlpRestore\000"
 4248      48696253 
 4248      6C705265 
 4248      73746F72 
 4248      6500
 4249              	.LASF43:
 4250 0039 77616B65 		.ascii	"wakeupTrim0\000"
 4250      75705472 
 4250      696D3000 
 4251              	.LASF44:
 4252 0045 77616B65 		.ascii	"wakeupTrim1\000"
 4252      75705472 
 4252      696D3100 
 4253              	.LASF20:
 4254 0051 6D617374 		.ascii	"masterClkSrc\000"
 4254      6572436C 
 4254      6B537263 
 4254      00
 4255              	.LASF56:
 4256 005e 43595F50 		.ascii	"CY_PM_BACKUP_STRUCT\000"
 4256      4D5F4241 
 4256      434B5550 
 4256      5F535452 
 4256      55435400 
 4257              	.LASF112:
 4258 0072 43795854 		.ascii	"CyXTAL_32KHZ_Start\000"
 4258      414C5F33 
 4258      324B485A 
 4258      5F537461 
 4258      727400
 4259              	.LASF28:
 4260 0085 636C6B53 		.ascii	"clkSyncDiv\000"
 4260      796E6344 
 4260      697600
 4261              	.LASF60:
 4262 0090 4379506D 		.ascii	"CyPmRestoreClocks\000"
 4262      52657374 
 4262      6F726543 
 4262      6C6F636B 
 4262      7300
 4263              	.LASF7:
 4264 00a2 6C6F6E67 		.ascii	"long long unsigned int\000"
 4264      206C6F6E 
 4264      6720756E 
 4264      7369676E 
 4264      65642069 
 4265              	.LASF70:
 4266 00b9 4379506D 		.ascii	"CyPmHviLviSaveDisable\000"
 4266      4876694C 
 4266      76695361 
 4266      76654469 
 4266      7361626C 
 4267              	.LASF77:
 4268 00cf 746D7053 		.ascii	"tmpStatus\000"
 4268      74617475 
 4268      7300
ARM GAS  C:\Users\honet\AppData\Local\Temp\ccQxGmyH.s 			page 119


 4269              	.LASF49:
 4270 00d9 6C766961 		.ascii	"lviaTrip\000"
 4270      54726970 
 4270      00
 4271              	.LASF22:
 4272 00e2 696D6F55 		.ascii	"imoUsbClk\000"
 4272      7362436C 
 4272      6B00
 4273              	.LASF81:
 4274 00ec 4379506D 		.ascii	"CyPmFtwSetInterval\000"
 4274      46747753 
 4274      6574496E 
 4274      74657276 
 4274      616C00
 4275              	.LASF50:
 4276 00ff 68766961 		.ascii	"hviaEn\000"
 4276      456E00
 4277              	.LASF109:
 4278 0106 43795664 		.ascii	"CyVdLvDigitEnable\000"
 4278      4C764469 
 4278      67697445 
 4278      6E61626C 
 4278      6500
 4279              	.LASF36:
 4280 0118 696C6F50 		.ascii	"iloPowerMode\000"
 4280      6F776572 
 4280      4D6F6465 
 4280      00
 4281              	.LASF6:
 4282 0125 6C6F6E67 		.ascii	"long long int\000"
 4282      206C6F6E 
 4282      6720696E 
 4282      7400
 4283              	.LASF0:
 4284 0133 7369676E 		.ascii	"signed char\000"
 4284      65642063 
 4284      68617200 
 4285              	.LASF29:
 4286 013f 636C6B42 		.ascii	"clkBusDiv\000"
 4286      75734469 
 4286      7600
 4287              	.LASF68:
 4288 0149 696E7465 		.ascii	"interruptState\000"
 4288      72727570 
 4288      74537461 
 4288      746500
 4289              	.LASF111:
 4290 0158 4379494C 		.ascii	"CyILO_Start1K\000"
 4290      4F5F5374 
 4290      61727431 
 4290      4B00
 4291              	.LASF27:
 4292 0166 696D6F32 		.ascii	"imo2x\000"
 4292      7800
 4293              	.LASF4:
 4294 016c 6C6F6E67 		.ascii	"long int\000"
 4294      20696E74 
ARM GAS  C:\Users\honet\AppData\Local\Temp\ccQxGmyH.s 			page 120


 4294      00
 4295              	.LASF72:
 4296 0175 4379506D 		.ascii	"CyPmHviLviRestore\000"
 4296      4876694C 
 4296      76695265 
 4296      73746F72 
 4296      6500
 4297              	.LASF9:
 4298 0187 75696E74 		.ascii	"uint8\000"
 4298      3800
 4299              	.LASF101:
 4300 018d 4379504C 		.ascii	"CyPLL_OUT_Start\000"
 4300      4C5F4F55 
 4300      545F5374 
 4300      61727400 
 4301              	.LASF96:
 4302 019d 43794465 		.ascii	"CyDelayUs\000"
 4302      6C617955 
 4302      7300
 4303              	.LASF13:
 4304 01a7 646F7562 		.ascii	"double\000"
 4304      6C6500
 4305              	.LASF114:
 4306 01ae 2E5C4765 		.ascii	".\\Generated_Source\\PSoC5\\cyPm.c\000"
 4306      6E657261 
 4306      7465645F 
 4306      536F7572 
 4306      63655C50 
 4307              	.LASF11:
 4308 01ce 75696E74 		.ascii	"uint32\000"
 4308      333200
 4309              	.LASF31:
 4310 01d5 786D687A 		.ascii	"xmhzEnableState\000"
 4310      456E6162 
 4310      6C655374 
 4310      61746500 
 4311              	.LASF71:
 4312 01e5 4379506D 		.ascii	"CyPmHibRestore\000"
 4312      48696252 
 4312      6573746F 
 4312      726500
 4313              	.LASF75:
 4314 01f4 6D61736B 		.ascii	"mask\000"
 4314      00
 4315              	.LASF53:
 4316 01f9 696D6F41 		.ascii	"imoActFreq\000"
 4316      63744672 
 4316      657100
 4317              	.LASF8:
 4318 0204 756E7369 		.ascii	"unsigned int\000"
 4318      676E6564 
 4318      20696E74 
 4318      00
 4319              	.LASF45:
 4320 0211 73636374 		.ascii	"scctData\000"
 4320      44617461 
 4320      00
ARM GAS  C:\Users\honet\AppData\Local\Temp\ccQxGmyH.s 			page 121


 4321              	.LASF88:
 4322 021a 4379494D 		.ascii	"CyIMO_SetSource\000"
 4322      4F5F5365 
 4322      74536F75 
 4322      72636500 
 4323              	.LASF21:
 4324 022a 696D6F46 		.ascii	"imoFreq\000"
 4324      72657100 
 4325              	.LASF5:
 4326 0232 6C6F6E67 		.ascii	"long unsigned int\000"
 4326      20756E73 
 4326      69676E65 
 4326      6420696E 
 4326      7400
 4327              	.LASF46:
 4328 0244 6C766964 		.ascii	"lvidEn\000"
 4328      456E00
 4329              	.LASF34:
 4330 024b 6379506D 		.ascii	"cyPmClockBackupStruct\000"
 4330      436C6F63 
 4330      6B426163 
 4330      6B757053 
 4330      74727563 
 4331              	.LASF117:
 4332 0261 4379456E 		.ascii	"CyEnterCriticalSection\000"
 4332      74657243 
 4332      72697469 
 4332      63616C53 
 4332      65637469 
 4333              	.LASF35:
 4334 0278 6379506D 		.ascii	"cyPmBackupStruct\000"
 4334      4261636B 
 4334      75705374 
 4334      72756374 
 4334      00
 4335              	.LASF106:
 4336 0289 4379494C 		.ascii	"CyILO_SetPowerMode\000"
 4336      4F5F5365 
 4336      74506F77 
 4336      65724D6F 
 4336      646500
 4337              	.LASF97:
 4338 029c 4379494D 		.ascii	"CyIMO_Stop\000"
 4338      4F5F5374 
 4338      6F7000
 4339              	.LASF33:
 4340 02a7 43595F50 		.ascii	"CY_PM_CLOCK_BACKUP_STRUCT\000"
 4340      4D5F434C 
 4340      4F434B5F 
 4340      4241434B 
 4340      55505F53 
 4341              	.LASF3:
 4342 02c1 73686F72 		.ascii	"short unsigned int\000"
 4342      7420756E 
 4342      7369676E 
 4342      65642069 
 4342      6E7400
ARM GAS  C:\Users\honet\AppData\Local\Temp\ccQxGmyH.s 			page 122


 4343              	.LASF79:
 4344 02d4 63747749 		.ascii	"ctwInterval\000"
 4344      6E746572 
 4344      76616C00 
 4345              	.LASF105:
 4346 02e0 43795664 		.ascii	"CyVdHvAnalogDisable\000"
 4346      4876416E 
 4346      616C6F67 
 4346      44697361 
 4346      626C6500 
 4347              	.LASF92:
 4348 02f4 43794D61 		.ascii	"CyMasterClk_SetSource\000"
 4348      73746572 
 4348      436C6B5F 
 4348      53657453 
 4348      6F757263 
 4349              	.LASF40:
 4350 030a 77616B65 		.ascii	"wakeupCfg0\000"
 4350      75704366 
 4350      673000
 4351              	.LASF41:
 4352 0315 77616B65 		.ascii	"wakeupCfg1\000"
 4352      75704366 
 4352      673100
 4353              	.LASF42:
 4354 0320 77616B65 		.ascii	"wakeupCfg2\000"
 4354      75704366 
 4354      673200
 4355              	.LASF62:
 4356 032b 636C6B42 		.ascii	"clkBusDivTmp\000"
 4356      75734469 
 4356      76546D70 
 4356      00
 4357              	.LASF55:
 4358 0338 626F6F73 		.ascii	"boostRefExt\000"
 4358      74526566 
 4358      45787400 
 4359              	.LASF26:
 4360 0344 636C6B49 		.ascii	"clkImoSrc\000"
 4360      6D6F5372 
 4360      6300
 4361              	.LASF59:
 4362 034e 4379506D 		.ascii	"CyPmSaveClocks\000"
 4362      53617665 
 4362      436C6F63 
 4362      6B7300
 4363              	.LASF100:
 4364 035d 43795854 		.ascii	"CyXTAL_Start\000"
 4364      414C5F53 
 4364      74617274 
 4364      00
 4365              	.LASF39:
 4366 036a 736C7054 		.ascii	"slpTrBypass\000"
 4366      72427970 
 4366      61737300 
 4367              	.LASF17:
 4368 0376 73697A65 		.ascii	"sizetype\000"
ARM GAS  C:\Users\honet\AppData\Local\Temp\ccQxGmyH.s 			page 123


 4368      74797065 
 4368      00
 4369              	.LASF73:
 4370 037f 4379506D 		.ascii	"CyPmHibernateEx\000"
 4370      48696265 
 4370      726E6174 
 4370      65457800 
 4371              	.LASF63:
 4372 038f 6379506D 		.ascii	"cyPmImoFreqMhz2Reg\000"
 4372      496D6F46 
 4372      7265714D 
 4372      687A3252 
 4372      656700
 4373              	.LASF18:
 4374 03a2 656E436C 		.ascii	"enClkA\000"
 4374      6B4100
 4375              	.LASF19:
 4376 03a9 656E436C 		.ascii	"enClkD\000"
 4376      6B4400
 4377              	.LASF110:
 4378 03b0 4379494C 		.ascii	"CyILO_Start100K\000"
 4378      4F5F5374 
 4378      61727431 
 4378      30304B00 
 4379              	.LASF66:
 4380 03c0 77616B65 		.ascii	"wakeupSource\000"
 4380      7570536F 
 4380      75726365 
 4380      00
 4381              	.LASF89:
 4382 03cd 4379504C 		.ascii	"CyPLL_OUT_Stop\000"
 4382      4C5F4F55 
 4382      545F5374 
 4382      6F7000
 4383              	.LASF93:
 4384 03dc 43794D61 		.ascii	"CyMasterClk_SetDivider\000"
 4384      73746572 
 4384      436C6B5F 
 4384      53657444 
 4384      69766964 
 4385              	.LASF25:
 4386 03f3 696D6F43 		.ascii	"imoClkSrc\000"
 4386      6C6B5372 
 4386      6300
 4387              	.LASF12:
 4388 03fd 666C6F61 		.ascii	"float\000"
 4388      7400
 4389              	.LASF102:
 4390 0403 43794578 		.ascii	"CyExitCriticalSection\000"
 4390      69744372 
 4390      69746963 
 4390      616C5365 
 4390      6374696F 
 4391              	.LASF67:
 4392 0419 4379506D 		.ascii	"CyPmSleep\000"
 4392      536C6565 
 4392      7000
ARM GAS  C:\Users\honet\AppData\Local\Temp\ccQxGmyH.s 			page 124


 4393              	.LASF51:
 4394 0423 6C766964 		.ascii	"lvidRst\000"
 4394      52737400 
 4395              	.LASF64:
 4396 042b 4379506D 		.ascii	"CyPmAltAct\000"
 4396      416C7441 
 4396      637400
 4397              	.LASF99:
 4398 0436 43794465 		.ascii	"CyDelayCycles\000"
 4398      6C617943 
 4398      79636C65 
 4398      7300
 4399              	.LASF16:
 4400 0444 72656738 		.ascii	"reg8\000"
 4400      00
 4401              	.LASF115:
 4402 0449 443A5C64 		.ascii	"D:\\develop\\projects\\SoundChipLogger\\firmware\\D"
 4402      6576656C 
 4402      6F705C70 
 4402      726F6A65 
 4402      6374735C 
 4403 0477 4D415344 		.ascii	"MASDSPITest\\DMASDSPITest.cydsn\000"
 4403      53504954 
 4403      6573745C 
 4403      444D4153 
 4403      44535049 
 4404              	.LASF80:
 4405 0496 4379506D 		.ascii	"CyPmOppsSet\000"
 4405      4F707073 
 4405      53657400 
 4406              	.LASF1:
 4407 04a2 756E7369 		.ascii	"unsigned char\000"
 4407      676E6564 
 4407      20636861 
 4407      7200
 4408              	.LASF84:
 4409 04b0 6379506D 		.ascii	"cyPmClockBackup\000"
 4409      436C6F63 
 4409      6B426163 
 4409      6B757000 
 4410              	.LASF30:
 4411 04c0 706C6C45 		.ascii	"pllEnableState\000"
 4411      6E61626C 
 4411      65537461 
 4411      746500
 4412              	.LASF37:
 4413 04cf 696C6F31 		.ascii	"ilo1kEnable\000"
 4413      6B456E61 
 4413      626C6500 
 4414              	.LASF2:
 4415 04db 73686F72 		.ascii	"short int\000"
 4415      7420696E 
 4415      7400
 4416              	.LASF57:
 4417 04e5 4379506D 		.ascii	"CyPmHibSlpSaveSet\000"
 4417      48696253 
 4417      6C705361 
ARM GAS  C:\Users\honet\AppData\Local\Temp\ccQxGmyH.s 			page 125


 4417      76655365 
 4417      7400
 4418              	.LASF38:
 4419 04f7 696C6F31 		.ascii	"ilo100kEnable\000"
 4419      30306B45 
 4419      6E61626C 
 4419      6500
 4420              	.LASF14:
 4421 0505 63686172 		.ascii	"char\000"
 4421      00
 4422              	.LASF94:
 4423 050a 4379494D 		.ascii	"CyIMO_DisableDoubler\000"
 4423      4F5F4469 
 4423      7361626C 
 4423      65446F75 
 4423      626C6572 
 4424              	.LASF103:
 4425 051f 43795664 		.ascii	"CyVdLvDigitDisable\000"
 4425      4C764469 
 4425      67697444 
 4425      69736162 
 4425      6C6500
 4426              	.LASF54:
 4427 0532 696D6F41 		.ascii	"imoActFreq12Mhz\000"
 4427      63744672 
 4427      65713132 
 4427      4D687A00 
 4428              	.LASF74:
 4429 0542 4379506D 		.ascii	"CyPmHibernate\000"
 4429      48696265 
 4429      726E6174 
 4429      6500
 4430              	.LASF86:
 4431 0550 4379466C 		.ascii	"CyFlash_SetWaitCycles\000"
 4431      6173685F 
 4431      53657457 
 4431      61697443 
 4431      79636C65 
 4432              	.LASF82:
 4433 0566 66747749 		.ascii	"ftwInterval\000"
 4433      6E746572 
 4433      76616C00 
 4434              	.LASF85:
 4435 0572 6379506D 		.ascii	"cyPmImoFreqReg2Mhz\000"
 4435      496D6F46 
 4435      72657152 
 4435      6567324D 
 4435      687A00
 4436              	.LASF116:
 4437 0585 4379506D 		.ascii	"CyPmReadStatus\000"
 4437      52656164 
 4437      53746174 
 4437      757300
 4438              	.LASF91:
 4439 0594 43794275 		.ascii	"CyBusClk_SetDivider\000"
 4439      73436C6B 
 4439      5F536574 
ARM GAS  C:\Users\honet\AppData\Local\Temp\ccQxGmyH.s 			page 126


 4439      44697669 
 4439      64657200 
 4440              	.LASF32:
 4441 05a8 636C6B44 		.ascii	"clkDistDelay\000"
 4441      69737444 
 4441      656C6179 
 4441      00
 4442              	.LASF78:
 4443 05b5 4379506D 		.ascii	"CyPmCtwSetInterval\000"
 4443      43747753 
 4443      6574496E 
 4443      74657276 
 4443      616C00
 4444              	.LASF61:
 4445 05c8 73746174 		.ascii	"status\000"
 4445      757300
 4446              	.LASF48:
 4447 05cf 6C766961 		.ascii	"lviaEn\000"
 4447      456E00
 4448              	.LASF87:
 4449 05d6 4379494D 		.ascii	"CyIMO_SetFreq\000"
 4449      4F5F5365 
 4449      74467265 
 4449      7100
 4450              	.LASF98:
 4451 05e4 4379494D 		.ascii	"CyIMO_EnableDoubler\000"
 4451      4F5F456E 
 4451      61626C65 
 4451      446F7562 
 4451      6C657200 
 4452              	.LASF69:
 4453 05f8 4379506D 		.ascii	"CyPmHibSaveSet\000"
 4453      48696253 
 4453      61766553 
 4453      657400
 4454              	.LASF65:
 4455 0607 77616B65 		.ascii	"wakeupTime\000"
 4455      75705469 
 4455      6D6500
 4456              	.LASF108:
 4457 0612 43795664 		.ascii	"CyVdLvAnalogEnable\000"
 4457      4C76416E 
 4457      616C6F67 
 4457      456E6162 
 4457      6C6500
 4458              	.LASF15:
 4459 0625 63797374 		.ascii	"cystatus\000"
 4459      61747573 
 4459      00
 4460              	.LASF23:
 4461 062e 666C6173 		.ascii	"flashWaitCycles\000"
 4461      68576169 
 4461      74437963 
 4461      6C657300 
 4462              	.LASF52:
 4463 063e 6C766961 		.ascii	"lviaRst\000"
 4463      52737400 
ARM GAS  C:\Users\honet\AppData\Local\Temp\ccQxGmyH.s 			page 127


 4464              	.LASF107:
 4465 0646 43795664 		.ascii	"CyVdHvAnalogEnable\000"
 4465      4876416E 
 4465      616C6F67 
 4465      456E6162 
 4465      6C6500
 4466              	.LASF90:
 4467 0659 43795854 		.ascii	"CyXTAL_Stop\000"
 4467      414C5F53 
 4467      746F7000 
 4468              	.LASF83:
 4469 0665 6379506D 		.ascii	"cyPmBackup\000"
 4469      4261636B 
 4469      757000
 4470              	.LASF47:
 4471 0670 6C766964 		.ascii	"lvidTrip\000"
 4471      54726970 
 4471      00
 4472              	.LASF24:
 4473 0679 696D6F45 		.ascii	"imoEnable\000"
 4473      6E61626C 
 4473      6500
 4474              	.LASF76:
 4475 0683 696E7465 		.ascii	"interruptStatus\000"
 4475      72727570 
 4475      74537461 
 4475      74757300 
 4476              	.LASF113:
 4477 0693 474E5520 		.ascii	"GNU C 4.9.3 20150303 (release) [ARM/embedded-4_9-br"
 4477      4320342E 
 4477      392E3320 
 4477      32303135 
 4477      30333033 
 4478 06c6 616E6368 		.ascii	"anch revision 221220] -mcpu=cortex-m3 -mthumb -g -O"
 4478      20726576 
 4478      6973696F 
 4478      6E203232 
 4478      31323230 
 4479 06f9 33202D73 		.ascii	"3 -std=gnu99 -ffunction-sections -ffat-lto-objects\000"
 4479      74643D67 
 4479      6E753939 
 4479      202D6666 
 4479      756E6374 
 4480              		.ident	"GCC: (GNU Tools for ARM Embedded Processors) 4.9.3 20150303 (release) [ARM/embedded-4_9-br
