ARM GAS  C:\Users\honet\AppData\Local\Temp\ccwnfTRf.s 			page 1


   1              		.syntax unified
   2              		.cpu cortex-m3
   3              		.fpu softvfp
   4              		.eabi_attribute 20, 1
   5              		.eabi_attribute 21, 1
   6              		.eabi_attribute 23, 3
   7              		.eabi_attribute 24, 1
   8              		.eabi_attribute 25, 1
   9              		.eabi_attribute 26, 1
  10              		.eabi_attribute 30, 2
  11              		.eabi_attribute 34, 1
  12              		.eabi_attribute 18, 4
  13              		.thumb
  14              		.file	"CySpc.c"
  15              		.text
  16              	.Ltext0:
  17              		.cfi_sections	.debug_frame
  18              		.section	.text.CySpcStart,"ax",%progbits
  19              		.align	2
  20              		.global	CySpcStart
  21              		.thumb
  22              		.thumb_func
  23              		.type	CySpcStart, %function
  24              	CySpcStart:
  25              	.LFB0:
  26              		.file 1 ".\\Generated_Source\\PSoC5\\CySpc.c"
   1:.\Generated_Source\PSoC5/CySpc.c **** /***************************************************************************//**
   2:.\Generated_Source\PSoC5/CySpc.c **** * \file CySpc.c
   3:.\Generated_Source\PSoC5/CySpc.c **** * \version 5.40
   4:.\Generated_Source\PSoC5/CySpc.c **** *
   5:.\Generated_Source\PSoC5/CySpc.c **** * \brief Provides an API for the System Performance Component.
   6:.\Generated_Source\PSoC5/CySpc.c **** * The SPC functions are not meant to be called directly by the user
   7:.\Generated_Source\PSoC5/CySpc.c **** * application.
   8:.\Generated_Source\PSoC5/CySpc.c **** *
   9:.\Generated_Source\PSoC5/CySpc.c **** ********************************************************************************
  10:.\Generated_Source\PSoC5/CySpc.c **** * \copyright
  11:.\Generated_Source\PSoC5/CySpc.c **** * Copyright 2008-2016, Cypress Semiconductor Corporation.  All rights reserved.
  12:.\Generated_Source\PSoC5/CySpc.c **** * You may use this file only in accordance with the license, terms, conditions,
  13:.\Generated_Source\PSoC5/CySpc.c **** * disclaimers, and limitations in the end user license agreement accompanying
  14:.\Generated_Source\PSoC5/CySpc.c **** * the software package with which this file was provided.
  15:.\Generated_Source\PSoC5/CySpc.c **** *******************************************************************************/
  16:.\Generated_Source\PSoC5/CySpc.c **** 
  17:.\Generated_Source\PSoC5/CySpc.c **** #include "CySpc.h"
  18:.\Generated_Source\PSoC5/CySpc.c **** 
  19:.\Generated_Source\PSoC5/CySpc.c **** #define CY_SPC_KEY_ONE                      (0xB6u)
  20:.\Generated_Source\PSoC5/CySpc.c **** #define CY_SPC_KEY_TWO(x)                   ((uint8) (((uint16) 0xD3u) + ((uint16) (x))))
  21:.\Generated_Source\PSoC5/CySpc.c **** 
  22:.\Generated_Source\PSoC5/CySpc.c **** /* Command Codes */
  23:.\Generated_Source\PSoC5/CySpc.c **** #define CY_SPC_CMD_LD_BYTE                  (0x00u)
  24:.\Generated_Source\PSoC5/CySpc.c **** #define CY_SPC_CMD_LD_MULTI_BYTE            (0x01u)
  25:.\Generated_Source\PSoC5/CySpc.c **** #define CY_SPC_CMD_LD_ROW                   (0x02u)
  26:.\Generated_Source\PSoC5/CySpc.c **** #define CY_SPC_CMD_RD_BYTE                  (0x03u)
  27:.\Generated_Source\PSoC5/CySpc.c **** #define CY_SPC_CMD_RD_MULTI_BYTE            (0x04u)
  28:.\Generated_Source\PSoC5/CySpc.c **** #define CY_SPC_CMD_WR_ROW                   (0x05u)
  29:.\Generated_Source\PSoC5/CySpc.c **** #define CY_SPC_CMD_WR_USER_NVL              (0x06u)
  30:.\Generated_Source\PSoC5/CySpc.c **** #define CY_SPC_CMD_PRG_ROW                  (0x07u)
  31:.\Generated_Source\PSoC5/CySpc.c **** #define CY_SPC_CMD_ER_SECTOR                (0x08u)
ARM GAS  C:\Users\honet\AppData\Local\Temp\ccwnfTRf.s 			page 2


  32:.\Generated_Source\PSoC5/CySpc.c **** #define CY_SPC_CMD_ER_ALL                   (0x09u)
  33:.\Generated_Source\PSoC5/CySpc.c **** #define CY_SPC_CMD_RD_HIDDEN                (0x0Au)
  34:.\Generated_Source\PSoC5/CySpc.c **** #define CY_SPC_CMD_PRG_PROTECT              (0x0Bu)
  35:.\Generated_Source\PSoC5/CySpc.c **** #define CY_SPC_CMD_CHECKSUM                 (0x0Cu)
  36:.\Generated_Source\PSoC5/CySpc.c **** #define CY_SPC_CMD_DWNLD_ALGORITHM          (0x0Du)
  37:.\Generated_Source\PSoC5/CySpc.c **** #define CY_SPC_CMD_GET_TEMP                 (0x0Eu)
  38:.\Generated_Source\PSoC5/CySpc.c **** #define CY_SPC_CMD_GET_ADC                  (0x0Fu)
  39:.\Generated_Source\PSoC5/CySpc.c **** #define CY_SPC_CMD_RD_NVL_VOLATILE          (0x10u)
  40:.\Generated_Source\PSoC5/CySpc.c **** #define CY_SPC_CMD_SETUP_TS                 (0x11u)
  41:.\Generated_Source\PSoC5/CySpc.c **** #define CY_SPC_CMD_DISABLE_TS               (0x12u)
  42:.\Generated_Source\PSoC5/CySpc.c **** #define CY_SPC_CMD_ER_ROW                   (0x13u)
  43:.\Generated_Source\PSoC5/CySpc.c **** 
  44:.\Generated_Source\PSoC5/CySpc.c **** /* Enable bit in Active and Alternate Active mode templates */
  45:.\Generated_Source\PSoC5/CySpc.c **** #define PM_SPC_PM_EN                        (0x08u)
  46:.\Generated_Source\PSoC5/CySpc.c **** 
  47:.\Generated_Source\PSoC5/CySpc.c **** /* Gate calls to the SPC. */
  48:.\Generated_Source\PSoC5/CySpc.c **** uint8 SpcLockState = CY_SPC_UNLOCKED;
  49:.\Generated_Source\PSoC5/CySpc.c **** 
  50:.\Generated_Source\PSoC5/CySpc.c **** 
  51:.\Generated_Source\PSoC5/CySpc.c **** #if(CY_PSOC5)
  52:.\Generated_Source\PSoC5/CySpc.c **** 
  53:.\Generated_Source\PSoC5/CySpc.c ****     /***************************************************************************
  54:.\Generated_Source\PSoC5/CySpc.c ****     * The wait-state pipeline must be enabled prior to accessing the SPC
  55:.\Generated_Source\PSoC5/CySpc.c ****     * register interface regardless of CPU frequency. The CySpcLock() saves
  56:.\Generated_Source\PSoC5/CySpc.c ****     * current wait-state pipeline state and enables it. The CySpcUnlock()
  57:.\Generated_Source\PSoC5/CySpc.c ****     * function, which must be called after SPC transaction, restores original
  58:.\Generated_Source\PSoC5/CySpc.c ****     * state.
  59:.\Generated_Source\PSoC5/CySpc.c ****     ***************************************************************************/
  60:.\Generated_Source\PSoC5/CySpc.c ****     static uint32 spcWaitPipeBypass = 0u;
  61:.\Generated_Source\PSoC5/CySpc.c **** 
  62:.\Generated_Source\PSoC5/CySpc.c **** #endif  /* (CY_PSOC5) */
  63:.\Generated_Source\PSoC5/CySpc.c **** 
  64:.\Generated_Source\PSoC5/CySpc.c **** 
  65:.\Generated_Source\PSoC5/CySpc.c **** /*******************************************************************************
  66:.\Generated_Source\PSoC5/CySpc.c **** * Function Name: CySpcStart
  67:.\Generated_Source\PSoC5/CySpc.c **** ****************************************************************************//**
  68:.\Generated_Source\PSoC5/CySpc.c **** *  Starts the SPC.
  69:.\Generated_Source\PSoC5/CySpc.c **** *
  70:.\Generated_Source\PSoC5/CySpc.c **** *******************************************************************************/
  71:.\Generated_Source\PSoC5/CySpc.c **** void CySpcStart(void) 
  72:.\Generated_Source\PSoC5/CySpc.c **** {
  27              		.loc 1 72 0
  28              		.cfi_startproc
  29              		@ args = 0, pretend = 0, frame = 0
  30              		@ frame_needed = 0, uses_anonymous_args = 0
  31 0000 08B5     		push	{r3, lr}
  32              		.cfi_def_cfa_offset 8
  33              		.cfi_offset 3, -8
  34              		.cfi_offset 14, -4
  73:.\Generated_Source\PSoC5/CySpc.c ****     /* Save current global interrupt enable and disable it */
  74:.\Generated_Source\PSoC5/CySpc.c ****     uint8 interruptState = CyEnterCriticalSection();
  35              		.loc 1 74 0
  36 0002 FFF7FEFF 		bl	CyEnterCriticalSection
  37              	.LVL0:
  75:.\Generated_Source\PSoC5/CySpc.c **** 
  76:.\Generated_Source\PSoC5/CySpc.c ****     CY_SPC_PM_ACT_REG  |= PM_SPC_PM_EN;
  38              		.loc 1 76 0
ARM GAS  C:\Users\honet\AppData\Local\Temp\ccwnfTRf.s 			page 3


  39 0006 0749     		ldr	r1, .L3
  77:.\Generated_Source\PSoC5/CySpc.c ****     CY_SPC_PM_STBY_REG |= PM_SPC_PM_EN;
  40              		.loc 1 77 0
  41 0008 074A     		ldr	r2, .L3+4
  76:.\Generated_Source\PSoC5/CySpc.c ****     CY_SPC_PM_STBY_REG |= PM_SPC_PM_EN;
  42              		.loc 1 76 0
  43 000a 0B78     		ldrb	r3, [r1]	@ zero_extendqisi2
  44 000c 43F00803 		orr	r3, r3, #8
  45 0010 0B70     		strb	r3, [r1]
  46              		.loc 1 77 0
  47 0012 1378     		ldrb	r3, [r2]	@ zero_extendqisi2
  48 0014 43F00803 		orr	r3, r3, #8
  49 0018 1370     		strb	r3, [r2]
  78:.\Generated_Source\PSoC5/CySpc.c **** 
  79:.\Generated_Source\PSoC5/CySpc.c ****     /* Restore global interrupt enable state */
  80:.\Generated_Source\PSoC5/CySpc.c ****     CyExitCriticalSection(interruptState);
  81:.\Generated_Source\PSoC5/CySpc.c **** }
  50              		.loc 1 81 0
  51 001a BDE80840 		pop	{r3, lr}
  52              		.cfi_restore 14
  53              		.cfi_restore 3
  54              		.cfi_def_cfa_offset 0
  80:.\Generated_Source\PSoC5/CySpc.c **** }
  55              		.loc 1 80 0
  56 001e FFF7FEBF 		b	CyExitCriticalSection
  57              	.LVL1:
  58              	.L4:
  59 0022 00BF     		.align	2
  60              	.L3:
  61 0024 A0430040 		.word	1073759136
  62 0028 B0430040 		.word	1073759152
  63              		.cfi_endproc
  64              	.LFE0:
  65              		.size	CySpcStart, .-CySpcStart
  66              		.section	.text.CySpcStop,"ax",%progbits
  67              		.align	2
  68              		.global	CySpcStop
  69              		.thumb
  70              		.thumb_func
  71              		.type	CySpcStop, %function
  72              	CySpcStop:
  73              	.LFB1:
  82:.\Generated_Source\PSoC5/CySpc.c **** 
  83:.\Generated_Source\PSoC5/CySpc.c **** 
  84:.\Generated_Source\PSoC5/CySpc.c **** /*******************************************************************************
  85:.\Generated_Source\PSoC5/CySpc.c **** * Function Name: CySpcStop
  86:.\Generated_Source\PSoC5/CySpc.c **** ****************************************************************************//**
  87:.\Generated_Source\PSoC5/CySpc.c **** *  Stops the SPC.
  88:.\Generated_Source\PSoC5/CySpc.c **** *
  89:.\Generated_Source\PSoC5/CySpc.c **** *******************************************************************************/
  90:.\Generated_Source\PSoC5/CySpc.c **** void CySpcStop(void) 
  91:.\Generated_Source\PSoC5/CySpc.c **** {
  74              		.loc 1 91 0
  75              		.cfi_startproc
  76              		@ args = 0, pretend = 0, frame = 0
  77              		@ frame_needed = 0, uses_anonymous_args = 0
  78 0000 08B5     		push	{r3, lr}
ARM GAS  C:\Users\honet\AppData\Local\Temp\ccwnfTRf.s 			page 4


  79              		.cfi_def_cfa_offset 8
  80              		.cfi_offset 3, -8
  81              		.cfi_offset 14, -4
  92:.\Generated_Source\PSoC5/CySpc.c ****     /* Save current global interrupt enable and disable it */
  93:.\Generated_Source\PSoC5/CySpc.c ****     uint8 interruptState = CyEnterCriticalSection();
  82              		.loc 1 93 0
  83 0002 FFF7FEFF 		bl	CyEnterCriticalSection
  84              	.LVL2:
  94:.\Generated_Source\PSoC5/CySpc.c **** 
  95:.\Generated_Source\PSoC5/CySpc.c ****     CY_SPC_PM_ACT_REG  &= ((uint8)(~PM_SPC_PM_EN));
  85              		.loc 1 95 0
  86 0006 0749     		ldr	r1, .L7
  96:.\Generated_Source\PSoC5/CySpc.c ****     CY_SPC_PM_STBY_REG &= ((uint8)(~PM_SPC_PM_EN));
  87              		.loc 1 96 0
  88 0008 074A     		ldr	r2, .L7+4
  95:.\Generated_Source\PSoC5/CySpc.c ****     CY_SPC_PM_STBY_REG &= ((uint8)(~PM_SPC_PM_EN));
  89              		.loc 1 95 0
  90 000a 0B78     		ldrb	r3, [r1]	@ zero_extendqisi2
  91 000c 03F0F703 		and	r3, r3, #247
  92 0010 0B70     		strb	r3, [r1]
  93              		.loc 1 96 0
  94 0012 1378     		ldrb	r3, [r2]	@ zero_extendqisi2
  95 0014 03F0F703 		and	r3, r3, #247
  96 0018 1370     		strb	r3, [r2]
  97:.\Generated_Source\PSoC5/CySpc.c **** 
  98:.\Generated_Source\PSoC5/CySpc.c ****     /* Restore global interrupt enable state */
  99:.\Generated_Source\PSoC5/CySpc.c ****     CyExitCriticalSection(interruptState);
 100:.\Generated_Source\PSoC5/CySpc.c **** }
  97              		.loc 1 100 0
  98 001a BDE80840 		pop	{r3, lr}
  99              		.cfi_restore 14
 100              		.cfi_restore 3
 101              		.cfi_def_cfa_offset 0
  99:.\Generated_Source\PSoC5/CySpc.c **** }
 102              		.loc 1 99 0
 103 001e FFF7FEBF 		b	CyExitCriticalSection
 104              	.LVL3:
 105              	.L8:
 106 0022 00BF     		.align	2
 107              	.L7:
 108 0024 A0430040 		.word	1073759136
 109 0028 B0430040 		.word	1073759152
 110              		.cfi_endproc
 111              	.LFE1:
 112              		.size	CySpcStop, .-CySpcStop
 113              		.section	.text.CySpcReadData,"ax",%progbits
 114              		.align	2
 115              		.global	CySpcReadData
 116              		.thumb
 117              		.thumb_func
 118              		.type	CySpcReadData, %function
 119              	CySpcReadData:
 120              	.LFB2:
 101:.\Generated_Source\PSoC5/CySpc.c **** 
 102:.\Generated_Source\PSoC5/CySpc.c **** 
 103:.\Generated_Source\PSoC5/CySpc.c **** /*******************************************************************************
 104:.\Generated_Source\PSoC5/CySpc.c **** * Function Name: CySpcReadData
ARM GAS  C:\Users\honet\AppData\Local\Temp\ccwnfTRf.s 			page 5


 105:.\Generated_Source\PSoC5/CySpc.c **** ****************************************************************************//**
 106:.\Generated_Source\PSoC5/CySpc.c **** *  Reads data from the SPC.
 107:.\Generated_Source\PSoC5/CySpc.c **** *
 108:.\Generated_Source\PSoC5/CySpc.c **** *  \param uint8 buffer:
 109:.\Generated_Source\PSoC5/CySpc.c **** *   Address to store data read.
 110:.\Generated_Source\PSoC5/CySpc.c **** *
 111:.\Generated_Source\PSoC5/CySpc.c **** *  \param uint8 size:
 112:.\Generated_Source\PSoC5/CySpc.c **** *   Number of bytes to read from the SPC.
 113:.\Generated_Source\PSoC5/CySpc.c **** *
 114:.\Generated_Source\PSoC5/CySpc.c **** * \return
 115:.\Generated_Source\PSoC5/CySpc.c **** *  uint8:
 116:.\Generated_Source\PSoC5/CySpc.c **** *   The number of bytes read from the SPC.
 117:.\Generated_Source\PSoC5/CySpc.c **** *
 118:.\Generated_Source\PSoC5/CySpc.c **** *******************************************************************************/
 119:.\Generated_Source\PSoC5/CySpc.c **** uint8 CySpcReadData(uint8 buffer[], uint8 size) 
 120:.\Generated_Source\PSoC5/CySpc.c **** {
 121              		.loc 1 120 0
 122              		.cfi_startproc
 123              		@ args = 0, pretend = 0, frame = 0
 124              		@ frame_needed = 0, uses_anonymous_args = 0
 125              	.LVL4:
 126 0000 2DE9F041 		push	{r4, r5, r6, r7, r8, lr}
 127              		.cfi_def_cfa_offset 24
 128              		.cfi_offset 4, -24
 129              		.cfi_offset 5, -20
 130              		.cfi_offset 6, -16
 131              		.cfi_offset 7, -12
 132              		.cfi_offset 8, -8
 133              		.cfi_offset 14, -4
 121:.\Generated_Source\PSoC5/CySpc.c ****     uint8 i;
 122:.\Generated_Source\PSoC5/CySpc.c **** 
 123:.\Generated_Source\PSoC5/CySpc.c ****     for(i = 0u; i < size; i++)
 134              		.loc 1 123 0
 135 0004 0F46     		mov	r7, r1
 136 0006 99B1     		cbz	r1, .L10
 137 0008 4E1E     		subs	r6, r1, #1
 138 000a F6B2     		uxtb	r6, r6
 139 000c 0644     		add	r6, r6, r0
 140 000e 451E     		subs	r5, r0, #1
 124:.\Generated_Source\PSoC5/CySpc.c ****     {
 125:.\Generated_Source\PSoC5/CySpc.c ****         while(!CY_SPC_DATA_READY)
 141              		.loc 1 125 0
 142 0010 094C     		ldr	r4, .L24
 126:.\Generated_Source\PSoC5/CySpc.c ****         {
 127:.\Generated_Source\PSoC5/CySpc.c ****             CyDelayUs(1u);
 128:.\Generated_Source\PSoC5/CySpc.c ****         }
 129:.\Generated_Source\PSoC5/CySpc.c ****         buffer[i] = CY_SPC_CPU_DATA_REG;
 143              		.loc 1 129 0
 144 0012 DFF82880 		ldr	r8, .L24+4
 145 0016 02E0     		b	.L22
 146              	.LVL5:
 147              	.L12:
 127:.\Generated_Source\PSoC5/CySpc.c ****         }
 148              		.loc 1 127 0
 149 0018 0120     		movs	r0, #1
 150 001a FFF7FEFF 		bl	CyDelayUs
 151              	.LVL6:
ARM GAS  C:\Users\honet\AppData\Local\Temp\ccwnfTRf.s 			page 6


 152              	.L22:
 125:.\Generated_Source\PSoC5/CySpc.c ****         {
 153              		.loc 1 125 0
 154 001e 2378     		ldrb	r3, [r4]	@ zero_extendqisi2
 155 0020 DB07     		lsls	r3, r3, #31
 156 0022 F9D5     		bpl	.L12
 157              		.loc 1 129 0
 158 0024 98F80030 		ldrb	r3, [r8]	@ zero_extendqisi2
 159 0028 05F8013F 		strb	r3, [r5, #1]!
 160              	.LVL7:
 123:.\Generated_Source\PSoC5/CySpc.c ****     {
 161              		.loc 1 123 0
 162 002c B542     		cmp	r5, r6
 163 002e F6D1     		bne	.L22
 164              	.LVL8:
 165              	.L10:
 130:.\Generated_Source\PSoC5/CySpc.c ****     }
 131:.\Generated_Source\PSoC5/CySpc.c **** 
 132:.\Generated_Source\PSoC5/CySpc.c ****     return(i);
 133:.\Generated_Source\PSoC5/CySpc.c **** }
 166              		.loc 1 133 0
 167 0030 3846     		mov	r0, r7
 168 0032 BDE8F081 		pop	{r4, r5, r6, r7, r8, pc}
 169              	.L25:
 170 0036 00BF     		.align	2
 171              	.L24:
 172 0038 22470040 		.word	1073760034
 173 003c 20470040 		.word	1073760032
 174              		.cfi_endproc
 175              	.LFE2:
 176              		.size	CySpcReadData, .-CySpcReadData
 177              		.section	.text.CySpcLoadMultiByte,"ax",%progbits
 178              		.align	2
 179              		.global	CySpcLoadMultiByte
 180              		.thumb
 181              		.thumb_func
 182              		.type	CySpcLoadMultiByte, %function
 183              	CySpcLoadMultiByte:
 184              	.LFB3:
 134:.\Generated_Source\PSoC5/CySpc.c **** 
 135:.\Generated_Source\PSoC5/CySpc.c **** 
 136:.\Generated_Source\PSoC5/CySpc.c **** /*******************************************************************************
 137:.\Generated_Source\PSoC5/CySpc.c **** * Function Name: CySpcLoadMultiByte
 138:.\Generated_Source\PSoC5/CySpc.c **** ****************************************************************************//**
 139:.\Generated_Source\PSoC5/CySpc.c **** *  Loads 1 to 32 bytes of data into the row latch of a Flash/EEPROM array.
 140:.\Generated_Source\PSoC5/CySpc.c **** *
 141:.\Generated_Source\PSoC5/CySpc.c **** *  \param uint8 array:
 142:.\Generated_Source\PSoC5/CySpc.c **** *   Id of the array.
 143:.\Generated_Source\PSoC5/CySpc.c **** *
 144:.\Generated_Source\PSoC5/CySpc.c **** *  \param uint16 address:
 145:.\Generated_Source\PSoC5/CySpc.c **** *   Flash/eeprom addrress
 146:.\Generated_Source\PSoC5/CySpc.c **** *
 147:.\Generated_Source\PSoC5/CySpc.c **** *  \param uint8* buffer:
 148:.\Generated_Source\PSoC5/CySpc.c **** *   Data to load to the row latch
 149:.\Generated_Source\PSoC5/CySpc.c **** *
 150:.\Generated_Source\PSoC5/CySpc.c **** *  \param uint16 number:
 151:.\Generated_Source\PSoC5/CySpc.c **** *   Number bytes to load.
ARM GAS  C:\Users\honet\AppData\Local\Temp\ccwnfTRf.s 			page 7


 152:.\Generated_Source\PSoC5/CySpc.c **** *
 153:.\Generated_Source\PSoC5/CySpc.c **** * \return
 154:.\Generated_Source\PSoC5/CySpc.c **** *  CYRET_STARTED
 155:.\Generated_Source\PSoC5/CySpc.c **** *  CYRET_CANCELED
 156:.\Generated_Source\PSoC5/CySpc.c **** *  CYRET_LOCKED
 157:.\Generated_Source\PSoC5/CySpc.c **** *  CYRET_BAD_PARAM
 158:.\Generated_Source\PSoC5/CySpc.c **** *
 159:.\Generated_Source\PSoC5/CySpc.c **** *******************************************************************************/
 160:.\Generated_Source\PSoC5/CySpc.c **** cystatus CySpcLoadMultiByte(uint8 array, uint16 address, const uint8 buffer[], uint8 size)\
 161:.\Generated_Source\PSoC5/CySpc.c **** 
 162:.\Generated_Source\PSoC5/CySpc.c **** {
 185              		.loc 1 162 0
 186              		.cfi_startproc
 187              		@ args = 0, pretend = 0, frame = 0
 188              		@ frame_needed = 0, uses_anonymous_args = 0
 189              	.LVL9:
 163:.\Generated_Source\PSoC5/CySpc.c ****     cystatus status = CYRET_STARTED;
 164:.\Generated_Source\PSoC5/CySpc.c ****     uint8 i;
 165:.\Generated_Source\PSoC5/CySpc.c **** 
 166:.\Generated_Source\PSoC5/CySpc.c ****     /***************************************************************************
 167:.\Generated_Source\PSoC5/CySpc.c ****     * Check if number is correct for array. Number must be less than
 168:.\Generated_Source\PSoC5/CySpc.c ****     * 32 for Flash or less than 16 for EEPROM.
 169:.\Generated_Source\PSoC5/CySpc.c ****     ***************************************************************************/
 170:.\Generated_Source\PSoC5/CySpc.c ****     if(((array < CY_SPC_LAST_FLASH_ARRAYID) && (size < 32u)) ||
 190              		.loc 1 170 0
 191 0000 3E28     		cmp	r0, #62
 162:.\Generated_Source\PSoC5/CySpc.c ****     cystatus status = CYRET_STARTED;
 192              		.loc 1 162 0
 193 0002 F0B5     		push	{r4, r5, r6, r7, lr}
 194              		.cfi_def_cfa_offset 20
 195              		.cfi_offset 4, -20
 196              		.cfi_offset 5, -16
 197              		.cfi_offset 6, -12
 198              		.cfi_offset 7, -8
 199              		.cfi_offset 14, -4
 200              		.loc 1 170 0
 201 0004 07D8     		bhi	.L27
 202              		.loc 1 170 0 is_stmt 0 discriminator 1
 203 0006 1F2B     		cmp	r3, #31
 204 0008 09D8     		bhi	.L34
 205              	.L28:
 171:.\Generated_Source\PSoC5/CySpc.c ****        ((array > CY_SPC_LAST_FLASH_ARRAYID) && (size < 16u)))
 172:.\Generated_Source\PSoC5/CySpc.c ****     {
 173:.\Generated_Source\PSoC5/CySpc.c ****         if(CY_SPC_IDLE)
 206              		.loc 1 173 0 is_stmt 1
 207 000a 164D     		ldr	r5, .L41
 208 000c 2C78     		ldrb	r4, [r5]	@ zero_extendqisi2
 209 000e A607     		lsls	r6, r4, #30
 210 0010 07D4     		bmi	.L39
 174:.\Generated_Source\PSoC5/CySpc.c ****         {
 175:.\Generated_Source\PSoC5/CySpc.c ****             CY_SPC_CPU_DATA_REG = CY_SPC_KEY_ONE;
 176:.\Generated_Source\PSoC5/CySpc.c ****             CY_SPC_CPU_DATA_REG = CY_SPC_KEY_TWO(CY_SPC_CMD_LD_MULTI_BYTE);
 177:.\Generated_Source\PSoC5/CySpc.c ****             CY_SPC_CPU_DATA_REG = CY_SPC_CMD_LD_MULTI_BYTE;
 178:.\Generated_Source\PSoC5/CySpc.c **** 
 179:.\Generated_Source\PSoC5/CySpc.c ****             if(CY_SPC_BUSY)
 180:.\Generated_Source\PSoC5/CySpc.c ****             {
 181:.\Generated_Source\PSoC5/CySpc.c ****                 CY_SPC_CPU_DATA_REG = array;
ARM GAS  C:\Users\honet\AppData\Local\Temp\ccwnfTRf.s 			page 8


 182:.\Generated_Source\PSoC5/CySpc.c ****                 CY_SPC_CPU_DATA_REG = 1u & HI8(address);
 183:.\Generated_Source\PSoC5/CySpc.c ****                 CY_SPC_CPU_DATA_REG = LO8(address);
 184:.\Generated_Source\PSoC5/CySpc.c ****                 CY_SPC_CPU_DATA_REG = ((uint8)(size - 1u));
 185:.\Generated_Source\PSoC5/CySpc.c **** 
 186:.\Generated_Source\PSoC5/CySpc.c ****                 for(i = 0u; i < size; i++)
 187:.\Generated_Source\PSoC5/CySpc.c ****                 {
 188:.\Generated_Source\PSoC5/CySpc.c ****                     CY_SPC_CPU_DATA_REG = buffer[i];
 189:.\Generated_Source\PSoC5/CySpc.c ****                 }
 190:.\Generated_Source\PSoC5/CySpc.c ****             }
 191:.\Generated_Source\PSoC5/CySpc.c ****             else
 192:.\Generated_Source\PSoC5/CySpc.c ****             {
 193:.\Generated_Source\PSoC5/CySpc.c ****                 status = CYRET_CANCELED;
 194:.\Generated_Source\PSoC5/CySpc.c ****             }
 195:.\Generated_Source\PSoC5/CySpc.c ****         }
 196:.\Generated_Source\PSoC5/CySpc.c ****         else
 197:.\Generated_Source\PSoC5/CySpc.c ****         {
 198:.\Generated_Source\PSoC5/CySpc.c ****             status = CYRET_LOCKED;
 211              		.loc 1 198 0
 212 0012 0420     		movs	r0, #4
 213              	.LVL10:
 214 0014 F0BD     		pop	{r4, r5, r6, r7, pc}
 215              	.LVL11:
 216              	.L27:
 170:.\Generated_Source\PSoC5/CySpc.c ****        ((array > CY_SPC_LAST_FLASH_ARRAYID) && (size < 16u)))
 217              		.loc 1 170 0 discriminator 3
 218 0016 3F28     		cmp	r0, #63
 219 0018 01D0     		beq	.L34
 171:.\Generated_Source\PSoC5/CySpc.c ****        ((array > CY_SPC_LAST_FLASH_ARRAYID) && (size < 16u)))
 220              		.loc 1 171 0
 221 001a 0F2B     		cmp	r3, #15
 222 001c F5D9     		bls	.L28
 223              	.L34:
 199:.\Generated_Source\PSoC5/CySpc.c ****         }
 200:.\Generated_Source\PSoC5/CySpc.c ****     }
 201:.\Generated_Source\PSoC5/CySpc.c ****     else
 202:.\Generated_Source\PSoC5/CySpc.c ****     {
 203:.\Generated_Source\PSoC5/CySpc.c ****         status = CYRET_BAD_PARAM;
 224              		.loc 1 203 0
 225 001e 0120     		movs	r0, #1
 226              	.LVL12:
 227 0020 F0BD     		pop	{r4, r5, r6, r7, pc}
 228              	.LVL13:
 229              	.L39:
 175:.\Generated_Source\PSoC5/CySpc.c ****             CY_SPC_CPU_DATA_REG = CY_SPC_KEY_TWO(CY_SPC_CMD_LD_MULTI_BYTE);
 230              		.loc 1 175 0
 231 0022 114C     		ldr	r4, .L41+4
 232 0024 4FF0B60E 		mov	lr, #182
 176:.\Generated_Source\PSoC5/CySpc.c ****             CY_SPC_CPU_DATA_REG = CY_SPC_CMD_LD_MULTI_BYTE;
 233              		.loc 1 176 0
 234 0028 D427     		movs	r7, #212
 177:.\Generated_Source\PSoC5/CySpc.c **** 
 235              		.loc 1 177 0
 236 002a 0126     		movs	r6, #1
 175:.\Generated_Source\PSoC5/CySpc.c ****             CY_SPC_CPU_DATA_REG = CY_SPC_KEY_TWO(CY_SPC_CMD_LD_MULTI_BYTE);
 237              		.loc 1 175 0
 238 002c 84F800E0 		strb	lr, [r4]
 176:.\Generated_Source\PSoC5/CySpc.c ****             CY_SPC_CPU_DATA_REG = CY_SPC_CMD_LD_MULTI_BYTE;
ARM GAS  C:\Users\honet\AppData\Local\Temp\ccwnfTRf.s 			page 9


 239              		.loc 1 176 0
 240 0030 2770     		strb	r7, [r4]
 177:.\Generated_Source\PSoC5/CySpc.c **** 
 241              		.loc 1 177 0
 242 0032 2670     		strb	r6, [r4]
 179:.\Generated_Source\PSoC5/CySpc.c ****             {
 243              		.loc 1 179 0
 244 0034 2D78     		ldrb	r5, [r5]	@ zero_extendqisi2
 245 0036 AD07     		lsls	r5, r5, #30
 246 0038 01D5     		bpl	.L40
 193:.\Generated_Source\PSoC5/CySpc.c ****             }
 247              		.loc 1 193 0
 248 003a 0920     		movs	r0, #9
 249              	.LVL14:
 204:.\Generated_Source\PSoC5/CySpc.c ****     }
 205:.\Generated_Source\PSoC5/CySpc.c **** 
 206:.\Generated_Source\PSoC5/CySpc.c ****     return(status);
 207:.\Generated_Source\PSoC5/CySpc.c **** }
 250              		.loc 1 207 0
 251 003c F0BD     		pop	{r4, r5, r6, r7, pc}
 252              	.LVL15:
 253              	.L40:
 184:.\Generated_Source\PSoC5/CySpc.c **** 
 254              		.loc 1 184 0
 255 003e 5D1E     		subs	r5, r3, #1
 182:.\Generated_Source\PSoC5/CySpc.c ****                 CY_SPC_CPU_DATA_REG = LO8(address);
 256              		.loc 1 182 0
 257 0040 C1F30026 		ubfx	r6, r1, #8, #1
 184:.\Generated_Source\PSoC5/CySpc.c **** 
 258              		.loc 1 184 0
 259 0044 EDB2     		uxtb	r5, r5
 183:.\Generated_Source\PSoC5/CySpc.c ****                 CY_SPC_CPU_DATA_REG = ((uint8)(size - 1u));
 260              		.loc 1 183 0
 261 0046 C9B2     		uxtb	r1, r1
 262              	.LVL16:
 181:.\Generated_Source\PSoC5/CySpc.c ****                 CY_SPC_CPU_DATA_REG = 1u & HI8(address);
 263              		.loc 1 181 0
 264 0048 2070     		strb	r0, [r4]
 182:.\Generated_Source\PSoC5/CySpc.c ****                 CY_SPC_CPU_DATA_REG = LO8(address);
 265              		.loc 1 182 0
 266 004a 2670     		strb	r6, [r4]
 183:.\Generated_Source\PSoC5/CySpc.c ****                 CY_SPC_CPU_DATA_REG = ((uint8)(size - 1u));
 267              		.loc 1 183 0
 268 004c 2170     		strb	r1, [r4]
 184:.\Generated_Source\PSoC5/CySpc.c **** 
 269              		.loc 1 184 0
 270 004e 2570     		strb	r5, [r4]
 271              	.LVL17:
 186:.\Generated_Source\PSoC5/CySpc.c ****                 {
 272              		.loc 1 186 0
 273 0050 33B1     		cbz	r3, .L32
 274 0052 5119     		adds	r1, r2, r5
 275 0054 013A     		subs	r2, r2, #1
 276              	.LVL18:
 277              	.L31:
 188:.\Generated_Source\PSoC5/CySpc.c ****                 }
 278              		.loc 1 188 0 discriminator 3
ARM GAS  C:\Users\honet\AppData\Local\Temp\ccwnfTRf.s 			page 10


 279 0056 12F8013F 		ldrb	r3, [r2, #1]!	@ zero_extendqisi2
 280              	.LVL19:
 186:.\Generated_Source\PSoC5/CySpc.c ****                 {
 281              		.loc 1 186 0 discriminator 3
 282 005a 8A42     		cmp	r2, r1
 188:.\Generated_Source\PSoC5/CySpc.c ****                 }
 283              		.loc 1 188 0 discriminator 3
 284 005c 2370     		strb	r3, [r4]
 285              	.LVL20:
 186:.\Generated_Source\PSoC5/CySpc.c ****                 {
 286              		.loc 1 186 0 discriminator 3
 287 005e FAD1     		bne	.L31
 288              	.LVL21:
 289              	.L32:
 163:.\Generated_Source\PSoC5/CySpc.c ****     uint8 i;
 290              		.loc 1 163 0
 291 0060 0720     		movs	r0, #7
 292              	.LVL22:
 293 0062 F0BD     		pop	{r4, r5, r6, r7, pc}
 294              	.L42:
 295              		.align	2
 296              	.L41:
 297 0064 22470040 		.word	1073760034
 298 0068 20470040 		.word	1073760032
 299              		.cfi_endproc
 300              	.LFE3:
 301              		.size	CySpcLoadMultiByte, .-CySpcLoadMultiByte
 302              		.section	.text.CySpcLoadRow,"ax",%progbits
 303              		.align	2
 304              		.global	CySpcLoadRow
 305              		.thumb
 306              		.thumb_func
 307              		.type	CySpcLoadRow, %function
 308              	CySpcLoadRow:
 309              	.LFB4:
 208:.\Generated_Source\PSoC5/CySpc.c **** 
 209:.\Generated_Source\PSoC5/CySpc.c **** 
 210:.\Generated_Source\PSoC5/CySpc.c **** /*******************************************************************************
 211:.\Generated_Source\PSoC5/CySpc.c **** * Function Name: CySpcLoadRow
 212:.\Generated_Source\PSoC5/CySpc.c **** ****************************************************************************//**
 213:.\Generated_Source\PSoC5/CySpc.c **** *  Loads a row of data into the row latch of a Flash/EEPROM array.
 214:.\Generated_Source\PSoC5/CySpc.c **** *
 215:.\Generated_Source\PSoC5/CySpc.c **** *  The buffer pointer should point to the data that should be written to the
 216:.\Generated_Source\PSoC5/CySpc.c **** *  flash row directly (no data in ECC/flash will be preserved). It is Flash API
 217:.\Generated_Source\PSoC5/CySpc.c **** *  responsibility to prepare data: the preserved data are copied from flash into
 218:.\Generated_Source\PSoC5/CySpc.c **** *  array with the modified data.
 219:.\Generated_Source\PSoC5/CySpc.c **** *
 220:.\Generated_Source\PSoC5/CySpc.c **** *  \param uint8 array:
 221:.\Generated_Source\PSoC5/CySpc.c **** *   Id of the array.
 222:.\Generated_Source\PSoC5/CySpc.c **** *
 223:.\Generated_Source\PSoC5/CySpc.c **** *  \param uint8* buffer:
 224:.\Generated_Source\PSoC5/CySpc.c **** *   Data to be loaded to the row latch
 225:.\Generated_Source\PSoC5/CySpc.c **** *
 226:.\Generated_Source\PSoC5/CySpc.c **** *  \param uint8 size:
 227:.\Generated_Source\PSoC5/CySpc.c **** *   The number of data bytes that the SPC expects to be written. Depends on the
 228:.\Generated_Source\PSoC5/CySpc.c **** *   type of the array and, if the array is Flash, whether ECC is being enabled
 229:.\Generated_Source\PSoC5/CySpc.c **** *   or not. There are following values: flash row latch size with ECC enabled,
ARM GAS  C:\Users\honet\AppData\Local\Temp\ccwnfTRf.s 			page 11


 230:.\Generated_Source\PSoC5/CySpc.c **** *   flash row latch size with ECC disabled and EEPROM row latch size.
 231:.\Generated_Source\PSoC5/CySpc.c **** *
 232:.\Generated_Source\PSoC5/CySpc.c **** * \return
 233:.\Generated_Source\PSoC5/CySpc.c **** *  CYRET_STARTED
 234:.\Generated_Source\PSoC5/CySpc.c **** *  CYRET_CANCELED
 235:.\Generated_Source\PSoC5/CySpc.c **** *  CYRET_LOCKED
 236:.\Generated_Source\PSoC5/CySpc.c **** *
 237:.\Generated_Source\PSoC5/CySpc.c **** *******************************************************************************/
 238:.\Generated_Source\PSoC5/CySpc.c **** cystatus CySpcLoadRow(uint8 array, const uint8 buffer[], uint16 size)
 239:.\Generated_Source\PSoC5/CySpc.c **** {
 310              		.loc 1 239 0
 311              		.cfi_startproc
 312              		@ args = 0, pretend = 0, frame = 0
 313              		@ frame_needed = 0, uses_anonymous_args = 0
 314              		@ link register save eliminated.
 315              	.LVL23:
 316 0000 F0B4     		push	{r4, r5, r6, r7}
 317              		.cfi_def_cfa_offset 16
 318              		.cfi_offset 4, -16
 319              		.cfi_offset 5, -12
 320              		.cfi_offset 6, -8
 321              		.cfi_offset 7, -4
 240:.\Generated_Source\PSoC5/CySpc.c ****     cystatus status = CYRET_STARTED;
 241:.\Generated_Source\PSoC5/CySpc.c ****     uint16 i;
 242:.\Generated_Source\PSoC5/CySpc.c **** 
 243:.\Generated_Source\PSoC5/CySpc.c ****     /* Make sure the SPC is ready to accept command */
 244:.\Generated_Source\PSoC5/CySpc.c ****     if(CY_SPC_IDLE)
 322              		.loc 1 244 0
 323 0002 114C     		ldr	r4, .L52
 324              	.LVL24:
 325 0004 2378     		ldrb	r3, [r4]	@ zero_extendqisi2
 326 0006 9D07     		lsls	r5, r3, #30
 327 0008 1BD5     		bpl	.L48
 245:.\Generated_Source\PSoC5/CySpc.c ****     {
 246:.\Generated_Source\PSoC5/CySpc.c ****         CY_SPC_CPU_DATA_REG = CY_SPC_KEY_ONE;
 328              		.loc 1 246 0
 329 000a 104B     		ldr	r3, .L52+4
 330 000c B627     		movs	r7, #182
 247:.\Generated_Source\PSoC5/CySpc.c ****         CY_SPC_CPU_DATA_REG = CY_SPC_KEY_TWO(CY_SPC_CMD_LD_ROW);
 331              		.loc 1 247 0
 332 000e D526     		movs	r6, #213
 248:.\Generated_Source\PSoC5/CySpc.c ****         CY_SPC_CPU_DATA_REG = CY_SPC_CMD_LD_ROW;
 333              		.loc 1 248 0
 334 0010 0225     		movs	r5, #2
 246:.\Generated_Source\PSoC5/CySpc.c ****         CY_SPC_CPU_DATA_REG = CY_SPC_KEY_TWO(CY_SPC_CMD_LD_ROW);
 335              		.loc 1 246 0
 336 0012 1F70     		strb	r7, [r3]
 247:.\Generated_Source\PSoC5/CySpc.c ****         CY_SPC_CPU_DATA_REG = CY_SPC_KEY_TWO(CY_SPC_CMD_LD_ROW);
 337              		.loc 1 247 0
 338 0014 1E70     		strb	r6, [r3]
 339              		.loc 1 248 0
 340 0016 1D70     		strb	r5, [r3]
 249:.\Generated_Source\PSoC5/CySpc.c **** 
 250:.\Generated_Source\PSoC5/CySpc.c ****         /* Make sure the command was accepted */
 251:.\Generated_Source\PSoC5/CySpc.c ****         if(CY_SPC_BUSY)
 341              		.loc 1 251 0
 342 0018 2478     		ldrb	r4, [r4]	@ zero_extendqisi2
ARM GAS  C:\Users\honet\AppData\Local\Temp\ccwnfTRf.s 			page 12


 343 001a A407     		lsls	r4, r4, #30
 344 001c 0ED4     		bmi	.L49
 252:.\Generated_Source\PSoC5/CySpc.c ****         {
 253:.\Generated_Source\PSoC5/CySpc.c ****             CY_SPC_CPU_DATA_REG = array;
 345              		.loc 1 253 0
 346 001e 1870     		strb	r0, [r3]
 347              	.LVL25:
 254:.\Generated_Source\PSoC5/CySpc.c **** 
 255:.\Generated_Source\PSoC5/CySpc.c ****             for(i = 0u; i < size; i++)
 348              		.loc 1 255 0
 349 0020 4AB1     		cbz	r2, .L47
 256:.\Generated_Source\PSoC5/CySpc.c ****             {
 257:.\Generated_Source\PSoC5/CySpc.c ****                 CY_SPC_CPU_DATA_REG = buffer[i];
 350              		.loc 1 257 0
 351 0022 1846     		mov	r0, r3
 352              	.LVL26:
 353 0024 013A     		subs	r2, r2, #1
 354              	.LVL27:
 355 0026 92B2     		uxth	r2, r2
 356 0028 0A44     		add	r2, r2, r1
 357 002a 0139     		subs	r1, r1, #1
 358              	.LVL28:
 359              	.L46:
 360              		.loc 1 257 0 is_stmt 0 discriminator 3
 361 002c 11F8013F 		ldrb	r3, [r1, #1]!	@ zero_extendqisi2
 362              	.LVL29:
 255:.\Generated_Source\PSoC5/CySpc.c ****             {
 363              		.loc 1 255 0 is_stmt 1 discriminator 3
 364 0030 9142     		cmp	r1, r2
 365              		.loc 1 257 0 discriminator 3
 366 0032 0370     		strb	r3, [r0]
 367              	.LVL30:
 255:.\Generated_Source\PSoC5/CySpc.c ****             {
 368              		.loc 1 255 0 discriminator 3
 369 0034 FAD1     		bne	.L46
 370              	.LVL31:
 371              	.L47:
 240:.\Generated_Source\PSoC5/CySpc.c ****     uint16 i;
 372              		.loc 1 240 0
 373 0036 0720     		movs	r0, #7
 374              	.LVL32:
 258:.\Generated_Source\PSoC5/CySpc.c ****             }
 259:.\Generated_Source\PSoC5/CySpc.c ****         }
 260:.\Generated_Source\PSoC5/CySpc.c ****         else
 261:.\Generated_Source\PSoC5/CySpc.c ****         {
 262:.\Generated_Source\PSoC5/CySpc.c ****             status = CYRET_CANCELED;
 263:.\Generated_Source\PSoC5/CySpc.c ****         }
 264:.\Generated_Source\PSoC5/CySpc.c ****     }
 265:.\Generated_Source\PSoC5/CySpc.c ****     else
 266:.\Generated_Source\PSoC5/CySpc.c ****     {
 267:.\Generated_Source\PSoC5/CySpc.c ****         status = CYRET_LOCKED;
 268:.\Generated_Source\PSoC5/CySpc.c ****     }
 269:.\Generated_Source\PSoC5/CySpc.c **** 
 270:.\Generated_Source\PSoC5/CySpc.c ****     return(status);
 271:.\Generated_Source\PSoC5/CySpc.c **** }
 375              		.loc 1 271 0
 376 0038 F0BC     		pop	{r4, r5, r6, r7}
ARM GAS  C:\Users\honet\AppData\Local\Temp\ccwnfTRf.s 			page 13


 377              		.cfi_remember_state
 378              		.cfi_restore 7
 379              		.cfi_restore 6
 380              		.cfi_restore 5
 381              		.cfi_restore 4
 382              		.cfi_def_cfa_offset 0
 383 003a 7047     		bx	lr
 384              	.LVL33:
 385              	.L49:
 386              		.cfi_restore_state
 262:.\Generated_Source\PSoC5/CySpc.c ****         }
 387              		.loc 1 262 0
 388 003c 0920     		movs	r0, #9
 389              	.LVL34:
 390              		.loc 1 271 0
 391 003e F0BC     		pop	{r4, r5, r6, r7}
 392              		.cfi_remember_state
 393              		.cfi_restore 4
 394              		.cfi_restore 5
 395              		.cfi_restore 6
 396              		.cfi_restore 7
 397              		.cfi_def_cfa_offset 0
 398 0040 7047     		bx	lr
 399              	.LVL35:
 400              	.L48:
 401              		.cfi_restore_state
 267:.\Generated_Source\PSoC5/CySpc.c ****     }
 402              		.loc 1 267 0
 403 0042 0420     		movs	r0, #4
 404              	.LVL36:
 405              		.loc 1 271 0
 406 0044 F0BC     		pop	{r4, r5, r6, r7}
 407              		.cfi_restore 4
 408              		.cfi_restore 5
 409              		.cfi_restore 6
 410              		.cfi_restore 7
 411              		.cfi_def_cfa_offset 0
 412 0046 7047     		bx	lr
 413              	.L53:
 414              		.align	2
 415              	.L52:
 416 0048 22470040 		.word	1073760034
 417 004c 20470040 		.word	1073760032
 418              		.cfi_endproc
 419              	.LFE4:
 420              		.size	CySpcLoadRow, .-CySpcLoadRow
 421              		.section	.text.CySpcLoadRowFull,"ax",%progbits
 422              		.align	2
 423              		.global	CySpcLoadRowFull
 424              		.thumb
 425              		.thumb_func
 426              		.type	CySpcLoadRowFull, %function
 427              	CySpcLoadRowFull:
 428              	.LFB5:
 272:.\Generated_Source\PSoC5/CySpc.c **** 
 273:.\Generated_Source\PSoC5/CySpc.c **** 
 274:.\Generated_Source\PSoC5/CySpc.c **** /*******************************************************************************
ARM GAS  C:\Users\honet\AppData\Local\Temp\ccwnfTRf.s 			page 14


 275:.\Generated_Source\PSoC5/CySpc.c **** * Function Name: CySpcLoadRowFull
 276:.\Generated_Source\PSoC5/CySpc.c **** ****************************************************************************//**
 277:.\Generated_Source\PSoC5/CySpc.c **** *  Loads a row of data into the row latch of a Flash/EEPROM array.
 278:.\Generated_Source\PSoC5/CySpc.c **** *
 279:.\Generated_Source\PSoC5/CySpc.c **** *  The only data that are going to be changed should be passed. The function
 280:.\Generated_Source\PSoC5/CySpc.c **** *  will handle unmodified data preservation based on DWR settings and input
 281:.\Generated_Source\PSoC5/CySpc.c **** *  parameters.
 282:.\Generated_Source\PSoC5/CySpc.c **** *
 283:.\Generated_Source\PSoC5/CySpc.c **** *  \param uint8 array:
 284:.\Generated_Source\PSoC5/CySpc.c **** *   Id of the array.
 285:.\Generated_Source\PSoC5/CySpc.c **** *
 286:.\Generated_Source\PSoC5/CySpc.c **** *  \param uint16 row:
 287:.\Generated_Source\PSoC5/CySpc.c **** *   Flash row number to be loaded.
 288:.\Generated_Source\PSoC5/CySpc.c **** *
 289:.\Generated_Source\PSoC5/CySpc.c **** *  \param uint8* buffer:
 290:.\Generated_Source\PSoC5/CySpc.c **** *   Data to be loaded to the row latch
 291:.\Generated_Source\PSoC5/CySpc.c **** *
 292:.\Generated_Source\PSoC5/CySpc.c **** *  \param uint8 size:
 293:.\Generated_Source\PSoC5/CySpc.c **** *   The number of data bytes that the SPC expects to be written. Depends on the
 294:.\Generated_Source\PSoC5/CySpc.c **** *   type of the array and, if the array is Flash, whether ECC is being enabled
 295:.\Generated_Source\PSoC5/CySpc.c **** *   or not. There are following values: flash row latch size with ECC enabled,
 296:.\Generated_Source\PSoC5/CySpc.c **** *   flash row latch size with ECC disabled and EEPROM row latch size.
 297:.\Generated_Source\PSoC5/CySpc.c **** *
 298:.\Generated_Source\PSoC5/CySpc.c **** * \return
 299:.\Generated_Source\PSoC5/CySpc.c **** *  CYRET_STARTED
 300:.\Generated_Source\PSoC5/CySpc.c **** *  CYRET_CANCELED
 301:.\Generated_Source\PSoC5/CySpc.c **** *  CYRET_LOCKED
 302:.\Generated_Source\PSoC5/CySpc.c **** *
 303:.\Generated_Source\PSoC5/CySpc.c **** *******************************************************************************/
 304:.\Generated_Source\PSoC5/CySpc.c **** cystatus CySpcLoadRowFull(uint8 array, uint16 row, const uint8 buffer[], uint16 size)\
 305:.\Generated_Source\PSoC5/CySpc.c **** 
 306:.\Generated_Source\PSoC5/CySpc.c **** {
 429              		.loc 1 306 0
 430              		.cfi_startproc
 431              		@ args = 0, pretend = 0, frame = 0
 432              		@ frame_needed = 0, uses_anonymous_args = 0
 433              	.LVL37:
 434 0000 F0B5     		push	{r4, r5, r6, r7, lr}
 435              		.cfi_def_cfa_offset 20
 436              		.cfi_offset 4, -20
 437              		.cfi_offset 5, -16
 438              		.cfi_offset 6, -12
 439              		.cfi_offset 7, -8
 440              		.cfi_offset 14, -4
 307:.\Generated_Source\PSoC5/CySpc.c ****     cystatus status = CYRET_STARTED;
 308:.\Generated_Source\PSoC5/CySpc.c ****     uint16 i;
 309:.\Generated_Source\PSoC5/CySpc.c **** 
 310:.\Generated_Source\PSoC5/CySpc.c ****     #if (CYDEV_ECC_ENABLE == 0)
 311:.\Generated_Source\PSoC5/CySpc.c ****         uint32 offset;
 312:.\Generated_Source\PSoC5/CySpc.c ****     #endif /* (CYDEV_ECC_ENABLE == 0) */
 313:.\Generated_Source\PSoC5/CySpc.c **** 
 314:.\Generated_Source\PSoC5/CySpc.c ****     /* Make sure the SPC is ready to accept command */
 315:.\Generated_Source\PSoC5/CySpc.c ****     if(CY_SPC_IDLE)
 441              		.loc 1 315 0
 442 0002 1A4C     		ldr	r4, .L66
 443 0004 2578     		ldrb	r5, [r4]	@ zero_extendqisi2
 444              	.LVL38:
ARM GAS  C:\Users\honet\AppData\Local\Temp\ccwnfTRf.s 			page 15


 445 0006 AD07     		lsls	r5, r5, #30
 446 0008 1DD5     		bpl	.L60
 316:.\Generated_Source\PSoC5/CySpc.c ****     {
 317:.\Generated_Source\PSoC5/CySpc.c ****         CY_SPC_CPU_DATA_REG = CY_SPC_KEY_ONE;
 447              		.loc 1 317 0
 448 000a 194D     		ldr	r5, .L66+4
 449 000c 4FF0B60E 		mov	lr, #182
 318:.\Generated_Source\PSoC5/CySpc.c ****         CY_SPC_CPU_DATA_REG = CY_SPC_KEY_TWO(CY_SPC_CMD_LD_ROW);
 450              		.loc 1 318 0
 451 0010 D527     		movs	r7, #213
 319:.\Generated_Source\PSoC5/CySpc.c ****         CY_SPC_CPU_DATA_REG = CY_SPC_CMD_LD_ROW;
 452              		.loc 1 319 0
 453 0012 0226     		movs	r6, #2
 317:.\Generated_Source\PSoC5/CySpc.c ****         CY_SPC_CPU_DATA_REG = CY_SPC_KEY_TWO(CY_SPC_CMD_LD_ROW);
 454              		.loc 1 317 0
 455 0014 85F800E0 		strb	lr, [r5]
 318:.\Generated_Source\PSoC5/CySpc.c ****         CY_SPC_CPU_DATA_REG = CY_SPC_KEY_TWO(CY_SPC_CMD_LD_ROW);
 456              		.loc 1 318 0
 457 0018 2F70     		strb	r7, [r5]
 458              		.loc 1 319 0
 459 001a 2E70     		strb	r6, [r5]
 320:.\Generated_Source\PSoC5/CySpc.c **** 
 321:.\Generated_Source\PSoC5/CySpc.c ****         /* Make sure the command was accepted */
 322:.\Generated_Source\PSoC5/CySpc.c ****         if(CY_SPC_BUSY)
 460              		.loc 1 322 0
 461 001c 2478     		ldrb	r4, [r4]	@ zero_extendqisi2
 462 001e A407     		lsls	r4, r4, #30
 463 0020 0FD4     		bmi	.L61
 323:.\Generated_Source\PSoC5/CySpc.c ****         {
 324:.\Generated_Source\PSoC5/CySpc.c ****             CY_SPC_CPU_DATA_REG = array;
 464              		.loc 1 324 0
 465 0022 2870     		strb	r0, [r5]
 466              	.LVL39:
 325:.\Generated_Source\PSoC5/CySpc.c **** 
 326:.\Generated_Source\PSoC5/CySpc.c ****             /*******************************************************************
 327:.\Generated_Source\PSoC5/CySpc.c ****             * If "Enable Error Correcting Code (ECC)" and "Store Configuration
 328:.\Generated_Source\PSoC5/CySpc.c ****             * Data in ECC" DWR options are disabled, ECC section is available
 329:.\Generated_Source\PSoC5/CySpc.c ****             * for user data.
 330:.\Generated_Source\PSoC5/CySpc.c ****             *******************************************************************/
 331:.\Generated_Source\PSoC5/CySpc.c ****             #if ((CYDEV_ECC_ENABLE == 0u) && (CYDEV_CONFIGURATION_ECC == 0u))
 332:.\Generated_Source\PSoC5/CySpc.c **** 
 333:.\Generated_Source\PSoC5/CySpc.c ****                 /*******************************************************************
 334:.\Generated_Source\PSoC5/CySpc.c ****                 * If size parameter equals size of the ECC row and selected array
 335:.\Generated_Source\PSoC5/CySpc.c ****                 * identification corresponds to the flash array (but not to EEPROM
 336:.\Generated_Source\PSoC5/CySpc.c ****                 * array) then data are going to be written to the ECC section.
 337:.\Generated_Source\PSoC5/CySpc.c ****                 * In this case flash data must be preserved. The flash data copied
 338:.\Generated_Source\PSoC5/CySpc.c ****                 * from flash data section to the SPC data register.
 339:.\Generated_Source\PSoC5/CySpc.c ****                 *******************************************************************/
 340:.\Generated_Source\PSoC5/CySpc.c ****                 if ((size == CYDEV_ECC_ROW_SIZE) && (array <= CY_SPC_LAST_FLASH_ARRAYID))
 341:.\Generated_Source\PSoC5/CySpc.c ****                 {
 342:.\Generated_Source\PSoC5/CySpc.c ****                     offset = CYDEV_FLS_BASE +
 343:.\Generated_Source\PSoC5/CySpc.c ****                              ((uint32) array * CYDEV_FLS_SECTOR_SIZE) +
 344:.\Generated_Source\PSoC5/CySpc.c ****                              ((uint32)   row * CYDEV_FLS_ROW_SIZE   );
 345:.\Generated_Source\PSoC5/CySpc.c **** 
 346:.\Generated_Source\PSoC5/CySpc.c ****                     for (i = 0u; i < CYDEV_FLS_ROW_SIZE; i++)
 347:.\Generated_Source\PSoC5/CySpc.c ****                     {
 348:.\Generated_Source\PSoC5/CySpc.c ****                         CY_SPC_CPU_DATA_REG = CY_GET_XTND_REG8((void CYFAR *)(offset + i));
ARM GAS  C:\Users\honet\AppData\Local\Temp\ccwnfTRf.s 			page 16


 349:.\Generated_Source\PSoC5/CySpc.c ****                     }
 350:.\Generated_Source\PSoC5/CySpc.c ****                 }
 351:.\Generated_Source\PSoC5/CySpc.c **** 
 352:.\Generated_Source\PSoC5/CySpc.c ****             #endif /* ((CYDEV_ECC_ENABLE == 0u) && (CYDEV_CONFIGURATION_ECC == 0u)) */
 353:.\Generated_Source\PSoC5/CySpc.c **** 
 354:.\Generated_Source\PSoC5/CySpc.c **** 
 355:.\Generated_Source\PSoC5/CySpc.c ****             for(i = 0u; i < size; i++)
 467              		.loc 1 355 0
 468 0024 5BB1     		cbz	r3, .L58
 469 0026 5E1E     		subs	r6, r3, #1
 470 0028 B6B2     		uxth	r6, r6
 471 002a 1644     		add	r6, r6, r2
 472 002c 013A     		subs	r2, r2, #1
 473              	.LVL40:
 474              	.L57:
 356:.\Generated_Source\PSoC5/CySpc.c ****             {
 357:.\Generated_Source\PSoC5/CySpc.c ****                 CY_SPC_CPU_DATA_REG = buffer[i];
 475              		.loc 1 357 0 discriminator 3
 476 002e 12F8014F 		ldrb	r4, [r2, #1]!	@ zero_extendqisi2
 477              	.LVL41:
 355:.\Generated_Source\PSoC5/CySpc.c ****             {
 478              		.loc 1 355 0 discriminator 3
 479 0032 B242     		cmp	r2, r6
 480              		.loc 1 357 0 discriminator 3
 481 0034 2C70     		strb	r4, [r5]
 482              	.LVL42:
 355:.\Generated_Source\PSoC5/CySpc.c ****             {
 483              		.loc 1 355 0 discriminator 3
 484 0036 FAD1     		bne	.L57
 358:.\Generated_Source\PSoC5/CySpc.c ****             }
 359:.\Generated_Source\PSoC5/CySpc.c **** 
 360:.\Generated_Source\PSoC5/CySpc.c **** 
 361:.\Generated_Source\PSoC5/CySpc.c ****             /*******************************************************************
 362:.\Generated_Source\PSoC5/CySpc.c ****             * If "Enable Error Correcting Code (ECC)" DWR option is disabled,
 363:.\Generated_Source\PSoC5/CySpc.c ****             * ECC section can be used for storing device configuration data
 364:.\Generated_Source\PSoC5/CySpc.c ****             * ("Store Configuration Data in ECC" DWR option is enabled) or for
 365:.\Generated_Source\PSoC5/CySpc.c ****             * storing user data in the ECC section ("Store Configuration Data in
 366:.\Generated_Source\PSoC5/CySpc.c ****             * ECC" DWR option is enabled). In both cases, the data in the ECC
 367:.\Generated_Source\PSoC5/CySpc.c ****             * section must be preserved if flash data is written.
 368:.\Generated_Source\PSoC5/CySpc.c ****             *******************************************************************/
 369:.\Generated_Source\PSoC5/CySpc.c ****             #if (CYDEV_ECC_ENABLE == 0)
 370:.\Generated_Source\PSoC5/CySpc.c **** 
 371:.\Generated_Source\PSoC5/CySpc.c **** 
 372:.\Generated_Source\PSoC5/CySpc.c ****                 /*******************************************************************
 373:.\Generated_Source\PSoC5/CySpc.c ****                 * If size parameter equals size of the flash row and selected array
 374:.\Generated_Source\PSoC5/CySpc.c ****                 * identification corresponds to the flash array (but not to EEPROM
 375:.\Generated_Source\PSoC5/CySpc.c ****                 * array) then data are going to be written to the flash data
 376:.\Generated_Source\PSoC5/CySpc.c ****                 * section. In this case, ECC section data must be preserved.
 377:.\Generated_Source\PSoC5/CySpc.c ****                 * The ECC section data copied from ECC section to the SPC data
 378:.\Generated_Source\PSoC5/CySpc.c ****                 * register.
 379:.\Generated_Source\PSoC5/CySpc.c ****                 *******************************************************************/
 380:.\Generated_Source\PSoC5/CySpc.c ****                 if ((size == CYDEV_FLS_ROW_SIZE) && (array <= CY_SPC_LAST_FLASH_ARRAYID))
 485              		.loc 1 380 0
 486 0038 B3F5807F 		cmp	r3, #256
 487 003c 05D0     		beq	.L65
 488              	.LVL43:
 489              	.L58:
ARM GAS  C:\Users\honet\AppData\Local\Temp\ccwnfTRf.s 			page 17


 307:.\Generated_Source\PSoC5/CySpc.c ****     uint16 i;
 490              		.loc 1 307 0
 491 003e 0720     		movs	r0, #7
 492 0040 F0BD     		pop	{r4, r5, r6, r7, pc}
 493              	.LVL44:
 494              	.L61:
 381:.\Generated_Source\PSoC5/CySpc.c ****                 {
 382:.\Generated_Source\PSoC5/CySpc.c ****                     offset = CYDEV_ECC_BASE +
 383:.\Generated_Source\PSoC5/CySpc.c ****                             ((uint32) array * CYDEV_ECC_SECTOR_SIZE) +
 384:.\Generated_Source\PSoC5/CySpc.c ****                             ((uint32) row   * CYDEV_ECC_ROW_SIZE   );
 385:.\Generated_Source\PSoC5/CySpc.c **** 
 386:.\Generated_Source\PSoC5/CySpc.c ****                     for (i = 0u; i < CYDEV_ECC_ROW_SIZE; i++)
 387:.\Generated_Source\PSoC5/CySpc.c ****                     {
 388:.\Generated_Source\PSoC5/CySpc.c ****                         CY_SPC_CPU_DATA_REG = CY_GET_XTND_REG8((void CYFAR *)(offset + i));
 389:.\Generated_Source\PSoC5/CySpc.c ****                     }
 390:.\Generated_Source\PSoC5/CySpc.c ****                 }
 391:.\Generated_Source\PSoC5/CySpc.c **** 
 392:.\Generated_Source\PSoC5/CySpc.c ****             #else
 393:.\Generated_Source\PSoC5/CySpc.c **** 
 394:.\Generated_Source\PSoC5/CySpc.c ****                 if(0u != row)
 395:.\Generated_Source\PSoC5/CySpc.c ****                 {
 396:.\Generated_Source\PSoC5/CySpc.c ****                     /* To remove unreferenced local variable warning */
 397:.\Generated_Source\PSoC5/CySpc.c ****                 }
 398:.\Generated_Source\PSoC5/CySpc.c **** 
 399:.\Generated_Source\PSoC5/CySpc.c ****             #endif /* (CYDEV_ECC_ENABLE == 0) */
 400:.\Generated_Source\PSoC5/CySpc.c ****         }
 401:.\Generated_Source\PSoC5/CySpc.c ****         else
 402:.\Generated_Source\PSoC5/CySpc.c ****         {
 403:.\Generated_Source\PSoC5/CySpc.c ****             status = CYRET_CANCELED;
 495              		.loc 1 403 0
 496 0042 0920     		movs	r0, #9
 497              	.LVL45:
 404:.\Generated_Source\PSoC5/CySpc.c ****         }
 405:.\Generated_Source\PSoC5/CySpc.c ****     }
 406:.\Generated_Source\PSoC5/CySpc.c ****     else
 407:.\Generated_Source\PSoC5/CySpc.c ****     {
 408:.\Generated_Source\PSoC5/CySpc.c ****         status = CYRET_LOCKED;
 409:.\Generated_Source\PSoC5/CySpc.c ****     }
 410:.\Generated_Source\PSoC5/CySpc.c **** 
 411:.\Generated_Source\PSoC5/CySpc.c ****     return(status);
 412:.\Generated_Source\PSoC5/CySpc.c **** }
 498              		.loc 1 412 0
 499 0044 F0BD     		pop	{r4, r5, r6, r7, pc}
 500              	.LVL46:
 501              	.L60:
 408:.\Generated_Source\PSoC5/CySpc.c ****     }
 502              		.loc 1 408 0
 503 0046 0420     		movs	r0, #4
 504              	.LVL47:
 505 0048 F0BD     		pop	{r4, r5, r6, r7, pc}
 506              	.LVL48:
 507              	.L65:
 380:.\Generated_Source\PSoC5/CySpc.c ****                 {
 508              		.loc 1 380 0 discriminator 1
 509 004a 3F28     		cmp	r0, #63
 510 004c F7D8     		bhi	.L58
 383:.\Generated_Source\PSoC5/CySpc.c ****                             ((uint32) row   * CYDEV_ECC_ROW_SIZE   );
ARM GAS  C:\Users\honet\AppData\Local\Temp\ccwnfTRf.s 			page 18


 511              		.loc 1 383 0
 512 004e 00F51030 		add	r0, r0, #147456
 513              	.LVL49:
 514 0052 01EB0021 		add	r1, r1, r0, lsl #8
 515              	.LVL50:
 382:.\Generated_Source\PSoC5/CySpc.c ****                             ((uint32) array * CYDEV_ECC_SECTOR_SIZE) +
 516              		.loc 1 382 0
 517 0056 4901     		lsls	r1, r1, #5
 518              	.LVL51:
 388:.\Generated_Source\PSoC5/CySpc.c ****                     }
 519              		.loc 1 388 0
 520 0058 0548     		ldr	r0, .L66+4
 382:.\Generated_Source\PSoC5/CySpc.c ****                             ((uint32) array * CYDEV_ECC_SECTOR_SIZE) +
 521              		.loc 1 382 0
 522 005a 0A46     		mov	r2, r1
 523 005c 2031     		adds	r1, r1, #32
 524              	.LVL52:
 525              	.L59:
 388:.\Generated_Source\PSoC5/CySpc.c ****                     }
 526              		.loc 1 388 0 discriminator 3
 527 005e 12F8013B 		ldrb	r3, [r2], #1	@ zero_extendqisi2
 528              	.LVL53:
 529 0062 DBB2     		uxtb	r3, r3
 386:.\Generated_Source\PSoC5/CySpc.c ****                     {
 530              		.loc 1 386 0 discriminator 3
 531 0064 8A42     		cmp	r2, r1
 388:.\Generated_Source\PSoC5/CySpc.c ****                     }
 532              		.loc 1 388 0 discriminator 3
 533 0066 0370     		strb	r3, [r0]
 534              	.LVL54:
 386:.\Generated_Source\PSoC5/CySpc.c ****                     {
 535              		.loc 1 386 0 discriminator 3
 536 0068 F9D1     		bne	.L59
 537 006a E8E7     		b	.L58
 538              	.L67:
 539              		.align	2
 540              	.L66:
 541 006c 22470040 		.word	1073760034
 542 0070 20470040 		.word	1073760032
 543              		.cfi_endproc
 544              	.LFE5:
 545              		.size	CySpcLoadRowFull, .-CySpcLoadRowFull
 546              		.section	.text.CySpcWriteRow,"ax",%progbits
 547              		.align	2
 548              		.global	CySpcWriteRow
 549              		.thumb
 550              		.thumb_func
 551              		.type	CySpcWriteRow, %function
 552              	CySpcWriteRow:
 553              	.LFB6:
 413:.\Generated_Source\PSoC5/CySpc.c **** 
 414:.\Generated_Source\PSoC5/CySpc.c **** 
 415:.\Generated_Source\PSoC5/CySpc.c **** /*******************************************************************************
 416:.\Generated_Source\PSoC5/CySpc.c **** * Function Name: CySpcWriteRow
 417:.\Generated_Source\PSoC5/CySpc.c **** ****************************************************************************//**
 418:.\Generated_Source\PSoC5/CySpc.c **** *  Erases then programs a row in Flash/EEPROM with data in row latch.
 419:.\Generated_Source\PSoC5/CySpc.c **** *
ARM GAS  C:\Users\honet\AppData\Local\Temp\ccwnfTRf.s 			page 19


 420:.\Generated_Source\PSoC5/CySpc.c **** *  \param uint8 array:
 421:.\Generated_Source\PSoC5/CySpc.c **** *   Id of the array.
 422:.\Generated_Source\PSoC5/CySpc.c **** *
 423:.\Generated_Source\PSoC5/CySpc.c **** *  \param uint16 address:
 424:.\Generated_Source\PSoC5/CySpc.c **** *   flash/eeprom addrress
 425:.\Generated_Source\PSoC5/CySpc.c **** *
 426:.\Generated_Source\PSoC5/CySpc.c **** *  \param uint8 tempPolarity:
 427:.\Generated_Source\PSoC5/CySpc.c **** *   temperature polarity.
 428:.\Generated_Source\PSoC5/CySpc.c **** *   \param 1: the Temp Magnitude is interpreted as a positive value
 429:.\Generated_Source\PSoC5/CySpc.c **** *   \param 0: the Temp Magnitude is interpreted as a negative value
 430:.\Generated_Source\PSoC5/CySpc.c **** *
 431:.\Generated_Source\PSoC5/CySpc.c **** *  \param uint8 tempMagnitude:
 432:.\Generated_Source\PSoC5/CySpc.c **** *   temperature magnitude.
 433:.\Generated_Source\PSoC5/CySpc.c **** *
 434:.\Generated_Source\PSoC5/CySpc.c **** * \return
 435:.\Generated_Source\PSoC5/CySpc.c **** *  CYRET_STARTED
 436:.\Generated_Source\PSoC5/CySpc.c **** *  CYRET_CANCELED
 437:.\Generated_Source\PSoC5/CySpc.c **** *  CYRET_LOCKED
 438:.\Generated_Source\PSoC5/CySpc.c **** *
 439:.\Generated_Source\PSoC5/CySpc.c **** *******************************************************************************/
 440:.\Generated_Source\PSoC5/CySpc.c **** cystatus CySpcWriteRow(uint8 array, uint16 address, uint8 tempPolarity, uint8 tempMagnitude)\
 441:.\Generated_Source\PSoC5/CySpc.c **** 
 442:.\Generated_Source\PSoC5/CySpc.c **** {
 554              		.loc 1 442 0
 555              		.cfi_startproc
 556              		@ args = 0, pretend = 0, frame = 0
 557              		@ frame_needed = 0, uses_anonymous_args = 0
 558              	.LVL55:
 559 0000 F0B5     		push	{r4, r5, r6, r7, lr}
 560              		.cfi_def_cfa_offset 20
 561              		.cfi_offset 4, -20
 562              		.cfi_offset 5, -16
 563              		.cfi_offset 6, -12
 564              		.cfi_offset 7, -8
 565              		.cfi_offset 14, -4
 443:.\Generated_Source\PSoC5/CySpc.c ****     cystatus status = CYRET_STARTED;
 444:.\Generated_Source\PSoC5/CySpc.c **** 
 445:.\Generated_Source\PSoC5/CySpc.c ****     /* Make sure the SPC is ready to accept command */
 446:.\Generated_Source\PSoC5/CySpc.c ****     if(CY_SPC_IDLE)
 566              		.loc 1 446 0
 567 0002 0E4D     		ldr	r5, .L73
 568 0004 2C78     		ldrb	r4, [r5]	@ zero_extendqisi2
 569 0006 A607     		lsls	r6, r4, #30
 570 0008 16D5     		bpl	.L70
 447:.\Generated_Source\PSoC5/CySpc.c ****     {
 448:.\Generated_Source\PSoC5/CySpc.c ****         CY_SPC_CPU_DATA_REG = CY_SPC_KEY_ONE;
 571              		.loc 1 448 0
 572 000a 0D4C     		ldr	r4, .L73+4
 573 000c 4FF0B60E 		mov	lr, #182
 449:.\Generated_Source\PSoC5/CySpc.c ****         CY_SPC_CPU_DATA_REG = CY_SPC_KEY_TWO(CY_SPC_CMD_WR_ROW);
 574              		.loc 1 449 0
 575 0010 D827     		movs	r7, #216
 450:.\Generated_Source\PSoC5/CySpc.c ****         CY_SPC_CPU_DATA_REG = CY_SPC_CMD_WR_ROW;
 576              		.loc 1 450 0
 577 0012 0526     		movs	r6, #5
 448:.\Generated_Source\PSoC5/CySpc.c ****         CY_SPC_CPU_DATA_REG = CY_SPC_KEY_TWO(CY_SPC_CMD_WR_ROW);
 578              		.loc 1 448 0
ARM GAS  C:\Users\honet\AppData\Local\Temp\ccwnfTRf.s 			page 20


 579 0014 84F800E0 		strb	lr, [r4]
 449:.\Generated_Source\PSoC5/CySpc.c ****         CY_SPC_CPU_DATA_REG = CY_SPC_KEY_TWO(CY_SPC_CMD_WR_ROW);
 580              		.loc 1 449 0
 581 0018 2770     		strb	r7, [r4]
 582              		.loc 1 450 0
 583 001a 2670     		strb	r6, [r4]
 451:.\Generated_Source\PSoC5/CySpc.c **** 
 452:.\Generated_Source\PSoC5/CySpc.c ****         /* Make sure the command was accepted */
 453:.\Generated_Source\PSoC5/CySpc.c ****         if(CY_SPC_BUSY)
 584              		.loc 1 453 0
 585 001c 2D78     		ldrb	r5, [r5]	@ zero_extendqisi2
 586 001e AD07     		lsls	r5, r5, #30
 587 0020 08D4     		bmi	.L71
 454:.\Generated_Source\PSoC5/CySpc.c ****         {
 455:.\Generated_Source\PSoC5/CySpc.c ****             CY_SPC_CPU_DATA_REG = array;
 456:.\Generated_Source\PSoC5/CySpc.c ****             CY_SPC_CPU_DATA_REG = HI8(address);
 588              		.loc 1 456 0
 589 0022 0D0A     		lsrs	r5, r1, #8
 457:.\Generated_Source\PSoC5/CySpc.c ****             CY_SPC_CPU_DATA_REG = LO8(address);
 590              		.loc 1 457 0
 591 0024 C9B2     		uxtb	r1, r1
 592              	.LVL56:
 455:.\Generated_Source\PSoC5/CySpc.c ****             CY_SPC_CPU_DATA_REG = HI8(address);
 593              		.loc 1 455 0
 594 0026 2070     		strb	r0, [r4]
 456:.\Generated_Source\PSoC5/CySpc.c ****             CY_SPC_CPU_DATA_REG = LO8(address);
 595              		.loc 1 456 0
 596 0028 2570     		strb	r5, [r4]
 597              		.loc 1 457 0
 598 002a 2170     		strb	r1, [r4]
 458:.\Generated_Source\PSoC5/CySpc.c ****             CY_SPC_CPU_DATA_REG = tempPolarity;
 599              		.loc 1 458 0
 600 002c 2270     		strb	r2, [r4]
 459:.\Generated_Source\PSoC5/CySpc.c ****             CY_SPC_CPU_DATA_REG = tempMagnitude;
 601              		.loc 1 459 0
 602 002e 2370     		strb	r3, [r4]
 443:.\Generated_Source\PSoC5/CySpc.c **** 
 603              		.loc 1 443 0
 604 0030 0720     		movs	r0, #7
 605              	.LVL57:
 606 0032 F0BD     		pop	{r4, r5, r6, r7, pc}
 607              	.LVL58:
 608              	.L71:
 460:.\Generated_Source\PSoC5/CySpc.c ****         }
 461:.\Generated_Source\PSoC5/CySpc.c ****         else
 462:.\Generated_Source\PSoC5/CySpc.c ****         {
 463:.\Generated_Source\PSoC5/CySpc.c ****             status = CYRET_CANCELED;
 609              		.loc 1 463 0
 610 0034 0920     		movs	r0, #9
 611              	.LVL59:
 464:.\Generated_Source\PSoC5/CySpc.c ****         }
 465:.\Generated_Source\PSoC5/CySpc.c ****     }
 466:.\Generated_Source\PSoC5/CySpc.c ****     else
 467:.\Generated_Source\PSoC5/CySpc.c ****     {
 468:.\Generated_Source\PSoC5/CySpc.c ****         status = CYRET_LOCKED;
 469:.\Generated_Source\PSoC5/CySpc.c ****     }
 470:.\Generated_Source\PSoC5/CySpc.c **** 
ARM GAS  C:\Users\honet\AppData\Local\Temp\ccwnfTRf.s 			page 21


 471:.\Generated_Source\PSoC5/CySpc.c ****     return(status);
 472:.\Generated_Source\PSoC5/CySpc.c **** }
 612              		.loc 1 472 0
 613 0036 F0BD     		pop	{r4, r5, r6, r7, pc}
 614              	.LVL60:
 615              	.L70:
 468:.\Generated_Source\PSoC5/CySpc.c ****     }
 616              		.loc 1 468 0
 617 0038 0420     		movs	r0, #4
 618              	.LVL61:
 619 003a F0BD     		pop	{r4, r5, r6, r7, pc}
 620              	.L74:
 621              		.align	2
 622              	.L73:
 623 003c 22470040 		.word	1073760034
 624 0040 20470040 		.word	1073760032
 625              		.cfi_endproc
 626              	.LFE6:
 627              		.size	CySpcWriteRow, .-CySpcWriteRow
 628              		.section	.text.CySpcEraseSector,"ax",%progbits
 629              		.align	2
 630              		.global	CySpcEraseSector
 631              		.thumb
 632              		.thumb_func
 633              		.type	CySpcEraseSector, %function
 634              	CySpcEraseSector:
 635              	.LFB7:
 473:.\Generated_Source\PSoC5/CySpc.c **** 
 474:.\Generated_Source\PSoC5/CySpc.c **** 
 475:.\Generated_Source\PSoC5/CySpc.c **** /*******************************************************************************
 476:.\Generated_Source\PSoC5/CySpc.c **** * Function Name: CySpcEraseSector
 477:.\Generated_Source\PSoC5/CySpc.c **** ****************************************************************************//**
 478:.\Generated_Source\PSoC5/CySpc.c **** *  Erases all data in the addressed sector (block of 64 rows).
 479:.\Generated_Source\PSoC5/CySpc.c **** *
 480:.\Generated_Source\PSoC5/CySpc.c **** *  \param uint8 array:
 481:.\Generated_Source\PSoC5/CySpc.c **** *   Id of the array.
 482:.\Generated_Source\PSoC5/CySpc.c **** *
 483:.\Generated_Source\PSoC5/CySpc.c **** *  \param uint8 sectorNumber:
 484:.\Generated_Source\PSoC5/CySpc.c **** *   Zero based sector number within Flash/EEPROM array
 485:.\Generated_Source\PSoC5/CySpc.c **** *
 486:.\Generated_Source\PSoC5/CySpc.c **** * \return
 487:.\Generated_Source\PSoC5/CySpc.c **** *  CYRET_STARTED
 488:.\Generated_Source\PSoC5/CySpc.c **** *  CYRET_CANCELED
 489:.\Generated_Source\PSoC5/CySpc.c **** *  CYRET_LOCKED
 490:.\Generated_Source\PSoC5/CySpc.c **** *
 491:.\Generated_Source\PSoC5/CySpc.c **** *******************************************************************************/
 492:.\Generated_Source\PSoC5/CySpc.c **** cystatus CySpcEraseSector(uint8 array, uint8 sectorNumber)
 493:.\Generated_Source\PSoC5/CySpc.c **** {
 636              		.loc 1 493 0
 637              		.cfi_startproc
 638              		@ args = 0, pretend = 0, frame = 0
 639              		@ frame_needed = 0, uses_anonymous_args = 0
 640              		@ link register save eliminated.
 641              	.LVL62:
 494:.\Generated_Source\PSoC5/CySpc.c ****     cystatus status = CYRET_STARTED;
 495:.\Generated_Source\PSoC5/CySpc.c **** 
 496:.\Generated_Source\PSoC5/CySpc.c ****     /* Make sure the SPC is ready to accept command */
ARM GAS  C:\Users\honet\AppData\Local\Temp\ccwnfTRf.s 			page 22


 497:.\Generated_Source\PSoC5/CySpc.c ****     if(CY_SPC_IDLE)
 642              		.loc 1 497 0
 643 0000 0C4A     		ldr	r2, .L80
 644 0002 1378     		ldrb	r3, [r2]	@ zero_extendqisi2
 645 0004 9B07     		lsls	r3, r3, #30
 646 0006 12D5     		bpl	.L77
 493:.\Generated_Source\PSoC5/CySpc.c ****     cystatus status = CYRET_STARTED;
 647              		.loc 1 493 0
 648 0008 70B4     		push	{r4, r5, r6}
 649              		.cfi_def_cfa_offset 12
 650              		.cfi_offset 4, -12
 651              		.cfi_offset 5, -8
 652              		.cfi_offset 6, -4
 498:.\Generated_Source\PSoC5/CySpc.c ****     {
 499:.\Generated_Source\PSoC5/CySpc.c ****         CY_SPC_CPU_DATA_REG = CY_SPC_KEY_ONE;
 653              		.loc 1 499 0
 654 000a 0B4B     		ldr	r3, .L80+4
 655 000c B626     		movs	r6, #182
 500:.\Generated_Source\PSoC5/CySpc.c ****         CY_SPC_CPU_DATA_REG = CY_SPC_KEY_TWO(CY_SPC_CMD_ER_SECTOR);
 656              		.loc 1 500 0
 657 000e DB25     		movs	r5, #219
 501:.\Generated_Source\PSoC5/CySpc.c ****         CY_SPC_CPU_DATA_REG = CY_SPC_CMD_ER_SECTOR;
 658              		.loc 1 501 0
 659 0010 0824     		movs	r4, #8
 499:.\Generated_Source\PSoC5/CySpc.c ****         CY_SPC_CPU_DATA_REG = CY_SPC_KEY_TWO(CY_SPC_CMD_ER_SECTOR);
 660              		.loc 1 499 0
 661 0012 1E70     		strb	r6, [r3]
 500:.\Generated_Source\PSoC5/CySpc.c ****         CY_SPC_CPU_DATA_REG = CY_SPC_KEY_TWO(CY_SPC_CMD_ER_SECTOR);
 662              		.loc 1 500 0
 663 0014 1D70     		strb	r5, [r3]
 664              		.loc 1 501 0
 665 0016 1C70     		strb	r4, [r3]
 502:.\Generated_Source\PSoC5/CySpc.c **** 
 503:.\Generated_Source\PSoC5/CySpc.c ****         /* Make sure the command was accepted */
 504:.\Generated_Source\PSoC5/CySpc.c ****         if(CY_SPC_BUSY)
 666              		.loc 1 504 0
 667 0018 1278     		ldrb	r2, [r2]	@ zero_extendqisi2
 668 001a 9207     		lsls	r2, r2, #30
 669 001c 04D4     		bmi	.L78
 505:.\Generated_Source\PSoC5/CySpc.c ****         {
 506:.\Generated_Source\PSoC5/CySpc.c ****             CY_SPC_CPU_DATA_REG = array;
 670              		.loc 1 506 0
 671 001e 1870     		strb	r0, [r3]
 507:.\Generated_Source\PSoC5/CySpc.c ****             CY_SPC_CPU_DATA_REG = sectorNumber;
 672              		.loc 1 507 0
 673 0020 1970     		strb	r1, [r3]
 494:.\Generated_Source\PSoC5/CySpc.c **** 
 674              		.loc 1 494 0
 675 0022 0720     		movs	r0, #7
 676              	.LVL63:
 508:.\Generated_Source\PSoC5/CySpc.c ****         }
 509:.\Generated_Source\PSoC5/CySpc.c ****         else
 510:.\Generated_Source\PSoC5/CySpc.c ****         {
 511:.\Generated_Source\PSoC5/CySpc.c ****             status = CYRET_CANCELED;
 512:.\Generated_Source\PSoC5/CySpc.c ****         }
 513:.\Generated_Source\PSoC5/CySpc.c ****     }
 514:.\Generated_Source\PSoC5/CySpc.c ****     else
ARM GAS  C:\Users\honet\AppData\Local\Temp\ccwnfTRf.s 			page 23


 515:.\Generated_Source\PSoC5/CySpc.c ****     {
 516:.\Generated_Source\PSoC5/CySpc.c ****         status = CYRET_LOCKED;
 517:.\Generated_Source\PSoC5/CySpc.c ****     }
 518:.\Generated_Source\PSoC5/CySpc.c **** 
 519:.\Generated_Source\PSoC5/CySpc.c ****     return(status);
 520:.\Generated_Source\PSoC5/CySpc.c **** }
 677              		.loc 1 520 0
 678 0024 70BC     		pop	{r4, r5, r6}
 679              		.cfi_remember_state
 680              		.cfi_restore 6
 681              		.cfi_restore 5
 682              		.cfi_restore 4
 683              		.cfi_def_cfa_offset 0
 684 0026 7047     		bx	lr
 685              	.LVL64:
 686              	.L78:
 687              		.cfi_restore_state
 511:.\Generated_Source\PSoC5/CySpc.c ****         }
 688              		.loc 1 511 0
 689 0028 0920     		movs	r0, #9
 690              	.LVL65:
 691              		.loc 1 520 0
 692 002a 70BC     		pop	{r4, r5, r6}
 693              		.cfi_restore 4
 694              		.cfi_restore 5
 695              		.cfi_restore 6
 696              		.cfi_def_cfa_offset 0
 697 002c 7047     		bx	lr
 698              	.LVL66:
 699              	.L77:
 516:.\Generated_Source\PSoC5/CySpc.c ****     }
 700              		.loc 1 516 0
 701 002e 0420     		movs	r0, #4
 702              	.LVL67:
 703              		.loc 1 520 0
 704 0030 7047     		bx	lr
 705              	.L81:
 706 0032 00BF     		.align	2
 707              	.L80:
 708 0034 22470040 		.word	1073760034
 709 0038 20470040 		.word	1073760032
 710              		.cfi_endproc
 711              	.LFE7:
 712              		.size	CySpcEraseSector, .-CySpcEraseSector
 713              		.section	.text.CySpcGetTemp,"ax",%progbits
 714              		.align	2
 715              		.global	CySpcGetTemp
 716              		.thumb
 717              		.thumb_func
 718              		.type	CySpcGetTemp, %function
 719              	CySpcGetTemp:
 720              	.LFB8:
 521:.\Generated_Source\PSoC5/CySpc.c **** 
 522:.\Generated_Source\PSoC5/CySpc.c **** 
 523:.\Generated_Source\PSoC5/CySpc.c **** /*******************************************************************************
 524:.\Generated_Source\PSoC5/CySpc.c **** * Function Name: CySpcGetTemp
 525:.\Generated_Source\PSoC5/CySpc.c **** ****************************************************************************//**
ARM GAS  C:\Users\honet\AppData\Local\Temp\ccwnfTRf.s 			page 24


 526:.\Generated_Source\PSoC5/CySpc.c **** *  Returns the internal die temperature
 527:.\Generated_Source\PSoC5/CySpc.c **** *
 528:.\Generated_Source\PSoC5/CySpc.c **** *  \param uint8 numSamples:
 529:.\Generated_Source\PSoC5/CySpc.c **** *   Number of samples. Valid values are 1-5, resulting in 2 - 32 samples
 530:.\Generated_Source\PSoC5/CySpc.c **** *   respectively.
 531:.\Generated_Source\PSoC5/CySpc.c **** *
 532:.\Generated_Source\PSoC5/CySpc.c **** * \param uint16 timerPeriod:
 533:.\Generated_Source\PSoC5/CySpc.c **** *   Number of ADC ACLK cycles. A valid 14 bit value is accepted, higher 2 bits
 534:.\Generated_Source\PSoC5/CySpc.c **** *   of 16 bit values are ignored.
 535:.\Generated_Source\PSoC5/CySpc.c **** *
 536:.\Generated_Source\PSoC5/CySpc.c **** * \param uint8 clkDivSelect:
 537:.\Generated_Source\PSoC5/CySpc.c **** *   ADC ACLK clock divide value. Valid values are 2 - 225.
 538:.\Generated_Source\PSoC5/CySpc.c **** *
 539:.\Generated_Source\PSoC5/CySpc.c **** * \return
 540:.\Generated_Source\PSoC5/CySpc.c **** *  CYRET_STARTED
 541:.\Generated_Source\PSoC5/CySpc.c **** *  CYRET_CANCELED
 542:.\Generated_Source\PSoC5/CySpc.c **** *  CYRET_LOCKED
 543:.\Generated_Source\PSoC5/CySpc.c **** *
 544:.\Generated_Source\PSoC5/CySpc.c **** *******************************************************************************/
 545:.\Generated_Source\PSoC5/CySpc.c **** cystatus CySpcGetTemp(uint8 numSamples)
 546:.\Generated_Source\PSoC5/CySpc.c **** {
 721              		.loc 1 546 0
 722              		.cfi_startproc
 723              		@ args = 0, pretend = 0, frame = 0
 724              		@ frame_needed = 0, uses_anonymous_args = 0
 725              		@ link register save eliminated.
 726              	.LVL68:
 547:.\Generated_Source\PSoC5/CySpc.c ****     cystatus status = CYRET_STARTED;
 548:.\Generated_Source\PSoC5/CySpc.c **** 
 549:.\Generated_Source\PSoC5/CySpc.c ****     /* Make sure the SPC is ready to accept command */
 550:.\Generated_Source\PSoC5/CySpc.c ****     if(CY_SPC_IDLE)
 727              		.loc 1 550 0
 728 0000 0B4A     		ldr	r2, .L87
 729 0002 1378     		ldrb	r3, [r2]	@ zero_extendqisi2
 730 0004 9907     		lsls	r1, r3, #30
 731 0006 11D5     		bpl	.L84
 546:.\Generated_Source\PSoC5/CySpc.c ****     cystatus status = CYRET_STARTED;
 732              		.loc 1 546 0
 733 0008 30B4     		push	{r4, r5}
 734              		.cfi_def_cfa_offset 8
 735              		.cfi_offset 4, -8
 736              		.cfi_offset 5, -4
 551:.\Generated_Source\PSoC5/CySpc.c ****     {
 552:.\Generated_Source\PSoC5/CySpc.c ****         CY_SPC_CPU_DATA_REG = CY_SPC_KEY_ONE;
 737              		.loc 1 552 0
 738 000a 0A4B     		ldr	r3, .L87+4
 739 000c B625     		movs	r5, #182
 553:.\Generated_Source\PSoC5/CySpc.c ****         CY_SPC_CPU_DATA_REG = CY_SPC_KEY_TWO(CY_SPC_CMD_GET_TEMP);
 740              		.loc 1 553 0
 741 000e E124     		movs	r4, #225
 554:.\Generated_Source\PSoC5/CySpc.c ****         CY_SPC_CPU_DATA_REG = CY_SPC_CMD_GET_TEMP;
 742              		.loc 1 554 0
 743 0010 0E21     		movs	r1, #14
 552:.\Generated_Source\PSoC5/CySpc.c ****         CY_SPC_CPU_DATA_REG = CY_SPC_KEY_TWO(CY_SPC_CMD_GET_TEMP);
 744              		.loc 1 552 0
 745 0012 1D70     		strb	r5, [r3]
 553:.\Generated_Source\PSoC5/CySpc.c ****         CY_SPC_CPU_DATA_REG = CY_SPC_KEY_TWO(CY_SPC_CMD_GET_TEMP);
ARM GAS  C:\Users\honet\AppData\Local\Temp\ccwnfTRf.s 			page 25


 746              		.loc 1 553 0
 747 0014 1C70     		strb	r4, [r3]
 748              		.loc 1 554 0
 749 0016 1970     		strb	r1, [r3]
 555:.\Generated_Source\PSoC5/CySpc.c **** 
 556:.\Generated_Source\PSoC5/CySpc.c ****         /* Make sure the command was accepted */
 557:.\Generated_Source\PSoC5/CySpc.c ****         if(CY_SPC_BUSY)
 750              		.loc 1 557 0
 751 0018 1278     		ldrb	r2, [r2]	@ zero_extendqisi2
 752 001a 9207     		lsls	r2, r2, #30
 753 001c 03D4     		bmi	.L85
 558:.\Generated_Source\PSoC5/CySpc.c ****         {
 559:.\Generated_Source\PSoC5/CySpc.c ****             CY_SPC_CPU_DATA_REG = numSamples;
 754              		.loc 1 559 0
 755 001e 1870     		strb	r0, [r3]
 560:.\Generated_Source\PSoC5/CySpc.c ****         }
 561:.\Generated_Source\PSoC5/CySpc.c ****         else
 562:.\Generated_Source\PSoC5/CySpc.c ****         {
 563:.\Generated_Source\PSoC5/CySpc.c ****             status = CYRET_CANCELED;
 564:.\Generated_Source\PSoC5/CySpc.c ****         }
 565:.\Generated_Source\PSoC5/CySpc.c ****     }
 566:.\Generated_Source\PSoC5/CySpc.c ****     else
 567:.\Generated_Source\PSoC5/CySpc.c ****     {
 568:.\Generated_Source\PSoC5/CySpc.c ****         status = CYRET_LOCKED;
 569:.\Generated_Source\PSoC5/CySpc.c ****     }
 570:.\Generated_Source\PSoC5/CySpc.c **** 
 571:.\Generated_Source\PSoC5/CySpc.c ****     return(status);
 572:.\Generated_Source\PSoC5/CySpc.c **** }
 756              		.loc 1 572 0
 757 0020 30BC     		pop	{r4, r5}
 758              		.cfi_remember_state
 759              		.cfi_restore 5
 760              		.cfi_restore 4
 761              		.cfi_def_cfa_offset 0
 547:.\Generated_Source\PSoC5/CySpc.c **** 
 762              		.loc 1 547 0
 763 0022 0720     		movs	r0, #7
 764              	.LVL69:
 765              		.loc 1 572 0
 766 0024 7047     		bx	lr
 767              	.LVL70:
 768              	.L85:
 769              		.cfi_restore_state
 563:.\Generated_Source\PSoC5/CySpc.c ****         }
 770              		.loc 1 563 0
 771 0026 0920     		movs	r0, #9
 772              	.LVL71:
 773              		.loc 1 572 0
 774 0028 30BC     		pop	{r4, r5}
 775              		.cfi_restore 4
 776              		.cfi_restore 5
 777              		.cfi_def_cfa_offset 0
 778 002a 7047     		bx	lr
 779              	.LVL72:
 780              	.L84:
 568:.\Generated_Source\PSoC5/CySpc.c ****     }
 781              		.loc 1 568 0
ARM GAS  C:\Users\honet\AppData\Local\Temp\ccwnfTRf.s 			page 26


 782 002c 0420     		movs	r0, #4
 783              	.LVL73:
 784              		.loc 1 572 0
 785 002e 7047     		bx	lr
 786              	.L88:
 787              		.align	2
 788              	.L87:
 789 0030 22470040 		.word	1073760034
 790 0034 20470040 		.word	1073760032
 791              		.cfi_endproc
 792              	.LFE8:
 793              		.size	CySpcGetTemp, .-CySpcGetTemp
 794              		.section	.text.CySpcLock,"ax",%progbits
 795              		.align	2
 796              		.global	CySpcLock
 797              		.thumb
 798              		.thumb_func
 799              		.type	CySpcLock, %function
 800              	CySpcLock:
 801              	.LFB9:
 573:.\Generated_Source\PSoC5/CySpc.c **** 
 574:.\Generated_Source\PSoC5/CySpc.c **** 
 575:.\Generated_Source\PSoC5/CySpc.c **** /*******************************************************************************
 576:.\Generated_Source\PSoC5/CySpc.c **** * Function Name: CySpcLock
 577:.\Generated_Source\PSoC5/CySpc.c **** ****************************************************************************//**
 578:.\Generated_Source\PSoC5/CySpc.c **** *  Locks the SPC so it can not be used by someone else:
 579:.\Generated_Source\PSoC5/CySpc.c **** *   - Saves wait-pipeline enable state and enable pipeline (PSoC5)
 580:.\Generated_Source\PSoC5/CySpc.c **** *
 581:.\Generated_Source\PSoC5/CySpc.c **** * \return
 582:.\Generated_Source\PSoC5/CySpc.c **** *  CYRET_SUCCESS - if the resource was free.
 583:.\Generated_Source\PSoC5/CySpc.c **** *  CYRET_LOCKED  - if the SPC is in use.
 584:.\Generated_Source\PSoC5/CySpc.c **** *
 585:.\Generated_Source\PSoC5/CySpc.c **** *******************************************************************************/
 586:.\Generated_Source\PSoC5/CySpc.c **** cystatus CySpcLock(void)
 587:.\Generated_Source\PSoC5/CySpc.c **** {
 802              		.loc 1 587 0
 803              		.cfi_startproc
 804              		@ args = 0, pretend = 0, frame = 0
 805              		@ frame_needed = 0, uses_anonymous_args = 0
 806              	.LVL74:
 807 0000 38B5     		push	{r3, r4, r5, lr}
 808              		.cfi_def_cfa_offset 16
 809              		.cfi_offset 3, -16
 810              		.cfi_offset 4, -12
 811              		.cfi_offset 5, -8
 812              		.cfi_offset 14, -4
 588:.\Generated_Source\PSoC5/CySpc.c ****     cystatus status = CYRET_LOCKED;
 589:.\Generated_Source\PSoC5/CySpc.c ****     uint8 interruptState;
 590:.\Generated_Source\PSoC5/CySpc.c **** 
 591:.\Generated_Source\PSoC5/CySpc.c ****     /* Enter critical section */
 592:.\Generated_Source\PSoC5/CySpc.c ****     interruptState = CyEnterCriticalSection();
 813              		.loc 1 592 0
 814 0002 FFF7FEFF 		bl	CyEnterCriticalSection
 815              	.LVL75:
 593:.\Generated_Source\PSoC5/CySpc.c **** 
 594:.\Generated_Source\PSoC5/CySpc.c ****     if(CY_SPC_UNLOCKED == SpcLockState)
 816              		.loc 1 594 0
ARM GAS  C:\Users\honet\AppData\Local\Temp\ccwnfTRf.s 			page 27


 817 0006 0D4A     		ldr	r2, .L95
 818 0008 1378     		ldrb	r3, [r2]	@ zero_extendqisi2
 819 000a 23B1     		cbz	r3, .L94
 588:.\Generated_Source\PSoC5/CySpc.c ****     cystatus status = CYRET_LOCKED;
 820              		.loc 1 588 0
 821 000c 0424     		movs	r4, #4
 822              	.LVL76:
 823              	.L90:
 595:.\Generated_Source\PSoC5/CySpc.c ****     {
 596:.\Generated_Source\PSoC5/CySpc.c ****         SpcLockState = CY_SPC_LOCKED;
 597:.\Generated_Source\PSoC5/CySpc.c ****         status = CYRET_SUCCESS;
 598:.\Generated_Source\PSoC5/CySpc.c **** 
 599:.\Generated_Source\PSoC5/CySpc.c ****         #if(CY_PSOC5)
 600:.\Generated_Source\PSoC5/CySpc.c **** 
 601:.\Generated_Source\PSoC5/CySpc.c ****             if(0u != (CY_SPC_CPU_WAITPIPE_REG & CY_SPC_CPU_WAITPIPE_BYPASS))
 602:.\Generated_Source\PSoC5/CySpc.c ****             {
 603:.\Generated_Source\PSoC5/CySpc.c ****                 /* Enable pipeline registers */
 604:.\Generated_Source\PSoC5/CySpc.c ****                 CY_SPC_CPU_WAITPIPE_REG &= ((uint32)(~CY_SPC_CPU_WAITPIPE_BYPASS));
 605:.\Generated_Source\PSoC5/CySpc.c **** 
 606:.\Generated_Source\PSoC5/CySpc.c ****                 /* At least 2 NOP instructions are recommended */
 607:.\Generated_Source\PSoC5/CySpc.c ****                 CY_NOP;
 608:.\Generated_Source\PSoC5/CySpc.c ****                 CY_NOP;
 609:.\Generated_Source\PSoC5/CySpc.c ****                 CY_NOP;
 610:.\Generated_Source\PSoC5/CySpc.c **** 
 611:.\Generated_Source\PSoC5/CySpc.c ****                 spcWaitPipeBypass = CY_SPC_CPU_WAITPIPE_BYPASS;
 612:.\Generated_Source\PSoC5/CySpc.c ****             }
 613:.\Generated_Source\PSoC5/CySpc.c **** 
 614:.\Generated_Source\PSoC5/CySpc.c ****         #endif  /* (CY_PSOC5) */
 615:.\Generated_Source\PSoC5/CySpc.c ****     }
 616:.\Generated_Source\PSoC5/CySpc.c **** 
 617:.\Generated_Source\PSoC5/CySpc.c ****     /* Exit critical section */
 618:.\Generated_Source\PSoC5/CySpc.c ****     CyExitCriticalSection(interruptState);
 824              		.loc 1 618 0
 825 000e FFF7FEFF 		bl	CyExitCriticalSection
 826              	.LVL77:
 619:.\Generated_Source\PSoC5/CySpc.c **** 
 620:.\Generated_Source\PSoC5/CySpc.c ****     return(status);
 621:.\Generated_Source\PSoC5/CySpc.c **** }
 827              		.loc 1 621 0
 828 0012 2046     		mov	r0, r4
 829 0014 38BD     		pop	{r3, r4, r5, pc}
 830              	.LVL78:
 831              	.L94:
 596:.\Generated_Source\PSoC5/CySpc.c ****         status = CYRET_SUCCESS;
 832              		.loc 1 596 0
 833 0016 0125     		movs	r5, #1
 601:.\Generated_Source\PSoC5/CySpc.c ****             {
 834              		.loc 1 601 0
 835 0018 0949     		ldr	r1, .L95+4
 596:.\Generated_Source\PSoC5/CySpc.c ****         status = CYRET_SUCCESS;
 836              		.loc 1 596 0
 837 001a 1570     		strb	r5, [r2]
 838              	.LVL79:
 601:.\Generated_Source\PSoC5/CySpc.c ****             {
 839              		.loc 1 601 0
 840 001c 0C68     		ldr	r4, [r1]
 841 001e 2C40     		ands	r4, r4, r5
ARM GAS  C:\Users\honet\AppData\Local\Temp\ccwnfTRf.s 			page 28


 842 0020 F5D0     		beq	.L90
 604:.\Generated_Source\PSoC5/CySpc.c **** 
 843              		.loc 1 604 0
 844 0022 0C68     		ldr	r4, [r1]
 845 0024 24F00104 		bic	r4, r4, #1
 846 0028 0C60     		str	r4, [r1]
 607:.\Generated_Source\PSoC5/CySpc.c ****                 CY_NOP;
 847              		.loc 1 607 0
 848              	@ 607 ".\Generated_Source\PSoC5\CySpc.c" 1
 849 002a 00BF     		NOP
 850              	
 851              	@ 0 "" 2
 608:.\Generated_Source\PSoC5/CySpc.c ****                 CY_NOP;
 852              		.loc 1 608 0
 853              	@ 608 ".\Generated_Source\PSoC5\CySpc.c" 1
 854 002c 00BF     		NOP
 855              	
 856              	@ 0 "" 2
 609:.\Generated_Source\PSoC5/CySpc.c **** 
 857              		.loc 1 609 0
 858              	@ 609 ".\Generated_Source\PSoC5\CySpc.c" 1
 859 002e 00BF     		NOP
 860              	
 861              	@ 0 "" 2
 597:.\Generated_Source\PSoC5/CySpc.c **** 
 862              		.loc 1 597 0
 863              		.thumb
 864 0030 1C46     		mov	r4, r3
 865              	.LVL80:
 611:.\Generated_Source\PSoC5/CySpc.c ****             }
 866              		.loc 1 611 0
 867 0032 5560     		str	r5, [r2, #4]
 618:.\Generated_Source\PSoC5/CySpc.c **** 
 868              		.loc 1 618 0
 869 0034 FFF7FEFF 		bl	CyExitCriticalSection
 870              	.LVL81:
 871              		.loc 1 621 0
 872 0038 2046     		mov	r0, r4
 873 003a 38BD     		pop	{r3, r4, r5, pc}
 874              	.LVL82:
 875              	.L96:
 876              		.align	2
 877              	.L95:
 878 003c 00000000 		.word	.LANCHOR0
 879 0040 04000840 		.word	1074266116
 880              		.cfi_endproc
 881              	.LFE9:
 882              		.size	CySpcLock, .-CySpcLock
 883              		.section	.text.CySpcUnlock,"ax",%progbits
 884              		.align	2
 885              		.global	CySpcUnlock
 886              		.thumb
 887              		.thumb_func
 888              		.type	CySpcUnlock, %function
 889              	CySpcUnlock:
 890              	.LFB10:
 622:.\Generated_Source\PSoC5/CySpc.c **** 
ARM GAS  C:\Users\honet\AppData\Local\Temp\ccwnfTRf.s 			page 29


 623:.\Generated_Source\PSoC5/CySpc.c **** 
 624:.\Generated_Source\PSoC5/CySpc.c **** /*******************************************************************************
 625:.\Generated_Source\PSoC5/CySpc.c **** * Function Name: CySpcUnlock
 626:.\Generated_Source\PSoC5/CySpc.c **** ****************************************************************************//**
 627:.\Generated_Source\PSoC5/CySpc.c **** *  Unlocks the SPC so it can be used by someone else:
 628:.\Generated_Source\PSoC5/CySpc.c **** *   - Restores wait-pipeline enable state (PSoC5)
 629:.\Generated_Source\PSoC5/CySpc.c **** *
 630:.\Generated_Source\PSoC5/CySpc.c **** *******************************************************************************/
 631:.\Generated_Source\PSoC5/CySpc.c **** void CySpcUnlock(void)
 632:.\Generated_Source\PSoC5/CySpc.c **** {
 891              		.loc 1 632 0
 892              		.cfi_startproc
 893              		@ args = 0, pretend = 0, frame = 0
 894              		@ frame_needed = 0, uses_anonymous_args = 0
 895 0000 10B5     		push	{r4, lr}
 896              		.cfi_def_cfa_offset 8
 897              		.cfi_offset 4, -8
 898              		.cfi_offset 14, -4
 633:.\Generated_Source\PSoC5/CySpc.c ****     uint8 interruptState;
 634:.\Generated_Source\PSoC5/CySpc.c **** 
 635:.\Generated_Source\PSoC5/CySpc.c ****     /* Enter critical section */
 636:.\Generated_Source\PSoC5/CySpc.c ****     interruptState = CyEnterCriticalSection();
 899              		.loc 1 636 0
 900 0002 FFF7FEFF 		bl	CyEnterCriticalSection
 901              	.LVL83:
 637:.\Generated_Source\PSoC5/CySpc.c **** 
 638:.\Generated_Source\PSoC5/CySpc.c ****     /* Release the SPC object */
 639:.\Generated_Source\PSoC5/CySpc.c ****     SpcLockState = CY_SPC_UNLOCKED;
 902              		.loc 1 639 0
 903 0006 094B     		ldr	r3, .L100
 904 0008 0022     		movs	r2, #0
 640:.\Generated_Source\PSoC5/CySpc.c **** 
 641:.\Generated_Source\PSoC5/CySpc.c ****     #if(CY_PSOC5)
 642:.\Generated_Source\PSoC5/CySpc.c **** 
 643:.\Generated_Source\PSoC5/CySpc.c ****         if(CY_SPC_CPU_WAITPIPE_BYPASS == spcWaitPipeBypass)
 905              		.loc 1 643 0
 906 000a 5968     		ldr	r1, [r3, #4]
 639:.\Generated_Source\PSoC5/CySpc.c **** 
 907              		.loc 1 639 0
 908 000c 1A70     		strb	r2, [r3]
 909              		.loc 1 643 0
 910 000e 0129     		cmp	r1, #1
 911 0010 08D1     		bne	.L98
 644:.\Generated_Source\PSoC5/CySpc.c ****         {
 645:.\Generated_Source\PSoC5/CySpc.c ****             /* Force to bypass pipeline registers */
 646:.\Generated_Source\PSoC5/CySpc.c ****             CY_SPC_CPU_WAITPIPE_REG |= CY_SPC_CPU_WAITPIPE_BYPASS;
 912              		.loc 1 646 0
 913 0012 074C     		ldr	r4, .L100+4
 914 0014 2168     		ldr	r1, [r4]
 915 0016 41F00101 		orr	r1, r1, #1
 916 001a 2160     		str	r1, [r4]
 647:.\Generated_Source\PSoC5/CySpc.c **** 
 648:.\Generated_Source\PSoC5/CySpc.c ****             /* At least 2 NOP instructions are recommended */
 649:.\Generated_Source\PSoC5/CySpc.c ****             CY_NOP;
 917              		.loc 1 649 0
 918              	@ 649 ".\Generated_Source\PSoC5\CySpc.c" 1
 919 001c 00BF     		NOP
ARM GAS  C:\Users\honet\AppData\Local\Temp\ccwnfTRf.s 			page 30


 920              	
 921              	@ 0 "" 2
 650:.\Generated_Source\PSoC5/CySpc.c ****             CY_NOP;
 922              		.loc 1 650 0
 923              	@ 650 ".\Generated_Source\PSoC5\CySpc.c" 1
 924 001e 00BF     		NOP
 925              	
 926              	@ 0 "" 2
 651:.\Generated_Source\PSoC5/CySpc.c ****             CY_NOP;
 927              		.loc 1 651 0
 928              	@ 651 ".\Generated_Source\PSoC5\CySpc.c" 1
 929 0020 00BF     		NOP
 930              	
 931              	@ 0 "" 2
 652:.\Generated_Source\PSoC5/CySpc.c **** 
 653:.\Generated_Source\PSoC5/CySpc.c ****             spcWaitPipeBypass = 0u;
 932              		.loc 1 653 0
 933              		.thumb
 934 0022 5A60     		str	r2, [r3, #4]
 935              	.L98:
 654:.\Generated_Source\PSoC5/CySpc.c ****         }
 655:.\Generated_Source\PSoC5/CySpc.c **** 
 656:.\Generated_Source\PSoC5/CySpc.c ****     #endif  /* (CY_PSOC5) */
 657:.\Generated_Source\PSoC5/CySpc.c **** 
 658:.\Generated_Source\PSoC5/CySpc.c ****     /* Exit critical section */
 659:.\Generated_Source\PSoC5/CySpc.c ****     CyExitCriticalSection(interruptState);
 660:.\Generated_Source\PSoC5/CySpc.c **** }
 936              		.loc 1 660 0
 937 0024 BDE81040 		pop	{r4, lr}
 938              		.cfi_restore 14
 939              		.cfi_restore 4
 940              		.cfi_def_cfa_offset 0
 659:.\Generated_Source\PSoC5/CySpc.c **** }
 941              		.loc 1 659 0
 942 0028 FFF7FEBF 		b	CyExitCriticalSection
 943              	.LVL84:
 944              	.L101:
 945              		.align	2
 946              	.L100:
 947 002c 00000000 		.word	.LANCHOR0
 948 0030 04000840 		.word	1074266116
 949              		.cfi_endproc
 950              	.LFE10:
 951              		.size	CySpcUnlock, .-CySpcUnlock
 952              		.section	.text.CySpcGetAlgorithm,"ax",%progbits
 953              		.align	2
 954              		.global	CySpcGetAlgorithm
 955              		.thumb
 956              		.thumb_func
 957              		.type	CySpcGetAlgorithm, %function
 958              	CySpcGetAlgorithm:
 959              	.LFB11:
 661:.\Generated_Source\PSoC5/CySpc.c **** 
 662:.\Generated_Source\PSoC5/CySpc.c **** 
 663:.\Generated_Source\PSoC5/CySpc.c **** /*******************************************************************************
 664:.\Generated_Source\PSoC5/CySpc.c **** * Function Name: CySpcGetAlgorithm
 665:.\Generated_Source\PSoC5/CySpc.c **** ****************************************************************************//**
ARM GAS  C:\Users\honet\AppData\Local\Temp\ccwnfTRf.s 			page 31


 666:.\Generated_Source\PSoC5/CySpc.c **** *  Downloads SPC algorithm from SPC SROM into SRAM.
 667:.\Generated_Source\PSoC5/CySpc.c **** *
 668:.\Generated_Source\PSoC5/CySpc.c **** * \return
 669:.\Generated_Source\PSoC5/CySpc.c **** *  CYRET_STARTED
 670:.\Generated_Source\PSoC5/CySpc.c **** *  CYRET_LOCKED
 671:.\Generated_Source\PSoC5/CySpc.c **** *
 672:.\Generated_Source\PSoC5/CySpc.c **** *******************************************************************************/
 673:.\Generated_Source\PSoC5/CySpc.c **** cystatus CySpcGetAlgorithm(void)
 674:.\Generated_Source\PSoC5/CySpc.c **** {
 960              		.loc 1 674 0
 961              		.cfi_startproc
 962              		@ args = 0, pretend = 0, frame = 0
 963              		@ frame_needed = 0, uses_anonymous_args = 0
 964              		@ link register save eliminated.
 965              	.LVL85:
 675:.\Generated_Source\PSoC5/CySpc.c ****     cystatus status = CYRET_STARTED;
 676:.\Generated_Source\PSoC5/CySpc.c **** 
 677:.\Generated_Source\PSoC5/CySpc.c ****     /* Make sure the SPC is ready to accept command */
 678:.\Generated_Source\PSoC5/CySpc.c ****     if(CY_SPC_IDLE)
 966              		.loc 1 678 0
 967 0000 074B     		ldr	r3, .L105
 968 0002 1B78     		ldrb	r3, [r3]	@ zero_extendqisi2
 969 0004 9B07     		lsls	r3, r3, #30
 970 0006 08D5     		bpl	.L104
 679:.\Generated_Source\PSoC5/CySpc.c ****     {
 680:.\Generated_Source\PSoC5/CySpc.c ****         CY_SPC_CPU_DATA_REG = CY_SPC_KEY_ONE;
 971              		.loc 1 680 0
 972 0008 064B     		ldr	r3, .L105+4
 973 000a B620     		movs	r0, #182
 681:.\Generated_Source\PSoC5/CySpc.c ****         CY_SPC_CPU_DATA_REG = CY_SPC_KEY_TWO(CY_SPC_CMD_DWNLD_ALGORITHM);
 974              		.loc 1 681 0
 975 000c E021     		movs	r1, #224
 682:.\Generated_Source\PSoC5/CySpc.c ****         CY_SPC_CPU_DATA_REG = CY_SPC_CMD_DWNLD_ALGORITHM;
 976              		.loc 1 682 0
 977 000e 0D22     		movs	r2, #13
 680:.\Generated_Source\PSoC5/CySpc.c ****         CY_SPC_CPU_DATA_REG = CY_SPC_KEY_TWO(CY_SPC_CMD_DWNLD_ALGORITHM);
 978              		.loc 1 680 0
 979 0010 1870     		strb	r0, [r3]
 681:.\Generated_Source\PSoC5/CySpc.c ****         CY_SPC_CPU_DATA_REG = CY_SPC_KEY_TWO(CY_SPC_CMD_DWNLD_ALGORITHM);
 980              		.loc 1 681 0
 981 0012 1970     		strb	r1, [r3]
 675:.\Generated_Source\PSoC5/CySpc.c **** 
 982              		.loc 1 675 0
 983 0014 0720     		movs	r0, #7
 984              		.loc 1 682 0
 985 0016 1A70     		strb	r2, [r3]
 986 0018 7047     		bx	lr
 987              	.L104:
 683:.\Generated_Source\PSoC5/CySpc.c ****     }
 684:.\Generated_Source\PSoC5/CySpc.c ****     else
 685:.\Generated_Source\PSoC5/CySpc.c ****     {
 686:.\Generated_Source\PSoC5/CySpc.c ****         status = CYRET_LOCKED;
 988              		.loc 1 686 0
 989 001a 0420     		movs	r0, #4
 990              	.LVL86:
 687:.\Generated_Source\PSoC5/CySpc.c ****     }
 688:.\Generated_Source\PSoC5/CySpc.c **** 
ARM GAS  C:\Users\honet\AppData\Local\Temp\ccwnfTRf.s 			page 32


 689:.\Generated_Source\PSoC5/CySpc.c ****     return(status);
 690:.\Generated_Source\PSoC5/CySpc.c **** }
 991              		.loc 1 690 0
 992 001c 7047     		bx	lr
 993              	.L106:
 994 001e 00BF     		.align	2
 995              	.L105:
 996 0020 22470040 		.word	1073760034
 997 0024 20470040 		.word	1073760032
 998              		.cfi_endproc
 999              	.LFE11:
 1000              		.size	CySpcGetAlgorithm, .-CySpcGetAlgorithm
 1001              		.global	SpcLockState
 1002              		.bss
 1003              		.align	2
 1004              		.set	.LANCHOR0,. + 0
 1005              		.type	SpcLockState, %object
 1006              		.size	SpcLockState, 1
 1007              	SpcLockState:
 1008 0000 00       		.space	1
 1009 0001 000000   		.space	3
 1010              		.type	spcWaitPipeBypass, %object
 1011              		.size	spcWaitPipeBypass, 4
 1012              	spcWaitPipeBypass:
 1013 0004 00000000 		.space	4
 1014              		.text
 1015              	.Letext0:
 1016              		.file 2 ".\\Generated_Source\\PSoC5\\cytypes.h"
 1017              		.file 3 ".\\Generated_Source\\PSoC5\\CyLib.h"