ARM GAS  C:\Users\honet\AppData\Local\Temp\cc6gsi1c.s 			page 1


   1              		.syntax unified
   2              		.cpu cortex-m3
   3              		.fpu softvfp
   4              		.eabi_attribute 20, 1
   5              		.eabi_attribute 21, 1
   6              		.eabi_attribute 23, 3
   7              		.eabi_attribute 24, 1
   8              		.eabi_attribute 25, 1
   9              		.eabi_attribute 26, 1
  10              		.eabi_attribute 30, 2
  11              		.eabi_attribute 34, 1
  12              		.eabi_attribute 18, 4
  13              		.thumb
  14              		.file	"main.c"
  15              		.text
  16              	.Ltext0:
  17              		.cfi_sections	.debug_frame
  18              		.section	.text.PrintFxn,"ax",%progbits
  19              		.align	2
  20              		.global	PrintFxn
  21              		.thumb
  22              		.thumb_func
  23              		.type	PrintFxn, %function
  24              	PrintFxn:
  25              	.LFB66:
  26              		.file 1 ".\\main.c"
   1:.\main.c      **** /* ========================================
   2:.\main.c      ****  *
   3:.\main.c      ****  * Copyright YOUR COMPANY, THE YEAR
   4:.\main.c      ****  * All Rights Reserved
   5:.\main.c      ****  * UNPUBLISHED, LICENSED SOFTWARE.
   6:.\main.c      ****  *
   7:.\main.c      ****  * CONFIDENTIAL AND PROPRIETARY INFORMATION
   8:.\main.c      ****  * WHICH IS THE PROPERTY OF your company.
   9:.\main.c      ****  *
  10:.\main.c      ****  * ========================================
  11:.\main.c      **** */
  12:.\main.c      **** #include <string.h>
  13:.\main.c      **** #include <stdio.h>
  14:.\main.c      **** #include "project.h"
  15:.\main.c      **** #include "SDSPI_api.h"
  16:.\main.c      **** #include "SDSPI_fatfs.h"
  17:.\main.c      **** 
  18:.\main.c      **** volatile unsigned long nmillis = 0; //used for time measurement
  19:.\main.c      **** 
  20:.\main.c      **** #define BUFFER_SIZE 32768
  21:.\main.c      **** uint8_t buffer[BUFFER_SIZE];
  22:.\main.c      **** 
  23:.\main.c      **** FIL File; // result message txt-file
  24:.\main.c      **** 
  25:.\main.c      **** 
  26:.\main.c      **** #define dbgprint(fmt, ...) \
  27:.\main.c      **** do{ \
  28:.\main.c      ****     char str[128]; \
  29:.\main.c      ****     sprintf(str, fmt, ## __VA_ARGS__); \
  30:.\main.c      ****     while(!USBUART_1_CDCIsReady()); \
  31:.\main.c      ****     USBUART_1_PutString(str); \
ARM GAS  C:\Users\honet\AppData\Local\Temp\cc6gsi1c.s 			page 2


  32:.\main.c      **** }while(0)
  33:.\main.c      **** 
  34:.\main.c      **** #define dumpmsg(msg, ...) \
  35:.\main.c      **** do{ \
  36:.\main.c      **** 	UINT BytesWritten; \
  37:.\main.c      **** 	size_t sz=strlen(msg); \
  38:.\main.c      **** 	dbgprint(msg, ## __VA_ARGS__); \
  39:.\main.c      **** 	FRESULT res = f_write(&File, msg, sz, &BytesWritten); \
  40:.\main.c      **** 	chkres("f_write", res); \
  41:.\main.c      **** }while(0)
  42:.\main.c      **** 
  43:.\main.c      **** 
  44:.\main.c      **** void MillisISR()
  45:.\main.c      **** {
  46:.\main.c      ****     nmillis++;          //used for time measurements
  47:.\main.c      ****     disk_timerproc();   //MUST attach this to 1kHz interrupt for file system timeouts to work
  48:.\main.c      **** }
  49:.\main.c      **** 
  50:.\main.c      **** void SDCARD_FAST()
  51:.\main.c      **** {
  52:.\main.c      ****     SD_CLK_SetDivider(1); // 0: 24MHz, 1; 12MHz, 2:8MHz, 3: 6Mhz (@BusClk=48MHz)
  53:.\main.c      **** }
  54:.\main.c      **** 
  55:.\main.c      **** void SDCARD_SLOW()
  56:.\main.c      **** {
  57:.\main.c      ****     SD_CLK_SetDivider(200);   //SD card must be initialised at max. 400 kHz
  58:.\main.c      **** }
  59:.\main.c      **** 
  60:.\main.c      **** void PrintFxn(char* pString)
  61:.\main.c      **** {
  27              		.loc 1 61 0
  28              		.cfi_startproc
  29              		@ args = 0, pretend = 0, frame = 0
  30              		@ frame_needed = 0, uses_anonymous_args = 0
  31              		@ link register save eliminated.
  32              	.LVL0:
  33 0000 7047     		bx	lr
  34              		.cfi_endproc
  35              	.LFE66:
  36              		.size	PrintFxn, .-PrintFxn
  37 0002 00BF     		.section	.text.MillisISR,"ax",%progbits
  38              		.align	2
  39              		.global	MillisISR
  40              		.thumb
  41              		.thumb_func
  42              		.type	MillisISR, %function
  43              	MillisISR:
  44              	.LFB63:
  45:.\main.c      ****     nmillis++;          //used for time measurements
  45              		.loc 1 45 0
  46              		.cfi_startproc
  47              		@ args = 0, pretend = 0, frame = 0
  48              		@ frame_needed = 0, uses_anonymous_args = 0
  49              		@ link register save eliminated.
  46:.\main.c      ****     disk_timerproc();   //MUST attach this to 1kHz interrupt for file system timeouts to work
  50              		.loc 1 46 0
  51 0000 024A     		ldr	r2, .L3
ARM GAS  C:\Users\honet\AppData\Local\Temp\cc6gsi1c.s 			page 3


  52 0002 1368     		ldr	r3, [r2]
  53 0004 0133     		adds	r3, r3, #1
  54 0006 1360     		str	r3, [r2]
  47:.\main.c      **** }
  55              		.loc 1 47 0
  56 0008 FFF7FEBF 		b	disk_timerproc
  57              	.LVL1:
  58              	.L4:
  59              		.align	2
  60              	.L3:
  61 000c 00000000 		.word	.LANCHOR0
  62              		.cfi_endproc
  63              	.LFE63:
  64              		.size	MillisISR, .-MillisISR
  65              		.section	.text.SDCARD_FAST,"ax",%progbits
  66              		.align	2
  67              		.global	SDCARD_FAST
  68              		.thumb
  69              		.thumb_func
  70              		.type	SDCARD_FAST, %function
  71              	SDCARD_FAST:
  72              	.LFB64:
  51:.\main.c      ****     SD_CLK_SetDivider(1); // 0: 24MHz, 1; 12MHz, 2:8MHz, 3: 6Mhz (@BusClk=48MHz)
  73              		.loc 1 51 0
  74              		.cfi_startproc
  75              		@ args = 0, pretend = 0, frame = 0
  76              		@ frame_needed = 0, uses_anonymous_args = 0
  77              		@ link register save eliminated.
  52:.\main.c      **** }
  78              		.loc 1 52 0
  79 0000 0120     		movs	r0, #1
  80 0002 0146     		mov	r1, r0
  81 0004 FFF7FEBF 		b	SD_CLK_SetDividerRegister
  82              	.LVL2:
  83              		.cfi_endproc
  84              	.LFE64:
  85              		.size	SDCARD_FAST, .-SDCARD_FAST
  86              		.section	.text.SDCARD_SLOW,"ax",%progbits
  87              		.align	2
  88              		.global	SDCARD_SLOW
  89              		.thumb
  90              		.thumb_func
  91              		.type	SDCARD_SLOW, %function
  92              	SDCARD_SLOW:
  93              	.LFB65:
  56:.\main.c      ****     SD_CLK_SetDivider(200);   //SD card must be initialised at max. 400 kHz
  94              		.loc 1 56 0
  95              		.cfi_startproc
  96              		@ args = 0, pretend = 0, frame = 0
  97              		@ frame_needed = 0, uses_anonymous_args = 0
  98              		@ link register save eliminated.
  57:.\main.c      **** }
  99              		.loc 1 57 0
 100 0000 C820     		movs	r0, #200
 101 0002 0121     		movs	r1, #1
 102 0004 FFF7FEBF 		b	SD_CLK_SetDividerRegister
 103              	.LVL3:
ARM GAS  C:\Users\honet\AppData\Local\Temp\cc6gsi1c.s 			page 4


 104              		.cfi_endproc
 105              	.LFE65:
 106              		.size	SDCARD_SLOW, .-SDCARD_SLOW
 107              		.section	.text.chkres.part.0,"ax",%progbits
 108              		.align	2
 109              		.thumb
 110              		.thumb_func
 111              		.type	chkres.part.0, %function
 112              	chkres.part.0:
 113              	.LFB71:
  62:.\main.c      **** }
  63:.\main.c      **** 
  64:.\main.c      **** void chkres(char *func, FRESULT exp){
 114              		.loc 1 64 0
 115              		.cfi_startproc
 116              		@ args = 0, pretend = 0, frame = 128
 117              		@ frame_needed = 0, uses_anonymous_args = 0
 118              	.LVL4:
 119 0000 70B5     		push	{r4, r5, r6, lr}
 120              		.cfi_def_cfa_offset 16
 121              		.cfi_offset 4, -16
 122              		.cfi_offset 5, -12
 123              		.cfi_offset 6, -8
 124              		.cfi_offset 14, -4
 125 0002 A0B0     		sub	sp, sp, #128
 126              		.cfi_def_cfa_offset 144
 127              		.loc 1 64 0
 128 0004 0246     		mov	r2, r0
 129 0006 0D46     		mov	r5, r1
 130              	.LBB140:
  65:.\main.c      **** 	if (exp!=FR_OK){
  66:.\main.c      **** 		dbgprint("%s ERR! res=", func);
 131              		.loc 1 66 0
 132 0008 6846     		mov	r0, sp
 133              	.LVL5:
 134 000a 9449     		ldr	r1, .L103
 135              	.LVL6:
 136 000c 6C46     		mov	r4, sp
 137 000e FFF7FEFF 		bl	sprintf
 138              	.LVL7:
 139              	.L8:
 140 0012 FFF7FEFF 		bl	USBUART_1_CDCIsReady
 141              	.LVL8:
 142 0016 0028     		cmp	r0, #0
 143 0018 FBD0     		beq	.L8
 144 001a 2046     		mov	r0, r4
 145 001c FFF7FEFF 		bl	USBUART_1_PutString
 146              	.LVL9:
 147              	.LBE140:
  67:.\main.c      **** 		switch(exp){
 148              		.loc 1 67 0
 149 0020 132D     		cmp	r5, #19
 150 0022 00F21081 		bhi	.L9
 151 0026 DFE815F0 		tbh	[pc, r5, lsl #1]
 152              	.L11:
 153 002a 0301     		.2byte	(.L10-.L11)/2
 154 002c F900     		.2byte	(.L12-.L11)/2
ARM GAS  C:\Users\honet\AppData\Local\Temp\cc6gsi1c.s 			page 5


 155 002e EC00     		.2byte	(.L13-.L11)/2
 156 0030 E200     		.2byte	(.L14-.L11)/2
 157 0032 D500     		.2byte	(.L15-.L11)/2
 158 0034 C800     		.2byte	(.L16-.L11)/2
 159 0036 BF00     		.2byte	(.L17-.L11)/2
 160 0038 B500     		.2byte	(.L18-.L11)/2
 161 003a AB00     		.2byte	(.L19-.L11)/2
 162 003c A000     		.2byte	(.L20-.L11)/2
 163 003e 9200     		.2byte	(.L21-.L11)/2
 164 0040 8700     		.2byte	(.L22-.L11)/2
 165 0042 7A00     		.2byte	(.L23-.L11)/2
 166 0044 6F00     		.2byte	(.L24-.L11)/2
 167 0046 6600     		.2byte	(.L25-.L11)/2
 168 0048 5900     		.2byte	(.L26-.L11)/2
 169 004a 4F00     		.2byte	(.L27-.L11)/2
 170 004c 4100     		.2byte	(.L28-.L11)/2
 171 004e 3000     		.2byte	(.L29-.L11)/2
 172 0050 1400     		.2byte	(.L30-.L11)/2
 173              		.p2align 1
 174              	.L30:
 175              	.LBB141:
  68:.\main.c      **** 		case FR_OK: dbgprint("FR_OK"); break;
  69:.\main.c      **** 		case FR_DISK_ERR: dbgprint("FR_DISK_ERR"); break;
  70:.\main.c      **** 		case FR_INT_ERR: dbgprint("FR_INT_ERR"); break;
  71:.\main.c      **** 		case FR_NOT_READY: dbgprint("FR_NOT_READY"); break;
  72:.\main.c      **** 		case FR_NO_FILE: dbgprint("FR_NO_FILE"); break;
  73:.\main.c      **** 		case FR_NO_PATH: dbgprint("FR_NO_PATH"); break;
  74:.\main.c      **** 		case FR_INVALID_NAME: dbgprint("FR_INVALID_NAME"); break;
  75:.\main.c      **** 		case FR_DENIED: dbgprint("FR_DENIED"); break;
  76:.\main.c      **** 		case FR_EXIST: dbgprint("FR_EXIST"); break;
  77:.\main.c      **** 		case FR_INVALID_OBJECT: dbgprint("FR_INVALID_OBJECT"); break;
  78:.\main.c      **** 		case FR_WRITE_PROTECTED: dbgprint("FR_WRITE_PROTECTED"); break;
  79:.\main.c      **** 		case FR_INVALID_DRIVE: dbgprint("FR_INVALID_DRIVE"); break;
  80:.\main.c      **** 		case FR_NOT_ENABLED: dbgprint("FR_NOT_ENABLED"); break;
  81:.\main.c      **** 		case FR_NO_FILESYSTEM: dbgprint("FR_NO_FILESYSTEM"); break;
  82:.\main.c      **** 		case FR_MKFS_ABORTED: dbgprint("FR_MKFS_ABORTED"); break;
  83:.\main.c      **** 		case FR_TIMEOUT: dbgprint("FR_TIMEOUT"); break;
  84:.\main.c      **** 		case FR_LOCKED: dbgprint("FR_LOCKED"); break;
  85:.\main.c      **** 		case FR_NOT_ENOUGH_CORE: dbgprint("FR_NOT_ENOUGH_CORE"); break;
  86:.\main.c      **** 		case FR_TOO_MANY_OPEN_FILES: dbgprint("FR_TOO_MANY_OPEN_FILES"); break;
  87:.\main.c      **** 		case FR_INVALID_PARAMETER: dbgprint("FR_INVALID_PARAMETER"); break;
 176              		.loc 1 87 0
 177 0052 2546     		mov	r5, r4
 178 0054 824E     		ldr	r6, .L103+4
 179 0056 0FCE     		ldmia	r6!, {r0, r1, r2, r3}
 180 0058 0FC5     		stmia	r5!, {r0, r1, r2, r3}
 181 005a 96E80300 		ldmia	r6, {r0, r1}
 182 005e 45F8040B 		str	r0, [r5], #4
 183 0062 2970     		strb	r1, [r5]
 184              	.L51:
 185 0064 FFF7FEFF 		bl	USBUART_1_CDCIsReady
 186              	.LVL10:
 187 0068 0028     		cmp	r0, #0
 188 006a FBD0     		beq	.L51
 189              	.L101:
 190              	.LBE141:
 191              	.LBB142:
ARM GAS  C:\Users\honet\AppData\Local\Temp\cc6gsi1c.s 			page 6


  88:.\main.c      **** 		default: dbgprint("%d", exp);
 192              		.loc 1 88 0
 193 006c 2046     		mov	r0, r4
 194 006e FFF7FEFF 		bl	USBUART_1_PutString
 195              	.LVL11:
 196              	.LBE142:
 197              	.LBB143:
  89:.\main.c      **** 		}
  90:.\main.c      **** 		dbgprint("\n");
 198              		.loc 1 90 0
 199 0072 0A23     		movs	r3, #10
 200 0074 ADF80030 		strh	r3, [sp]	@ movhi
 201              	.L53:
 202 0078 FFF7FEFF 		bl	USBUART_1_CDCIsReady
 203              	.LVL12:
 204 007c 0028     		cmp	r0, #0
 205 007e FBD0     		beq	.L53
 206 0080 2046     		mov	r0, r4
 207 0082 FFF7FEFF 		bl	USBUART_1_PutString
 208              	.LVL13:
 209              	.LBE143:
  91:.\main.c      **** 	}
  92:.\main.c      **** }
 210              		.loc 1 92 0
 211 0086 20B0     		add	sp, sp, #128
 212              		.cfi_remember_state
 213              		.cfi_def_cfa_offset 16
 214              		@ sp needed
 215 0088 70BD     		pop	{r4, r5, r6, pc}
 216              	.L29:
 217              		.cfi_restore_state
 218              	.LBB144:
  86:.\main.c      **** 		case FR_INVALID_PARAMETER: dbgprint("FR_INVALID_PARAMETER"); break;
 219              		.loc 1 86 0
 220 008a 2546     		mov	r5, r4
 221 008c 754E     		ldr	r6, .L103+8
 222 008e 0FCE     		ldmia	r6!, {r0, r1, r2, r3}
 223 0090 0FC5     		stmia	r5!, {r0, r1, r2, r3}
 224 0092 96E80300 		ldmia	r6, {r0, r1}
 225 0096 45F8040B 		str	r0, [r5], #4
 226 009a 25F8021B 		strh	r1, [r5], #2	@ movhi
 227 009e 090C     		lsrs	r1, r1, #16
 228 00a0 2970     		strb	r1, [r5]
 229              	.L50:
 230 00a2 FFF7FEFF 		bl	USBUART_1_CDCIsReady
 231              	.LVL14:
 232 00a6 0028     		cmp	r0, #0
 233 00a8 FBD0     		beq	.L50
 234 00aa DFE7     		b	.L101
 235              	.L28:
 236              	.LBE144:
 237              	.LBB145:
  85:.\main.c      **** 		case FR_TOO_MANY_OPEN_FILES: dbgprint("FR_TOO_MANY_OPEN_FILES"); break;
 238              		.loc 1 85 0
 239 00ac 2546     		mov	r5, r4
 240 00ae 6E4E     		ldr	r6, .L103+12
 241 00b0 0FCE     		ldmia	r6!, {r0, r1, r2, r3}
ARM GAS  C:\Users\honet\AppData\Local\Temp\cc6gsi1c.s 			page 7


 242 00b2 0FC5     		stmia	r5!, {r0, r1, r2, r3}
 243 00b4 3368     		ldr	r3, [r6]
 244 00b6 25F8023B 		strh	r3, [r5], #2	@ movhi
 245 00ba 1B0C     		lsrs	r3, r3, #16
 246 00bc 2B70     		strb	r3, [r5]
 247              	.L49:
 248 00be FFF7FEFF 		bl	USBUART_1_CDCIsReady
 249              	.LVL15:
 250 00c2 0028     		cmp	r0, #0
 251 00c4 FBD0     		beq	.L49
 252 00c6 D1E7     		b	.L101
 253              	.L27:
 254              	.LBE145:
 255              	.LBB146:
  84:.\main.c      **** 		case FR_NOT_ENOUGH_CORE: dbgprint("FR_NOT_ENOUGH_CORE"); break;
 256              		.loc 1 84 0
 257 00c8 2346     		mov	r3, r4
 258 00ca 684A     		ldr	r2, .L103+16
 259 00cc 07CA     		ldmia	r2, {r0, r1, r2}
 260 00ce 03C3     		stmia	r3!, {r0, r1}
 261 00d0 1A80     		strh	r2, [r3]	@ movhi
 262              	.L48:
 263 00d2 FFF7FEFF 		bl	USBUART_1_CDCIsReady
 264              	.LVL16:
 265 00d6 0028     		cmp	r0, #0
 266 00d8 FBD0     		beq	.L48
 267 00da C7E7     		b	.L101
 268              	.L26:
 269              	.LBE146:
 270              	.LBB147:
  83:.\main.c      **** 		case FR_LOCKED: dbgprint("FR_LOCKED"); break;
 271              		.loc 1 83 0
 272 00dc 2346     		mov	r3, r4
 273 00de 644A     		ldr	r2, .L103+20
 274 00e0 07CA     		ldmia	r2, {r0, r1, r2}
 275 00e2 03C3     		stmia	r3!, {r0, r1}
 276 00e4 110C     		lsrs	r1, r2, #16
 277 00e6 23F8022B 		strh	r2, [r3], #2	@ movhi
 278 00ea 1970     		strb	r1, [r3]
 279              	.L47:
 280 00ec FFF7FEFF 		bl	USBUART_1_CDCIsReady
 281              	.LVL17:
 282 00f0 0028     		cmp	r0, #0
 283 00f2 FBD0     		beq	.L47
 284 00f4 BAE7     		b	.L101
 285              	.L25:
 286              	.LBE147:
 287              	.LBB148:
  82:.\main.c      **** 		case FR_TIMEOUT: dbgprint("FR_TIMEOUT"); break;
 288              		.loc 1 82 0
 289 00f6 5F4B     		ldr	r3, .L103+24
 290 00f8 0FCB     		ldmia	r3, {r0, r1, r2, r3}
 291 00fa 84E80F00 		stmia	r4, {r0, r1, r2, r3}
 292              	.L46:
 293 00fe FFF7FEFF 		bl	USBUART_1_CDCIsReady
 294              	.LVL18:
 295 0102 0028     		cmp	r0, #0
ARM GAS  C:\Users\honet\AppData\Local\Temp\cc6gsi1c.s 			page 8


 296 0104 FBD0     		beq	.L46
 297 0106 B1E7     		b	.L101
 298              	.L24:
 299              	.LBE148:
 300              	.LBB149:
  81:.\main.c      **** 		case FR_MKFS_ABORTED: dbgprint("FR_MKFS_ABORTED"); break;
 301              		.loc 1 81 0
 302 0108 2546     		mov	r5, r4
 303 010a 5B4E     		ldr	r6, .L103+28
 304 010c 0FCE     		ldmia	r6!, {r0, r1, r2, r3}
 305 010e 0FC5     		stmia	r5!, {r0, r1, r2, r3}
 306 0110 3368     		ldr	r3, [r6]
 307 0112 2B70     		strb	r3, [r5]
 308              	.L45:
 309 0114 FFF7FEFF 		bl	USBUART_1_CDCIsReady
 310              	.LVL19:
 311 0118 0028     		cmp	r0, #0
 312 011a FBD0     		beq	.L45
 313 011c A6E7     		b	.L101
 314              	.L23:
 315              	.LBE149:
 316              	.LBB150:
  80:.\main.c      **** 		case FR_NO_FILESYSTEM: dbgprint("FR_NO_FILESYSTEM"); break;
 317              		.loc 1 80 0
 318 011e 2546     		mov	r5, r4
 319 0120 564B     		ldr	r3, .L103+32
 320 0122 0FCB     		ldmia	r3, {r0, r1, r2, r3}
 321 0124 07C5     		stmia	r5!, {r0, r1, r2}
 322 0126 1A0C     		lsrs	r2, r3, #16
 323 0128 25F8023B 		strh	r3, [r5], #2	@ movhi
 324 012c 2A70     		strb	r2, [r5]
 325              	.L44:
 326 012e FFF7FEFF 		bl	USBUART_1_CDCIsReady
 327              	.LVL20:
 328 0132 0028     		cmp	r0, #0
 329 0134 FBD0     		beq	.L44
 330 0136 99E7     		b	.L101
 331              	.L22:
 332              	.LBE150:
 333              	.LBB151:
  79:.\main.c      **** 		case FR_NOT_ENABLED: dbgprint("FR_NOT_ENABLED"); break;
 334              		.loc 1 79 0
 335 0138 2546     		mov	r5, r4
 336 013a 514E     		ldr	r6, .L103+36
 337 013c 0FCE     		ldmia	r6!, {r0, r1, r2, r3}
 338 013e 0FC5     		stmia	r5!, {r0, r1, r2, r3}
 339 0140 3368     		ldr	r3, [r6]
 340 0142 2B70     		strb	r3, [r5]
 341              	.L43:
 342 0144 FFF7FEFF 		bl	USBUART_1_CDCIsReady
 343              	.LVL21:
 344 0148 0028     		cmp	r0, #0
 345 014a FBD0     		beq	.L43
 346 014c 8EE7     		b	.L101
 347              	.L21:
 348              	.LBE151:
 349              	.LBB152:
ARM GAS  C:\Users\honet\AppData\Local\Temp\cc6gsi1c.s 			page 9


  78:.\main.c      **** 		case FR_INVALID_DRIVE: dbgprint("FR_INVALID_DRIVE"); break;
 350              		.loc 1 78 0
 351 014e 2546     		mov	r5, r4
 352 0150 4C4E     		ldr	r6, .L103+40
 353 0152 0FCE     		ldmia	r6!, {r0, r1, r2, r3}
 354 0154 0FC5     		stmia	r5!, {r0, r1, r2, r3}
 355 0156 3368     		ldr	r3, [r6]
 356 0158 25F8023B 		strh	r3, [r5], #2	@ movhi
 357 015c 1B0C     		lsrs	r3, r3, #16
 358 015e 2B70     		strb	r3, [r5]
 359              	.L42:
 360 0160 FFF7FEFF 		bl	USBUART_1_CDCIsReady
 361              	.LVL22:
 362 0164 0028     		cmp	r0, #0
 363 0166 FBD0     		beq	.L42
 364 0168 80E7     		b	.L101
 365              	.L20:
 366              	.LBE152:
 367              	.LBB153:
  77:.\main.c      **** 		case FR_WRITE_PROTECTED: dbgprint("FR_WRITE_PROTECTED"); break;
 368              		.loc 1 77 0
 369 016a 2546     		mov	r5, r4
 370 016c 464E     		ldr	r6, .L103+44
 371 016e 0FCE     		ldmia	r6!, {r0, r1, r2, r3}
 372 0170 0FC5     		stmia	r5!, {r0, r1, r2, r3}
 373 0172 3368     		ldr	r3, [r6]
 374 0174 2B80     		strh	r3, [r5]	@ movhi
 375              	.L41:
 376 0176 FFF7FEFF 		bl	USBUART_1_CDCIsReady
 377              	.LVL23:
 378 017a 0028     		cmp	r0, #0
 379 017c FBD0     		beq	.L41
 380 017e 75E7     		b	.L101
 381              	.L19:
 382              	.LBE153:
 383              	.LBB154:
  76:.\main.c      **** 		case FR_INVALID_OBJECT: dbgprint("FR_INVALID_OBJECT"); break;
 384              		.loc 1 76 0
 385 0180 2346     		mov	r3, r4
 386 0182 424A     		ldr	r2, .L103+48
 387 0184 07CA     		ldmia	r2, {r0, r1, r2}
 388 0186 03C3     		stmia	r3!, {r0, r1}
 389 0188 1A70     		strb	r2, [r3]
 390              	.L40:
 391 018a FFF7FEFF 		bl	USBUART_1_CDCIsReady
 392              	.LVL24:
 393 018e 0028     		cmp	r0, #0
 394 0190 FBD0     		beq	.L40
 395 0192 6BE7     		b	.L101
 396              	.L18:
 397              	.LBE154:
 398              	.LBB155:
  75:.\main.c      **** 		case FR_EXIST: dbgprint("FR_EXIST"); break;
 399              		.loc 1 75 0
 400 0194 2346     		mov	r3, r4
 401 0196 3E4A     		ldr	r2, .L103+52
 402 0198 07CA     		ldmia	r2, {r0, r1, r2}
ARM GAS  C:\Users\honet\AppData\Local\Temp\cc6gsi1c.s 			page 10


 403 019a 03C3     		stmia	r3!, {r0, r1}
 404 019c 1A80     		strh	r2, [r3]	@ movhi
 405              	.L39:
 406 019e FFF7FEFF 		bl	USBUART_1_CDCIsReady
 407              	.LVL25:
 408 01a2 0028     		cmp	r0, #0
 409 01a4 FBD0     		beq	.L39
 410 01a6 61E7     		b	.L101
 411              	.L17:
 412              	.LBE155:
 413              	.LBB156:
  74:.\main.c      **** 		case FR_DENIED: dbgprint("FR_DENIED"); break;
 414              		.loc 1 74 0
 415 01a8 3A4B     		ldr	r3, .L103+56
 416 01aa 0FCB     		ldmia	r3, {r0, r1, r2, r3}
 417 01ac 84E80F00 		stmia	r4, {r0, r1, r2, r3}
 418              	.L38:
 419 01b0 FFF7FEFF 		bl	USBUART_1_CDCIsReady
 420              	.LVL26:
 421 01b4 0028     		cmp	r0, #0
 422 01b6 FBD0     		beq	.L38
 423 01b8 58E7     		b	.L101
 424              	.L16:
 425              	.LBE156:
 426              	.LBB157:
  73:.\main.c      **** 		case FR_INVALID_NAME: dbgprint("FR_INVALID_NAME"); break;
 427              		.loc 1 73 0
 428 01ba 2346     		mov	r3, r4
 429 01bc 364A     		ldr	r2, .L103+60
 430 01be 07CA     		ldmia	r2, {r0, r1, r2}
 431 01c0 03C3     		stmia	r3!, {r0, r1}
 432 01c2 110C     		lsrs	r1, r2, #16
 433 01c4 23F8022B 		strh	r2, [r3], #2	@ movhi
 434 01c8 1970     		strb	r1, [r3]
 435              	.L37:
 436 01ca FFF7FEFF 		bl	USBUART_1_CDCIsReady
 437              	.LVL27:
 438 01ce 0028     		cmp	r0, #0
 439 01d0 FBD0     		beq	.L37
 440 01d2 4BE7     		b	.L101
 441              	.L15:
 442              	.LBE157:
 443              	.LBB158:
  72:.\main.c      **** 		case FR_NO_PATH: dbgprint("FR_NO_PATH"); break;
 444              		.loc 1 72 0
 445 01d4 2346     		mov	r3, r4
 446 01d6 314A     		ldr	r2, .L103+64
 447 01d8 07CA     		ldmia	r2, {r0, r1, r2}
 448 01da 03C3     		stmia	r3!, {r0, r1}
 449 01dc 110C     		lsrs	r1, r2, #16
 450 01de 23F8022B 		strh	r2, [r3], #2	@ movhi
 451 01e2 1970     		strb	r1, [r3]
 452              	.L36:
 453 01e4 FFF7FEFF 		bl	USBUART_1_CDCIsReady
 454              	.LVL28:
 455 01e8 0028     		cmp	r0, #0
 456 01ea FBD0     		beq	.L36
ARM GAS  C:\Users\honet\AppData\Local\Temp\cc6gsi1c.s 			page 11


 457 01ec 3EE7     		b	.L101
 458              	.L14:
 459              	.LBE158:
 460              	.LBB159:
  71:.\main.c      **** 		case FR_NO_FILE: dbgprint("FR_NO_FILE"); break;
 461              		.loc 1 71 0
 462 01ee 2546     		mov	r5, r4
 463 01f0 2B4B     		ldr	r3, .L103+68
 464 01f2 0FCB     		ldmia	r3, {r0, r1, r2, r3}
 465 01f4 07C5     		stmia	r5!, {r0, r1, r2}
 466 01f6 2B70     		strb	r3, [r5]
 467              	.L35:
 468 01f8 FFF7FEFF 		bl	USBUART_1_CDCIsReady
 469              	.LVL29:
 470 01fc 0028     		cmp	r0, #0
 471 01fe FBD0     		beq	.L35
 472 0200 34E7     		b	.L101
 473              	.L13:
 474              	.LBE159:
 475              	.LBB160:
  70:.\main.c      **** 		case FR_NOT_READY: dbgprint("FR_NOT_READY"); break;
 476              		.loc 1 70 0
 477 0202 2346     		mov	r3, r4
 478 0204 274A     		ldr	r2, .L103+72
 479 0206 07CA     		ldmia	r2, {r0, r1, r2}
 480 0208 03C3     		stmia	r3!, {r0, r1}
 481 020a 110C     		lsrs	r1, r2, #16
 482 020c 23F8022B 		strh	r2, [r3], #2	@ movhi
 483 0210 1970     		strb	r1, [r3]
 484              	.L34:
 485 0212 FFF7FEFF 		bl	USBUART_1_CDCIsReady
 486              	.LVL30:
 487 0216 0028     		cmp	r0, #0
 488 0218 FBD0     		beq	.L34
 489 021a 27E7     		b	.L101
 490              	.L12:
 491              	.LBE160:
 492              	.LBB161:
  69:.\main.c      **** 		case FR_INT_ERR: dbgprint("FR_INT_ERR"); break;
 493              		.loc 1 69 0
 494 021c 224B     		ldr	r3, .L103+76
 495 021e 93E80700 		ldmia	r3, {r0, r1, r2}
 496 0222 84E80700 		stmia	r4, {r0, r1, r2}
 497              	.L33:
 498 0226 FFF7FEFF 		bl	USBUART_1_CDCIsReady
 499              	.LVL31:
 500 022a 0028     		cmp	r0, #0
 501 022c FBD0     		beq	.L33
 502 022e 1DE7     		b	.L101
 503              	.L10:
 504              	.LBE161:
 505              	.LBB162:
  68:.\main.c      **** 		case FR_DISK_ERR: dbgprint("FR_DISK_ERR"); break;
 506              		.loc 1 68 0
 507 0230 1E4B     		ldr	r3, .L103+80
 508 0232 93E80300 		ldmia	r3, {r0, r1}
 509 0236 0090     		str	r0, [sp]
ARM GAS  C:\Users\honet\AppData\Local\Temp\cc6gsi1c.s 			page 12


 510 0238 ADF80410 		strh	r1, [sp, #4]	@ movhi
 511              	.L31:
 512 023c FFF7FEFF 		bl	USBUART_1_CDCIsReady
 513              	.LVL32:
 514 0240 0028     		cmp	r0, #0
 515 0242 FBD0     		beq	.L31
 516 0244 12E7     		b	.L101
 517              	.L9:
 518              	.LBE162:
 519              	.LBB163:
  88:.\main.c      **** 		}
 520              		.loc 1 88 0
 521 0246 2A46     		mov	r2, r5
 522 0248 2046     		mov	r0, r4
 523 024a 1949     		ldr	r1, .L103+84
 524 024c FFF7FEFF 		bl	sprintf
 525              	.LVL33:
 526              	.L52:
 527 0250 FFF7FEFF 		bl	USBUART_1_CDCIsReady
 528              	.LVL34:
 529 0254 0028     		cmp	r0, #0
 530 0256 FBD0     		beq	.L52
 531 0258 08E7     		b	.L101
 532              	.L104:
 533 025a 00BF     		.align	2
 534              	.L103:
 535 025c 00000000 		.word	.LC0
 536 0260 34010000 		.word	.LC20
 537 0264 1C010000 		.word	.LC19
 538 0268 08010000 		.word	.LC18
 539 026c FC000000 		.word	.LC17
 540 0270 F0000000 		.word	.LC16
 541 0274 E0000000 		.word	.LC15
 542 0278 CC000000 		.word	.LC14
 543 027c BC000000 		.word	.LC13
 544 0280 A8000000 		.word	.LC12
 545 0284 94000000 		.word	.LC11
 546 0288 80000000 		.word	.LC10
 547 028c 74000000 		.word	.LC9
 548 0290 68000000 		.word	.LC8
 549 0294 58000000 		.word	.LC7
 550 0298 4C000000 		.word	.LC6
 551 029c 40000000 		.word	.LC5
 552 02a0 30000000 		.word	.LC4
 553 02a4 24000000 		.word	.LC3
 554 02a8 18000000 		.word	.LC2
 555 02ac 10000000 		.word	.LC1
 556 02b0 4C010000 		.word	.LC21
 557              	.LBE163:
 558              		.cfi_endproc
 559              	.LFE71:
 560              		.size	chkres.part.0, .-chkres.part.0
 561              		.section	.text.chkres,"ax",%progbits
 562              		.align	2
 563              		.global	chkres
 564              		.thumb
 565              		.thumb_func
ARM GAS  C:\Users\honet\AppData\Local\Temp\cc6gsi1c.s 			page 13


 566              		.type	chkres, %function
 567              	chkres:
 568              	.LFB67:
  64:.\main.c      **** 	if (exp!=FR_OK){
 569              		.loc 1 64 0
 570              		.cfi_startproc
 571              		@ args = 0, pretend = 0, frame = 0
 572              		@ frame_needed = 0, uses_anonymous_args = 0
 573              		@ link register save eliminated.
 574              	.LVL35:
  65:.\main.c      **** 		dbgprint("%s ERR! res=", func);
 575              		.loc 1 65 0
 576 0000 01B9     		cbnz	r1, .L107
 577 0002 7047     		bx	lr
 578              	.L107:
 579 0004 FFF7FEBF 		b	chkres.part.0
 580              	.LVL36:
 581              		.cfi_endproc
 582              	.LFE67:
 583              		.size	chkres, .-chkres
 584              		.global	__aeabi_i2d
 585              		.global	__aeabi_dmul
 586              		.global	__aeabi_dcmpeq
 587              		.section	.text.sdcheck,"ax",%progbits
 588              		.align	2
 589              		.global	sdcheck
 590              		.thumb
 591              		.thumb_func
 592              		.type	sdcheck, %function
 593              	sdcheck:
 594              	.LFB68:
  93:.\main.c      **** 
  94:.\main.c      **** 
  95:.\main.c      **** 
  96:.\main.c      **** void sdcheck()
  97:.\main.c      **** {
 595              		.loc 1 97 0
 596              		.cfi_startproc
 597              		@ args = 0, pretend = 0, frame = 1248
 598              		@ frame_needed = 0, uses_anonymous_args = 0
 599              	.LVL37:
 600 0000 2DE9F04F 		push	{r4, r5, r6, r7, r8, r9, r10, fp, lr}
 601              		.cfi_def_cfa_offset 36
 602              		.cfi_offset 4, -36
 603              		.cfi_offset 5, -32
 604              		.cfi_offset 6, -28
 605              		.cfi_offset 7, -24
 606              		.cfi_offset 8, -20
 607              		.cfi_offset 9, -16
 608              		.cfi_offset 10, -12
 609              		.cfi_offset 11, -8
 610              		.cfi_offset 14, -4
 611              	.LBB164:
  98:.\main.c      **** 	uint32_t nvals = BUFFER_SIZE/sizeof(double);
  99:.\main.c      **** 	double *vals = (double*)&buffer[0];
 100:.\main.c      ****     
 101:.\main.c      **** 	FRESULT res;
ARM GAS  C:\Users\honet\AppData\Local\Temp\cc6gsi1c.s 			page 14


 102:.\main.c      **** 	UINT BytesWritten, BytesRead;
 103:.\main.c      **** 	
 104:.\main.c      **** 	FATFS FileSys;          //this will be our mounted file system
 105:.\main.c      **** 
 106:.\main.c      **** 	dbgprint("Try to mount...\n");
 612              		.loc 1 106 0
 613 0004 354D     		ldr	r5, .L382
 614              	.LBE164:
  97:.\main.c      **** 	uint32_t nvals = BUFFER_SIZE/sizeof(double);
 615              		.loc 1 97 0
 616 0006 ADF2E44D 		subw	sp, sp, #1252
 617              		.cfi_def_cfa_offset 1288
 618              	.LBB165:
 619              		.loc 1 106 0
 620 000a ACAC     		add	r4, sp, #688
 621 000c 0FCD     		ldmia	r5!, {r0, r1, r2, r3}
 622 000e 0FC4     		stmia	r4!, {r0, r1, r2, r3}
 623 0010 2B68     		ldr	r3, [r5]
 624 0012 2370     		strb	r3, [r4]
 625              	.L109:
 626              		.loc 1 106 0 is_stmt 0 discriminator 2
 627 0014 FFF7FEFF 		bl	USBUART_1_CDCIsReady
 628              	.LVL38:
 629 0018 0028     		cmp	r0, #0
 630 001a FBD0     		beq	.L109
 631              		.loc 1 106 0 discriminator 3
 632 001c ACA8     		add	r0, sp, #688
 633 001e FFF7FEFF 		bl	USBUART_1_PutString
 634              	.LVL39:
 635              	.LBE165:
 107:.\main.c      **** 	DSTATUS dret = disk_initialize(0);     //initialise FatFS
 636              		.loc 1 107 0 is_stmt 1 discriminator 3
 637 0022 0020     		movs	r0, #0
 638 0024 FFF7FEFF 		bl	disk_initialize
 639              	.LVL40:
 640 0028 0446     		mov	r4, r0
 641              	.LVL41:
 642              	.LBB166:
 108:.\main.c      **** 	dbgprint("disk_initialize ret=%d\n", dret);
 643              		.loc 1 108 0 discriminator 3
 644 002a 2D49     		ldr	r1, .L382+4
 645 002c ACA8     		add	r0, sp, #688
 646 002e 2246     		mov	r2, r4
 647 0030 FFF7FEFF 		bl	sprintf
 648              	.LVL42:
 649              	.L110:
 650              		.loc 1 108 0 is_stmt 0 discriminator 2
 651 0034 FFF7FEFF 		bl	USBUART_1_CDCIsReady
 652              	.LVL43:
 653 0038 0028     		cmp	r0, #0
 654 003a FBD0     		beq	.L110
 655              		.loc 1 108 0 discriminator 3
 656 003c ACA8     		add	r0, sp, #688
 657 003e FFF7FEFF 		bl	USBUART_1_PutString
 658              	.LVL44:
 659              	.LBE166:
 109:.\main.c      **** 	if(dret) goto err_exit;
ARM GAS  C:\Users\honet\AppData\Local\Temp\cc6gsi1c.s 			page 15


 660              		.loc 1 109 0 is_stmt 1 discriminator 3
 661 0042 94B1     		cbz	r4, .L352
 662              	.LVL45:
 663              	.L347:
 664 0044 02AE     		add	r6, sp, #8
 665              	.L112:
 110:.\main.c      **** 
 111:.\main.c      **** 	//and mount. Note: if/else and case statements below allow identification of status.
 112:.\main.c      **** 	//in this example, I just assume everything went ok, and have left the below for reference.
 113:.\main.c      **** 	FRESULT nRes;
 114:.\main.c      **** 	if ((nRes = f_mount(&FileSys, "/", 1)) != FR_OK) { //Fail to mount...
 115:.\main.c      **** 		dbgprint("SD-CARD mount ERROR!! nRes=");
 116:.\main.c      **** 		switch(nRes) {    //reasons...
 117:.\main.c      **** 		case FR_INVALID_DRIVE:	dbgprint("FR_INVALID_DRIVE\n"); break;
 118:.\main.c      **** 		case FR_DISK_ERR:		dbgprint("FR_DISK_ERR\n"); break;
 119:.\main.c      **** 		case FR_NOT_READY:		dbgprint("FR_NOT_READY\n"); break;
 120:.\main.c      **** 		case FR_NO_FILESYSTEM:	dbgprint("FR_NO_FILESYSTEM\n"); break;
 121:.\main.c      **** 		default: break;
 122:.\main.c      **** 		}
 123:.\main.c      **** 		goto err_exit;
 124:.\main.c      **** 	} else {
 125:.\main.c      **** 		//Mounted
 126:.\main.c      **** 		dbgprint("SD-CARD mounted. FSTYPE=");
 127:.\main.c      **** 		switch(FileSys.fs_type) { //In case filesys type is of interest
 128:.\main.c      **** 		case FS_FAT12:	dbgprint("FAT12\n"); break;
 129:.\main.c      **** 		case FS_FAT16:	dbgprint("FAT16\n"); break;
 130:.\main.c      **** 		case FS_FAT32:	dbgprint("FAT32\n"); break;
 131:.\main.c      **** 		default:		dbgprint("UNKNOWN\n"); break;
 132:.\main.c      **** 		}
 133:.\main.c      **** 	}
 134:.\main.c      **** 	
 135:.\main.c      **** 	/// --------------------------------------------------------------------------
 136:.\main.c      **** 	//Now for the benchmarking step...
 137:.\main.c      **** 	dbgprint(">>>>Testing PIO mode...\n");
 138:.\main.c      ****     CyDelay(500);
 139:.\main.c      **** 	SDSPI_SetDMAMode(0);
 140:.\main.c      **** 
 141:.\main.c      **** 	//Open a file and write "Testing Output" to it
 142:.\main.c      **** 	res = f_open(&File, "//test.txt", FA_CREATE_ALWAYS | FA_WRITE);
 143:.\main.c      **** 	chkres("f_open", res);
 144:.\main.c      **** 	if (res!=FR_OK) goto err_exit;
 145:.\main.c      **** 
 146:.\main.c      **** 	dumpmsg("Testing Speed\n");
 147:.\main.c      **** 
 148:.\main.c      **** 	//generate dataset...
 149:.\main.c      **** 	for(int i = 0; i < nvals; i++) {
 150:.\main.c      **** 		vals[i] = (double)i*i;
 151:.\main.c      **** 	}
 152:.\main.c      **** 
 153:.\main.c      **** 
 154:.\main.c      **** 	//First, we'll write the dataset to a file in the root direcory, time the operation, then
 155:.\main.c      **** 	//output results to test.txt in the SD card root.
 156:.\main.c      **** 
 157:.\main.c      **** 	//Indicate in test.txt what we're doing
 158:.\main.c      **** 	dumpmsg("Writing %d bytes to file, non-DMA\n", BUFFER_SIZE);
 159:.\main.c      **** 
 160:.\main.c      **** 	//perform operation
ARM GAS  C:\Users\honet\AppData\Local\Temp\cc6gsi1c.s 			page 16


 161:.\main.c      **** 	unsigned long nCurrentMillis = nmillis; //get current millisecond count
 162:.\main.c      **** 	FIL BinFile;
 163:.\main.c      **** 	res = f_open(&BinFile, "//TESTPIO.bin", FA_CREATE_ALWAYS | FA_WRITE);
 164:.\main.c      **** 	chkres("f_open", res);
 165:.\main.c      **** 	if (res==FR_OK) {
 166:.\main.c      **** 		res = f_write(&BinFile, vals, BUFFER_SIZE, &BytesWritten);
 167:.\main.c      **** 		chkres("f_write", res);
 168:.\main.c      **** 		res = f_close(&BinFile);
 169:.\main.c      **** 		chkres("f_close", res);
 170:.\main.c      **** 	}
 171:.\main.c      **** 
 172:.\main.c      **** 	//indicate in test.txt how long it took
 173:.\main.c      **** 	unsigned long nTime = nmillis-nCurrentMillis;
 174:.\main.c      **** 	dumpmsg("Took %lu ms\n", nTime);
 175:.\main.c      **** 
 176:.\main.c      **** 	unsigned long kbps = BUFFER_SIZE*8 / nTime;
 177:.\main.c      **** 	dumpmsg( "Rate %lu kbps\n\n", kbps);
 178:.\main.c      **** 
 179:.\main.c      **** 	//Next, read file in
 180:.\main.c      **** 
 181:.\main.c      **** 	//Indicate in test.txt what we're doing
 182:.\main.c      **** 	dumpmsg("Reading %d bytes from file, non-DMA\n", BUFFER_SIZE);
 183:.\main.c      **** 
 184:.\main.c      **** 	memset(vals, 0x00, BUFFER_SIZE);
 185:.\main.c      **** 
 186:.\main.c      **** 	//perform operation
 187:.\main.c      **** 	nCurrentMillis = nmillis; //get current millisecond count
 188:.\main.c      **** 
 189:.\main.c      **** 	res = f_open(&BinFile, "//TESTPIO.bin", FA_OPEN_EXISTING | FA_READ);
 190:.\main.c      **** 	chkres("f_open", res);
 191:.\main.c      **** 	if (res==FR_OK){
 192:.\main.c      **** 		res = f_read(&BinFile, vals, BUFFER_SIZE, &BytesRead);
 193:.\main.c      **** 		chkres("f_read", res);
 194:.\main.c      **** 		res = f_close(&BinFile);
 195:.\main.c      **** 		chkres("f_close", res);
 196:.\main.c      **** 	}
 197:.\main.c      **** 
 198:.\main.c      **** 	//indicate in test.txt how long it took
 199:.\main.c      **** 	nTime = nmillis-nCurrentMillis;
 200:.\main.c      **** 	dumpmsg("Took %lu ms\nVerifying...", nTime);
 201:.\main.c      **** 
 202:.\main.c      **** 	unsigned char bVerifyFail = 0;
 203:.\main.c      **** 	for(int i = 0; i < 500; i++) {
 204:.\main.c      **** 		if(vals[(int)i] != i*i) bVerifyFail = 1;
 205:.\main.c      **** 	}
 206:.\main.c      **** 	
 207:.\main.c      **** 	if(bVerifyFail)
 208:.\main.c      **** 		dumpmsg("FAIL :O\n");
 209:.\main.c      **** 	else
 210:.\main.c      **** 		dumpmsg(" All Good! :D\n");
 211:.\main.c      **** 
 212:.\main.c      **** 	kbps = BUFFER_SIZE*8 / nTime;
 213:.\main.c      **** 	dumpmsg("Rate %lu kbps\n\n", kbps);
 214:.\main.c      **** 
 215:.\main.c      **** 	// ----------------------------------------------------------------------------
 216:.\main.c      **** 	dbgprint(">>>>Testing DMA mode...\n");
 217:.\main.c      **** 	//Now, enable DMA...
ARM GAS  C:\Users\honet\AppData\Local\Temp\cc6gsi1c.s 			page 17


 218:.\main.c      **** 	SDSPI_SetDMAMode(1);
 219:.\main.c      ****     
 220:.\main.c      **** for(int k=0; k<20; k++){
 221:.\main.c      **** 	//and repeat tests
 222:.\main.c      **** 	//Indicate in test.txt what we're doing
 223:.\main.c      **** 	dumpmsg( "Writing %d bytes to file, DMA\n", BUFFER_SIZE);
 224:.\main.c      **** 
 225:.\main.c      **** 	//perform operation
 226:.\main.c      **** 	nCurrentMillis = nmillis; //get current millisecond count
 227:.\main.c      **** 	res = f_open(&BinFile, "//TESTDMA.bin", FA_CREATE_ALWAYS | FA_WRITE);
 228:.\main.c      **** 	chkres("f_open", res);
 229:.\main.c      **** 	if (res==FR_OK){
 230:.\main.c      **** 		res = f_write(&BinFile, vals, BUFFER_SIZE, &BytesWritten);
 231:.\main.c      **** 		chkres("f_write", res);
 232:.\main.c      **** 		res = f_close(&BinFile);
 233:.\main.c      **** 		chkres("f_close", res);
 234:.\main.c      **** 	}
 235:.\main.c      **** 
 236:.\main.c      **** 	//indicate in test.txt how long it took
 237:.\main.c      **** 	nTime = nmillis-nCurrentMillis;
 238:.\main.c      **** 	dumpmsg("Took %lu ms\n", nTime);
 239:.\main.c      **** 
 240:.\main.c      **** 	kbps = BUFFER_SIZE*8 / nTime;
 241:.\main.c      **** 	dumpmsg("Rate %lu kbps\n\n", kbps);
 242:.\main.c      **** 
 243:.\main.c      **** 	//Next, read file in
 244:.\main.c      **** 
 245:.\main.c      **** 	//Indicate in test.txt what we're doing
 246:.\main.c      **** 	dumpmsg("Reading %d bytes from file, DMA\n", BUFFER_SIZE);
 247:.\main.c      **** 
 248:.\main.c      **** 	memset(vals, 0x00, BUFFER_SIZE);
 249:.\main.c      **** 
 250:.\main.c      **** 	//perform operation
 251:.\main.c      **** 	nCurrentMillis = nmillis; //get current millisecond count
 252:.\main.c      **** 
 253:.\main.c      **** 	res = f_open(&BinFile, "//TESTDMA.bin", FA_OPEN_EXISTING | FA_READ);
 254:.\main.c      **** 	chkres("f_open", res);
 255:.\main.c      **** 	if(res==FR_OK){
 256:.\main.c      **** 		res = f_read(&BinFile, vals, BUFFER_SIZE, &BytesRead);
 257:.\main.c      **** 		chkres("f_read", res);
 258:.\main.c      **** 		res = f_close(&BinFile);
 259:.\main.c      **** 		chkres("f_close", res);
 260:.\main.c      **** 	}
 261:.\main.c      **** 
 262:.\main.c      **** 	//indicate in test.txt how long it took
 263:.\main.c      **** 	nTime = nmillis-nCurrentMillis;
 264:.\main.c      **** 	dumpmsg("Took %lu ms\nVerifying...", nTime);
 265:.\main.c      **** 
 266:.\main.c      **** 	bVerifyFail = 0;
 267:.\main.c      **** 	for(int i = 0; i < 500; i++) {
 268:.\main.c      **** 		if(vals[i] != i*i) bVerifyFail = 1;
 269:.\main.c      **** 	}
 270:.\main.c      **** 	
 271:.\main.c      **** 	if(bVerifyFail)
 272:.\main.c      **** 		dumpmsg("FAIL :O\n");
 273:.\main.c      **** 	else
 274:.\main.c      **** 		dumpmsg(" All Good! :D\n");
ARM GAS  C:\Users\honet\AppData\Local\Temp\cc6gsi1c.s 			page 18


 275:.\main.c      **** 
 276:.\main.c      **** 	kbps = BUFFER_SIZE*8 / nTime;
 277:.\main.c      **** 	dumpmsg("Rate %lu kbps\n\n", kbps);
 278:.\main.c      **** 
 279:.\main.c      ****     CyDelay(1000);
 280:.\main.c      **** }
 281:.\main.c      **** 
 282:.\main.c      **** 	res = f_close(&File);
 283:.\main.c      **** 	chkres("f_close", res);
 284:.\main.c      **** 
 285:.\main.c      **** 
 286:.\main.c      **** err_exit:
 287:.\main.c      **** 	LEDControl_Write(0);
 666              		.loc 1 287 0
 667 0046 0020     		movs	r0, #0
 668 0048 FFF7FEFF 		bl	LEDControl_Write
 669              	.LVL46:
 670              	.LBB167:
 288:.\main.c      **** 	dbgprint("TEST FINISHED!\n");
 671              		.loc 1 288 0
 672 004c 254B     		ldr	r3, .L382+8
 673 004e 0FCB     		ldmia	r3, {r0, r1, r2, r3}
 674 0050 86E80F00 		stmia	r6, {r0, r1, r2, r3}
 675              	.L194:
 676              		.loc 1 288 0 is_stmt 0 discriminator 2
 677 0054 FFF7FEFF 		bl	USBUART_1_CDCIsReady
 678              	.LVL47:
 679 0058 0028     		cmp	r0, #0
 680 005a FBD0     		beq	.L194
 681              		.loc 1 288 0 discriminator 3
 682 005c 3046     		mov	r0, r6
 683 005e FFF7FEFF 		bl	USBUART_1_PutString
 684              	.LVL48:
 685              	.LBE167:
 289:.\main.c      **** }
 686              		.loc 1 289 0 is_stmt 1 discriminator 3
 687 0062 0DF2E44D 		addw	sp, sp, #1252
 688              		.cfi_remember_state
 689              		.cfi_def_cfa_offset 36
 690              		@ sp needed
 691 0066 BDE8F08F 		pop	{r4, r5, r6, r7, r8, r9, r10, fp, pc}
 692              	.LVL49:
 693              	.L352:
 694              		.cfi_restore_state
 114:.\main.c      **** 		dbgprint("SD-CARD mount ERROR!! nRes=");
 695              		.loc 1 114 0
 696 006a ACA8     		add	r0, sp, #688
 697 006c 1E49     		ldr	r1, .L382+12
 698 006e 0122     		movs	r2, #1
 699 0070 FFF7FEFF 		bl	f_mount
 700              	.LVL50:
 701              	.LBB168:
 115:.\main.c      **** 		switch(nRes) {    //reasons...
 702              		.loc 1 115 0
 703 0074 22AF     		add	r7, sp, #136
 704              	.LBE168:
 114:.\main.c      **** 		dbgprint("SD-CARD mount ERROR!! nRes=");
ARM GAS  C:\Users\honet\AppData\Local\Temp\cc6gsi1c.s 			page 19


 705              		.loc 1 114 0
 706 0076 0446     		mov	r4, r0
 707              	.LVL51:
 708 0078 0028     		cmp	r0, #0
 709 007a 39D0     		beq	.L113
 710              	.LBB169:
 115:.\main.c      **** 		switch(nRes) {    //reasons...
 711              		.loc 1 115 0
 712 007c 3D46     		mov	r5, r7
 713 007e 1B4E     		ldr	r6, .L382+16
 714 0080 0FCE     		ldmia	r6!, {r0, r1, r2, r3}
 715              	.LVL52:
 716 0082 0FC5     		stmia	r5!, {r0, r1, r2, r3}
 717 0084 96E80700 		ldmia	r6, {r0, r1, r2}
 718 0088 85E80700 		stmia	r5, {r0, r1, r2}
 719              	.L114:
 115:.\main.c      **** 		switch(nRes) {    //reasons...
 720              		.loc 1 115 0 is_stmt 0 discriminator 2
 721 008c FFF7FEFF 		bl	USBUART_1_CDCIsReady
 722              	.LVL53:
 723 0090 0028     		cmp	r0, #0
 724 0092 FBD0     		beq	.L114
 115:.\main.c      **** 		switch(nRes) {    //reasons...
 725              		.loc 1 115 0 discriminator 3
 726 0094 3846     		mov	r0, r7
 727              	.LBE169:
 116:.\main.c      **** 		case FR_INVALID_DRIVE:	dbgprint("FR_INVALID_DRIVE\n"); break;
 728              		.loc 1 116 0 is_stmt 1 discriminator 3
 729 0096 013C     		subs	r4, r4, #1
 730              	.LBB170:
 115:.\main.c      **** 		switch(nRes) {    //reasons...
 731              		.loc 1 115 0 discriminator 3
 732 0098 FFF7FEFF 		bl	USBUART_1_PutString
 733              	.LVL54:
 734              	.LBE170:
 116:.\main.c      **** 		case FR_INVALID_DRIVE:	dbgprint("FR_INVALID_DRIVE\n"); break;
 735              		.loc 1 116 0 discriminator 3
 736 009c 0C2C     		cmp	r4, #12
 737 009e D1D8     		bhi	.L347
 738 00a0 01A3     		adr	r3, .L116
 739 00a2 53F824F0 		ldr	pc, [r3, r4, lsl #2]
 740 00a6 00BF     		.p2align 2
 741              	.L116:
 742 00a8 05060000 		.word	.L115+1
 743 00ac 45000000 		.word	.L347+1
 744 00b0 2F060000 		.word	.L117+1
 745 00b4 45000000 		.word	.L347+1
 746 00b8 45000000 		.word	.L347+1
 747 00bc 45000000 		.word	.L347+1
 748 00c0 45000000 		.word	.L347+1
 749 00c4 45000000 		.word	.L347+1
 750 00c8 45000000 		.word	.L347+1
 751 00cc 45000000 		.word	.L347+1
 752 00d0 19060000 		.word	.L118+1
 753 00d4 45000000 		.word	.L347+1
 754 00d8 E7050000 		.word	.L119+1
 755              		.p2align 1
ARM GAS  C:\Users\honet\AppData\Local\Temp\cc6gsi1c.s 			page 20


 756              	.L383:
 757              		.align	2
 758              	.L382:
 759 00dc 50010000 		.word	.LC22
 760 00e0 64010000 		.word	.LC23
 761 00e4 A0030000 		.word	.LC54
 762 00e8 7C010000 		.word	.LC24
 763 00ec 80010000 		.word	.LC25
 764              	.LVL55:
 765              	.L113:
 766              	.LBB171:
 126:.\main.c      **** 		switch(FileSys.fs_type) { //In case filesys type is of interest
 767              		.loc 1 126 0
 768 00f0 3C46     		mov	r4, r7
 769 00f2 C74D     		ldr	r5, .L384
 770 00f4 0FCD     		ldmia	r5!, {r0, r1, r2, r3}
 771              	.LVL56:
 772 00f6 0FC4     		stmia	r4!, {r0, r1, r2, r3}
 773 00f8 95E80700 		ldmia	r5, {r0, r1, r2}
 774 00fc 03C4     		stmia	r4!, {r0, r1}
 775 00fe 2270     		strb	r2, [r4]
 776              	.L124:
 126:.\main.c      **** 		switch(FileSys.fs_type) { //In case filesys type is of interest
 777              		.loc 1 126 0 is_stmt 0 discriminator 2
 778 0100 FFF7FEFF 		bl	USBUART_1_CDCIsReady
 779              	.LVL57:
 780 0104 0028     		cmp	r0, #0
 781 0106 FBD0     		beq	.L124
 126:.\main.c      **** 		switch(FileSys.fs_type) { //In case filesys type is of interest
 782              		.loc 1 126 0 discriminator 3
 783 0108 3846     		mov	r0, r7
 784 010a FFF7FEFF 		bl	USBUART_1_PutString
 785              	.LVL58:
 786              	.LBE171:
 127:.\main.c      **** 		case FS_FAT12:	dbgprint("FAT12\n"); break;
 787              		.loc 1 127 0 is_stmt 1 discriminator 3
 788 010e 9DF8B032 		ldrb	r3, [sp, #688]	@ zero_extendqisi2
 789 0112 022B     		cmp	r3, #2
 790 0114 00F07883 		beq	.L126
 791 0118 032B     		cmp	r3, #3
 792 011a 00F06783 		beq	.L127
 793 011e 012B     		cmp	r3, #1
 794 0120 00F05683 		beq	.L353
 795              	.LBB172:
 131:.\main.c      **** 		}
 796              		.loc 1 131 0
 797 0124 3B46     		mov	r3, r7
 798 0126 BB4A     		ldr	r2, .L384+4
 799 0128 07CA     		ldmia	r2, {r0, r1, r2}
 800 012a 03C3     		stmia	r3!, {r0, r1}
 801 012c 1A70     		strb	r2, [r3]
 802              	.L133:
 131:.\main.c      **** 		}
 803              		.loc 1 131 0 is_stmt 0 discriminator 2
 804 012e FFF7FEFF 		bl	USBUART_1_CDCIsReady
 805              	.LVL59:
 806 0132 0028     		cmp	r0, #0
ARM GAS  C:\Users\honet\AppData\Local\Temp\cc6gsi1c.s 			page 21


 807 0134 FBD0     		beq	.L133
 808              	.L343:
 809              	.LBE172:
 810              	.LBB173:
 137:.\main.c      ****     CyDelay(500);
 811              		.loc 1 137 0 is_stmt 1 discriminator 3
 812 0136 3C46     		mov	r4, r7
 813 0138 B74D     		ldr	r5, .L384+8
 814              	.LBE173:
 815              	.LBB174:
 131:.\main.c      **** 		}
 816              		.loc 1 131 0 discriminator 3
 817 013a 3846     		mov	r0, r7
 818 013c FFF7FEFF 		bl	USBUART_1_PutString
 819              	.LVL60:
 820              	.LBE174:
 821              	.LBB175:
 137:.\main.c      ****     CyDelay(500);
 822              		.loc 1 137 0 discriminator 3
 823 0140 0FCD     		ldmia	r5!, {r0, r1, r2, r3}
 824 0142 0FC4     		stmia	r4!, {r0, r1, r2, r3}
 825 0144 95E80700 		ldmia	r5, {r0, r1, r2}
 826 0148 03C4     		stmia	r4!, {r0, r1}
 827 014a 2270     		strb	r2, [r4]
 828              	.L134:
 137:.\main.c      ****     CyDelay(500);
 829              		.loc 1 137 0 is_stmt 0 discriminator 2
 830 014c FFF7FEFF 		bl	USBUART_1_CDCIsReady
 831              	.LVL61:
 832 0150 0028     		cmp	r0, #0
 833 0152 FBD0     		beq	.L134
 137:.\main.c      ****     CyDelay(500);
 834              		.loc 1 137 0 discriminator 3
 835 0154 3846     		mov	r0, r7
 836 0156 FFF7FEFF 		bl	USBUART_1_PutString
 837              	.LVL62:
 838              	.LBE175:
 138:.\main.c      **** 	SDSPI_SetDMAMode(0);
 839              		.loc 1 138 0 is_stmt 1 discriminator 3
 840 015a 4FF4FA70 		mov	r0, #500
 841 015e FFF7FEFF 		bl	CyDelay
 842              	.LVL63:
 139:.\main.c      **** 
 843              		.loc 1 139 0 discriminator 3
 844 0162 0020     		movs	r0, #0
 845 0164 FFF7FEFF 		bl	SDSPI_SetDMAMode
 846              	.LVL64:
 142:.\main.c      **** 	chkres("f_open", res);
 847              		.loc 1 142 0 discriminator 3
 848 0168 AC49     		ldr	r1, .L384+12
 849 016a AD48     		ldr	r0, .L384+16
 850 016c 0A22     		movs	r2, #10
 851 016e FFF7FEFF 		bl	f_open
 852              	.LVL65:
 853              	.LBB176:
 854              	.LBB177:
  65:.\main.c      **** 		dbgprint("%s ERR! res=", func);
ARM GAS  C:\Users\honet\AppData\Local\Temp\cc6gsi1c.s 			page 22


 855              		.loc 1 65 0 discriminator 3
 856 0172 0146     		mov	r1, r0
 857 0174 0028     		cmp	r0, #0
 858 0176 40F03282 		bne	.L354
 859              	.LVL66:
 860              	.LBE177:
 861              	.LBE176:
 862              	.LBB179:
 863              	.LBB180:
 146:.\main.c      **** 
 864              		.loc 1 146 0
 865 017a 3C46     		mov	r4, r7
 866 017c A94B     		ldr	r3, .L384+20
 867 017e 0FCB     		ldmia	r3, {r0, r1, r2, r3}
 868              	.LVL67:
 869 0180 07C4     		stmia	r4!, {r0, r1, r2}
 870 0182 1A0C     		lsrs	r2, r3, #16
 871 0184 24F8023B 		strh	r3, [r4], #2	@ movhi
 872 0188 2270     		strb	r2, [r4]
 873              	.L136:
 146:.\main.c      **** 
 874              		.loc 1 146 0 is_stmt 0 discriminator 2
 875 018a FFF7FEFF 		bl	USBUART_1_CDCIsReady
 876              	.LVL68:
 877 018e 0028     		cmp	r0, #0
 878 0190 FBD0     		beq	.L136
 146:.\main.c      **** 
 879              		.loc 1 146 0 discriminator 3
 880 0192 3846     		mov	r0, r7
 881 0194 FFF7FEFF 		bl	USBUART_1_PutString
 882              	.LVL69:
 883              	.LBE180:
 884 0198 A249     		ldr	r1, .L384+20
 885 019a A148     		ldr	r0, .L384+16
 886 019c 0E22     		movs	r2, #14
 887 019e 3B46     		mov	r3, r7
 888 01a0 FFF7FEFF 		bl	f_write
 889              	.LVL70:
 890              	.LBB181:
 891              	.LBB182:
  65:.\main.c      **** 		dbgprint("%s ERR! res=", func);
 892              		.loc 1 65 0 is_stmt 1 discriminator 3
 893 01a4 0146     		mov	r1, r0
 894 01a6 0028     		cmp	r0, #0
 895 01a8 40F04B82 		bne	.L355
 896              	.LVL71:
 897              	.L137:
 898              	.LBE182:
 899              	.LBE181:
 900 01ac 9E4D     		ldr	r5, .L384+24
 901 01ae 0024     		movs	r4, #0
 902              	.LVL72:
 903              	.L138:
 904              	.LBE179:
 905              	.LBB185:
 150:.\main.c      **** 	}
 906              		.loc 1 150 0 discriminator 3
ARM GAS  C:\Users\honet\AppData\Local\Temp\cc6gsi1c.s 			page 23


 907 01b0 2046     		mov	r0, r4
 908 01b2 FFF7FEFF 		bl	__aeabi_i2d
 909              	.LVL73:
 910 01b6 0246     		mov	r2, r0
 911 01b8 0B46     		mov	r3, r1
 912 01ba FFF7FEFF 		bl	__aeabi_dmul
 913              	.LVL74:
 149:.\main.c      **** 		vals[i] = (double)i*i;
 914              		.loc 1 149 0 discriminator 3
 915 01be 0134     		adds	r4, r4, #1
 916              	.LVL75:
 917 01c0 B4F5805F 		cmp	r4, #4096
 150:.\main.c      **** 	}
 918              		.loc 1 150 0 discriminator 3
 919 01c4 E5E80201 		strd	r0, [r5], #8
 149:.\main.c      **** 		vals[i] = (double)i*i;
 920              		.loc 1 149 0 discriminator 3
 921 01c8 F2D1     		bne	.L138
 922              	.LVL76:
 923              	.LBE185:
 924              	.LBB186:
 925              	.LBB187:
 158:.\main.c      **** 
 926              		.loc 1 158 0
 927 01ca 3846     		mov	r0, r7
 928 01cc 9749     		ldr	r1, .L384+28
 929 01ce 4FF40042 		mov	r2, #32768
 930 01d2 FFF7FEFF 		bl	sprintf
 931              	.LVL77:
 932              	.L139:
 158:.\main.c      **** 
 933              		.loc 1 158 0 is_stmt 0 discriminator 2
 934 01d6 FFF7FEFF 		bl	USBUART_1_CDCIsReady
 935              	.LVL78:
 936 01da 0028     		cmp	r0, #0
 937 01dc FBD0     		beq	.L139
 158:.\main.c      **** 
 938              		.loc 1 158 0 discriminator 3
 939 01de 3846     		mov	r0, r7
 940 01e0 FFF7FEFF 		bl	USBUART_1_PutString
 941              	.LVL79:
 942              	.LBE187:
 943 01e4 9149     		ldr	r1, .L384+28
 944 01e6 8E48     		ldr	r0, .L384+16
 945 01e8 2222     		movs	r2, #34
 946 01ea 3B46     		mov	r3, r7
 947 01ec FFF7FEFF 		bl	f_write
 948              	.LVL80:
 949              	.LBB188:
 950              	.LBB189:
  65:.\main.c      **** 		dbgprint("%s ERR! res=", func);
 951              		.loc 1 65 0 is_stmt 1 discriminator 3
 952 01f0 0146     		mov	r1, r0
 953 01f2 0028     		cmp	r0, #0
 954 01f4 40F02D82 		bne	.L356
 955              	.LVL81:
 956              	.L140:
ARM GAS  C:\Users\honet\AppData\Local\Temp\cc6gsi1c.s 			page 24


 957              	.LBE189:
 958              	.LBE188:
 959              	.LBE186:
 161:.\main.c      **** 	FIL BinFile;
 960              		.loc 1 161 0 discriminator 3
 961 01f8 DFF85492 		ldr	r9, .L384+64
 163:.\main.c      **** 	chkres("f_open", res);
 962              		.loc 1 163 0 discriminator 3
 963 01fc 8C49     		ldr	r1, .L384+32
 964 01fe 3846     		mov	r0, r7
 965 0200 0A22     		movs	r2, #10
 161:.\main.c      **** 	FIL BinFile;
 966              		.loc 1 161 0 discriminator 3
 967 0202 D9F80040 		ldr	r4, [r9]
 968              	.LVL82:
 163:.\main.c      **** 	chkres("f_open", res);
 969              		.loc 1 163 0 discriminator 3
 970 0206 FFF7FEFF 		bl	f_open
 971              	.LVL83:
 972              	.LBB192:
 973              	.LBB193:
  65:.\main.c      **** 		dbgprint("%s ERR! res=", func);
 974              		.loc 1 65 0 discriminator 3
 975 020a 0146     		mov	r1, r0
 976 020c 0028     		cmp	r0, #0
 977 020e 40F01C82 		bne	.L357
 978              	.LBE193:
 979              	.LBE192:
 166:.\main.c      **** 		chkres("f_write", res);
 980              		.loc 1 166 0
 981 0212 8549     		ldr	r1, .L384+24
 982 0214 3846     		mov	r0, r7
 983              	.LVL84:
 984 0216 4FF40042 		mov	r2, #32768
 985 021a 6B46     		mov	r3, sp
 986 021c FFF7FEFF 		bl	f_write
 987              	.LVL85:
 988              	.LBB195:
 989              	.LBB196:
  65:.\main.c      **** 		dbgprint("%s ERR! res=", func);
 990              		.loc 1 65 0
 991 0220 0146     		mov	r1, r0
 992 0222 0028     		cmp	r0, #0
 993 0224 40F03783 		bne	.L358
 994              	.LVL86:
 995              	.L196:
 996              	.LBE196:
 997              	.LBE195:
 168:.\main.c      **** 		chkres("f_close", res);
 998              		.loc 1 168 0
 999 0228 3846     		mov	r0, r7
 1000 022a FFF7FEFF 		bl	f_close
 1001              	.LVL87:
 1002              	.LBB198:
 1003              	.LBB199:
  65:.\main.c      **** 		dbgprint("%s ERR! res=", func);
 1004              		.loc 1 65 0
ARM GAS  C:\Users\honet\AppData\Local\Temp\cc6gsi1c.s 			page 25


 1005 022e 0146     		mov	r1, r0
 1006 0230 0028     		cmp	r0, #0
 1007 0232 40F02C83 		bne	.L359
 1008              	.LVL88:
 1009              	.L142:
 1010              	.LBE199:
 1011              	.LBE198:
 173:.\main.c      **** 	dumpmsg("Took %lu ms\n", nTime);
 1012              		.loc 1 173 0
 1013 0236 D9F80030 		ldr	r3, [r9]
 1014              	.LBB201:
 1015              	.LBB202:
 174:.\main.c      **** 
 1016              		.loc 1 174 0
 1017 023a 02AE     		add	r6, sp, #8
 1018              	.LBE202:
 1019              	.LBE201:
 173:.\main.c      **** 	dumpmsg("Took %lu ms\n", nTime);
 1020              		.loc 1 173 0
 1021 023c 1C1B     		subs	r4, r3, r4
 1022              	.LVL89:
 1023              	.LBB208:
 1024              	.LBB203:
 174:.\main.c      **** 
 1025              		.loc 1 174 0
 1026 023e 2246     		mov	r2, r4
 1027 0240 3046     		mov	r0, r6
 1028 0242 7C49     		ldr	r1, .L384+36
 1029 0244 FFF7FEFF 		bl	sprintf
 1030              	.LVL90:
 1031              	.L143:
 174:.\main.c      **** 
 1032              		.loc 1 174 0 is_stmt 0 discriminator 2
 1033 0248 FFF7FEFF 		bl	USBUART_1_CDCIsReady
 1034              	.LVL91:
 1035 024c 0028     		cmp	r0, #0
 1036 024e FBD0     		beq	.L143
 174:.\main.c      **** 
 1037              		.loc 1 174 0 discriminator 3
 1038 0250 3046     		mov	r0, r6
 1039 0252 FFF7FEFF 		bl	USBUART_1_PutString
 1040              	.LVL92:
 1041              	.LBE203:
 1042 0256 7749     		ldr	r1, .L384+36
 1043 0258 7148     		ldr	r0, .L384+16
 1044 025a 0C22     		movs	r2, #12
 1045 025c 3346     		mov	r3, r6
 1046 025e FFF7FEFF 		bl	f_write
 1047              	.LVL93:
 1048              	.LBB204:
 1049              	.LBB205:
  65:.\main.c      **** 		dbgprint("%s ERR! res=", func);
 1050              		.loc 1 65 0 is_stmt 1 discriminator 3
 1051 0262 0146     		mov	r1, r0
 1052 0264 0028     		cmp	r0, #0
 1053 0266 40F00E83 		bne	.L360
 1054              	.LVL94:
ARM GAS  C:\Users\honet\AppData\Local\Temp\cc6gsi1c.s 			page 26


 1055              	.L144:
 1056              	.LBE205:
 1057              	.LBE204:
 1058              	.LBE208:
 176:.\main.c      **** 	dumpmsg( "Rate %lu kbps\n\n", kbps);
 1059              		.loc 1 176 0 discriminator 3
 1060 026a 4FF48022 		mov	r2, #262144
 1061              	.LBB209:
 1062              	.LBB210:
 177:.\main.c      **** 
 1063              		.loc 1 177 0 discriminator 3
 1064 026e B2FBF4F2 		udiv	r2, r2, r4
 1065              	.LVL95:
 1066 0272 3046     		mov	r0, r6
 1067 0274 7049     		ldr	r1, .L384+40
 1068 0276 FFF7FEFF 		bl	sprintf
 1069              	.LVL96:
 1070              	.L145:
 177:.\main.c      **** 
 1071              		.loc 1 177 0 is_stmt 0 discriminator 2
 1072 027a FFF7FEFF 		bl	USBUART_1_CDCIsReady
 1073              	.LVL97:
 1074 027e 0028     		cmp	r0, #0
 1075 0280 FBD0     		beq	.L145
 177:.\main.c      **** 
 1076              		.loc 1 177 0 discriminator 3
 1077 0282 3046     		mov	r0, r6
 1078 0284 FFF7FEFF 		bl	USBUART_1_PutString
 1079              	.LVL98:
 1080              	.LBE210:
 1081 0288 6B49     		ldr	r1, .L384+40
 1082 028a 6548     		ldr	r0, .L384+16
 1083 028c 0F22     		movs	r2, #15
 1084 028e 3346     		mov	r3, r6
 1085 0290 FFF7FEFF 		bl	f_write
 1086              	.LVL99:
 1087              	.LBB211:
 1088              	.LBB212:
  65:.\main.c      **** 		dbgprint("%s ERR! res=", func);
 1089              		.loc 1 65 0 is_stmt 1 discriminator 3
 1090 0294 0146     		mov	r1, r0
 1091 0296 0028     		cmp	r0, #0
 1092 0298 40F0F182 		bne	.L361
 1093              	.LVL100:
 1094              	.L146:
 1095              	.LBE212:
 1096              	.LBE211:
 1097              	.LBE209:
 1098              	.LBB215:
 1099              	.LBB216:
 182:.\main.c      **** 
 1100              		.loc 1 182 0 discriminator 3
 1101 029c 3046     		mov	r0, r6
 1102 029e 6749     		ldr	r1, .L384+44
 1103 02a0 4FF40042 		mov	r2, #32768
 1104 02a4 FFF7FEFF 		bl	sprintf
 1105              	.LVL101:
ARM GAS  C:\Users\honet\AppData\Local\Temp\cc6gsi1c.s 			page 27


 1106              	.L147:
 182:.\main.c      **** 
 1107              		.loc 1 182 0 is_stmt 0 discriminator 2
 1108 02a8 FFF7FEFF 		bl	USBUART_1_CDCIsReady
 1109              	.LVL102:
 1110 02ac 0028     		cmp	r0, #0
 1111 02ae FBD0     		beq	.L147
 182:.\main.c      **** 
 1112              		.loc 1 182 0 discriminator 3
 1113 02b0 3046     		mov	r0, r6
 1114 02b2 FFF7FEFF 		bl	USBUART_1_PutString
 1115              	.LVL103:
 1116              	.LBE216:
 1117 02b6 6149     		ldr	r1, .L384+44
 1118 02b8 5948     		ldr	r0, .L384+16
 1119 02ba 2422     		movs	r2, #36
 1120 02bc 3346     		mov	r3, r6
 1121 02be FFF7FEFF 		bl	f_write
 1122              	.LVL104:
 1123              	.LBB217:
 1124              	.LBB218:
  65:.\main.c      **** 		dbgprint("%s ERR! res=", func);
 1125              		.loc 1 65 0 is_stmt 1 discriminator 3
 1126 02c2 0146     		mov	r1, r0
 1127 02c4 0028     		cmp	r0, #0
 1128 02c6 40F0D682 		bne	.L362
 1129              	.LVL105:
 1130              	.L148:
 1131              	.LBE218:
 1132              	.LBE217:
 1133              	.LBE215:
 184:.\main.c      **** 
 1134              		.loc 1 184 0 discriminator 3
 1135 02ca 0021     		movs	r1, #0
 1136 02cc 4FF40042 		mov	r2, #32768
 1137 02d0 5548     		ldr	r0, .L384+24
 1138 02d2 FFF7FEFF 		bl	memset
 1139              	.LVL106:
 189:.\main.c      **** 	chkres("f_open", res);
 1140              		.loc 1 189 0 discriminator 3
 1141 02d6 5649     		ldr	r1, .L384+32
 1142 02d8 3846     		mov	r0, r7
 1143 02da 0122     		movs	r2, #1
 187:.\main.c      **** 
 1144              		.loc 1 187 0 discriminator 3
 1145 02dc D9F80040 		ldr	r4, [r9]
 1146              	.LVL107:
 189:.\main.c      **** 	chkres("f_open", res);
 1147              		.loc 1 189 0 discriminator 3
 1148 02e0 FFF7FEFF 		bl	f_open
 1149              	.LVL108:
 1150              	.LBB221:
 1151              	.LBB222:
  65:.\main.c      **** 		dbgprint("%s ERR! res=", func);
 1152              		.loc 1 65 0 discriminator 3
 1153 02e4 0146     		mov	r1, r0
 1154 02e6 0028     		cmp	r0, #0
ARM GAS  C:\Users\honet\AppData\Local\Temp\cc6gsi1c.s 			page 28


 1155 02e8 40F0C182 		bne	.L363
 1156              	.LBE222:
 1157              	.LBE221:
 192:.\main.c      **** 		chkres("f_read", res);
 1158              		.loc 1 192 0
 1159 02ec 4E49     		ldr	r1, .L384+24
 1160 02ee 3846     		mov	r0, r7
 1161              	.LVL109:
 1162 02f0 4FF40042 		mov	r2, #32768
 1163 02f4 01AB     		add	r3, sp, #4
 1164 02f6 FFF7FEFF 		bl	f_read
 1165              	.LVL110:
 1166              	.LBB224:
 1167              	.LBB225:
  65:.\main.c      **** 		dbgprint("%s ERR! res=", func);
 1168              		.loc 1 65 0
 1169 02fa 0146     		mov	r1, r0
 1170 02fc 0028     		cmp	r0, #0
 1171 02fe 40F0D282 		bne	.L364
 1172              	.LVL111:
 1173              	.L198:
 1174              	.LBE225:
 1175              	.LBE224:
 194:.\main.c      **** 		chkres("f_close", res);
 1176              		.loc 1 194 0
 1177 0302 3846     		mov	r0, r7
 1178 0304 FFF7FEFF 		bl	f_close
 1179              	.LVL112:
 1180              	.LBB227:
 1181              	.LBB228:
  65:.\main.c      **** 		dbgprint("%s ERR! res=", func);
 1182              		.loc 1 65 0
 1183 0308 0146     		mov	r1, r0
 1184 030a 0028     		cmp	r0, #0
 1185 030c 40F0C782 		bne	.L365
 1186              	.LVL113:
 1187              	.L150:
 1188              	.LBE228:
 1189              	.LBE227:
 199:.\main.c      **** 	dumpmsg("Took %lu ms\nVerifying...", nTime);
 1190              		.loc 1 199 0
 1191 0310 D9F80030 		ldr	r3, [r9]
 1192              	.LBB230:
 1193              	.LBB231:
 200:.\main.c      **** 
 1194              		.loc 1 200 0
 1195 0314 3046     		mov	r0, r6
 1196              	.LBE231:
 1197              	.LBE230:
 199:.\main.c      **** 	dumpmsg("Took %lu ms\nVerifying...", nTime);
 1198              		.loc 1 199 0
 1199 0316 C4EB030A 		rsb	r10, r4, r3
 1200              	.LVL114:
 1201              	.LBB237:
 1202              	.LBB232:
 200:.\main.c      **** 
 1203              		.loc 1 200 0
ARM GAS  C:\Users\honet\AppData\Local\Temp\cc6gsi1c.s 			page 29


 1204 031a 5246     		mov	r2, r10
 1205 031c 4849     		ldr	r1, .L384+48
 1206 031e FFF7FEFF 		bl	sprintf
 1207              	.LVL115:
 1208              	.L151:
 200:.\main.c      **** 
 1209              		.loc 1 200 0 is_stmt 0 discriminator 2
 1210 0322 FFF7FEFF 		bl	USBUART_1_CDCIsReady
 1211              	.LVL116:
 1212 0326 0028     		cmp	r0, #0
 1213 0328 FBD0     		beq	.L151
 200:.\main.c      **** 
 1214              		.loc 1 200 0 discriminator 3
 1215 032a 3046     		mov	r0, r6
 1216 032c FFF7FEFF 		bl	USBUART_1_PutString
 1217              	.LVL117:
 1218              	.LBE232:
 1219 0330 4349     		ldr	r1, .L384+48
 1220 0332 3B48     		ldr	r0, .L384+16
 1221 0334 1822     		movs	r2, #24
 1222 0336 3346     		mov	r3, r6
 1223 0338 FFF7FEFF 		bl	f_write
 1224              	.LVL118:
 1225              	.LBB233:
 1226              	.LBB234:
  65:.\main.c      **** 		dbgprint("%s ERR! res=", func);
 1227              		.loc 1 65 0 is_stmt 1 discriminator 3
 1228 033c 0146     		mov	r1, r0
 1229 033e 0028     		cmp	r0, #0
 1230 0340 40F08D82 		bne	.L366
 1231              	.LVL119:
 1232              	.L152:
 1233              	.LBE234:
 1234              	.LBE233:
 1235              	.LBE237:
 1236              	.LBB238:
 203:.\main.c      **** 		if(vals[(int)i] != i*i) bVerifyFail = 1;
 1237              		.loc 1 203 0 discriminator 3
 1238 0344 0024     		movs	r4, #0
 1239              	.LVL120:
 1240              	.LBE238:
 202:.\main.c      **** 	for(int i = 0; i < 500; i++) {
 1241              		.loc 1 202 0 discriminator 3
 1242 0346 2546     		mov	r5, r4
 1243              	.LBB239:
 1244 0348 DFF8DC80 		ldr	r8, .L384+24
 1245              	.LVL121:
 1246              	.L156:
 1247              	.LBE239:
 1248              	.LBB240:
 204:.\main.c      **** 	}
 1249              		.loc 1 204 0
 1250 034c 04FB04F0 		mul	r0, r4, r4
 1251 0350 FFF7FEFF 		bl	__aeabi_i2d
 1252              	.LVL122:
 1253 0354 0246     		mov	r2, r0
 1254 0356 0B46     		mov	r3, r1
ARM GAS  C:\Users\honet\AppData\Local\Temp\cc6gsi1c.s 			page 30


 1255 0358 D8E90001 		ldrd	r0, [r8]
 1256 035c FFF7FEFF 		bl	__aeabi_dcmpeq
 1257              	.LVL123:
 1258 0360 08B9     		cbnz	r0, .L154
 1259 0362 4FF00105 		mov	r5, #1
 1260              	.L154:
 203:.\main.c      **** 		if(vals[(int)i] != i*i) bVerifyFail = 1;
 1261              		.loc 1 203 0
 1262 0366 0134     		adds	r4, r4, #1
 1263 0368 B4F5FA7F 		cmp	r4, #500
 1264 036c EDB2     		uxtb	r5, r5
 1265              	.LVL124:
 1266 036e 08F10808 		add	r8, r8, #8
 1267 0372 EBD1     		bne	.L156
 1268              	.LBE240:
 207:.\main.c      **** 		dumpmsg("FAIL :O\n");
 1269              		.loc 1 207 0
 1270 0374 002D     		cmp	r5, #0
 1271 0376 00F05582 		beq	.L157
 1272              	.LVL125:
 1273              	.LBB241:
 1274              	.LBB242:
 208:.\main.c      **** 	else
 1275              		.loc 1 208 0
 1276 037a 3346     		mov	r3, r6
 1277 037c 314A     		ldr	r2, .L384+52
 1278 037e 07CA     		ldmia	r2, {r0, r1, r2}
 1279 0380 03C3     		stmia	r3!, {r0, r1}
 1280 0382 1A70     		strb	r2, [r3]
 1281              	.L158:
 208:.\main.c      **** 	else
 1282              		.loc 1 208 0 is_stmt 0 discriminator 2
 1283 0384 FFF7FEFF 		bl	USBUART_1_CDCIsReady
 1284              	.LVL126:
 1285 0388 0028     		cmp	r0, #0
 1286 038a FBD0     		beq	.L158
 208:.\main.c      **** 	else
 1287              		.loc 1 208 0 discriminator 3
 1288 038c 3046     		mov	r0, r6
 1289 038e FFF7FEFF 		bl	USBUART_1_PutString
 1290              	.LVL127:
 1291              	.LBE242:
 1292 0392 2C49     		ldr	r1, .L384+52
 1293 0394 2248     		ldr	r0, .L384+16
 1294 0396 0822     		movs	r2, #8
 1295 0398 3346     		mov	r3, r6
 1296 039a FFF7FEFF 		bl	f_write
 1297              	.LVL128:
 1298              	.LBB243:
 1299              	.LBB244:
  65:.\main.c      **** 		dbgprint("%s ERR! res=", func);
 1300              		.loc 1 65 0 is_stmt 1 discriminator 3
 1301 039e 0146     		mov	r1, r0
 1302 03a0 0028     		cmp	r0, #0
 1303 03a2 40F05882 		bne	.L344
 1304              	.LVL129:
 1305              	.L160:
ARM GAS  C:\Users\honet\AppData\Local\Temp\cc6gsi1c.s 			page 31


 1306              	.LBE244:
 1307              	.LBE243:
 1308              	.LBE241:
 212:.\main.c      **** 	dumpmsg("Rate %lu kbps\n\n", kbps);
 1309              		.loc 1 212 0
 1310 03a6 4FF48022 		mov	r2, #262144
 1311              	.LBB245:
 1312              	.LBB246:
 213:.\main.c      **** 
 1313              		.loc 1 213 0
 1314 03aa B2FBFAF2 		udiv	r2, r2, r10
 1315              	.LVL130:
 1316 03ae 3046     		mov	r0, r6
 1317 03b0 2149     		ldr	r1, .L384+40
 1318 03b2 FFF7FEFF 		bl	sprintf
 1319              	.LVL131:
 1320              	.L163:
 213:.\main.c      **** 
 1321              		.loc 1 213 0 is_stmt 0 discriminator 2
 1322 03b6 FFF7FEFF 		bl	USBUART_1_CDCIsReady
 1323              	.LVL132:
 1324 03ba 0028     		cmp	r0, #0
 1325 03bc FBD0     		beq	.L163
 213:.\main.c      **** 
 1326              		.loc 1 213 0 discriminator 3
 1327 03be 3046     		mov	r0, r6
 1328 03c0 FFF7FEFF 		bl	USBUART_1_PutString
 1329              	.LVL133:
 1330              	.LBE246:
 1331 03c4 1C49     		ldr	r1, .L384+40
 1332 03c6 1648     		ldr	r0, .L384+16
 1333 03c8 0F22     		movs	r2, #15
 1334 03ca 3346     		mov	r3, r6
 1335 03cc FFF7FEFF 		bl	f_write
 1336              	.LVL134:
 1337              	.LBB247:
 1338              	.LBB248:
  65:.\main.c      **** 		dbgprint("%s ERR! res=", func);
 1339              		.loc 1 65 0 is_stmt 1 discriminator 3
 1340 03d0 0146     		mov	r1, r0
 1341 03d2 0028     		cmp	r0, #0
 1342 03d4 40F04782 		bne	.L367
 1343              	.LVL135:
 1344              	.L164:
 1345              	.LBE248:
 1346              	.LBE247:
 1347              	.LBE245:
 1348              	.LBB251:
 216:.\main.c      **** 	//Now, enable DMA...
 1349              		.loc 1 216 0 discriminator 3
 1350 03d8 3446     		mov	r4, r6
 1351 03da 1B4D     		ldr	r5, .L384+56
 1352 03dc 0FCD     		ldmia	r5!, {r0, r1, r2, r3}
 1353 03de 0FC4     		stmia	r4!, {r0, r1, r2, r3}
 1354 03e0 95E80700 		ldmia	r5, {r0, r1, r2}
 1355 03e4 03C4     		stmia	r4!, {r0, r1}
 1356 03e6 2270     		strb	r2, [r4]
ARM GAS  C:\Users\honet\AppData\Local\Temp\cc6gsi1c.s 			page 32


 1357              	.L165:
 216:.\main.c      **** 	//Now, enable DMA...
 1358              		.loc 1 216 0 is_stmt 0 discriminator 2
 1359 03e8 FFF7FEFF 		bl	USBUART_1_CDCIsReady
 1360              	.LVL136:
 1361 03ec 0028     		cmp	r0, #0
 1362 03ee FBD0     		beq	.L165
 216:.\main.c      **** 	//Now, enable DMA...
 1363              		.loc 1 216 0 discriminator 3
 1364 03f0 3046     		mov	r0, r6
 1365 03f2 FFF7FEFF 		bl	USBUART_1_PutString
 1366              	.LVL137:
 1367              	.LBE251:
 218:.\main.c      ****     
 1368              		.loc 1 218 0 is_stmt 1 discriminator 3
 1369 03f6 0120     		movs	r0, #1
 1370 03f8 FFF7FEFF 		bl	SDSPI_SetDMAMode
 1371              	.LVL138:
 1372 03fc 4FF0140A 		mov	r10, #20
 1373              	.LVL139:
 1374              	.L192:
 1375              	.LBB252:
 1376              	.LBB253:
 1377              	.LBB254:
 223:.\main.c      **** 
 1378              		.loc 1 223 0
 1379 0400 3046     		mov	r0, r6
 1380 0402 1249     		ldr	r1, .L384+60
 1381 0404 4FF40042 		mov	r2, #32768
 1382 0408 FFF7FEFF 		bl	sprintf
 1383              	.LVL140:
 1384 040c 22E0     		b	.L385
 1385              	.L386:
 1386 040e 00BF     		.align	2
 1387              	.L384:
 1388 0410 E4010000 		.word	.LC30
 1389 0414 18020000 		.word	.LC34
 1390 0418 24020000 		.word	.LC35
 1391 041c 40020000 		.word	.LC36
 1392 0420 00000000 		.word	File
 1393 0424 54020000 		.word	.LC38
 1394 0428 00000000 		.word	buffer
 1395 042c 6C020000 		.word	.LC40
 1396 0430 90020000 		.word	.LC41
 1397 0434 A8020000 		.word	.LC43
 1398 0438 B8020000 		.word	.LC44
 1399 043c C8020000 		.word	.LC45
 1400 0440 F8020000 		.word	.LC47
 1401 0444 14030000 		.word	.LC48
 1402 0448 30030000 		.word	.LC50
 1403 044c 4C030000 		.word	.LC51
 1404 0450 00000000 		.word	.LANCHOR0
 1405              	.L385:
 1406              	.L166:
 223:.\main.c      **** 
 1407              		.loc 1 223 0 is_stmt 0 discriminator 2
 1408 0454 FFF7FEFF 		bl	USBUART_1_CDCIsReady
ARM GAS  C:\Users\honet\AppData\Local\Temp\cc6gsi1c.s 			page 33


 1409              	.LVL141:
 1410 0458 0028     		cmp	r0, #0
 1411 045a FBD0     		beq	.L166
 223:.\main.c      **** 
 1412              		.loc 1 223 0 discriminator 3
 1413 045c 3046     		mov	r0, r6
 1414 045e FFF7FEFF 		bl	USBUART_1_PutString
 1415              	.LVL142:
 1416              	.LBE254:
 1417 0462 BB48     		ldr	r0, .L387
 1418 0464 BB49     		ldr	r1, .L387+4
 1419 0466 1E22     		movs	r2, #30
 1420 0468 3346     		mov	r3, r6
 1421 046a FFF7FEFF 		bl	f_write
 1422              	.LVL143:
 1423              	.LBB255:
 1424              	.LBB256:
  65:.\main.c      **** 		dbgprint("%s ERR! res=", func);
 1425              		.loc 1 65 0 is_stmt 1 discriminator 3
 1426 046e 0028     		cmp	r0, #0
 1427 0470 40F06381 		bne	.L368
 1428              	.LVL144:
 1429              	.L167:
 1430              	.LBE256:
 1431              	.LBE255:
 1432              	.LBE253:
 227:.\main.c      **** 	chkres("f_open", res);
 1433              		.loc 1 227 0 discriminator 3
 1434 0474 3846     		mov	r0, r7
 1435 0476 B849     		ldr	r1, .L387+8
 1436 0478 0A22     		movs	r2, #10
 226:.\main.c      **** 	res = f_open(&BinFile, "//TESTDMA.bin", FA_CREATE_ALWAYS | FA_WRITE);
 1437              		.loc 1 226 0 discriminator 3
 1438 047a D9F80040 		ldr	r4, [r9]
 1439              	.LVL145:
 227:.\main.c      **** 	chkres("f_open", res);
 1440              		.loc 1 227 0 discriminator 3
 1441 047e FFF7FEFF 		bl	f_open
 1442              	.LVL146:
 1443              	.LBB259:
 1444              	.LBB260:
  65:.\main.c      **** 		dbgprint("%s ERR! res=", func);
 1445              		.loc 1 65 0 discriminator 3
 1446 0482 0028     		cmp	r0, #0
 1447 0484 40F05481 		bne	.L369
 1448              	.LBE260:
 1449              	.LBE259:
 230:.\main.c      **** 		chkres("f_write", res);
 1450              		.loc 1 230 0
 1451 0488 3846     		mov	r0, r7
 1452              	.LVL147:
 1453 048a B449     		ldr	r1, .L387+12
 1454 048c 4FF40042 		mov	r2, #32768
 1455 0490 6B46     		mov	r3, sp
 1456 0492 FFF7FEFF 		bl	f_write
 1457              	.LVL148:
 1458              	.LBB262:
ARM GAS  C:\Users\honet\AppData\Local\Temp\cc6gsi1c.s 			page 34


 1459              	.LBB263:
  65:.\main.c      **** 		dbgprint("%s ERR! res=", func);
 1460              		.loc 1 65 0
 1461 0496 0028     		cmp	r0, #0
 1462 0498 40F09581 		bne	.L370
 1463              	.LVL149:
 1464              	.L200:
 1465              	.LBE263:
 1466              	.LBE262:
 232:.\main.c      **** 		chkres("f_close", res);
 1467              		.loc 1 232 0
 1468 049c 3846     		mov	r0, r7
 1469 049e FFF7FEFF 		bl	f_close
 1470              	.LVL150:
 1471              	.LBB265:
 1472              	.LBB266:
  65:.\main.c      **** 		dbgprint("%s ERR! res=", func);
 1473              		.loc 1 65 0
 1474 04a2 0028     		cmp	r0, #0
 1475 04a4 40F08A81 		bne	.L371
 1476              	.LVL151:
 1477              	.L169:
 1478              	.LBE266:
 1479              	.LBE265:
 237:.\main.c      **** 	dumpmsg("Took %lu ms\n", nTime);
 1480              		.loc 1 237 0
 1481 04a8 D9F80030 		ldr	r3, [r9]
 1482              	.LBB268:
 1483              	.LBB269:
 238:.\main.c      **** 
 1484              		.loc 1 238 0
 1485 04ac 3046     		mov	r0, r6
 1486              	.LBE269:
 1487              	.LBE268:
 237:.\main.c      **** 	dumpmsg("Took %lu ms\n", nTime);
 1488              		.loc 1 237 0
 1489 04ae 1C1B     		subs	r4, r3, r4
 1490              	.LVL152:
 1491              	.LBB275:
 1492              	.LBB270:
 238:.\main.c      **** 
 1493              		.loc 1 238 0
 1494 04b0 2246     		mov	r2, r4
 1495 04b2 AB49     		ldr	r1, .L387+16
 1496 04b4 FFF7FEFF 		bl	sprintf
 1497              	.LVL153:
 1498              	.L170:
 238:.\main.c      **** 
 1499              		.loc 1 238 0 is_stmt 0 discriminator 2
 1500 04b8 FFF7FEFF 		bl	USBUART_1_CDCIsReady
 1501              	.LVL154:
 1502 04bc 0028     		cmp	r0, #0
 1503 04be FBD0     		beq	.L170
 238:.\main.c      **** 
 1504              		.loc 1 238 0 discriminator 3
 1505 04c0 3046     		mov	r0, r6
 1506 04c2 FFF7FEFF 		bl	USBUART_1_PutString
ARM GAS  C:\Users\honet\AppData\Local\Temp\cc6gsi1c.s 			page 35


 1507              	.LVL155:
 1508              	.LBE270:
 1509 04c6 A248     		ldr	r0, .L387
 1510 04c8 A549     		ldr	r1, .L387+16
 1511 04ca 0C22     		movs	r2, #12
 1512 04cc 3346     		mov	r3, r6
 1513 04ce FFF7FEFF 		bl	f_write
 1514              	.LVL156:
 1515              	.LBB271:
 1516              	.LBB272:
  65:.\main.c      **** 		dbgprint("%s ERR! res=", func);
 1517              		.loc 1 65 0 is_stmt 1 discriminator 3
 1518 04d2 0028     		cmp	r0, #0
 1519 04d4 40F02781 		bne	.L372
 1520              	.LVL157:
 1521              	.L171:
 1522              	.LBE272:
 1523              	.LBE271:
 1524              	.LBE275:
 240:.\main.c      **** 	dumpmsg("Rate %lu kbps\n\n", kbps);
 1525              		.loc 1 240 0 discriminator 3
 1526 04d8 4FF48022 		mov	r2, #262144
 1527              	.LBB276:
 1528              	.LBB277:
 241:.\main.c      **** 
 1529              		.loc 1 241 0 discriminator 3
 1530 04dc B2FBF4F2 		udiv	r2, r2, r4
 1531              	.LVL158:
 1532 04e0 3046     		mov	r0, r6
 1533 04e2 A049     		ldr	r1, .L387+20
 1534 04e4 FFF7FEFF 		bl	sprintf
 1535              	.LVL159:
 1536              	.L172:
 241:.\main.c      **** 
 1537              		.loc 1 241 0 is_stmt 0 discriminator 2
 1538 04e8 FFF7FEFF 		bl	USBUART_1_CDCIsReady
 1539              	.LVL160:
 1540 04ec 0028     		cmp	r0, #0
 1541 04ee FBD0     		beq	.L172
 241:.\main.c      **** 
 1542              		.loc 1 241 0 discriminator 3
 1543 04f0 3046     		mov	r0, r6
 1544 04f2 FFF7FEFF 		bl	USBUART_1_PutString
 1545              	.LVL161:
 1546              	.LBE277:
 1547 04f6 9648     		ldr	r0, .L387
 1548 04f8 9A49     		ldr	r1, .L387+20
 1549 04fa 0F22     		movs	r2, #15
 1550 04fc 3346     		mov	r3, r6
 1551 04fe FFF7FEFF 		bl	f_write
 1552              	.LVL162:
 1553              	.LBB278:
 1554              	.LBB279:
  65:.\main.c      **** 		dbgprint("%s ERR! res=", func);
 1555              		.loc 1 65 0 is_stmt 1 discriminator 3
 1556 0502 0028     		cmp	r0, #0
 1557 0504 40F00A81 		bne	.L373
ARM GAS  C:\Users\honet\AppData\Local\Temp\cc6gsi1c.s 			page 36


 1558              	.LVL163:
 1559              	.L173:
 1560              	.LBE279:
 1561              	.LBE278:
 1562              	.LBE276:
 1563              	.LBB282:
 1564              	.LBB283:
 246:.\main.c      **** 
 1565              		.loc 1 246 0 discriminator 3
 1566 0508 3046     		mov	r0, r6
 1567 050a 9749     		ldr	r1, .L387+24
 1568 050c 4FF40042 		mov	r2, #32768
 1569 0510 FFF7FEFF 		bl	sprintf
 1570              	.LVL164:
 1571              	.L174:
 246:.\main.c      **** 
 1572              		.loc 1 246 0 is_stmt 0 discriminator 2
 1573 0514 FFF7FEFF 		bl	USBUART_1_CDCIsReady
 1574              	.LVL165:
 1575 0518 0028     		cmp	r0, #0
 1576 051a FBD0     		beq	.L174
 246:.\main.c      **** 
 1577              		.loc 1 246 0 discriminator 3
 1578 051c 3046     		mov	r0, r6
 1579 051e FFF7FEFF 		bl	USBUART_1_PutString
 1580              	.LVL166:
 1581              	.LBE283:
 1582 0522 8B48     		ldr	r0, .L387
 1583 0524 9049     		ldr	r1, .L387+24
 1584 0526 2022     		movs	r2, #32
 1585 0528 3346     		mov	r3, r6
 1586 052a FFF7FEFF 		bl	f_write
 1587              	.LVL167:
 1588              	.LBB284:
 1589              	.LBB285:
  65:.\main.c      **** 		dbgprint("%s ERR! res=", func);
 1590              		.loc 1 65 0 is_stmt 1 discriminator 3
 1591 052e 0028     		cmp	r0, #0
 1592 0530 40F03581 		bne	.L374
 1593              	.LVL168:
 1594              	.L175:
 1595              	.LBE285:
 1596              	.LBE284:
 1597              	.LBE282:
 248:.\main.c      **** 
 1598              		.loc 1 248 0 discriminator 3
 1599 0534 0021     		movs	r1, #0
 1600 0536 4FF40042 		mov	r2, #32768
 1601 053a 8848     		ldr	r0, .L387+12
 1602 053c FFF7FEFF 		bl	memset
 1603              	.LVL169:
 253:.\main.c      **** 	chkres("f_open", res);
 1604              		.loc 1 253 0 discriminator 3
 1605 0540 3846     		mov	r0, r7
 1606 0542 8549     		ldr	r1, .L387+8
 1607 0544 0122     		movs	r2, #1
 251:.\main.c      **** 
ARM GAS  C:\Users\honet\AppData\Local\Temp\cc6gsi1c.s 			page 37


 1608              		.loc 1 251 0 discriminator 3
 1609 0546 D9F80040 		ldr	r4, [r9]
 1610              	.LVL170:
 253:.\main.c      **** 	chkres("f_open", res);
 1611              		.loc 1 253 0 discriminator 3
 1612 054a FFF7FEFF 		bl	f_open
 1613              	.LVL171:
 1614              	.LBB288:
 1615              	.LBB289:
  65:.\main.c      **** 		dbgprint("%s ERR! res=", func);
 1616              		.loc 1 65 0 discriminator 3
 1617 054e 0028     		cmp	r0, #0
 1618 0550 40F02081 		bne	.L375
 1619              	.LBE289:
 1620              	.LBE288:
 256:.\main.c      **** 		chkres("f_read", res);
 1621              		.loc 1 256 0
 1622 0554 3846     		mov	r0, r7
 1623              	.LVL172:
 1624 0556 8149     		ldr	r1, .L387+12
 1625 0558 4FF40042 		mov	r2, #32768
 1626 055c 01AB     		add	r3, sp, #4
 1627 055e FFF7FEFF 		bl	f_read
 1628              	.LVL173:
 1629              	.LBB291:
 1630              	.LBB292:
  65:.\main.c      **** 		dbgprint("%s ERR! res=", func);
 1631              		.loc 1 65 0
 1632 0562 0028     		cmp	r0, #0
 1633 0564 40F02581 		bne	.L376
 1634              	.LVL174:
 1635              	.L202:
 1636              	.LBE292:
 1637              	.LBE291:
 258:.\main.c      **** 		chkres("f_close", res);
 1638              		.loc 1 258 0
 1639 0568 3846     		mov	r0, r7
 1640 056a FFF7FEFF 		bl	f_close
 1641              	.LVL175:
 1642              	.LBB294:
 1643              	.LBB295:
  65:.\main.c      **** 		dbgprint("%s ERR! res=", func);
 1644              		.loc 1 65 0
 1645 056e 0028     		cmp	r0, #0
 1646 0570 40F01A81 		bne	.L377
 1647              	.LVL176:
 1648              	.L177:
 1649              	.LBE295:
 1650              	.LBE294:
 263:.\main.c      **** 	dumpmsg("Took %lu ms\nVerifying...", nTime);
 1651              		.loc 1 263 0
 1652 0574 D9F80030 		ldr	r3, [r9]
 1653              	.LBB297:
 1654              	.LBB298:
 264:.\main.c      **** 
 1655              		.loc 1 264 0
 1656 0578 3046     		mov	r0, r6
ARM GAS  C:\Users\honet\AppData\Local\Temp\cc6gsi1c.s 			page 38


 1657              	.LBE298:
 1658              	.LBE297:
 263:.\main.c      **** 	dumpmsg("Took %lu ms\nVerifying...", nTime);
 1659              		.loc 1 263 0
 1660 057a C4EB0308 		rsb	r8, r4, r3
 1661              	.LVL177:
 1662              	.LBB304:
 1663              	.LBB299:
 264:.\main.c      **** 
 1664              		.loc 1 264 0
 1665 057e 4246     		mov	r2, r8
 1666 0580 7A49     		ldr	r1, .L387+28
 1667 0582 FFF7FEFF 		bl	sprintf
 1668              	.LVL178:
 1669              	.L178:
 264:.\main.c      **** 
 1670              		.loc 1 264 0 is_stmt 0 discriminator 2
 1671 0586 FFF7FEFF 		bl	USBUART_1_CDCIsReady
 1672              	.LVL179:
 1673 058a 0028     		cmp	r0, #0
 1674 058c FBD0     		beq	.L178
 264:.\main.c      **** 
 1675              		.loc 1 264 0 discriminator 3
 1676 058e 3046     		mov	r0, r6
 1677 0590 FFF7FEFF 		bl	USBUART_1_PutString
 1678              	.LVL180:
 1679              	.LBE299:
 1680 0594 6E48     		ldr	r0, .L387
 1681 0596 7549     		ldr	r1, .L387+28
 1682 0598 1822     		movs	r2, #24
 1683 059a 3346     		mov	r3, r6
 1684 059c FFF7FEFF 		bl	f_write
 1685              	.LVL181:
 1686              	.LBB300:
 1687              	.LBB301:
  65:.\main.c      **** 		dbgprint("%s ERR! res=", func);
 1688              		.loc 1 65 0 is_stmt 1 discriminator 3
 1689 05a0 0028     		cmp	r0, #0
 1690 05a2 40F0CF80 		bne	.L378
 1691              	.LVL182:
 1692              	.L179:
 1693              	.LBE301:
 1694              	.LBE300:
 1695              	.LBE304:
 1696              	.LBB305:
 267:.\main.c      **** 		if(vals[i] != i*i) bVerifyFail = 1;
 1697              		.loc 1 267 0 discriminator 3
 1698 05a6 0024     		movs	r4, #0
 1699              	.LVL183:
 1700              	.LBE305:
 266:.\main.c      **** 	for(int i = 0; i < 500; i++) {
 1701              		.loc 1 266 0 discriminator 3
 1702 05a8 A346     		mov	fp, r4
 1703              	.LBB306:
 1704 05aa 6C4D     		ldr	r5, .L387+12
 1705 05ac 09E0     		b	.L183
 1706              	.LVL184:
ARM GAS  C:\Users\honet\AppData\Local\Temp\cc6gsi1c.s 			page 39


 1707              	.L380:
 1708 05ae 4FF00103 		mov	r3, #1
 1709              	.L181:
 1710              	.LBE306:
 1711              	.LBB307:
 267:.\main.c      **** 		if(vals[i] != i*i) bVerifyFail = 1;
 1712              		.loc 1 267 0
 1713 05b2 0134     		adds	r4, r4, #1
 1714 05b4 B4F5FA7F 		cmp	r4, #500
 1715 05b8 5FFA83FB 		uxtb	fp, r3
 1716              	.LVL185:
 1717 05bc 05F10805 		add	r5, r5, #8
 1718 05c0 4BD0     		beq	.L379
 1719              	.LVL186:
 1720              	.L183:
 268:.\main.c      **** 	}
 1721              		.loc 1 268 0
 1722 05c2 04FB04F0 		mul	r0, r4, r4
 1723 05c6 FFF7FEFF 		bl	__aeabi_i2d
 1724              	.LVL187:
 1725 05ca 0246     		mov	r2, r0
 1726 05cc 0B46     		mov	r3, r1
 1727 05ce D5E90001 		ldrd	r0, [r5]
 1728 05d2 FFF7FEFF 		bl	__aeabi_dcmpeq
 1729              	.LVL188:
 1730 05d6 0028     		cmp	r0, #0
 1731 05d8 E9D0     		beq	.L380
 1732 05da 5B46     		mov	r3, fp
 1733 05dc E9E7     		b	.L181
 1734              	.LVL189:
 1735              	.L354:
 1736              	.LBE307:
 1737              	.LBE252:
 1738              	.LBB334:
 1739              	.LBB178:
 1740 05de 6448     		ldr	r0, .L387+32
 1741              	.LVL190:
 1742 05e0 FFF7FEFF 		bl	chkres.part.0
 1743              	.LVL191:
 1744 05e4 2EE5     		b	.L347
 1745              	.LVL192:
 1746              	.L119:
 1747              	.LBE178:
 1748              	.LBE334:
 1749              	.LBB335:
 120:.\main.c      **** 		default: break;
 1750              		.loc 1 120 0
 1751 05e6 3C46     		mov	r4, r7
 1752 05e8 624D     		ldr	r5, .L387+36
 1753 05ea 0FCD     		ldmia	r5!, {r0, r1, r2, r3}
 1754 05ec 0FC4     		stmia	r4!, {r0, r1, r2, r3}
 1755 05ee 2B68     		ldr	r3, [r5]
 1756 05f0 2380     		strh	r3, [r4]	@ movhi
 1757              	.L123:
 120:.\main.c      **** 		default: break;
 1758              		.loc 1 120 0 is_stmt 0 discriminator 2
 1759 05f2 FFF7FEFF 		bl	USBUART_1_CDCIsReady
ARM GAS  C:\Users\honet\AppData\Local\Temp\cc6gsi1c.s 			page 40


 1760              	.LVL193:
 1761 05f6 0028     		cmp	r0, #0
 1762 05f8 FBD0     		beq	.L123
 1763              	.L346:
 120:.\main.c      **** 		default: break;
 1764              		.loc 1 120 0 discriminator 3
 1765 05fa 3846     		mov	r0, r7
 1766 05fc FFF7FEFF 		bl	USBUART_1_PutString
 1767              	.LVL194:
 1768 0600 02AE     		add	r6, sp, #8
 1769              	.LBE335:
 1770 0602 20E5     		b	.L112
 1771              	.L115:
 1772              	.LBB336:
 118:.\main.c      **** 		case FR_NOT_READY:		dbgprint("FR_NOT_READY\n"); break;
 1773              		.loc 1 118 0 is_stmt 1
 1774 0604 3C46     		mov	r4, r7
 1775 0606 5C4B     		ldr	r3, .L387+40
 1776 0608 0FCB     		ldmia	r3, {r0, r1, r2, r3}
 1777 060a 07C4     		stmia	r4!, {r0, r1, r2}
 1778 060c 2370     		strb	r3, [r4]
 1779              	.L121:
 118:.\main.c      **** 		case FR_NOT_READY:		dbgprint("FR_NOT_READY\n"); break;
 1780              		.loc 1 118 0 is_stmt 0 discriminator 2
 1781 060e FFF7FEFF 		bl	USBUART_1_CDCIsReady
 1782              	.LVL195:
 1783 0612 0028     		cmp	r0, #0
 1784 0614 FBD0     		beq	.L121
 1785 0616 F0E7     		b	.L346
 1786              	.L118:
 1787              	.LBE336:
 1788              	.LBB337:
 117:.\main.c      **** 		case FR_DISK_ERR:		dbgprint("FR_DISK_ERR\n"); break;
 1789              		.loc 1 117 0 is_stmt 1
 1790 0618 3C46     		mov	r4, r7
 1791 061a 584D     		ldr	r5, .L387+44
 1792 061c 0FCD     		ldmia	r5!, {r0, r1, r2, r3}
 1793 061e 0FC4     		stmia	r4!, {r0, r1, r2, r3}
 1794 0620 2B68     		ldr	r3, [r5]
 1795 0622 2380     		strh	r3, [r4]	@ movhi
 1796              	.L120:
 117:.\main.c      **** 		case FR_DISK_ERR:		dbgprint("FR_DISK_ERR\n"); break;
 1797              		.loc 1 117 0 is_stmt 0 discriminator 2
 1798 0624 FFF7FEFF 		bl	USBUART_1_CDCIsReady
 1799              	.LVL196:
 1800 0628 0028     		cmp	r0, #0
 1801 062a FBD0     		beq	.L120
 1802 062c E5E7     		b	.L346
 1803              	.L117:
 1804              	.LBE337:
 1805              	.LBB338:
 119:.\main.c      **** 		case FR_NO_FILESYSTEM:	dbgprint("FR_NO_FILESYSTEM\n"); break;
 1806              		.loc 1 119 0 is_stmt 1
 1807 062e 3C46     		mov	r4, r7
 1808 0630 534B     		ldr	r3, .L387+48
 1809 0632 0FCB     		ldmia	r3, {r0, r1, r2, r3}
 1810 0634 07C4     		stmia	r4!, {r0, r1, r2}
ARM GAS  C:\Users\honet\AppData\Local\Temp\cc6gsi1c.s 			page 41


 1811 0636 2380     		strh	r3, [r4]	@ movhi
 1812              	.L122:
 119:.\main.c      **** 		case FR_NO_FILESYSTEM:	dbgprint("FR_NO_FILESYSTEM\n"); break;
 1813              		.loc 1 119 0 is_stmt 0 discriminator 2
 1814 0638 FFF7FEFF 		bl	USBUART_1_CDCIsReady
 1815              	.LVL197:
 1816 063c 0028     		cmp	r0, #0
 1817 063e FBD0     		beq	.L122
 1818 0640 DBE7     		b	.L346
 1819              	.LVL198:
 1820              	.L355:
 1821              	.LBE338:
 1822              	.LBB339:
 1823              	.LBB184:
 1824              	.LBB183:
 1825 0642 5048     		ldr	r0, .L387+52
 1826              	.LVL199:
 1827 0644 FFF7FEFF 		bl	chkres.part.0
 1828              	.LVL200:
 1829 0648 B0E5     		b	.L137
 1830              	.LVL201:
 1831              	.L357:
 1832              	.LBE183:
 1833              	.LBE184:
 1834              	.LBE339:
 1835              	.LBB340:
 1836              	.LBB194:
 1837 064a 4948     		ldr	r0, .L387+32
 1838              	.LVL202:
 1839 064c FFF7FEFF 		bl	chkres.part.0
 1840              	.LVL203:
 1841 0650 F1E5     		b	.L142
 1842              	.LVL204:
 1843              	.L356:
 1844              	.LBE194:
 1845              	.LBE340:
 1846              	.LBB341:
 1847              	.LBB191:
 1848              	.LBB190:
 1849 0652 4C48     		ldr	r0, .L387+52
 1850              	.LVL205:
 1851 0654 FFF7FEFF 		bl	chkres.part.0
 1852              	.LVL206:
 1853 0658 CEE5     		b	.L140
 1854              	.LVL207:
 1855              	.L379:
 1856              	.LBE190:
 1857              	.LBE191:
 1858              	.LBE341:
 1859              	.LBB342:
 271:.\main.c      **** 		dumpmsg("FAIL :O\n");
 1860              		.loc 1 271 0 is_stmt 1
 1861 065a BBF1000F 		cmp	fp, #0
 1862 065e 3CD0     		beq	.L184
 1863              	.LVL208:
 1864              	.LBB308:
 1865              	.LBB309:
ARM GAS  C:\Users\honet\AppData\Local\Temp\cc6gsi1c.s 			page 42


 272:.\main.c      **** 	else
 1866              		.loc 1 272 0
 1867 0660 3346     		mov	r3, r6
 1868 0662 494A     		ldr	r2, .L387+56
 1869 0664 07CA     		ldmia	r2, {r0, r1, r2}
 1870 0666 03C3     		stmia	r3!, {r0, r1}
 1871 0668 1A70     		strb	r2, [r3]
 1872              	.L185:
 272:.\main.c      **** 	else
 1873              		.loc 1 272 0 is_stmt 0 discriminator 2
 1874 066a FFF7FEFF 		bl	USBUART_1_CDCIsReady
 1875              	.LVL209:
 1876 066e 0028     		cmp	r0, #0
 1877 0670 FBD0     		beq	.L185
 272:.\main.c      **** 	else
 1878              		.loc 1 272 0 discriminator 3
 1879 0672 3046     		mov	r0, r6
 1880 0674 FFF7FEFF 		bl	USBUART_1_PutString
 1881              	.LVL210:
 1882              	.LBE309:
 1883 0678 3548     		ldr	r0, .L387
 1884 067a 4349     		ldr	r1, .L387+56
 1885 067c 0822     		movs	r2, #8
 1886 067e 3346     		mov	r3, r6
 1887 0680 FFF7FEFF 		bl	f_write
 1888              	.LVL211:
 1889              	.LBB310:
 1890              	.LBB311:
  65:.\main.c      **** 		dbgprint("%s ERR! res=", func);
 1891              		.loc 1 65 0 is_stmt 1 discriminator 3
 1892 0684 0028     		cmp	r0, #0
 1893 0686 3FD1     		bne	.L345
 1894              	.LVL212:
 1895              	.L187:
 1896              	.LBE311:
 1897              	.LBE310:
 1898              	.LBE308:
 276:.\main.c      **** 	dumpmsg("Rate %lu kbps\n\n", kbps);
 1899              		.loc 1 276 0
 1900 0688 4FF48022 		mov	r2, #262144
 1901              	.LBB312:
 1902              	.LBB313:
 277:.\main.c      **** 
 1903              		.loc 1 277 0
 1904 068c B2FBF8F2 		udiv	r2, r2, r8
 1905              	.LVL213:
 1906 0690 3046     		mov	r0, r6
 1907 0692 3449     		ldr	r1, .L387+20
 1908 0694 FFF7FEFF 		bl	sprintf
 1909              	.LVL214:
 1910              	.L190:
 277:.\main.c      **** 
 1911              		.loc 1 277 0 is_stmt 0 discriminator 2
 1912 0698 FFF7FEFF 		bl	USBUART_1_CDCIsReady
 1913              	.LVL215:
 1914 069c 0028     		cmp	r0, #0
 1915 069e FBD0     		beq	.L190
ARM GAS  C:\Users\honet\AppData\Local\Temp\cc6gsi1c.s 			page 43


 277:.\main.c      **** 
 1916              		.loc 1 277 0 discriminator 3
 1917 06a0 3046     		mov	r0, r6
 1918 06a2 FFF7FEFF 		bl	USBUART_1_PutString
 1919              	.LVL216:
 1920              	.LBE313:
 1921 06a6 2A48     		ldr	r0, .L387
 1922 06a8 2E49     		ldr	r1, .L387+20
 1923 06aa 0F22     		movs	r2, #15
 1924 06ac 3346     		mov	r3, r6
 1925 06ae FFF7FEFF 		bl	f_write
 1926              	.LVL217:
 1927              	.LBB314:
 1928              	.LBB315:
  65:.\main.c      **** 		dbgprint("%s ERR! res=", func);
 1929              		.loc 1 65 0 is_stmt 1 discriminator 3
 1930 06b2 70BB     		cbnz	r0, .L381
 1931              	.LVL218:
 1932              	.L191:
 1933              	.LBE315:
 1934              	.LBE314:
 1935              	.LBE312:
 279:.\main.c      **** }
 1936              		.loc 1 279 0 discriminator 3
 1937 06b4 4FF47A70 		mov	r0, #1000
 1938 06b8 FFF7FEFF 		bl	CyDelay
 1939              	.LVL219:
 220:.\main.c      **** 	//and repeat tests
 1940              		.loc 1 220 0 discriminator 3
 1941 06bc BAF1010A 		subs	r10, r10, #1
 1942 06c0 7FF49EAE 		bne	.L192
 1943              	.LBE342:
 282:.\main.c      **** 	chkres("f_close", res);
 1944              		.loc 1 282 0
 1945 06c4 2248     		ldr	r0, .L387
 1946 06c6 FFF7FEFF 		bl	f_close
 1947              	.LVL220:
 1948              	.LBB343:
 1949              	.LBB344:
  65:.\main.c      **** 		dbgprint("%s ERR! res=", func);
 1950              		.loc 1 65 0
 1951 06ca 0146     		mov	r1, r0
 1952 06cc 0028     		cmp	r0, #0
 1953 06ce 3FF4BAAC 		beq	.L112
 1954 06d2 2E48     		ldr	r0, .L387+60
 1955              	.LVL221:
 1956 06d4 FFF7FEFF 		bl	chkres.part.0
 1957              	.LVL222:
 1958 06d8 B5E4     		b	.L112
 1959              	.LVL223:
 1960              	.L184:
 1961              	.LBE344:
 1962              	.LBE343:
 1963              	.LBB345:
 1964              	.LBB318:
 1965              	.LBB319:
 274:.\main.c      **** 
ARM GAS  C:\Users\honet\AppData\Local\Temp\cc6gsi1c.s 			page 44


 1966              		.loc 1 274 0
 1967 06da 3446     		mov	r4, r6
 1968              	.LVL224:
 1969 06dc 2C4B     		ldr	r3, .L387+64
 1970 06de 0FCB     		ldmia	r3, {r0, r1, r2, r3}
 1971 06e0 07C4     		stmia	r4!, {r0, r1, r2}
 1972 06e2 1A0C     		lsrs	r2, r3, #16
 1973 06e4 24F8023B 		strh	r3, [r4], #2	@ movhi
 1974 06e8 2270     		strb	r2, [r4]
 1975              	.L188:
 274:.\main.c      **** 
 1976              		.loc 1 274 0 is_stmt 0 discriminator 2
 1977 06ea FFF7FEFF 		bl	USBUART_1_CDCIsReady
 1978              	.LVL225:
 1979 06ee 0028     		cmp	r0, #0
 1980 06f0 FBD0     		beq	.L188
 274:.\main.c      **** 
 1981              		.loc 1 274 0 discriminator 3
 1982 06f2 3046     		mov	r0, r6
 1983 06f4 FFF7FEFF 		bl	USBUART_1_PutString
 1984              	.LVL226:
 1985              	.LBE319:
 1986 06f8 1548     		ldr	r0, .L387
 1987 06fa 2549     		ldr	r1, .L387+64
 1988 06fc 0E22     		movs	r2, #14
 1989 06fe 3346     		mov	r3, r6
 1990 0700 FFF7FEFF 		bl	f_write
 1991              	.LVL227:
 1992              	.LBB320:
 1993              	.LBB321:
  65:.\main.c      **** 		dbgprint("%s ERR! res=", func);
 1994              		.loc 1 65 0 is_stmt 1 discriminator 3
 1995 0704 0028     		cmp	r0, #0
 1996 0706 BFD0     		beq	.L187
 1997              	.LVL228:
 1998              	.L345:
 1999 0708 0146     		mov	r1, r0
 2000 070a 1E48     		ldr	r0, .L387+52
 2001 070c FFF7FEFF 		bl	chkres.part.0
 2002              	.LVL229:
 2003 0710 BAE7     		b	.L187
 2004              	.LVL230:
 2005              	.L381:
 2006              	.LBE321:
 2007              	.LBE320:
 2008              	.LBE318:
 2009              	.LBB322:
 2010              	.LBB317:
 2011              	.LBB316:
 2012 0712 0146     		mov	r1, r0
 2013 0714 1B48     		ldr	r0, .L387+52
 2014              	.LVL231:
 2015 0716 FFF7FEFF 		bl	chkres.part.0
 2016              	.LVL232:
 2017 071a CBE7     		b	.L191
 2018              	.LVL233:
 2019              	.L373:
ARM GAS  C:\Users\honet\AppData\Local\Temp\cc6gsi1c.s 			page 45


 2020              	.LBE316:
 2021              	.LBE317:
 2022              	.LBE322:
 2023              	.LBB323:
 2024              	.LBB281:
 2025              	.LBB280:
 2026 071c 0146     		mov	r1, r0
 2027 071e 1948     		ldr	r0, .L387+52
 2028              	.LVL234:
 2029 0720 FFF7FEFF 		bl	chkres.part.0
 2030              	.LVL235:
 2031 0724 F0E6     		b	.L173
 2032              	.LVL236:
 2033              	.L372:
 2034              	.LBE280:
 2035              	.LBE281:
 2036              	.LBE323:
 2037              	.LBB324:
 2038              	.LBB274:
 2039              	.LBB273:
 2040 0726 0146     		mov	r1, r0
 2041 0728 1648     		ldr	r0, .L387+52
 2042              	.LVL237:
 2043 072a FFF7FEFF 		bl	chkres.part.0
 2044              	.LVL238:
 2045 072e D3E6     		b	.L171
 2046              	.LVL239:
 2047              	.L369:
 2048              	.LBE273:
 2049              	.LBE274:
 2050              	.LBE324:
 2051              	.LBB325:
 2052              	.LBB261:
 2053 0730 0146     		mov	r1, r0
 2054 0732 0F48     		ldr	r0, .L387+32
 2055              	.LVL240:
 2056 0734 FFF7FEFF 		bl	chkres.part.0
 2057              	.LVL241:
 2058 0738 B6E6     		b	.L169
 2059              	.LVL242:
 2060              	.L368:
 2061              	.LBE261:
 2062              	.LBE325:
 2063              	.LBB326:
 2064              	.LBB258:
 2065              	.LBB257:
 2066 073a 0146     		mov	r1, r0
 2067 073c 1148     		ldr	r0, .L387+52
 2068              	.LVL243:
 2069 073e FFF7FEFF 		bl	chkres.part.0
 2070              	.LVL244:
 2071 0742 97E6     		b	.L167
 2072              	.LVL245:
 2073              	.L378:
 2074              	.LBE257:
 2075              	.LBE258:
 2076              	.LBE326:
ARM GAS  C:\Users\honet\AppData\Local\Temp\cc6gsi1c.s 			page 46


 2077              	.LBB327:
 2078              	.LBB303:
 2079              	.LBB302:
 2080 0744 0146     		mov	r1, r0
 2081 0746 0F48     		ldr	r0, .L387+52
 2082              	.LVL246:
 2083 0748 FFF7FEFF 		bl	chkres.part.0
 2084              	.LVL247:
 2085 074c 2BE7     		b	.L179
 2086              	.L388:
 2087 074e 00BF     		.align	2
 2088              	.L387:
 2089 0750 00000000 		.word	File
 2090 0754 4C030000 		.word	.LC51
 2091 0758 6C030000 		.word	.LC52
 2092 075c 00000000 		.word	buffer
 2093 0760 A8020000 		.word	.LC43
 2094 0764 B8020000 		.word	.LC44
 2095 0768 7C030000 		.word	.LC53
 2096 076c F8020000 		.word	.LC47
 2097 0770 4C020000 		.word	.LC37
 2098 0774 D0010000 		.word	.LC29
 2099 0778 B0010000 		.word	.LC27
 2100 077c 9C010000 		.word	.LC26
 2101 0780 C0010000 		.word	.LC28
 2102 0784 64020000 		.word	.LC39
 2103 0788 14030000 		.word	.LC48
 2104 078c A0020000 		.word	.LC42
 2105 0790 20030000 		.word	.LC49
 2106              	.LVL248:
 2107              	.L375:
 2108              	.LBE302:
 2109              	.LBE303:
 2110              	.LBE327:
 2111              	.LBB328:
 2112              	.LBB290:
 2113 0794 0146     		mov	r1, r0
 2114 0796 4648     		ldr	r0, .L389
 2115              	.LVL249:
 2116 0798 FFF7FEFF 		bl	chkres.part.0
 2117              	.LVL250:
 2118 079c EAE6     		b	.L177
 2119              	.LVL251:
 2120              	.L374:
 2121              	.LBE290:
 2122              	.LBE328:
 2123              	.LBB329:
 2124              	.LBB287:
 2125              	.LBB286:
 2126 079e 0146     		mov	r1, r0
 2127 07a0 4448     		ldr	r0, .L389+4
 2128              	.LVL252:
 2129 07a2 FFF7FEFF 		bl	chkres.part.0
 2130              	.LVL253:
 2131 07a6 C5E6     		b	.L175
 2132              	.LVL254:
 2133              	.L377:
ARM GAS  C:\Users\honet\AppData\Local\Temp\cc6gsi1c.s 			page 47


 2134              	.LBE286:
 2135              	.LBE287:
 2136              	.LBE329:
 2137              	.LBB330:
 2138              	.LBB296:
 2139 07a8 0146     		mov	r1, r0
 2140 07aa 4348     		ldr	r0, .L389+8
 2141              	.LVL255:
 2142 07ac FFF7FEFF 		bl	chkres.part.0
 2143              	.LVL256:
 2144 07b0 E0E6     		b	.L177
 2145              	.LVL257:
 2146              	.L376:
 2147              	.LBE296:
 2148              	.LBE330:
 2149              	.LBB331:
 2150              	.LBB293:
 2151 07b2 0146     		mov	r1, r0
 2152 07b4 4148     		ldr	r0, .L389+12
 2153              	.LVL258:
 2154 07b6 FFF7FEFF 		bl	chkres.part.0
 2155              	.LVL259:
 2156 07ba D5E6     		b	.L202
 2157              	.LVL260:
 2158              	.L371:
 2159              	.LBE293:
 2160              	.LBE331:
 2161              	.LBB332:
 2162              	.LBB267:
 2163 07bc 0146     		mov	r1, r0
 2164 07be 3E48     		ldr	r0, .L389+8
 2165              	.LVL261:
 2166 07c0 FFF7FEFF 		bl	chkres.part.0
 2167              	.LVL262:
 2168 07c4 70E6     		b	.L169
 2169              	.LVL263:
 2170              	.L370:
 2171              	.LBE267:
 2172              	.LBE332:
 2173              	.LBB333:
 2174              	.LBB264:
 2175 07c6 0146     		mov	r1, r0
 2176 07c8 3A48     		ldr	r0, .L389+4
 2177              	.LVL264:
 2178 07ca FFF7FEFF 		bl	chkres.part.0
 2179              	.LVL265:
 2180 07ce 65E6     		b	.L200
 2181              	.LVL266:
 2182              	.L353:
 2183              	.LBE264:
 2184              	.LBE333:
 2185              	.LBE345:
 2186              	.LBB346:
 128:.\main.c      **** 		case FS_FAT16:	dbgprint("FAT16\n"); break;
 2187              		.loc 1 128 0
 2188 07d0 3B4A     		ldr	r2, .L389+16
 2189 07d2 92E80300 		ldmia	r2, {r0, r1}
ARM GAS  C:\Users\honet\AppData\Local\Temp\cc6gsi1c.s 			page 48


 2190 07d6 0A0C     		lsrs	r2, r1, #16
 2191 07d8 3860     		str	r0, [r7]
 2192 07da ADF88C10 		strh	r1, [sp, #140]	@ movhi
 2193 07de 8DF88E20 		strb	r2, [sp, #142]
 2194              	.L129:
 128:.\main.c      **** 		case FS_FAT16:	dbgprint("FAT16\n"); break;
 2195              		.loc 1 128 0 is_stmt 0 discriminator 2
 2196 07e2 FFF7FEFF 		bl	USBUART_1_CDCIsReady
 2197              	.LVL267:
 2198 07e6 0028     		cmp	r0, #0
 2199 07e8 FBD0     		beq	.L129
 2200 07ea A4E4     		b	.L343
 2201              	.L127:
 2202              	.LBE346:
 2203              	.LBB347:
 130:.\main.c      **** 		default:		dbgprint("UNKNOWN\n"); break;
 2204              		.loc 1 130 0 is_stmt 1
 2205 07ec 354A     		ldr	r2, .L389+20
 2206 07ee 92E80300 		ldmia	r2, {r0, r1}
 2207 07f2 0A0C     		lsrs	r2, r1, #16
 2208 07f4 3860     		str	r0, [r7]
 2209 07f6 ADF88C10 		strh	r1, [sp, #140]	@ movhi
 2210 07fa 8DF88E20 		strb	r2, [sp, #142]
 2211              	.L132:
 130:.\main.c      **** 		default:		dbgprint("UNKNOWN\n"); break;
 2212              		.loc 1 130 0 is_stmt 0 discriminator 2
 2213 07fe FFF7FEFF 		bl	USBUART_1_CDCIsReady
 2214              	.LVL268:
 2215 0802 0028     		cmp	r0, #0
 2216 0804 FBD0     		beq	.L132
 2217 0806 96E4     		b	.L343
 2218              	.L126:
 2219              	.LBE347:
 2220              	.LBB348:
 129:.\main.c      **** 		case FS_FAT32:	dbgprint("FAT32\n"); break;
 2221              		.loc 1 129 0 is_stmt 1
 2222 0808 2F4A     		ldr	r2, .L389+24
 2223 080a 92E80300 		ldmia	r2, {r0, r1}
 2224 080e 0A0C     		lsrs	r2, r1, #16
 2225 0810 3860     		str	r0, [r7]
 2226 0812 ADF88C10 		strh	r1, [sp, #140]	@ movhi
 2227 0816 8DF88E20 		strb	r2, [sp, #142]
 2228              	.L131:
 129:.\main.c      **** 		case FS_FAT32:	dbgprint("FAT32\n"); break;
 2229              		.loc 1 129 0 is_stmt 0 discriminator 2
 2230 081a FFF7FEFF 		bl	USBUART_1_CDCIsReady
 2231              	.LVL269:
 2232 081e 0028     		cmp	r0, #0
 2233 0820 FBD0     		beq	.L131
 2234 0822 88E4     		b	.L343
 2235              	.LVL270:
 2236              	.L157:
 2237              	.LBE348:
 2238              	.LBB349:
 2239              	.LBB350:
 210:.\main.c      **** 
 2240              		.loc 1 210 0 is_stmt 1
ARM GAS  C:\Users\honet\AppData\Local\Temp\cc6gsi1c.s 			page 49


 2241 0824 3446     		mov	r4, r6
 2242              	.LVL271:
 2243 0826 294B     		ldr	r3, .L389+28
 2244 0828 0FCB     		ldmia	r3, {r0, r1, r2, r3}
 2245 082a 07C4     		stmia	r4!, {r0, r1, r2}
 2246 082c 1A0C     		lsrs	r2, r3, #16
 2247 082e 24F8023B 		strh	r3, [r4], #2	@ movhi
 2248 0832 2270     		strb	r2, [r4]
 2249              	.L161:
 210:.\main.c      **** 
 2250              		.loc 1 210 0 is_stmt 0 discriminator 2
 2251 0834 FFF7FEFF 		bl	USBUART_1_CDCIsReady
 2252              	.LVL272:
 2253 0838 0028     		cmp	r0, #0
 2254 083a FBD0     		beq	.L161
 210:.\main.c      **** 
 2255              		.loc 1 210 0 discriminator 3
 2256 083c 3046     		mov	r0, r6
 2257 083e FFF7FEFF 		bl	USBUART_1_PutString
 2258              	.LVL273:
 2259              	.LBE350:
 2260 0842 2249     		ldr	r1, .L389+28
 2261 0844 2248     		ldr	r0, .L389+32
 2262 0846 0E22     		movs	r2, #14
 2263 0848 3346     		mov	r3, r6
 2264 084a FFF7FEFF 		bl	f_write
 2265              	.LVL274:
 2266              	.LBB351:
 2267              	.LBB352:
  65:.\main.c      **** 		dbgprint("%s ERR! res=", func);
 2268              		.loc 1 65 0 is_stmt 1 discriminator 3
 2269 084e 0146     		mov	r1, r0
 2270 0850 0028     		cmp	r0, #0
 2271 0852 3FF4A8AD 		beq	.L160
 2272              	.LVL275:
 2273              	.L344:
 2274 0856 1748     		ldr	r0, .L389+4
 2275 0858 FFF7FEFF 		bl	chkres.part.0
 2276              	.LVL276:
 2277 085c A3E5     		b	.L160
 2278              	.LVL277:
 2279              	.L366:
 2280              	.LBE352:
 2281              	.LBE351:
 2282              	.LBE349:
 2283              	.LBB353:
 2284              	.LBB236:
 2285              	.LBB235:
 2286 085e 1548     		ldr	r0, .L389+4
 2287              	.LVL278:
 2288 0860 FFF7FEFF 		bl	chkres.part.0
 2289              	.LVL279:
 2290 0864 6EE5     		b	.L152
 2291              	.LVL280:
 2292              	.L367:
 2293              	.LBE235:
 2294              	.LBE236:
ARM GAS  C:\Users\honet\AppData\Local\Temp\cc6gsi1c.s 			page 50


 2295              	.LBE353:
 2296              	.LBB354:
 2297              	.LBB250:
 2298              	.LBB249:
 2299 0866 1348     		ldr	r0, .L389+4
 2300              	.LVL281:
 2301 0868 FFF7FEFF 		bl	chkres.part.0
 2302              	.LVL282:
 2303 086c B4E5     		b	.L164
 2304              	.LVL283:
 2305              	.L363:
 2306              	.LBE249:
 2307              	.LBE250:
 2308              	.LBE354:
 2309              	.LBB355:
 2310              	.LBB223:
 2311 086e 1048     		ldr	r0, .L389
 2312              	.LVL284:
 2313 0870 FFF7FEFF 		bl	chkres.part.0
 2314              	.LVL285:
 2315 0874 4CE5     		b	.L150
 2316              	.LVL286:
 2317              	.L362:
 2318              	.LBE223:
 2319              	.LBE355:
 2320              	.LBB356:
 2321              	.LBB220:
 2322              	.LBB219:
 2323 0876 0F48     		ldr	r0, .L389+4
 2324              	.LVL287:
 2325 0878 FFF7FEFF 		bl	chkres.part.0
 2326              	.LVL288:
 2327 087c 25E5     		b	.L148
 2328              	.LVL289:
 2329              	.L361:
 2330              	.LBE219:
 2331              	.LBE220:
 2332              	.LBE356:
 2333              	.LBB357:
 2334              	.LBB214:
 2335              	.LBB213:
 2336 087e 0D48     		ldr	r0, .L389+4
 2337              	.LVL290:
 2338 0880 FFF7FEFF 		bl	chkres.part.0
 2339              	.LVL291:
 2340 0884 0AE5     		b	.L146
 2341              	.LVL292:
 2342              	.L360:
 2343              	.LBE213:
 2344              	.LBE214:
 2345              	.LBE357:
 2346              	.LBB358:
 2347              	.LBB207:
 2348              	.LBB206:
 2349 0886 0B48     		ldr	r0, .L389+4
 2350              	.LVL293:
 2351 0888 FFF7FEFF 		bl	chkres.part.0
ARM GAS  C:\Users\honet\AppData\Local\Temp\cc6gsi1c.s 			page 51


 2352              	.LVL294:
 2353 088c EDE4     		b	.L144
 2354              	.LVL295:
 2355              	.L359:
 2356              	.LBE206:
 2357              	.LBE207:
 2358              	.LBE358:
 2359              	.LBB359:
 2360              	.LBB200:
 2361 088e 0A48     		ldr	r0, .L389+8
 2362              	.LVL296:
 2363 0890 FFF7FEFF 		bl	chkres.part.0
 2364              	.LVL297:
 2365 0894 CFE4     		b	.L142
 2366              	.LVL298:
 2367              	.L358:
 2368              	.LBE200:
 2369              	.LBE359:
 2370              	.LBB360:
 2371              	.LBB197:
 2372 0896 0748     		ldr	r0, .L389+4
 2373              	.LVL299:
 2374 0898 FFF7FEFF 		bl	chkres.part.0
 2375              	.LVL300:
 2376 089c C4E4     		b	.L196
 2377              	.LVL301:
 2378              	.L365:
 2379              	.LBE197:
 2380              	.LBE360:
 2381              	.LBB361:
 2382              	.LBB229:
 2383 089e 0648     		ldr	r0, .L389+8
 2384              	.LVL302:
 2385 08a0 FFF7FEFF 		bl	chkres.part.0
 2386              	.LVL303:
 2387 08a4 34E5     		b	.L150
 2388              	.LVL304:
 2389              	.L364:
 2390              	.LBE229:
 2391              	.LBE361:
 2392              	.LBB362:
 2393              	.LBB226:
 2394 08a6 0548     		ldr	r0, .L389+12
 2395              	.LVL305:
 2396 08a8 FFF7FEFF 		bl	chkres.part.0
 2397              	.LVL306:
 2398 08ac 29E5     		b	.L198
 2399              	.L390:
 2400 08ae 00BF     		.align	2
 2401              	.L389:
 2402 08b0 4C020000 		.word	.LC37
 2403 08b4 64020000 		.word	.LC39
 2404 08b8 A0020000 		.word	.LC42
 2405 08bc F0020000 		.word	.LC46
 2406 08c0 00020000 		.word	.LC31
 2407 08c4 10020000 		.word	.LC33
 2408 08c8 08020000 		.word	.LC32
ARM GAS  C:\Users\honet\AppData\Local\Temp\cc6gsi1c.s 			page 52


 2409 08cc 20030000 		.word	.LC49
 2410 08d0 00000000 		.word	File
 2411              	.LBE226:
 2412              	.LBE362:
 2413              		.cfi_endproc
 2414              	.LFE68:
 2415              		.size	sdcheck, .-sdcheck
 2416              		.section	.text.sdbench,"ax",%progbits
 2417              		.align	2
 2418              		.global	sdbench
 2419              		.thumb
 2420              		.thumb_func
 2421              		.type	sdbench, %function
 2422              	sdbench:
 2423              	.LFB69:
 290:.\main.c      **** 
 291:.\main.c      **** 
 292:.\main.c      **** void sdbench()
 293:.\main.c      **** {
 2424              		.loc 1 293 0
 2425              		.cfi_startproc
 2426              		@ args = 0, pretend = 0, frame = 1248
 2427              		@ frame_needed = 0, uses_anonymous_args = 0
 2428              	.LVL307:
 2429 0000 2DE9F047 		push	{r4, r5, r6, r7, r8, r9, r10, lr}
 2430              		.cfi_def_cfa_offset 32
 2431              		.cfi_offset 4, -32
 2432              		.cfi_offset 5, -28
 2433              		.cfi_offset 6, -24
 2434              		.cfi_offset 7, -20
 2435              		.cfi_offset 8, -16
 2436              		.cfi_offset 9, -12
 2437              		.cfi_offset 10, -8
 2438              		.cfi_offset 14, -4
 2439 0004 BB4D     		ldr	r5, .L487
 2440 0006 ADF59C6D 		sub	sp, sp, #1248
 2441              		.cfi_def_cfa_offset 1280
 2442              		.loc 1 293 0
 2443 000a 0024     		movs	r4, #0
 2444              	.LVL308:
 2445              	.L392:
 2446              	.LBB363:
 294:.\main.c      **** 	uint32_t nvals = BUFFER_SIZE/sizeof(double);
 295:.\main.c      **** 	double *vals = (double*)&buffer[0];
 296:.\main.c      ****     
 297:.\main.c      **** 	FATFS FileSys;
 298:.\main.c      **** 	FRESULT res;
 299:.\main.c      **** 	UINT BytesWritten, BytesRead;
 300:.\main.c      **** 	uint32_t nrepeat = 100;
 301:.\main.c      **** 	uint32_t size = 1;
 302:.\main.c      **** 	
 303:.\main.c      **** 	//generate dataset...
 304:.\main.c      **** 	for(int i = 0; i < nvals; i++) {
 305:.\main.c      **** 		vals[i] = (double)i*i;
 2447              		.loc 1 305 0 discriminator 3
 2448 000c 2046     		mov	r0, r4
 2449 000e FFF7FEFF 		bl	__aeabi_i2d
ARM GAS  C:\Users\honet\AppData\Local\Temp\cc6gsi1c.s 			page 53


 2450              	.LVL309:
 2451 0012 0246     		mov	r2, r0
 2452 0014 0B46     		mov	r3, r1
 2453 0016 FFF7FEFF 		bl	__aeabi_dmul
 2454              	.LVL310:
 304:.\main.c      **** 		vals[i] = (double)i*i;
 2455              		.loc 1 304 0 discriminator 3
 2456 001a 0134     		adds	r4, r4, #1
 2457              	.LVL311:
 2458 001c B4F5805F 		cmp	r4, #4096
 2459              		.loc 1 305 0 discriminator 3
 2460 0020 E5E80201 		strd	r0, [r5], #8
 304:.\main.c      **** 		vals[i] = (double)i*i;
 2461              		.loc 1 304 0 discriminator 3
 2462 0024 F2D1     		bne	.L392
 2463              	.LBE363:
 2464              	.LBB364:
 306:.\main.c      **** 	}
 307:.\main.c      **** 
 308:.\main.c      **** 	dbgprint("Try to mount...\n");
 2465              		.loc 1 308 0
 2466 0026 B44D     		ldr	r5, .L487+4
 2467 0028 ACAC     		add	r4, sp, #688
 2468              	.LVL312:
 2469 002a 0FCD     		ldmia	r5!, {r0, r1, r2, r3}
 2470 002c 0FC4     		stmia	r4!, {r0, r1, r2, r3}
 2471 002e 2B68     		ldr	r3, [r5]
 2472 0030 2370     		strb	r3, [r4]
 2473              	.L393:
 2474              		.loc 1 308 0 is_stmt 0 discriminator 2
 2475 0032 FFF7FEFF 		bl	USBUART_1_CDCIsReady
 2476              	.LVL313:
 2477 0036 0028     		cmp	r0, #0
 2478 0038 FBD0     		beq	.L393
 2479              		.loc 1 308 0 discriminator 3
 2480 003a ACA8     		add	r0, sp, #688
 2481 003c FFF7FEFF 		bl	USBUART_1_PutString
 2482              	.LVL314:
 2483              	.LBE364:
 309:.\main.c      **** 	DSTATUS dret = disk_initialize(0);     //initialise FatFS
 2484              		.loc 1 309 0 is_stmt 1 discriminator 3
 2485 0040 0020     		movs	r0, #0
 2486 0042 FFF7FEFF 		bl	disk_initialize
 2487              	.LVL315:
 2488 0046 0446     		mov	r4, r0
 2489              	.LVL316:
 2490              	.LBB365:
 310:.\main.c      **** 	dbgprint("disk_initialize ret=%d\n", dret);
 2491              		.loc 1 310 0 discriminator 3
 2492 0048 AC49     		ldr	r1, .L487+8
 2493 004a ACA8     		add	r0, sp, #688
 2494 004c 2246     		mov	r2, r4
 2495 004e FFF7FEFF 		bl	sprintf
 2496              	.LVL317:
 2497              	.L394:
 2498              		.loc 1 310 0 is_stmt 0 discriminator 2
 2499 0052 FFF7FEFF 		bl	USBUART_1_CDCIsReady
ARM GAS  C:\Users\honet\AppData\Local\Temp\cc6gsi1c.s 			page 54


 2500              	.LVL318:
 2501 0056 0028     		cmp	r0, #0
 2502 0058 FBD0     		beq	.L394
 2503              		.loc 1 310 0 discriminator 3
 2504 005a ACA8     		add	r0, sp, #688
 2505 005c FFF7FEFF 		bl	USBUART_1_PutString
 2506              	.LVL319:
 2507              	.LBE365:
 311:.\main.c      **** 	if(dret) goto err_exit;
 2508              		.loc 1 311 0 is_stmt 1 discriminator 3
 2509 0060 94B1     		cbz	r4, .L395
 2510 0062 22AC     		add	r4, sp, #136
 2511              	.LVL320:
 2512              	.L396:
 312:.\main.c      **** 
 313:.\main.c      **** 	FRESULT nRes;
 314:.\main.c      **** 	if ((nRes = f_mount(&FileSys, "/", 1)) != FR_OK) { //Fail to mount...
 315:.\main.c      **** 		dbgprint("SD-CARD mount ERROR!! nRes=");
 316:.\main.c      **** 		switch(nRes) {    //reasons...
 317:.\main.c      **** 		case FR_INVALID_DRIVE:	dbgprint("FR_INVALID_DRIVE\n"); break;
 318:.\main.c      **** 		case FR_DISK_ERR:		dbgprint("FR_DISK_ERR\n"); break;
 319:.\main.c      **** 		case FR_NOT_READY:		dbgprint("FR_NOT_READY\n"); break;
 320:.\main.c      **** 		case FR_NO_FILESYSTEM:	dbgprint("FR_NO_FILESYSTEM\n"); break;
 321:.\main.c      **** 		default: break;
 322:.\main.c      **** 		}
 323:.\main.c      **** 		goto err_exit;
 324:.\main.c      **** 	} else {
 325:.\main.c      **** 		//Mounted
 326:.\main.c      **** 		dbgprint("SD-CARD mounted. FSTYPE=");
 327:.\main.c      **** 		switch(FileSys.fs_type) { //In case filesys type is of interest
 328:.\main.c      **** 		case FS_FAT12:	dbgprint("FAT12\n"); break;
 329:.\main.c      **** 		case FS_FAT16:	dbgprint("FAT16\n"); break;
 330:.\main.c      **** 		case FS_FAT32:	dbgprint("FAT32\n"); break;
 331:.\main.c      **** 		default:		dbgprint("UNKNOWN\n"); break;
 332:.\main.c      **** 		}
 333:.\main.c      **** 	}
 334:.\main.c      **** 	
 335:.\main.c      **** 	//Now, enable DMA...
 336:.\main.c      **** 	SDSPI_SetDMAMode(1);
 337:.\main.c      **** 	dbgprint(">>>>> Start Benchmark.....\n");
 338:.\main.c      **** 	dbgprint("size, write(ms), write(kbps), read(ms), read(kbps)\n");
 339:.\main.c      **** 	
 340:.\main.c      **** 	for(size=1; size<0x10000; size*=2){
 341:.\main.c      **** 		dbgprint("%d, ",size);
 342:.\main.c      **** 
 343:.\main.c      **** 		if(size<0x20) nrepeat = 10000;
 344:.\main.c      **** 		else nrepeat = 100;
 345:.\main.c      **** 		
 346:.\main.c      **** 		uint32_t nCurrentMillis;
 347:.\main.c      **** 		FIL BinFile;
 348:.\main.c      **** 		res = f_open(&BinFile, "//TESTDMA.bin", FA_CREATE_ALWAYS | FA_WRITE);
 349:.\main.c      **** 		if (res==FR_OK){
 350:.\main.c      **** 			nCurrentMillis = nmillis; //get current millisecond count
 351:.\main.c      **** 			for(uint32_t k=0; k<nrepeat; k++){
 352:.\main.c      **** 				//res = f_lseek(&BinFile, 0);
 353:.\main.c      **** 				res = f_write(&BinFile, vals, size, &BytesWritten);
 354:.\main.c      **** 			}
ARM GAS  C:\Users\honet\AppData\Local\Temp\cc6gsi1c.s 			page 55


 355:.\main.c      **** 			uint32_t nTime = nmillis-nCurrentMillis;
 356:.\main.c      **** 			res = f_close(&BinFile);
 357:.\main.c      **** 
 358:.\main.c      **** 			dbgprint("%u, ", nTime);
 359:.\main.c      **** 			uint32_t kbps = nrepeat*size*8 / nTime;
 360:.\main.c      **** 			dbgprint("%u, ", kbps);
 361:.\main.c      **** 		}
 362:.\main.c      **** 
 363:.\main.c      **** 		res = f_open(&BinFile, "//TESTDMA.bin", FA_OPEN_EXISTING | FA_READ);
 364:.\main.c      **** 		if(res==FR_OK){
 365:.\main.c      **** 			nCurrentMillis = nmillis; //get current millisecond count
 366:.\main.c      **** 			for(uint32_t k=0; k<nrepeat; k++){
 367:.\main.c      **** 				//res = f_lseek(&BinFile, 0);
 368:.\main.c      **** 				res = f_read(&BinFile, vals, size, &BytesRead);
 369:.\main.c      **** 			}
 370:.\main.c      **** 			uint32_t nTime = nmillis-nCurrentMillis;
 371:.\main.c      **** 			res = f_close(&BinFile);
 372:.\main.c      **** 
 373:.\main.c      **** 			dbgprint("%u, ", nTime);
 374:.\main.c      **** 			uint32_t kbps = nrepeat*size*8 / nTime;
 375:.\main.c      **** 			dbgprint("%u, ", kbps);
 376:.\main.c      **** 		}
 377:.\main.c      **** 		//CyDelay(1000);
 378:.\main.c      **** 		dbgprint("\n");
 379:.\main.c      **** 	}
 380:.\main.c      **** 
 381:.\main.c      **** 
 382:.\main.c      **** err_exit:
 383:.\main.c      **** 	LEDControl_Write(0);
 2513              		.loc 1 383 0
 2514 0064 0020     		movs	r0, #0
 2515 0066 FFF7FEFF 		bl	LEDControl_Write
 2516              	.LVL321:
 2517              	.LBB366:
 384:.\main.c      **** 	dbgprint("TEST FINISHED!\n");
 2518              		.loc 1 384 0
 2519 006a A54B     		ldr	r3, .L487+12
 2520 006c 0FCB     		ldmia	r3, {r0, r1, r2, r3}
 2521 006e 84E80F00 		stmia	r4, {r0, r1, r2, r3}
 2522              	.L433:
 2523              		.loc 1 384 0 is_stmt 0 discriminator 2
 2524 0072 FFF7FEFF 		bl	USBUART_1_CDCIsReady
 2525              	.LVL322:
 2526 0076 0028     		cmp	r0, #0
 2527 0078 FBD0     		beq	.L433
 2528              		.loc 1 384 0 discriminator 3
 2529 007a 2046     		mov	r0, r4
 2530 007c FFF7FEFF 		bl	USBUART_1_PutString
 2531              	.LVL323:
 2532              	.LBE366:
 385:.\main.c      **** }
 2533              		.loc 1 385 0 is_stmt 1 discriminator 3
 2534 0080 0DF59C6D 		add	sp, sp, #1248
 2535              		.cfi_remember_state
 2536              		.cfi_def_cfa_offset 32
 2537              		@ sp needed
 2538 0084 BDE8F087 		pop	{r4, r5, r6, r7, r8, r9, r10, pc}
ARM GAS  C:\Users\honet\AppData\Local\Temp\cc6gsi1c.s 			page 56


 2539              	.LVL324:
 2540              	.L395:
 2541              		.cfi_restore_state
 314:.\main.c      **** 		dbgprint("SD-CARD mount ERROR!! nRes=");
 2542              		.loc 1 314 0
 2543 0088 ACA8     		add	r0, sp, #688
 2544 008a 9E49     		ldr	r1, .L487+16
 2545 008c 0122     		movs	r2, #1
 2546 008e FFF7FEFF 		bl	f_mount
 2547              	.LVL325:
 2548              	.LBB367:
 315:.\main.c      **** 		switch(nRes) {    //reasons...
 2549              		.loc 1 315 0
 2550 0092 22AC     		add	r4, sp, #136
 2551              	.LVL326:
 2552              	.LBE367:
 314:.\main.c      **** 		dbgprint("SD-CARD mount ERROR!! nRes=");
 2553              		.loc 1 314 0
 2554 0094 0746     		mov	r7, r0
 2555              	.LBB368:
 315:.\main.c      **** 		switch(nRes) {    //reasons...
 2556              		.loc 1 315 0
 2557 0096 2546     		mov	r5, r4
 2558              	.LBE368:
 314:.\main.c      **** 		dbgprint("SD-CARD mount ERROR!! nRes=");
 2559              		.loc 1 314 0
 2560 0098 70B3     		cbz	r0, .L397
 2561              	.LBB369:
 315:.\main.c      **** 		switch(nRes) {    //reasons...
 2562              		.loc 1 315 0
 2563 009a 9B4E     		ldr	r6, .L487+20
 2564 009c 0FCE     		ldmia	r6!, {r0, r1, r2, r3}
 2565              	.LVL327:
 2566 009e 0FC5     		stmia	r5!, {r0, r1, r2, r3}
 2567 00a0 96E80700 		ldmia	r6, {r0, r1, r2}
 2568 00a4 85E80700 		stmia	r5, {r0, r1, r2}
 2569              	.L398:
 315:.\main.c      **** 		switch(nRes) {    //reasons...
 2570              		.loc 1 315 0 is_stmt 0 discriminator 2
 2571 00a8 FFF7FEFF 		bl	USBUART_1_CDCIsReady
 2572              	.LVL328:
 2573 00ac 0028     		cmp	r0, #0
 2574 00ae FBD0     		beq	.L398
 315:.\main.c      **** 		switch(nRes) {    //reasons...
 2575              		.loc 1 315 0 discriminator 3
 2576 00b0 2046     		mov	r0, r4
 2577              	.LBE369:
 316:.\main.c      **** 		case FR_INVALID_DRIVE:	dbgprint("FR_INVALID_DRIVE\n"); break;
 2578              		.loc 1 316 0 is_stmt 1 discriminator 3
 2579 00b2 013F     		subs	r7, r7, #1
 2580              	.LBB370:
 315:.\main.c      **** 		switch(nRes) {    //reasons...
 2581              		.loc 1 315 0 discriminator 3
 2582 00b4 FFF7FEFF 		bl	USBUART_1_PutString
 2583              	.LVL329:
 2584              	.LBE370:
 316:.\main.c      **** 		case FR_INVALID_DRIVE:	dbgprint("FR_INVALID_DRIVE\n"); break;
ARM GAS  C:\Users\honet\AppData\Local\Temp\cc6gsi1c.s 			page 57


 2585              		.loc 1 316 0 discriminator 3
 2586 00b8 0C2F     		cmp	r7, #12
 2587 00ba D3D8     		bhi	.L396
 2588 00bc 01A3     		adr	r3, .L400
 2589 00be 53F827F0 		ldr	pc, [r3, r7, lsl #2]
 2590 00c2 00BF     		.p2align 2
 2591              	.L400:
 2592 00c4 39030000 		.word	.L399+1
 2593 00c8 65000000 		.word	.L396+1
 2594 00cc DF020000 		.word	.L401+1
 2595 00d0 65000000 		.word	.L396+1
 2596 00d4 65000000 		.word	.L396+1
 2597 00d8 65000000 		.word	.L396+1
 2598 00dc 65000000 		.word	.L396+1
 2599 00e0 65000000 		.word	.L396+1
 2600 00e4 65000000 		.word	.L396+1
 2601 00e8 65000000 		.word	.L396+1
 2602 00ec C9020000 		.word	.L402+1
 2603 00f0 65000000 		.word	.L396+1
 2604 00f4 AD020000 		.word	.L403+1
 2605              	.LVL330:
 2606              		.p2align 1
 2607              	.L397:
 2608              	.LBB371:
 326:.\main.c      **** 		switch(FileSys.fs_type) { //In case filesys type is of interest
 2609              		.loc 1 326 0
 2610 00f8 844E     		ldr	r6, .L487+24
 2611 00fa 0FCE     		ldmia	r6!, {r0, r1, r2, r3}
 2612              	.LVL331:
 2613 00fc 0FC5     		stmia	r5!, {r0, r1, r2, r3}
 2614 00fe 96E80700 		ldmia	r6, {r0, r1, r2}
 2615 0102 03C5     		stmia	r5!, {r0, r1}
 2616 0104 2A70     		strb	r2, [r5]
 2617              	.L408:
 326:.\main.c      **** 		switch(FileSys.fs_type) { //In case filesys type is of interest
 2618              		.loc 1 326 0 is_stmt 0 discriminator 2
 2619 0106 FFF7FEFF 		bl	USBUART_1_CDCIsReady
 2620              	.LVL332:
 2621 010a 0028     		cmp	r0, #0
 2622 010c FBD0     		beq	.L408
 326:.\main.c      **** 		switch(FileSys.fs_type) { //In case filesys type is of interest
 2623              		.loc 1 326 0 discriminator 3
 2624 010e 2046     		mov	r0, r4
 2625 0110 FFF7FEFF 		bl	USBUART_1_PutString
 2626              	.LVL333:
 2627              	.LBE371:
 327:.\main.c      **** 		case FS_FAT12:	dbgprint("FAT12\n"); break;
 2628              		.loc 1 327 0 is_stmt 1 discriminator 3
 2629 0114 9DF8B032 		ldrb	r3, [sp, #688]	@ zero_extendqisi2
 2630 0118 022B     		cmp	r3, #2
 2631 011a 00F03381 		beq	.L410
 2632 011e 032B     		cmp	r3, #3
 2633 0120 00F02281 		beq	.L411
 2634 0124 012B     		cmp	r3, #1
 2635 0126 00F01181 		beq	.L486
 2636              	.LBB372:
 331:.\main.c      **** 		}
ARM GAS  C:\Users\honet\AppData\Local\Temp\cc6gsi1c.s 			page 58


 2637              		.loc 1 331 0
 2638 012a 2346     		mov	r3, r4
 2639 012c 784A     		ldr	r2, .L487+28
 2640 012e 07CA     		ldmia	r2, {r0, r1, r2}
 2641 0130 03C3     		stmia	r3!, {r0, r1}
 2642 0132 1A70     		strb	r2, [r3]
 2643              	.L417:
 331:.\main.c      **** 		}
 2644              		.loc 1 331 0 is_stmt 0 discriminator 2
 2645 0134 FFF7FEFF 		bl	USBUART_1_CDCIsReady
 2646              	.LVL334:
 2647 0138 0028     		cmp	r0, #0
 2648 013a FBD0     		beq	.L417
 2649              	.L483:
 2650              	.LBE372:
 2651              	.LBB373:
 337:.\main.c      **** 	dbgprint("size, write(ms), write(kbps), read(ms), read(kbps)\n");
 2652              		.loc 1 337 0 is_stmt 1 discriminator 3
 2653 013c 2546     		mov	r5, r4
 2654              	.LBE373:
 2655              	.LBB374:
 331:.\main.c      **** 		}
 2656              		.loc 1 331 0 discriminator 3
 2657 013e 2046     		mov	r0, r4
 2658              	.LBE374:
 2659              	.LBB375:
 337:.\main.c      **** 	dbgprint("size, write(ms), write(kbps), read(ms), read(kbps)\n");
 2660              		.loc 1 337 0 discriminator 3
 2661 0140 744E     		ldr	r6, .L487+32
 2662              	.LBE375:
 2663              	.LBB376:
 331:.\main.c      **** 		}
 2664              		.loc 1 331 0 discriminator 3
 2665 0142 FFF7FEFF 		bl	USBUART_1_PutString
 2666              	.LVL335:
 2667              	.LBE376:
 336:.\main.c      **** 	dbgprint(">>>>> Start Benchmark.....\n");
 2668              		.loc 1 336 0 discriminator 3
 2669 0146 0120     		movs	r0, #1
 2670 0148 FFF7FEFF 		bl	SDSPI_SetDMAMode
 2671              	.LVL336:
 2672              	.LBB377:
 337:.\main.c      **** 	dbgprint("size, write(ms), write(kbps), read(ms), read(kbps)\n");
 2673              		.loc 1 337 0 discriminator 3
 2674 014c 0FCE     		ldmia	r6!, {r0, r1, r2, r3}
 2675 014e 0FC5     		stmia	r5!, {r0, r1, r2, r3}
 2676 0150 96E80700 		ldmia	r6, {r0, r1, r2}
 2677 0154 85E80700 		stmia	r5, {r0, r1, r2}
 2678              	.L418:
 337:.\main.c      **** 	dbgprint("size, write(ms), write(kbps), read(ms), read(kbps)\n");
 2679              		.loc 1 337 0 is_stmt 0 discriminator 2
 2680 0158 FFF7FEFF 		bl	USBUART_1_CDCIsReady
 2681              	.LVL337:
 2682 015c 0028     		cmp	r0, #0
 2683 015e FBD0     		beq	.L418
 2684              	.LBE377:
 2685              	.LBB378:
ARM GAS  C:\Users\honet\AppData\Local\Temp\cc6gsi1c.s 			page 59


 338:.\main.c      **** 	
 2686              		.loc 1 338 0 is_stmt 1 discriminator 3
 2687 0160 2546     		mov	r5, r4
 2688 0162 6D4E     		ldr	r6, .L487+36
 2689              	.LBE378:
 2690              	.LBB379:
 337:.\main.c      **** 	dbgprint("size, write(ms), write(kbps), read(ms), read(kbps)\n");
 2691              		.loc 1 337 0 discriminator 3
 2692 0164 2046     		mov	r0, r4
 2693 0166 FFF7FEFF 		bl	USBUART_1_PutString
 2694              	.LVL338:
 2695              	.LBE379:
 2696              	.LBB380:
 338:.\main.c      **** 	
 2697              		.loc 1 338 0 discriminator 3
 2698 016a 0FCE     		ldmia	r6!, {r0, r1, r2, r3}
 2699 016c 0FC5     		stmia	r5!, {r0, r1, r2, r3}
 2700 016e 0FCE     		ldmia	r6!, {r0, r1, r2, r3}
 2701 0170 0FC5     		stmia	r5!, {r0, r1, r2, r3}
 2702 0172 0FCE     		ldmia	r6!, {r0, r1, r2, r3}
 2703 0174 0FC5     		stmia	r5!, {r0, r1, r2, r3}
 2704 0176 3368     		ldr	r3, [r6]
 2705 0178 2B60     		str	r3, [r5]
 2706              	.L419:
 338:.\main.c      **** 	
 2707              		.loc 1 338 0 is_stmt 0 discriminator 2
 2708 017a FFF7FEFF 		bl	USBUART_1_CDCIsReady
 2709              	.LVL339:
 2710 017e 0028     		cmp	r0, #0
 2711 0180 FBD0     		beq	.L419
 338:.\main.c      **** 	
 2712              		.loc 1 338 0 discriminator 3
 2713 0182 2046     		mov	r0, r4
 2714 0184 FFF7FEFF 		bl	USBUART_1_PutString
 2715              	.LVL340:
 2716              	.LBE380:
 2717              	.LBB381:
 2718              	.LBB382:
 350:.\main.c      **** 			for(uint32_t k=0; k<nrepeat; k++){
 2719              		.loc 1 350 0 is_stmt 1 discriminator 3
 2720 0188 DFF8A891 		ldr	r9, .L487+64
 2721              	.LBE382:
 2722              	.LBE381:
 2723              	.LBB395:
 2724 018c 4FF01008 		mov	r8, #16
 2725              	.LBE395:
 340:.\main.c      **** 		dbgprint("%d, ",size);
 2726              		.loc 1 340 0 discriminator 3
 2727 0190 0126     		movs	r6, #1
 2728              	.LVL341:
 2729              	.L431:
 2730              	.LBB396:
 2731              	.LBB387:
 341:.\main.c      **** 
 2732              		.loc 1 341 0
 2733 0192 2046     		mov	r0, r4
 2734 0194 6149     		ldr	r1, .L487+40
ARM GAS  C:\Users\honet\AppData\Local\Temp\cc6gsi1c.s 			page 60


 2735 0196 3246     		mov	r2, r6
 2736 0198 FFF7FEFF 		bl	sprintf
 2737              	.LVL342:
 2738              	.L420:
 341:.\main.c      **** 
 2739              		.loc 1 341 0 is_stmt 0 discriminator 2
 2740 019c FFF7FEFF 		bl	USBUART_1_CDCIsReady
 2741              	.LVL343:
 2742 01a0 0028     		cmp	r0, #0
 2743 01a2 FBD0     		beq	.L420
 341:.\main.c      **** 
 2744              		.loc 1 341 0 discriminator 3
 2745 01a4 2046     		mov	r0, r4
 2746 01a6 FFF7FEFF 		bl	USBUART_1_PutString
 2747              	.LVL344:
 2748              	.LBE387:
 344:.\main.c      **** 		
 2749              		.loc 1 344 0 is_stmt 1 discriminator 3
 2750 01aa 202E     		cmp	r6, #32
 348:.\main.c      **** 		if (res==FR_OK){
 2751              		.loc 1 348 0 discriminator 3
 2752 01ac 2046     		mov	r0, r4
 2753 01ae 5C49     		ldr	r1, .L487+44
 2754 01b0 4FF00A02 		mov	r2, #10
 344:.\main.c      **** 		
 2755              		.loc 1 344 0 discriminator 3
 2756 01b4 42F21077 		movw	r7, #10000
 2757 01b8 28BF     		it	cs
 2758 01ba 6427     		movcs	r7, #100
 2759              	.LVL345:
 348:.\main.c      **** 		if (res==FR_OK){
 2760              		.loc 1 348 0 discriminator 3
 2761 01bc FFF7FEFF 		bl	f_open
 2762              	.LVL346:
 349:.\main.c      **** 			nCurrentMillis = nmillis; //get current millisecond count
 2763              		.loc 1 349 0 discriminator 3
 2764 01c0 70BB     		cbnz	r0, .L422
 2765              	.LBB388:
 2766              	.LBB383:
 351:.\main.c      **** 				//res = f_lseek(&BinFile, 0);
 2767              		.loc 1 351 0
 2768 01c2 0546     		mov	r5, r0
 2769              	.LBE383:
 350:.\main.c      **** 			for(uint32_t k=0; k<nrepeat; k++){
 2770              		.loc 1 350 0
 2771 01c4 D9F800A0 		ldr	r10, [r9]
 2772              	.LVL347:
 2773              	.L423:
 2774              	.LBB384:
 351:.\main.c      **** 				//res = f_lseek(&BinFile, 0);
 2775              		.loc 1 351 0 discriminator 3
 2776 01c8 0135     		adds	r5, r5, #1
 2777              	.LVL348:
 353:.\main.c      **** 			}
 2778              		.loc 1 353 0 discriminator 3
 2779 01ca 2046     		mov	r0, r4
 2780 01cc 4949     		ldr	r1, .L487
ARM GAS  C:\Users\honet\AppData\Local\Temp\cc6gsi1c.s 			page 61


 2781 01ce 3246     		mov	r2, r6
 2782 01d0 6B46     		mov	r3, sp
 2783 01d2 FFF7FEFF 		bl	f_write
 2784              	.LVL349:
 351:.\main.c      **** 				//res = f_lseek(&BinFile, 0);
 2785              		.loc 1 351 0 discriminator 3
 2786 01d6 BD42     		cmp	r5, r7
 2787 01d8 F6D1     		bne	.L423
 2788              	.LBE384:
 355:.\main.c      **** 			res = f_close(&BinFile);
 2789              		.loc 1 355 0
 2790 01da D9F80030 		ldr	r3, [r9]
 356:.\main.c      **** 
 2791              		.loc 1 356 0
 2792 01de 2046     		mov	r0, r4
 355:.\main.c      **** 			res = f_close(&BinFile);
 2793              		.loc 1 355 0
 2794 01e0 CAEB0305 		rsb	r5, r10, r3
 2795              	.LVL350:
 356:.\main.c      **** 
 2796              		.loc 1 356 0
 2797 01e4 FFF7FEFF 		bl	f_close
 2798              	.LVL351:
 2799              	.LBB385:
 358:.\main.c      **** 			uint32_t kbps = nrepeat*size*8 / nTime;
 2800              		.loc 1 358 0
 2801 01e8 02A8     		add	r0, sp, #8
 2802 01ea 2A46     		mov	r2, r5
 2803 01ec 4D49     		ldr	r1, .L487+48
 2804 01ee FFF7FEFF 		bl	sprintf
 2805              	.LVL352:
 2806              	.L424:
 358:.\main.c      **** 			uint32_t kbps = nrepeat*size*8 / nTime;
 2807              		.loc 1 358 0 is_stmt 0 discriminator 2
 2808 01f2 FFF7FEFF 		bl	USBUART_1_CDCIsReady
 2809              	.LVL353:
 2810 01f6 0028     		cmp	r0, #0
 2811 01f8 FBD0     		beq	.L424
 358:.\main.c      **** 			uint32_t kbps = nrepeat*size*8 / nTime;
 2812              		.loc 1 358 0 discriminator 3
 2813 01fa 02A8     		add	r0, sp, #8
 2814 01fc FFF7FEFF 		bl	USBUART_1_PutString
 2815              	.LVL354:
 2816 0200 F200     		lsls	r2, r6, #3
 2817              	.LBE385:
 359:.\main.c      **** 			dbgprint("%u, ", kbps);
 2818              		.loc 1 359 0 is_stmt 1 discriminator 3
 2819 0202 07FB02F2 		mul	r2, r7, r2
 2820              	.LBB386:
 360:.\main.c      **** 		}
 2821              		.loc 1 360 0 discriminator 3
 2822 0206 02A8     		add	r0, sp, #8
 2823 0208 B2FBF5F2 		udiv	r2, r2, r5
 2824              	.LVL355:
 2825 020c 4549     		ldr	r1, .L487+48
 2826 020e FFF7FEFF 		bl	sprintf
 2827              	.LVL356:
ARM GAS  C:\Users\honet\AppData\Local\Temp\cc6gsi1c.s 			page 62


 2828              	.L425:
 360:.\main.c      **** 		}
 2829              		.loc 1 360 0 is_stmt 0 discriminator 2
 2830 0212 FFF7FEFF 		bl	USBUART_1_CDCIsReady
 2831              	.LVL357:
 2832 0216 0028     		cmp	r0, #0
 2833 0218 FBD0     		beq	.L425
 360:.\main.c      **** 		}
 2834              		.loc 1 360 0 discriminator 3
 2835 021a 02A8     		add	r0, sp, #8
 2836 021c FFF7FEFF 		bl	USBUART_1_PutString
 2837              	.LVL358:
 2838              	.L422:
 2839              	.LBE386:
 2840              	.LBE388:
 363:.\main.c      **** 		if(res==FR_OK){
 2841              		.loc 1 363 0 is_stmt 1
 2842 0220 2046     		mov	r0, r4
 2843 0222 3F49     		ldr	r1, .L487+44
 2844 0224 0122     		movs	r2, #1
 2845 0226 FFF7FEFF 		bl	f_open
 2846              	.LVL359:
 364:.\main.c      **** 			nCurrentMillis = nmillis; //get current millisecond count
 2847              		.loc 1 364 0
 2848 022a 70BB     		cbnz	r0, .L426
 2849              	.LBB389:
 2850              	.LBB390:
 366:.\main.c      **** 				//res = f_lseek(&BinFile, 0);
 2851              		.loc 1 366 0
 2852 022c 0546     		mov	r5, r0
 2853              	.LBE390:
 365:.\main.c      **** 			for(uint32_t k=0; k<nrepeat; k++){
 2854              		.loc 1 365 0
 2855 022e D9F800A0 		ldr	r10, [r9]
 2856              	.LVL360:
 2857              	.L427:
 2858              	.LBB391:
 366:.\main.c      **** 				//res = f_lseek(&BinFile, 0);
 2859              		.loc 1 366 0 discriminator 3
 2860 0232 0135     		adds	r5, r5, #1
 2861              	.LVL361:
 368:.\main.c      **** 			}
 2862              		.loc 1 368 0 discriminator 3
 2863 0234 2046     		mov	r0, r4
 2864 0236 2F49     		ldr	r1, .L487
 2865 0238 3246     		mov	r2, r6
 2866 023a 01AB     		add	r3, sp, #4
 2867 023c FFF7FEFF 		bl	f_read
 2868              	.LVL362:
 366:.\main.c      **** 				//res = f_lseek(&BinFile, 0);
 2869              		.loc 1 366 0 discriminator 3
 2870 0240 BD42     		cmp	r5, r7
 2871 0242 F6D1     		bne	.L427
 2872              	.LBE391:
 370:.\main.c      **** 			res = f_close(&BinFile);
 2873              		.loc 1 370 0
 2874 0244 D9F80030 		ldr	r3, [r9]
ARM GAS  C:\Users\honet\AppData\Local\Temp\cc6gsi1c.s 			page 63


 371:.\main.c      **** 
 2875              		.loc 1 371 0
 2876 0248 2046     		mov	r0, r4
 370:.\main.c      **** 			res = f_close(&BinFile);
 2877              		.loc 1 370 0
 2878 024a CAEB0305 		rsb	r5, r10, r3
 2879              	.LVL363:
 371:.\main.c      **** 
 2880              		.loc 1 371 0
 2881 024e FFF7FEFF 		bl	f_close
 2882              	.LVL364:
 2883              	.LBB392:
 373:.\main.c      **** 			uint32_t kbps = nrepeat*size*8 / nTime;
 2884              		.loc 1 373 0
 2885 0252 02A8     		add	r0, sp, #8
 2886 0254 2A46     		mov	r2, r5
 2887 0256 3349     		ldr	r1, .L487+48
 2888 0258 FFF7FEFF 		bl	sprintf
 2889              	.LVL365:
 2890              	.L428:
 373:.\main.c      **** 			uint32_t kbps = nrepeat*size*8 / nTime;
 2891              		.loc 1 373 0 is_stmt 0 discriminator 2
 2892 025c FFF7FEFF 		bl	USBUART_1_CDCIsReady
 2893              	.LVL366:
 2894 0260 0028     		cmp	r0, #0
 2895 0262 FBD0     		beq	.L428
 373:.\main.c      **** 			uint32_t kbps = nrepeat*size*8 / nTime;
 2896              		.loc 1 373 0 discriminator 3
 2897 0264 02A8     		add	r0, sp, #8
 2898 0266 FFF7FEFF 		bl	USBUART_1_PutString
 2899              	.LVL367:
 2900 026a F200     		lsls	r2, r6, #3
 2901              	.LBE392:
 374:.\main.c      **** 			dbgprint("%u, ", kbps);
 2902              		.loc 1 374 0 is_stmt 1 discriminator 3
 2903 026c 07FB02F2 		mul	r2, r7, r2
 2904              	.LBB393:
 375:.\main.c      **** 		}
 2905              		.loc 1 375 0 discriminator 3
 2906 0270 02A8     		add	r0, sp, #8
 2907 0272 B2FBF5F2 		udiv	r2, r2, r5
 2908              	.LVL368:
 2909 0276 2B49     		ldr	r1, .L487+48
 2910 0278 FFF7FEFF 		bl	sprintf
 2911              	.LVL369:
 2912              	.L429:
 375:.\main.c      **** 		}
 2913              		.loc 1 375 0 is_stmt 0 discriminator 2
 2914 027c FFF7FEFF 		bl	USBUART_1_CDCIsReady
 2915              	.LVL370:
 2916 0280 0028     		cmp	r0, #0
 2917 0282 FBD0     		beq	.L429
 375:.\main.c      **** 		}
 2918              		.loc 1 375 0 discriminator 3
 2919 0284 02A8     		add	r0, sp, #8
 2920 0286 FFF7FEFF 		bl	USBUART_1_PutString
 2921              	.LVL371:
ARM GAS  C:\Users\honet\AppData\Local\Temp\cc6gsi1c.s 			page 64


 2922              	.L426:
 2923              	.LBE393:
 2924              	.LBE389:
 2925              	.LBB394:
 378:.\main.c      **** 	}
 2926              		.loc 1 378 0 is_stmt 1
 2927 028a 0A23     		movs	r3, #10
 2928 028c ADF80830 		strh	r3, [sp, #8]	@ movhi
 2929              	.L430:
 378:.\main.c      **** 	}
 2930              		.loc 1 378 0 is_stmt 0 discriminator 2
 2931 0290 FFF7FEFF 		bl	USBUART_1_CDCIsReady
 2932              	.LVL372:
 2933 0294 0028     		cmp	r0, #0
 2934 0296 FBD0     		beq	.L430
 378:.\main.c      **** 	}
 2935              		.loc 1 378 0 discriminator 3
 2936 0298 02A8     		add	r0, sp, #8
 2937 029a FFF7FEFF 		bl	USBUART_1_PutString
 2938              	.LVL373:
 2939              	.LBE394:
 2940              	.LBE396:
 340:.\main.c      **** 		dbgprint("%d, ",size);
 2941              		.loc 1 340 0 is_stmt 1 discriminator 3
 2942 029e B8F10108 		subs	r8, r8, #1
 2943 02a2 4FEA4606 		lsl	r6, r6, #1
 2944              	.LVL374:
 2945 02a6 7FF474AF 		bne	.L431
 2946 02aa DBE6     		b	.L396
 2947              	.LVL375:
 2948              	.L403:
 2949              	.LBB397:
 320:.\main.c      **** 		default: break;
 2950              		.loc 1 320 0
 2951 02ac 2546     		mov	r5, r4
 2952 02ae 1E4E     		ldr	r6, .L487+52
 2953 02b0 0FCE     		ldmia	r6!, {r0, r1, r2, r3}
 2954 02b2 0FC5     		stmia	r5!, {r0, r1, r2, r3}
 2955 02b4 3368     		ldr	r3, [r6]
 2956 02b6 2B80     		strh	r3, [r5]	@ movhi
 2957              	.L407:
 320:.\main.c      **** 		default: break;
 2958              		.loc 1 320 0 is_stmt 0 discriminator 2
 2959 02b8 FFF7FEFF 		bl	USBUART_1_CDCIsReady
 2960              	.LVL376:
 2961 02bc 0028     		cmp	r0, #0
 2962 02be FBD0     		beq	.L407
 2963              	.L485:
 320:.\main.c      **** 		default: break;
 2964              		.loc 1 320 0 discriminator 3
 2965 02c0 2046     		mov	r0, r4
 2966 02c2 FFF7FEFF 		bl	USBUART_1_PutString
 2967              	.LVL377:
 2968              	.LBE397:
 2969 02c6 CDE6     		b	.L396
 2970              	.L402:
 2971              	.LBB398:
ARM GAS  C:\Users\honet\AppData\Local\Temp\cc6gsi1c.s 			page 65


 317:.\main.c      **** 		case FR_DISK_ERR:		dbgprint("FR_DISK_ERR\n"); break;
 2972              		.loc 1 317 0 is_stmt 1
 2973 02c8 2546     		mov	r5, r4
 2974 02ca 184E     		ldr	r6, .L487+56
 2975 02cc 0FCE     		ldmia	r6!, {r0, r1, r2, r3}
 2976 02ce 0FC5     		stmia	r5!, {r0, r1, r2, r3}
 2977 02d0 3368     		ldr	r3, [r6]
 2978 02d2 2B80     		strh	r3, [r5]	@ movhi
 2979              	.L404:
 317:.\main.c      **** 		case FR_DISK_ERR:		dbgprint("FR_DISK_ERR\n"); break;
 2980              		.loc 1 317 0 is_stmt 0 discriminator 2
 2981 02d4 FFF7FEFF 		bl	USBUART_1_CDCIsReady
 2982              	.LVL378:
 2983 02d8 0028     		cmp	r0, #0
 2984 02da FBD0     		beq	.L404
 2985 02dc F0E7     		b	.L485
 2986              	.L401:
 2987              	.LBE398:
 2988              	.LBB399:
 319:.\main.c      **** 		case FR_NO_FILESYSTEM:	dbgprint("FR_NO_FILESYSTEM\n"); break;
 2989              		.loc 1 319 0 is_stmt 1
 2990 02de 2546     		mov	r5, r4
 2991 02e0 134B     		ldr	r3, .L487+60
 2992 02e2 0FCB     		ldmia	r3, {r0, r1, r2, r3}
 2993 02e4 07C5     		stmia	r5!, {r0, r1, r2}
 2994 02e6 2B80     		strh	r3, [r5]	@ movhi
 2995              	.L406:
 319:.\main.c      **** 		case FR_NO_FILESYSTEM:	dbgprint("FR_NO_FILESYSTEM\n"); break;
 2996              		.loc 1 319 0 is_stmt 0 discriminator 2
 2997 02e8 FFF7FEFF 		bl	USBUART_1_CDCIsReady
 2998              	.LVL379:
 2999 02ec 0028     		cmp	r0, #0
 3000 02ee FBD0     		beq	.L406
 3001 02f0 E6E7     		b	.L485
 3002              	.L488:
 3003 02f2 00BF     		.align	2
 3004              	.L487:
 3005 02f4 00000000 		.word	buffer
 3006 02f8 50010000 		.word	.LC22
 3007 02fc 64010000 		.word	.LC23
 3008 0300 A0030000 		.word	.LC54
 3009 0304 7C010000 		.word	.LC24
 3010 0308 80010000 		.word	.LC25
 3011 030c E4010000 		.word	.LC30
 3012 0310 18020000 		.word	.LC34
 3013 0314 B0030000 		.word	.LC55
 3014 0318 CC030000 		.word	.LC56
 3015 031c 00040000 		.word	.LC57
 3016 0320 6C030000 		.word	.LC52
 3017 0324 08040000 		.word	.LC58
 3018 0328 D0010000 		.word	.LC29
 3019 032c 9C010000 		.word	.LC26
 3020 0330 C0010000 		.word	.LC28
 3021 0334 00000000 		.word	.LANCHOR0
 3022              	.L399:
 3023              	.LBE399:
 3024              	.LBB400:
ARM GAS  C:\Users\honet\AppData\Local\Temp\cc6gsi1c.s 			page 66


 318:.\main.c      **** 		case FR_NOT_READY:		dbgprint("FR_NOT_READY\n"); break;
 3025              		.loc 1 318 0 is_stmt 1
 3026 0338 2546     		mov	r5, r4
 3027 033a 194B     		ldr	r3, .L489
 3028 033c 0FCB     		ldmia	r3, {r0, r1, r2, r3}
 3029 033e 07C5     		stmia	r5!, {r0, r1, r2}
 3030 0340 2B70     		strb	r3, [r5]
 3031              	.L405:
 318:.\main.c      **** 		case FR_NOT_READY:		dbgprint("FR_NOT_READY\n"); break;
 3032              		.loc 1 318 0 is_stmt 0 discriminator 2
 3033 0342 FFF7FEFF 		bl	USBUART_1_CDCIsReady
 3034              	.LVL380:
 3035 0346 0028     		cmp	r0, #0
 3036 0348 FBD0     		beq	.L405
 3037 034a B9E7     		b	.L485
 3038              	.L486:
 3039              	.LBE400:
 3040              	.LBB401:
 328:.\main.c      **** 		case FS_FAT16:	dbgprint("FAT16\n"); break;
 3041              		.loc 1 328 0 is_stmt 1
 3042 034c 154A     		ldr	r2, .L489+4
 3043 034e 92E80300 		ldmia	r2, {r0, r1}
 3044 0352 0A0C     		lsrs	r2, r1, #16
 3045 0354 2060     		str	r0, [r4]
 3046 0356 ADF88C10 		strh	r1, [sp, #140]	@ movhi
 3047 035a 8DF88E20 		strb	r2, [sp, #142]
 3048              	.L413:
 328:.\main.c      **** 		case FS_FAT16:	dbgprint("FAT16\n"); break;
 3049              		.loc 1 328 0 is_stmt 0 discriminator 2
 3050 035e FFF7FEFF 		bl	USBUART_1_CDCIsReady
 3051              	.LVL381:
 3052 0362 0028     		cmp	r0, #0
 3053 0364 FBD0     		beq	.L413
 3054 0366 E9E6     		b	.L483
 3055              	.L411:
 3056              	.LBE401:
 3057              	.LBB402:
 330:.\main.c      **** 		default:		dbgprint("UNKNOWN\n"); break;
 3058              		.loc 1 330 0 is_stmt 1
 3059 0368 0F4A     		ldr	r2, .L489+8
 3060 036a 92E80300 		ldmia	r2, {r0, r1}
 3061 036e 0A0C     		lsrs	r2, r1, #16
 3062 0370 2060     		str	r0, [r4]
 3063 0372 ADF88C10 		strh	r1, [sp, #140]	@ movhi
 3064 0376 8DF88E20 		strb	r2, [sp, #142]
 3065              	.L416:
 330:.\main.c      **** 		default:		dbgprint("UNKNOWN\n"); break;
 3066              		.loc 1 330 0 is_stmt 0 discriminator 2
 3067 037a FFF7FEFF 		bl	USBUART_1_CDCIsReady
 3068              	.LVL382:
 3069 037e 0028     		cmp	r0, #0
 3070 0380 FBD0     		beq	.L416
 3071 0382 DBE6     		b	.L483
 3072              	.L410:
 3073              	.LBE402:
 3074              	.LBB403:
 329:.\main.c      **** 		case FS_FAT32:	dbgprint("FAT32\n"); break;
ARM GAS  C:\Users\honet\AppData\Local\Temp\cc6gsi1c.s 			page 67


 3075              		.loc 1 329 0 is_stmt 1
 3076 0384 094A     		ldr	r2, .L489+12
 3077 0386 92E80300 		ldmia	r2, {r0, r1}
 3078 038a 0A0C     		lsrs	r2, r1, #16
 3079 038c 2060     		str	r0, [r4]
 3080 038e ADF88C10 		strh	r1, [sp, #140]	@ movhi
 3081 0392 8DF88E20 		strb	r2, [sp, #142]
 3082              	.L415:
 329:.\main.c      **** 		case FS_FAT32:	dbgprint("FAT32\n"); break;
 3083              		.loc 1 329 0 is_stmt 0 discriminator 2
 3084 0396 FFF7FEFF 		bl	USBUART_1_CDCIsReady
 3085              	.LVL383:
 3086 039a 0028     		cmp	r0, #0
 3087 039c FBD0     		beq	.L415
 3088 039e CDE6     		b	.L483
 3089              	.L490:
 3090              		.align	2
 3091              	.L489:
 3092 03a0 B0010000 		.word	.LC27
 3093 03a4 00020000 		.word	.LC31
 3094 03a8 10020000 		.word	.LC33
 3095 03ac 08020000 		.word	.LC32
 3096              	.LBE403:
 3097              		.cfi_endproc
 3098              	.LFE69:
 3099              		.size	sdbench, .-sdbench
 3100              		.section	.text.startup.main,"ax",%progbits
 3101              		.align	2
 3102              		.global	main
 3103              		.thumb
 3104              		.thumb_func
 3105              		.type	main, %function
 3106              	main:
 3107              	.LFB70:
 386:.\main.c      **** 
 387:.\main.c      **** 
 388:.\main.c      **** int main()
 389:.\main.c      **** {
 3108              		.loc 1 389 0 is_stmt 1
 3109              		.cfi_startproc
 3110              		@ args = 0, pretend = 0, frame = 128
 3111              		@ frame_needed = 0, uses_anonymous_args = 0
 3112 0000 30B5     		push	{r4, r5, lr}
 3113              		.cfi_def_cfa_offset 12
 3114              		.cfi_offset 4, -12
 3115              		.cfi_offset 5, -8
 3116              		.cfi_offset 14, -4
 390:.\main.c      **** 	//    SysResetReg_Write(1);
 391:.\main.c      **** 	//    CyDelay(1);
 392:.\main.c      **** 	//    SysResetReg_Write(0);
 393:.\main.c      **** 
 394:.\main.c      ****     CyDelay(1000);
 3117              		.loc 1 394 0
 3118 0002 4FF47A70 		mov	r0, #1000
 389:.\main.c      **** 	//    SysResetReg_Write(1);
 3119              		.loc 1 389 0
 3120 0006 A1B0     		sub	sp, sp, #132
ARM GAS  C:\Users\honet\AppData\Local\Temp\cc6gsi1c.s 			page 68


 3121              		.cfi_def_cfa_offset 144
 3122              		.loc 1 394 0
 3123 0008 FFF7FEFF 		bl	CyDelay
 3124              	.LVL384:
 395:.\main.c      **** 	LEDControl_Write(1);
 3125              		.loc 1 395 0
 3126 000c 0120     		movs	r0, #1
 3127 000e FFF7FEFF 		bl	LEDControl_Write
 3128              	.LVL385:
 396:.\main.c      **** 	CyGlobalIntEnable;              //Enable interrupts
 3129              		.loc 1 396 0
 3130              	@ 396 ".\main.c" 1
 3131 0012 62B6     		CPSIE   i
 3132              	@ 0 "" 2
 397:.\main.c      **** 
 398:.\main.c      **** 	USBUART_1_Start(0, USBUART_1_DWR_VDDD_OPERATION);
 3133              		.loc 1 398 0
 3134              		.thumb
 3135 0014 0020     		movs	r0, #0
 3136 0016 0221     		movs	r1, #2
 3137 0018 FFF7FEFF 		bl	USBUART_1_Start
 3138              	.LVL386:
 3139              	.L492:
 399:.\main.c      **** 	while(!USBUART_1_bGetConfiguration());
 3140              		.loc 1 399 0 discriminator 1
 3141 001c FFF7FEFF 		bl	USBUART_1_GetConfiguration
 3142              	.LVL387:
 3143 0020 0028     		cmp	r0, #0
 3144 0022 FBD0     		beq	.L492
 400:.\main.c      **** 	USBUART_1_CDC_Init();
 3145              		.loc 1 400 0
 3146 0024 FFF7FEFF 		bl	USBUART_1_CDC_Init
 3147              	.LVL388:
 401:.\main.c      **** 
 402:.\main.c      **** 	SDSPI_Start(SDCARD_SLOW, SDCARD_FAST, PrintFxn);   //Initialise SD card and file system (note: Pri
 3148              		.loc 1 402 0
 3149 0028 1648     		ldr	r0, .L505
 3150 002a 1749     		ldr	r1, .L505+4
 3151 002c 174A     		ldr	r2, .L505+8
 3152 002e FFF7FEFF 		bl	SDSPI_Start
 3153              	.LVL389:
 403:.\main.c      **** 
 404:.\main.c      **** 	MillisecISR_StartEx(MillisISR); //start millisec ISR
 3154              		.loc 1 404 0
 3155 0032 1748     		ldr	r0, .L505+12
 3156 0034 FFF7FEFF 		bl	MillisecISR_StartEx
 3157              	.LVL390:
 3158 0038 164D     		ldr	r5, .L505+16
 3159              	.L496:
 3160              	.LVL391:
 3161              	.LBB404:
 405:.\main.c      **** 
 406:.\main.c      **** 	for(;;){
 407:.\main.c      **** 		for(int i=5; i>0; i--){
 3162              		.loc 1 407 0
 3163 003a 0524     		movs	r4, #5
 3164              	.LVL392:
ARM GAS  C:\Users\honet\AppData\Local\Temp\cc6gsi1c.s 			page 69


 3165              	.L494:
 3166              	.LBB405:
 408:.\main.c      **** 			dbgprint("%d.\n", i);
 3167              		.loc 1 408 0
 3168 003c 6846     		mov	r0, sp
 3169 003e 1649     		ldr	r1, .L505+20
 3170 0040 2246     		mov	r2, r4
 3171 0042 FFF7FEFF 		bl	sprintf
 3172              	.LVL393:
 3173              	.L493:
 3174              		.loc 1 408 0 is_stmt 0 discriminator 2
 3175 0046 FFF7FEFF 		bl	USBUART_1_CDCIsReady
 3176              	.LVL394:
 3177 004a 0028     		cmp	r0, #0
 3178 004c FBD0     		beq	.L493
 3179              		.loc 1 408 0 discriminator 3
 3180 004e 6846     		mov	r0, sp
 3181 0050 FFF7FEFF 		bl	USBUART_1_PutString
 3182              	.LVL395:
 3183              	.LBE405:
 409:.\main.c      **** 			CyDelay(1000);
 3184              		.loc 1 409 0 is_stmt 1 discriminator 3
 3185 0054 4FF47A70 		mov	r0, #1000
 3186 0058 FFF7FEFF 		bl	CyDelay
 3187              	.LVL396:
 407:.\main.c      **** 			dbgprint("%d.\n", i);
 3188              		.loc 1 407 0 discriminator 3
 3189 005c 013C     		subs	r4, r4, #1
 3190              	.LVL397:
 3191 005e EDD1     		bne	.L494
 3192              	.LBE404:
 3193              	.LBB406:
 410:.\main.c      **** 		}
 411:.\main.c      **** 		dbgprint("Hello SDC\n");
 3194              		.loc 1 411 0
 3195 0060 95E80700 		ldmia	r5, {r0, r1, r2}
 3196 0064 6B46     		mov	r3, sp
 3197 0066 03C3     		stmia	r3!, {r0, r1}
 3198 0068 110C     		lsrs	r1, r2, #16
 3199 006a 23F8022B 		strh	r2, [r3], #2	@ movhi
 3200 006e 1970     		strb	r1, [r3]
 3201              	.L495:
 3202              		.loc 1 411 0 is_stmt 0 discriminator 2
 3203 0070 FFF7FEFF 		bl	USBUART_1_CDCIsReady
 3204              	.LVL398:
 3205 0074 0028     		cmp	r0, #0
 3206 0076 FBD0     		beq	.L495
 3207              		.loc 1 411 0 discriminator 3
 3208 0078 6846     		mov	r0, sp
 3209 007a FFF7FEFF 		bl	USBUART_1_PutString
 3210              	.LVL399:
 3211              	.LBE406:
 412:.\main.c      **** 
 413:.\main.c      **** 		//sdcheck();
 414:.\main.c      **** 		sdbench();
 3212              		.loc 1 414 0 is_stmt 1 discriminator 3
 3213 007e FFF7FEFF 		bl	sdbench
ARM GAS  C:\Users\honet\AppData\Local\Temp\cc6gsi1c.s 			page 70


 3214              	.LVL400:
 415:.\main.c      **** 	}
 3215              		.loc 1 415 0 discriminator 3
 3216 0082 DAE7     		b	.L496
 3217              	.L506:
 3218              		.align	2
 3219              	.L505:
 3220 0084 00000000 		.word	SDCARD_SLOW
 3221 0088 00000000 		.word	SDCARD_FAST
 3222 008c 00000000 		.word	PrintFxn
 3223 0090 00000000 		.word	MillisISR
 3224 0094 18040000 		.word	.LC60
 3225 0098 10040000 		.word	.LC59
 3226              		.cfi_endproc
 3227              	.LFE70:
 3228              		.size	main, .-main
 3229              		.comm	File,552,4
 3230              		.comm	buffer,32768,4
 3231              		.global	nmillis
 3232              		.section	.rodata.str1.4,"aMS",%progbits,1
 3233              		.align	2
 3234              	.LC0:
 3235 0000 25732045 		.ascii	"%s ERR! res=\000"
 3235      52522120 
 3235      7265733D 
 3235      00
 3236 000d 000000   		.space	3
 3237              	.LC1:
 3238 0010 46525F4F 		.ascii	"FR_OK\000"
 3238      4B00
 3239 0016 0000     		.space	2
 3240              	.LC2:
 3241 0018 46525F44 		.ascii	"FR_DISK_ERR\000"
 3241      49534B5F 
 3241      45525200 
 3242              	.LC3:
 3243 0024 46525F49 		.ascii	"FR_INT_ERR\000"
 3243      4E545F45 
 3243      525200
 3244 002f 00       		.space	1
 3245              	.LC4:
 3246 0030 46525F4E 		.ascii	"FR_NOT_READY\000"
 3246      4F545F52 
 3246      45414459 
 3246      00
 3247 003d 000000   		.space	3
 3248              	.LC5:
 3249 0040 46525F4E 		.ascii	"FR_NO_FILE\000"
 3249      4F5F4649 
 3249      4C4500
 3250 004b 00       		.space	1
 3251              	.LC6:
 3252 004c 46525F4E 		.ascii	"FR_NO_PATH\000"
 3252      4F5F5041 
 3252      544800
 3253 0057 00       		.space	1
 3254              	.LC7:
ARM GAS  C:\Users\honet\AppData\Local\Temp\cc6gsi1c.s 			page 71


 3255 0058 46525F49 		.ascii	"FR_INVALID_NAME\000"
 3255      4E56414C 
 3255      49445F4E 
 3255      414D4500 
 3256              	.LC8:
 3257 0068 46525F44 		.ascii	"FR_DENIED\000"
 3257      454E4945 
 3257      4400
 3258 0072 0000     		.space	2
 3259              	.LC9:
 3260 0074 46525F45 		.ascii	"FR_EXIST\000"
 3260      58495354 
 3260      00
 3261 007d 000000   		.space	3
 3262              	.LC10:
 3263 0080 46525F49 		.ascii	"FR_INVALID_OBJECT\000"
 3263      4E56414C 
 3263      49445F4F 
 3263      424A4543 
 3263      5400
 3264 0092 0000     		.space	2
 3265              	.LC11:
 3266 0094 46525F57 		.ascii	"FR_WRITE_PROTECTED\000"
 3266      52495445 
 3266      5F50524F 
 3266      54454354 
 3266      454400
 3267 00a7 00       		.space	1
 3268              	.LC12:
 3269 00a8 46525F49 		.ascii	"FR_INVALID_DRIVE\000"
 3269      4E56414C 
 3269      49445F44 
 3269      52495645 
 3269      00
 3270 00b9 000000   		.space	3
 3271              	.LC13:
 3272 00bc 46525F4E 		.ascii	"FR_NOT_ENABLED\000"
 3272      4F545F45 
 3272      4E41424C 
 3272      454400
 3273 00cb 00       		.space	1
 3274              	.LC14:
 3275 00cc 46525F4E 		.ascii	"FR_NO_FILESYSTEM\000"
 3275      4F5F4649 
 3275      4C455359 
 3275      5354454D 
 3275      00
 3276 00dd 000000   		.space	3
 3277              	.LC15:
 3278 00e0 46525F4D 		.ascii	"FR_MKFS_ABORTED\000"
 3278      4B46535F 
 3278      41424F52 
 3278      54454400 
 3279              	.LC16:
 3280 00f0 46525F54 		.ascii	"FR_TIMEOUT\000"
 3280      494D454F 
 3280      555400
ARM GAS  C:\Users\honet\AppData\Local\Temp\cc6gsi1c.s 			page 72


 3281 00fb 00       		.space	1
 3282              	.LC17:
 3283 00fc 46525F4C 		.ascii	"FR_LOCKED\000"
 3283      4F434B45 
 3283      4400
 3284 0106 0000     		.space	2
 3285              	.LC18:
 3286 0108 46525F4E 		.ascii	"FR_NOT_ENOUGH_CORE\000"
 3286      4F545F45 
 3286      4E4F5547 
 3286      485F434F 
 3286      524500
 3287 011b 00       		.space	1
 3288              	.LC19:
 3289 011c 46525F54 		.ascii	"FR_TOO_MANY_OPEN_FILES\000"
 3289      4F4F5F4D 
 3289      414E595F 
 3289      4F50454E 
 3289      5F46494C 
 3290 0133 00       		.space	1
 3291              	.LC20:
 3292 0134 46525F49 		.ascii	"FR_INVALID_PARAMETER\000"
 3292      4E56414C 
 3292      49445F50 
 3292      4152414D 
 3292      45544552 
 3293 0149 000000   		.space	3
 3294              	.LC21:
 3295 014c 256400   		.ascii	"%d\000"
 3296 014f 00       		.space	1
 3297              	.LC22:
 3298 0150 54727920 		.ascii	"Try to mount...\012\000"
 3298      746F206D 
 3298      6F756E74 
 3298      2E2E2E0A 
 3298      00
 3299 0161 000000   		.space	3
 3300              	.LC23:
 3301 0164 6469736B 		.ascii	"disk_initialize ret=%d\012\000"
 3301      5F696E69 
 3301      7469616C 
 3301      697A6520 
 3301      7265743D 
 3302              	.LC24:
 3303 017c 2F00     		.ascii	"/\000"
 3304 017e 0000     		.space	2
 3305              	.LC25:
 3306 0180 53442D43 		.ascii	"SD-CARD mount ERROR!! nRes=\000"
 3306      41524420 
 3306      6D6F756E 
 3306      74204552 
 3306      524F5221 
 3307              	.LC26:
 3308 019c 46525F49 		.ascii	"FR_INVALID_DRIVE\012\000"
 3308      4E56414C 
 3308      49445F44 
 3308      52495645 
ARM GAS  C:\Users\honet\AppData\Local\Temp\cc6gsi1c.s 			page 73


 3308      0A00
 3309 01ae 0000     		.space	2
 3310              	.LC27:
 3311 01b0 46525F44 		.ascii	"FR_DISK_ERR\012\000"
 3311      49534B5F 
 3311      4552520A 
 3311      00
 3312 01bd 000000   		.space	3
 3313              	.LC28:
 3314 01c0 46525F4E 		.ascii	"FR_NOT_READY\012\000"
 3314      4F545F52 
 3314      45414459 
 3314      0A00
 3315 01ce 0000     		.space	2
 3316              	.LC29:
 3317 01d0 46525F4E 		.ascii	"FR_NO_FILESYSTEM\012\000"
 3317      4F5F4649 
 3317      4C455359 
 3317      5354454D 
 3317      0A00
 3318 01e2 0000     		.space	2
 3319              	.LC30:
 3320 01e4 53442D43 		.ascii	"SD-CARD mounted. FSTYPE=\000"
 3320      41524420 
 3320      6D6F756E 
 3320      7465642E 
 3320      20465354 
 3321 01fd 000000   		.space	3
 3322              	.LC31:
 3323 0200 46415431 		.ascii	"FAT12\012\000"
 3323      320A00
 3324 0207 00       		.space	1
 3325              	.LC32:
 3326 0208 46415431 		.ascii	"FAT16\012\000"
 3326      360A00
 3327 020f 00       		.space	1
 3328              	.LC33:
 3329 0210 46415433 		.ascii	"FAT32\012\000"
 3329      320A00
 3330 0217 00       		.space	1
 3331              	.LC34:
 3332 0218 554E4B4E 		.ascii	"UNKNOWN\012\000"
 3332      4F574E0A 
 3332      00
 3333 0221 000000   		.space	3
 3334              	.LC35:
 3335 0224 3E3E3E3E 		.ascii	">>>>Testing PIO mode...\012\000"
 3335      54657374 
 3335      696E6720 
 3335      50494F20 
 3335      6D6F6465 
 3336 023d 000000   		.space	3
 3337              	.LC36:
 3338 0240 2F2F7465 		.ascii	"//test.txt\000"
 3338      73742E74 
 3338      787400
 3339 024b 00       		.space	1
ARM GAS  C:\Users\honet\AppData\Local\Temp\cc6gsi1c.s 			page 74


 3340              	.LC37:
 3341 024c 665F6F70 		.ascii	"f_open\000"
 3341      656E00
 3342 0253 00       		.space	1
 3343              	.LC38:
 3344 0254 54657374 		.ascii	"Testing Speed\012\000"
 3344      696E6720 
 3344      53706565 
 3344      640A00
 3345 0263 00       		.space	1
 3346              	.LC39:
 3347 0264 665F7772 		.ascii	"f_write\000"
 3347      69746500 
 3348              	.LC40:
 3349 026c 57726974 		.ascii	"Writing %d bytes to file, non-DMA\012\000"
 3349      696E6720 
 3349      25642062 
 3349      79746573 
 3349      20746F20 
 3350 028f 00       		.space	1
 3351              	.LC41:
 3352 0290 2F2F5445 		.ascii	"//TESTPIO.bin\000"
 3352      53545049 
 3352      4F2E6269 
 3352      6E00
 3353 029e 0000     		.space	2
 3354              	.LC42:
 3355 02a0 665F636C 		.ascii	"f_close\000"
 3355      6F736500 
 3356              	.LC43:
 3357 02a8 546F6F6B 		.ascii	"Took %lu ms\012\000"
 3357      20256C75 
 3357      206D730A 
 3357      00
 3358 02b5 000000   		.space	3
 3359              	.LC44:
 3360 02b8 52617465 		.ascii	"Rate %lu kbps\012\012\000"
 3360      20256C75 
 3360      206B6270 
 3360      730A0A00 
 3361              	.LC45:
 3362 02c8 52656164 		.ascii	"Reading %d bytes from file, non-DMA\012\000"
 3362      696E6720 
 3362      25642062 
 3362      79746573 
 3362      2066726F 
 3363 02ed 000000   		.space	3
 3364              	.LC46:
 3365 02f0 665F7265 		.ascii	"f_read\000"
 3365      616400
 3366 02f7 00       		.space	1
 3367              	.LC47:
 3368 02f8 546F6F6B 		.ascii	"Took %lu ms\012Verifying...\000"
 3368      20256C75 
 3368      206D730A 
 3368      56657269 
 3368      6679696E 
ARM GAS  C:\Users\honet\AppData\Local\Temp\cc6gsi1c.s 			page 75


 3369 0311 000000   		.space	3
 3370              	.LC48:
 3371 0314 4641494C 		.ascii	"FAIL :O\012\000"
 3371      203A4F0A 
 3371      00
 3372 031d 000000   		.space	3
 3373              	.LC49:
 3374 0320 20416C6C 		.ascii	" All Good! :D\012\000"
 3374      20476F6F 
 3374      6421203A 
 3374      440A00
 3375 032f 00       		.space	1
 3376              	.LC50:
 3377 0330 3E3E3E3E 		.ascii	">>>>Testing DMA mode...\012\000"
 3377      54657374 
 3377      696E6720 
 3377      444D4120 
 3377      6D6F6465 
 3378 0349 000000   		.space	3
 3379              	.LC51:
 3380 034c 57726974 		.ascii	"Writing %d bytes to file, DMA\012\000"
 3380      696E6720 
 3380      25642062 
 3380      79746573 
 3380      20746F20 
 3381 036b 00       		.space	1
 3382              	.LC52:
 3383 036c 2F2F5445 		.ascii	"//TESTDMA.bin\000"
 3383      5354444D 
 3383      412E6269 
 3383      6E00
 3384 037a 0000     		.space	2
 3385              	.LC53:
 3386 037c 52656164 		.ascii	"Reading %d bytes from file, DMA\012\000"
 3386      696E6720 
 3386      25642062 
 3386      79746573 
 3386      2066726F 
 3387 039d 000000   		.space	3
 3388              	.LC54:
 3389 03a0 54455354 		.ascii	"TEST FINISHED!\012\000"
 3389      2046494E 
 3389      49534845 
 3389      44210A00 
 3390              	.LC55:
 3391 03b0 3E3E3E3E 		.ascii	">>>>> Start Benchmark.....\012\000"
 3391      3E205374 
 3391      61727420 
 3391      42656E63 
 3391      686D6172 
 3392              	.LC56:
 3393 03cc 73697A65 		.ascii	"size, write(ms), write(kbps), read(ms), read(kbps)\012"
 3393      2C207772 
 3393      69746528 
 3393      6D73292C 
 3393      20777269 
 3394 03ff 00       		.ascii	"\000"
ARM GAS  C:\Users\honet\AppData\Local\Temp\cc6gsi1c.s 			page 76


 3395              	.LC57:
 3396 0400 25642C20 		.ascii	"%d, \000"
 3396      00
 3397 0405 000000   		.space	3
 3398              	.LC58:
 3399 0408 25752C20 		.ascii	"%u, \000"
 3399      00
 3400 040d 000000   		.space	3
 3401              	.LC59:
 3402 0410 25642E0A 		.ascii	"%d.\012\000"
 3402      00
 3403 0415 000000   		.space	3
 3404              	.LC60:
 3405 0418 48656C6C 		.ascii	"Hello SDC\012\000"
 3405      6F205344 
 3405      430A00
 3406 0423 00       		.bss
 3407              		.align	2
 3408              		.set	.LANCHOR0,. + 0
 3409              		.type	nmillis, %object
 3410              		.size	nmillis, 4
 3411              	nmillis:
 3412 0000 00000000 		.space	4
 3413              		.text
 3414              	.Letext0:
 3415              		.file 2 "c:\\program files (x86)\\cypress\\psoc creator\\3.3\\psoc creator\\import\\gnu\\arm\\4.9.
 3416              		.file 3 "c:\\program files (x86)\\cypress\\psoc creator\\3.3\\psoc creator\\import\\gnu\\arm\\4.9.
 3417              		.file 4 "c:\\program files (x86)\\cypress\\psoc creator\\3.3\\psoc creator\\import\\gnu\\arm\\4.9.
 3418              		.file 5 "Generated_Source\\PSoC5/cytypes.h"
 3419              		.file 6 "Generated_Source\\PSoC5/SDSPI_api.h"
 3420              		.file 7 "Generated_Source\\PSoC5/SDSPI_fatfs.h"
 3421              		.file 8 "Generated_Source\\PSoC5/core_cm3.h"
 3422              		.file 9 "Generated_Source\\PSoC5/SD_CLK.h"
 3423              		.file 10 "Generated_Source\\PSoC5/USBUART_1_cdc.h"
 3424              		.file 11 "c:\\program files (x86)\\cypress\\psoc creator\\3.3\\psoc creator\\import\\gnu\\arm\\4.9
 3425              		.file 12 "Generated_Source\\PSoC5/CyLib.h"
 3426              		.file 13 "Generated_Source\\PSoC5/LEDControl.h"
 3427              		.file 14 "Generated_Source\\PSoC5/USBUART_1.h"
 3428              		.file 15 "Generated_Source\\PSoC5/MillisecISR.h"
 3429              		.section	.debug_info,"",%progbits
 3430              	.Ldebug_info0:
 3431 0000 922E0000 		.4byte	0x2e92
 3432 0004 0400     		.2byte	0x4
 3433 0006 00000000 		.4byte	.Ldebug_abbrev0
 3434 000a 04       		.byte	0x4
 3435 000b 01       		.uleb128 0x1
 3436 000c BF030000 		.4byte	.LASF130
 3437 0010 01       		.byte	0x1
 3438 0011 2C060000 		.4byte	.LASF131
 3439 0015 BA010000 		.4byte	.LASF132
 3440 0019 F8050000 		.4byte	.Ldebug_ranges0+0x5f8
 3441 001d 00000000 		.4byte	0
 3442 0021 00000000 		.4byte	.Ldebug_line0
 3443 0025 02       		.uleb128 0x2
 3444 0026 04       		.byte	0x4
 3445 0027 07       		.byte	0x7
 3446 0028 3A000000 		.4byte	.LASF0
ARM GAS  C:\Users\honet\AppData\Local\Temp\cc6gsi1c.s 			page 77


 3447 002c 03       		.uleb128 0x3
 3448 002d 04       		.byte	0x4
 3449 002e 05       		.byte	0x5
 3450 002f 696E7400 		.ascii	"int\000"
 3451 0033 04       		.uleb128 0x4
 3452 0034 98010000 		.4byte	.LASF2
 3453 0038 02       		.byte	0x2
 3454 0039 D4       		.byte	0xd4
 3455 003a 25000000 		.4byte	0x25
 3456 003e 02       		.uleb128 0x2
 3457 003f 01       		.byte	0x1
 3458 0040 06       		.byte	0x6
 3459 0041 B9050000 		.4byte	.LASF1
 3460 0045 04       		.uleb128 0x4
 3461 0046 09050000 		.4byte	.LASF3
 3462 004a 03       		.byte	0x3
 3463 004b 1D       		.byte	0x1d
 3464 004c 50000000 		.4byte	0x50
 3465 0050 02       		.uleb128 0x2
 3466 0051 01       		.byte	0x1
 3467 0052 08       		.byte	0x8
 3468 0053 72050000 		.4byte	.LASF4
 3469 0057 02       		.uleb128 0x2
 3470 0058 02       		.byte	0x2
 3471 0059 05       		.byte	0x5
 3472 005a 98040000 		.4byte	.LASF5
 3473 005e 04       		.uleb128 0x4
 3474 005f 43010000 		.4byte	.LASF6
 3475 0063 03       		.byte	0x3
 3476 0064 2B       		.byte	0x2b
 3477 0065 69000000 		.4byte	0x69
 3478 0069 02       		.uleb128 0x2
 3479 006a 02       		.byte	0x2
 3480 006b 07       		.byte	0x7
 3481 006c C5050000 		.4byte	.LASF7
 3482 0070 04       		.uleb128 0x4
 3483 0071 6F000000 		.4byte	.LASF8
 3484 0075 03       		.byte	0x3
 3485 0076 3F       		.byte	0x3f
 3486 0077 7B000000 		.4byte	0x7b
 3487 007b 02       		.uleb128 0x2
 3488 007c 04       		.byte	0x4
 3489 007d 05       		.byte	0x5
 3490 007e BD040000 		.4byte	.LASF9
 3491 0082 04       		.uleb128 0x4
 3492 0083 80050000 		.4byte	.LASF10
 3493 0087 03       		.byte	0x3
 3494 0088 41       		.byte	0x41
 3495 0089 8D000000 		.4byte	0x8d
 3496 008d 02       		.uleb128 0x2
 3497 008e 04       		.byte	0x4
 3498 008f 07       		.byte	0x7
 3499 0090 3C050000 		.4byte	.LASF11
 3500 0094 02       		.uleb128 0x2
 3501 0095 08       		.byte	0x8
 3502 0096 05       		.byte	0x5
 3503 0097 95020000 		.4byte	.LASF12
ARM GAS  C:\Users\honet\AppData\Local\Temp\cc6gsi1c.s 			page 78


 3504 009b 02       		.uleb128 0x2
 3505 009c 08       		.byte	0x8
 3506 009d 07       		.byte	0x7
 3507 009e F9000000 		.4byte	.LASF13
 3508 00a2 02       		.uleb128 0x2
 3509 00a3 04       		.byte	0x4
 3510 00a4 07       		.byte	0x7
 3511 00a5 2E050000 		.4byte	.LASF14
 3512 00a9 05       		.uleb128 0x5
 3513 00aa 04       		.byte	0x4
 3514 00ab 06       		.uleb128 0x6
 3515 00ac 04       		.byte	0x4
 3516 00ad B1000000 		.4byte	0xb1
 3517 00b1 07       		.uleb128 0x7
 3518 00b2 06       		.uleb128 0x6
 3519 00b3 04       		.byte	0x4
 3520 00b4 B8000000 		.4byte	0xb8
 3521 00b8 02       		.uleb128 0x2
 3522 00b9 01       		.byte	0x1
 3523 00ba 08       		.byte	0x8
 3524 00bb 30020000 		.4byte	.LASF15
 3525 00bf 06       		.uleb128 0x6
 3526 00c0 04       		.byte	0x4
 3527 00c1 C5000000 		.4byte	0xc5
 3528 00c5 08       		.uleb128 0x8
 3529 00c6 B8000000 		.4byte	0xb8
 3530 00ca 04       		.uleb128 0x4
 3531 00cb 4B020000 		.4byte	.LASF16
 3532 00cf 04       		.byte	0x4
 3533 00d0 15       		.byte	0x15
 3534 00d1 45000000 		.4byte	0x45
 3535 00d5 04       		.uleb128 0x4
 3536 00d6 A2030000 		.4byte	.LASF17
 3537 00da 04       		.byte	0x4
 3538 00db 21       		.byte	0x21
 3539 00dc 5E000000 		.4byte	0x5e
 3540 00e0 04       		.uleb128 0x4
 3541 00e1 56050000 		.4byte	.LASF18
 3542 00e5 04       		.byte	0x4
 3543 00e6 2C       		.byte	0x2c
 3544 00e7 70000000 		.4byte	0x70
 3545 00eb 04       		.uleb128 0x4
 3546 00ec B5000000 		.4byte	.LASF19
 3547 00f0 04       		.byte	0x4
 3548 00f1 2D       		.byte	0x2d
 3549 00f2 82000000 		.4byte	0x82
 3550 00f6 09       		.uleb128 0x9
 3551 00f7 E6050000 		.4byte	.LASF20
 3552 00fb 05       		.byte	0x5
 3553 00fc 9201     		.2byte	0x192
 3554 00fe 50000000 		.4byte	0x50
 3555 0102 09       		.uleb128 0x9
 3556 0103 44020000 		.4byte	.LASF21
 3557 0107 05       		.byte	0x5
 3558 0108 9301     		.2byte	0x193
 3559 010a 69000000 		.4byte	0x69
 3560 010e 09       		.uleb128 0x9
ARM GAS  C:\Users\honet\AppData\Local\Temp\cc6gsi1c.s 			page 79


 3561 010f 53030000 		.4byte	.LASF22
 3562 0113 05       		.byte	0x5
 3563 0114 9401     		.2byte	0x194
 3564 0116 8D000000 		.4byte	0x8d
 3565 011a 02       		.uleb128 0x2
 3566 011b 04       		.byte	0x4
 3567 011c 04       		.byte	0x4
 3568 011d D5000000 		.4byte	.LASF23
 3569 0121 02       		.uleb128 0x2
 3570 0122 08       		.byte	0x8
 3571 0123 04       		.byte	0x4
 3572 0124 EC050000 		.4byte	.LASF24
 3573 0128 09       		.uleb128 0x9
 3574 0129 5D020000 		.4byte	.LASF25
 3575 012d 05       		.byte	0x5
 3576 012e A301     		.2byte	0x1a3
 3577 0130 B8000000 		.4byte	0xb8
 3578 0134 09       		.uleb128 0x9
 3579 0135 1F030000 		.4byte	.LASF26
 3580 0139 05       		.byte	0x5
 3581 013a 4E02     		.2byte	0x24e
 3582 013c AB000000 		.4byte	0xab
 3583 0140 04       		.uleb128 0x4
 3584 0141 ED020000 		.4byte	.LASF27
 3585 0145 06       		.byte	0x6
 3586 0146 11       		.byte	0x11
 3587 0147 AB000000 		.4byte	0xab
 3588 014b 04       		.uleb128 0x4
 3589 014c 2C030000 		.4byte	.LASF28
 3590 0150 06       		.byte	0x6
 3591 0151 12       		.byte	0x12
 3592 0152 56010000 		.4byte	0x156
 3593 0156 06       		.uleb128 0x6
 3594 0157 04       		.byte	0x4
 3595 0158 5C010000 		.4byte	0x15c
 3596 015c 0A       		.uleb128 0xa
 3597 015d 67010000 		.4byte	0x167
 3598 0161 0B       		.uleb128 0xb
 3599 0162 B2000000 		.4byte	0xb2
 3600 0166 00       		.byte	0
 3601 0167 04       		.uleb128 0x4
 3602 0168 1D050000 		.4byte	.LASF29
 3603 016c 07       		.byte	0x7
 3604 016d 1F       		.byte	0x1f
 3605 016e EB000000 		.4byte	0xeb
 3606 0172 04       		.uleb128 0x4
 3607 0173 E0020000 		.4byte	.LASF30
 3608 0177 07       		.byte	0x7
 3609 0178 22       		.byte	0x22
 3610 0179 CA000000 		.4byte	0xca
 3611 017d 04       		.uleb128 0x4
 3612 017e FB020000 		.4byte	.LASF31
 3613 0182 07       		.byte	0x7
 3614 0183 26       		.byte	0x26
 3615 0184 D5000000 		.4byte	0xd5
 3616 0188 04       		.uleb128 0x4
 3617 0189 ED000000 		.4byte	.LASF32
ARM GAS  C:\Users\honet\AppData\Local\Temp\cc6gsi1c.s 			page 80


 3618 018d 07       		.byte	0x7
 3619 018e 2B       		.byte	0x2b
 3620 018f EB000000 		.4byte	0xeb
 3621 0193 04       		.uleb128 0x4
 3622 0194 F3000000 		.4byte	.LASF33
 3623 0198 07       		.byte	0x7
 3624 0199 78       		.byte	0x78
 3625 019a B8000000 		.4byte	0xb8
 3626 019e 04       		.uleb128 0x4
 3627 019f 00000000 		.4byte	.LASF34
 3628 01a3 07       		.byte	0x7
 3629 01a4 88       		.byte	0x88
 3630 01a5 88010000 		.4byte	0x188
 3631 01a9 0C       		.uleb128 0xc
 3632 01aa 3002     		.2byte	0x230
 3633 01ac 07       		.byte	0x7
 3634 01ad 8F       		.byte	0x8f
 3635 01ae 8A020000 		.4byte	0x28a
 3636 01b2 0D       		.uleb128 0xd
 3637 01b3 6F010000 		.4byte	.LASF35
 3638 01b7 07       		.byte	0x7
 3639 01b8 90       		.byte	0x90
 3640 01b9 72010000 		.4byte	0x172
 3641 01bd 00       		.byte	0
 3642 01be 0E       		.uleb128 0xe
 3643 01bf 64727600 		.ascii	"drv\000"
 3644 01c3 07       		.byte	0x7
 3645 01c4 91       		.byte	0x91
 3646 01c5 72010000 		.4byte	0x172
 3647 01c9 01       		.byte	0x1
 3648 01ca 0D       		.uleb128 0xd
 3649 01cb 58000000 		.4byte	.LASF36
 3650 01cf 07       		.byte	0x7
 3651 01d0 92       		.byte	0x92
 3652 01d1 72010000 		.4byte	0x172
 3653 01d5 02       		.byte	0x2
 3654 01d6 0D       		.uleb128 0xd
 3655 01d7 C6020000 		.4byte	.LASF37
 3656 01db 07       		.byte	0x7
 3657 01dc 93       		.byte	0x93
 3658 01dd 72010000 		.4byte	0x172
 3659 01e1 03       		.byte	0x3
 3660 01e2 0D       		.uleb128 0xd
 3661 01e3 BE000000 		.4byte	.LASF38
 3662 01e7 07       		.byte	0x7
 3663 01e8 94       		.byte	0x94
 3664 01e9 72010000 		.4byte	0x172
 3665 01ed 04       		.byte	0x4
 3666 01ee 0E       		.uleb128 0xe
 3667 01ef 696400   		.ascii	"id\000"
 3668 01f2 07       		.byte	0x7
 3669 01f3 95       		.byte	0x95
 3670 01f4 7D010000 		.4byte	0x17d
 3671 01f8 06       		.byte	0x6
 3672 01f9 0D       		.uleb128 0xd
 3673 01fa 13050000 		.4byte	.LASF39
 3674 01fe 07       		.byte	0x7
ARM GAS  C:\Users\honet\AppData\Local\Temp\cc6gsi1c.s 			page 81


 3675 01ff 96       		.byte	0x96
 3676 0200 7D010000 		.4byte	0x17d
 3677 0204 08       		.byte	0x8
 3678 0205 0D       		.uleb128 0xd
 3679 0206 19030000 		.4byte	.LASF40
 3680 020a 07       		.byte	0x7
 3681 020b 97       		.byte	0x97
 3682 020c 7D010000 		.4byte	0x17d
 3683 0210 0A       		.byte	0xa
 3684 0211 0D       		.uleb128 0xd
 3685 0212 30000000 		.4byte	.LASF41
 3686 0216 07       		.byte	0x7
 3687 0217 A5       		.byte	0xa5
 3688 0218 88010000 		.4byte	0x188
 3689 021c 0C       		.byte	0xc
 3690 021d 0D       		.uleb128 0xd
 3691 021e 82040000 		.4byte	.LASF42
 3692 0222 07       		.byte	0x7
 3693 0223 A6       		.byte	0xa6
 3694 0224 88010000 		.4byte	0x188
 3695 0228 10       		.byte	0x10
 3696 0229 0D       		.uleb128 0xd
 3697 022a 6E030000 		.4byte	.LASF43
 3698 022e 07       		.byte	0x7
 3699 022f B0       		.byte	0xb0
 3700 0230 88010000 		.4byte	0x188
 3701 0234 14       		.byte	0x14
 3702 0235 0D       		.uleb128 0xd
 3703 0236 A3020000 		.4byte	.LASF44
 3704 023a 07       		.byte	0x7
 3705 023b B1       		.byte	0xb1
 3706 023c 88010000 		.4byte	0x188
 3707 0240 18       		.byte	0x18
 3708 0241 0D       		.uleb128 0xd
 3709 0242 A9020000 		.4byte	.LASF45
 3710 0246 07       		.byte	0x7
 3711 0247 B2       		.byte	0xb2
 3712 0248 88010000 		.4byte	0x188
 3713 024c 1C       		.byte	0x1c
 3714 024d 0D       		.uleb128 0xd
 3715 024e 77010000 		.4byte	.LASF46
 3716 0252 07       		.byte	0x7
 3717 0253 B3       		.byte	0xb3
 3718 0254 88010000 		.4byte	0x188
 3719 0258 20       		.byte	0x20
 3720 0259 0D       		.uleb128 0xd
 3721 025a 77030000 		.4byte	.LASF47
 3722 025e 07       		.byte	0x7
 3723 025f B4       		.byte	0xb4
 3724 0260 88010000 		.4byte	0x188
 3725 0264 24       		.byte	0x24
 3726 0265 0D       		.uleb128 0xd
 3727 0266 D8050000 		.4byte	.LASF48
 3728 026a 07       		.byte	0x7
 3729 026b B5       		.byte	0xb5
 3730 026c 88010000 		.4byte	0x188
 3731 0270 28       		.byte	0x28
ARM GAS  C:\Users\honet\AppData\Local\Temp\cc6gsi1c.s 			page 82


 3732 0271 0D       		.uleb128 0xd
 3733 0272 89000000 		.4byte	.LASF49
 3734 0276 07       		.byte	0x7
 3735 0277 B6       		.byte	0xb6
 3736 0278 88010000 		.4byte	0x188
 3737 027c 2C       		.byte	0x2c
 3738 027d 0E       		.uleb128 0xe
 3739 027e 77696E00 		.ascii	"win\000"
 3740 0282 07       		.byte	0x7
 3741 0283 B7       		.byte	0xb7
 3742 0284 8A020000 		.4byte	0x28a
 3743 0288 30       		.byte	0x30
 3744 0289 00       		.byte	0
 3745 028a 0F       		.uleb128 0xf
 3746 028b 72010000 		.4byte	0x172
 3747 028f 9B020000 		.4byte	0x29b
 3748 0293 10       		.uleb128 0x10
 3749 0294 A2000000 		.4byte	0xa2
 3750 0298 FF01     		.2byte	0x1ff
 3751 029a 00       		.byte	0
 3752 029b 04       		.uleb128 0x4
 3753 029c 1D000000 		.4byte	.LASF50
 3754 02a0 07       		.byte	0x7
 3755 02a1 B8       		.byte	0xb8
 3756 02a2 A9010000 		.4byte	0x1a9
 3757 02a6 11       		.uleb128 0x11
 3758 02a7 10       		.byte	0x10
 3759 02a8 07       		.byte	0x7
 3760 02a9 BE       		.byte	0xbe
 3761 02aa F5020000 		.4byte	0x2f5
 3762 02ae 0E       		.uleb128 0xe
 3763 02af 667300   		.ascii	"fs\000"
 3764 02b2 07       		.byte	0x7
 3765 02b3 BF       		.byte	0xbf
 3766 02b4 F5020000 		.4byte	0x2f5
 3767 02b8 00       		.byte	0
 3768 02b9 0E       		.uleb128 0xe
 3769 02ba 696400   		.ascii	"id\000"
 3770 02bd 07       		.byte	0x7
 3771 02be C0       		.byte	0xc0
 3772 02bf 7D010000 		.4byte	0x17d
 3773 02c3 04       		.byte	0x4
 3774 02c4 0D       		.uleb128 0xd
 3775 02c5 3E010000 		.4byte	.LASF51
 3776 02c9 07       		.byte	0x7
 3777 02ca C1       		.byte	0xc1
 3778 02cb 72010000 		.4byte	0x172
 3779 02cf 06       		.byte	0x6
 3780 02d0 0D       		.uleb128 0xd
 3781 02d1 8A010000 		.4byte	.LASF52
 3782 02d5 07       		.byte	0x7
 3783 02d6 C2       		.byte	0xc2
 3784 02d7 72010000 		.4byte	0x172
 3785 02db 07       		.byte	0x7
 3786 02dc 0D       		.uleb128 0xd
 3787 02dd 3E060000 		.4byte	.LASF53
 3788 02e1 07       		.byte	0x7
ARM GAS  C:\Users\honet\AppData\Local\Temp\cc6gsi1c.s 			page 83


 3789 02e2 C3       		.byte	0xc3
 3790 02e3 88010000 		.4byte	0x188
 3791 02e7 08       		.byte	0x8
 3792 02e8 0D       		.uleb128 0xd
 3793 02e9 64050000 		.4byte	.LASF54
 3794 02ed 07       		.byte	0x7
 3795 02ee C4       		.byte	0xc4
 3796 02ef 9E010000 		.4byte	0x19e
 3797 02f3 0C       		.byte	0xc
 3798 02f4 00       		.byte	0
 3799 02f5 06       		.uleb128 0x6
 3800 02f6 04       		.byte	0x4
 3801 02f7 9B020000 		.4byte	0x29b
 3802 02fb 04       		.uleb128 0x4
 3803 02fc 23000000 		.4byte	.LASF55
 3804 0300 07       		.byte	0x7
 3805 0301 CE       		.byte	0xce
 3806 0302 A6020000 		.4byte	0x2a6
 3807 0306 0C       		.uleb128 0xc
 3808 0307 2802     		.2byte	0x228
 3809 0309 07       		.byte	0x7
 3810 030a D4       		.byte	0xd4
 3811 030b 7C030000 		.4byte	0x37c
 3812 030f 0E       		.uleb128 0xe
 3813 0310 6F626A00 		.ascii	"obj\000"
 3814 0314 07       		.byte	0x7
 3815 0315 D5       		.byte	0xd5
 3816 0316 FB020000 		.4byte	0x2fb
 3817 031a 00       		.byte	0
 3818 031b 0D       		.uleb128 0xd
 3819 031c F4040000 		.4byte	.LASF56
 3820 0320 07       		.byte	0x7
 3821 0321 D6       		.byte	0xd6
 3822 0322 72010000 		.4byte	0x172
 3823 0326 10       		.byte	0x10
 3824 0327 0E       		.uleb128 0xe
 3825 0328 65727200 		.ascii	"err\000"
 3826 032c 07       		.byte	0x7
 3827 032d D7       		.byte	0xd7
 3828 032e 72010000 		.4byte	0x172
 3829 0332 11       		.byte	0x11
 3830 0333 0D       		.uleb128 0xd
 3831 0334 4E030000 		.4byte	.LASF57
 3832 0338 07       		.byte	0x7
 3833 0339 D8       		.byte	0xd8
 3834 033a 9E010000 		.4byte	0x19e
 3835 033e 14       		.byte	0x14
 3836 033f 0D       		.uleb128 0xd
 3837 0340 6C050000 		.4byte	.LASF58
 3838 0344 07       		.byte	0x7
 3839 0345 D9       		.byte	0xd9
 3840 0346 88010000 		.4byte	0x188
 3841 034a 18       		.byte	0x18
 3842 034b 0D       		.uleb128 0xd
 3843 034c 63020000 		.4byte	.LASF59
 3844 0350 07       		.byte	0x7
 3845 0351 DA       		.byte	0xda
ARM GAS  C:\Users\honet\AppData\Local\Temp\cc6gsi1c.s 			page 84


 3846 0352 88010000 		.4byte	0x188
 3847 0356 1C       		.byte	0x1c
 3848 0357 0D       		.uleb128 0xd
 3849 0358 CC000000 		.4byte	.LASF60
 3850 035c 07       		.byte	0x7
 3851 035d DC       		.byte	0xdc
 3852 035e 88010000 		.4byte	0x188
 3853 0362 20       		.byte	0x20
 3854 0363 0D       		.uleb128 0xd
 3855 0364 08000000 		.4byte	.LASF61
 3856 0368 07       		.byte	0x7
 3857 0369 DD       		.byte	0xdd
 3858 036a 7C030000 		.4byte	0x37c
 3859 036e 24       		.byte	0x24
 3860 036f 0E       		.uleb128 0xe
 3861 0370 62756600 		.ascii	"buf\000"
 3862 0374 07       		.byte	0x7
 3863 0375 E3       		.byte	0xe3
 3864 0376 8A020000 		.4byte	0x28a
 3865 037a 28       		.byte	0x28
 3866 037b 00       		.byte	0
 3867 037c 06       		.uleb128 0x6
 3868 037d 04       		.byte	0x4
 3869 037e 72010000 		.4byte	0x172
 3870 0382 12       		.uleb128 0x12
 3871 0383 46494C00 		.ascii	"FIL\000"
 3872 0387 07       		.byte	0x7
 3873 0388 E5       		.byte	0xe5
 3874 0389 06030000 		.4byte	0x306
 3875 038d 13       		.uleb128 0x13
 3876 038e 01       		.byte	0x1
 3877 038f 07       		.byte	0x7
 3878 0390 0F01     		.2byte	0x10f
 3879 0392 0F040000 		.4byte	0x40f
 3880 0396 14       		.uleb128 0x14
 3881 0397 5E050000 		.4byte	.LASF62
 3882 039b 00       		.sleb128 0
 3883 039c 14       		.uleb128 0x14
 3884 039d 8C040000 		.4byte	.LASF63
 3885 03a1 01       		.sleb128 1
 3886 03a2 14       		.uleb128 0x14
 3887 03a3 10010000 		.4byte	.LASF64
 3888 03a7 02       		.sleb128 2
 3889 03a8 14       		.uleb128 0x14
 3890 03a9 10000000 		.4byte	.LASF65
 3891 03ad 03       		.sleb128 3
 3892 03ae 14       		.uleb128 0x14
 3893 03af D5020000 		.4byte	.LASF66
 3894 03b3 04       		.sleb128 4
 3895 03b4 14       		.uleb128 0x14
 3896 03b5 58040000 		.4byte	.LASF67
 3897 03b9 05       		.sleb128 5
 3898 03ba 14       		.uleb128 0x14
 3899 03bb E4040000 		.4byte	.LASF68
 3900 03bf 06       		.sleb128 6
 3901 03c0 14       		.uleb128 0x14
 3902 03c1 7F030000 		.4byte	.LASF69
ARM GAS  C:\Users\honet\AppData\Local\Temp\cc6gsi1c.s 			page 85


 3903 03c5 07       		.sleb128 7
 3904 03c6 14       		.uleb128 0x14
 3905 03c7 8F010000 		.4byte	.LASF70
 3906 03cb 08       		.sleb128 8
 3907 03cc 14       		.uleb128 0x14
 3908 03cd 0E020000 		.4byte	.LASF71
 3909 03d1 09       		.sleb128 9
 3910 03d2 14       		.uleb128 0x14
 3911 03d3 19060000 		.4byte	.LASF72
 3912 03d7 0A       		.sleb128 10
 3913 03d8 14       		.uleb128 0x14
 3914 03d9 47000000 		.4byte	.LASF73
 3915 03dd 0B       		.sleb128 11
 3916 03de 14       		.uleb128 0x14
 3917 03df 73040000 		.4byte	.LASF74
 3918 03e3 0C       		.sleb128 12
 3919 03e4 14       		.uleb128 0x14
 3920 03e5 84020000 		.4byte	.LASF75
 3921 03e9 0D       		.sleb128 13
 3922 03ea 14       		.uleb128 0x14
 3923 03eb 79000000 		.4byte	.LASF76
 3924 03ef 0E       		.sleb128 14
 3925 03f0 14       		.uleb128 0x14
 3926 03f1 8B050000 		.4byte	.LASF77
 3927 03f5 0F       		.sleb128 15
 3928 03f6 14       		.uleb128 0x14
 3929 03f7 20020000 		.4byte	.LASF78
 3930 03fb 10       		.sleb128 16
 3931 03fc 14       		.uleb128 0x14
 3932 03fd AA040000 		.4byte	.LASF79
 3933 0401 11       		.sleb128 17
 3934 0402 14       		.uleb128 0x14
 3935 0403 96000000 		.4byte	.LASF80
 3936 0407 12       		.sleb128 18
 3937 0408 14       		.uleb128 0x14
 3938 0409 B1020000 		.4byte	.LASF81
 3939 040d 13       		.sleb128 19
 3940 040e 00       		.byte	0
 3941 040f 09       		.uleb128 0x9
 3942 0410 4E050000 		.4byte	.LASF82
 3943 0414 07       		.byte	0x7
 3944 0415 2401     		.2byte	0x124
 3945 0417 8D030000 		.4byte	0x38d
 3946 041b 09       		.uleb128 0x9
 3947 041c 9D050000 		.4byte	.LASF83
 3948 0420 07       		.byte	0x7
 3949 0421 9E01     		.2byte	0x19e
 3950 0423 72010000 		.4byte	0x172
 3951 0427 06       		.uleb128 0x6
 3952 0428 04       		.byte	0x4
 3953 0429 2D040000 		.4byte	0x42d
 3954 042d 15       		.uleb128 0x15
 3955 042e 16       		.uleb128 0x16
 3956 042f 96050000 		.4byte	.LASF111
 3957 0433 01       		.byte	0x1
 3958 0434 40       		.byte	0x40
 3959 0435 01       		.byte	0x1
ARM GAS  C:\Users\honet\AppData\Local\Temp\cc6gsi1c.s 			page 86


 3960 0436 D4050000 		.4byte	0x5d4
 3961 043a 17       		.uleb128 0x17
 3962 043b 91000000 		.4byte	.LASF84
 3963 043f 01       		.byte	0x1
 3964 0440 40       		.byte	0x40
 3965 0441 B2000000 		.4byte	0xb2
 3966 0445 18       		.uleb128 0x18
 3967 0446 65787000 		.ascii	"exp\000"
 3968 044a 01       		.byte	0x1
 3969 044b 40       		.byte	0x40
 3970 044c 0F040000 		.4byte	0x40f
 3971 0450 19       		.uleb128 0x19
 3972 0451 61040000 		.4byte	0x461
 3973 0455 1A       		.uleb128 0x1a
 3974 0456 73747200 		.ascii	"str\000"
 3975 045a 01       		.byte	0x1
 3976 045b 42       		.byte	0x42
 3977 045c D4050000 		.4byte	0x5d4
 3978 0460 00       		.byte	0
 3979 0461 19       		.uleb128 0x19
 3980 0462 72040000 		.4byte	0x472
 3981 0466 1A       		.uleb128 0x1a
 3982 0467 73747200 		.ascii	"str\000"
 3983 046b 01       		.byte	0x1
 3984 046c 44       		.byte	0x44
 3985 046d D4050000 		.4byte	0x5d4
 3986 0471 00       		.byte	0
 3987 0472 19       		.uleb128 0x19
 3988 0473 83040000 		.4byte	0x483
 3989 0477 1A       		.uleb128 0x1a
 3990 0478 73747200 		.ascii	"str\000"
 3991 047c 01       		.byte	0x1
 3992 047d 45       		.byte	0x45
 3993 047e D4050000 		.4byte	0x5d4
 3994 0482 00       		.byte	0
 3995 0483 19       		.uleb128 0x19
 3996 0484 94040000 		.4byte	0x494
 3997 0488 1A       		.uleb128 0x1a
 3998 0489 73747200 		.ascii	"str\000"
 3999 048d 01       		.byte	0x1
 4000 048e 46       		.byte	0x46
 4001 048f D4050000 		.4byte	0x5d4
 4002 0493 00       		.byte	0
 4003 0494 19       		.uleb128 0x19
 4004 0495 A5040000 		.4byte	0x4a5
 4005 0499 1A       		.uleb128 0x1a
 4006 049a 73747200 		.ascii	"str\000"
 4007 049e 01       		.byte	0x1
 4008 049f 47       		.byte	0x47
 4009 04a0 D4050000 		.4byte	0x5d4
 4010 04a4 00       		.byte	0
 4011 04a5 19       		.uleb128 0x19
 4012 04a6 B6040000 		.4byte	0x4b6
 4013 04aa 1A       		.uleb128 0x1a
 4014 04ab 73747200 		.ascii	"str\000"
 4015 04af 01       		.byte	0x1
 4016 04b0 48       		.byte	0x48
ARM GAS  C:\Users\honet\AppData\Local\Temp\cc6gsi1c.s 			page 87


 4017 04b1 D4050000 		.4byte	0x5d4
 4018 04b5 00       		.byte	0
 4019 04b6 19       		.uleb128 0x19
 4020 04b7 C7040000 		.4byte	0x4c7
 4021 04bb 1A       		.uleb128 0x1a
 4022 04bc 73747200 		.ascii	"str\000"
 4023 04c0 01       		.byte	0x1
 4024 04c1 49       		.byte	0x49
 4025 04c2 D4050000 		.4byte	0x5d4
 4026 04c6 00       		.byte	0
 4027 04c7 19       		.uleb128 0x19
 4028 04c8 D8040000 		.4byte	0x4d8
 4029 04cc 1A       		.uleb128 0x1a
 4030 04cd 73747200 		.ascii	"str\000"
 4031 04d1 01       		.byte	0x1
 4032 04d2 4A       		.byte	0x4a
 4033 04d3 D4050000 		.4byte	0x5d4
 4034 04d7 00       		.byte	0
 4035 04d8 19       		.uleb128 0x19
 4036 04d9 E9040000 		.4byte	0x4e9
 4037 04dd 1A       		.uleb128 0x1a
 4038 04de 73747200 		.ascii	"str\000"
 4039 04e2 01       		.byte	0x1
 4040 04e3 4B       		.byte	0x4b
 4041 04e4 D4050000 		.4byte	0x5d4
 4042 04e8 00       		.byte	0
 4043 04e9 19       		.uleb128 0x19
 4044 04ea FA040000 		.4byte	0x4fa
 4045 04ee 1A       		.uleb128 0x1a
 4046 04ef 73747200 		.ascii	"str\000"
 4047 04f3 01       		.byte	0x1
 4048 04f4 4C       		.byte	0x4c
 4049 04f5 D4050000 		.4byte	0x5d4
 4050 04f9 00       		.byte	0
 4051 04fa 19       		.uleb128 0x19
 4052 04fb 0B050000 		.4byte	0x50b
 4053 04ff 1A       		.uleb128 0x1a
 4054 0500 73747200 		.ascii	"str\000"
 4055 0504 01       		.byte	0x1
 4056 0505 4D       		.byte	0x4d
 4057 0506 D4050000 		.4byte	0x5d4
 4058 050a 00       		.byte	0
 4059 050b 19       		.uleb128 0x19
 4060 050c 1C050000 		.4byte	0x51c
 4061 0510 1A       		.uleb128 0x1a
 4062 0511 73747200 		.ascii	"str\000"
 4063 0515 01       		.byte	0x1
 4064 0516 4E       		.byte	0x4e
 4065 0517 D4050000 		.4byte	0x5d4
 4066 051b 00       		.byte	0
 4067 051c 19       		.uleb128 0x19
 4068 051d 2D050000 		.4byte	0x52d
 4069 0521 1A       		.uleb128 0x1a
 4070 0522 73747200 		.ascii	"str\000"
 4071 0526 01       		.byte	0x1
 4072 0527 4F       		.byte	0x4f
 4073 0528 D4050000 		.4byte	0x5d4
ARM GAS  C:\Users\honet\AppData\Local\Temp\cc6gsi1c.s 			page 88


 4074 052c 00       		.byte	0
 4075 052d 19       		.uleb128 0x19
 4076 052e 3E050000 		.4byte	0x53e
 4077 0532 1A       		.uleb128 0x1a
 4078 0533 73747200 		.ascii	"str\000"
 4079 0537 01       		.byte	0x1
 4080 0538 50       		.byte	0x50
 4081 0539 D4050000 		.4byte	0x5d4
 4082 053d 00       		.byte	0
 4083 053e 19       		.uleb128 0x19
 4084 053f 4F050000 		.4byte	0x54f
 4085 0543 1A       		.uleb128 0x1a
 4086 0544 73747200 		.ascii	"str\000"
 4087 0548 01       		.byte	0x1
 4088 0549 51       		.byte	0x51
 4089 054a D4050000 		.4byte	0x5d4
 4090 054e 00       		.byte	0
 4091 054f 19       		.uleb128 0x19
 4092 0550 60050000 		.4byte	0x560
 4093 0554 1A       		.uleb128 0x1a
 4094 0555 73747200 		.ascii	"str\000"
 4095 0559 01       		.byte	0x1
 4096 055a 52       		.byte	0x52
 4097 055b D4050000 		.4byte	0x5d4
 4098 055f 00       		.byte	0
 4099 0560 19       		.uleb128 0x19
 4100 0561 71050000 		.4byte	0x571
 4101 0565 1A       		.uleb128 0x1a
 4102 0566 73747200 		.ascii	"str\000"
 4103 056a 01       		.byte	0x1
 4104 056b 53       		.byte	0x53
 4105 056c D4050000 		.4byte	0x5d4
 4106 0570 00       		.byte	0
 4107 0571 19       		.uleb128 0x19
 4108 0572 82050000 		.4byte	0x582
 4109 0576 1A       		.uleb128 0x1a
 4110 0577 73747200 		.ascii	"str\000"
 4111 057b 01       		.byte	0x1
 4112 057c 54       		.byte	0x54
 4113 057d D4050000 		.4byte	0x5d4
 4114 0581 00       		.byte	0
 4115 0582 19       		.uleb128 0x19
 4116 0583 93050000 		.4byte	0x593
 4117 0587 1A       		.uleb128 0x1a
 4118 0588 73747200 		.ascii	"str\000"
 4119 058c 01       		.byte	0x1
 4120 058d 55       		.byte	0x55
 4121 058e D4050000 		.4byte	0x5d4
 4122 0592 00       		.byte	0
 4123 0593 19       		.uleb128 0x19
 4124 0594 A4050000 		.4byte	0x5a4
 4125 0598 1A       		.uleb128 0x1a
 4126 0599 73747200 		.ascii	"str\000"
 4127 059d 01       		.byte	0x1
 4128 059e 56       		.byte	0x56
 4129 059f D4050000 		.4byte	0x5d4
 4130 05a3 00       		.byte	0
ARM GAS  C:\Users\honet\AppData\Local\Temp\cc6gsi1c.s 			page 89


 4131 05a4 19       		.uleb128 0x19
 4132 05a5 B5050000 		.4byte	0x5b5
 4133 05a9 1A       		.uleb128 0x1a
 4134 05aa 73747200 		.ascii	"str\000"
 4135 05ae 01       		.byte	0x1
 4136 05af 57       		.byte	0x57
 4137 05b0 D4050000 		.4byte	0x5d4
 4138 05b4 00       		.byte	0
 4139 05b5 19       		.uleb128 0x19
 4140 05b6 C6050000 		.4byte	0x5c6
 4141 05ba 1A       		.uleb128 0x1a
 4142 05bb 73747200 		.ascii	"str\000"
 4143 05bf 01       		.byte	0x1
 4144 05c0 58       		.byte	0x58
 4145 05c1 D4050000 		.4byte	0x5d4
 4146 05c5 00       		.byte	0
 4147 05c6 1B       		.uleb128 0x1b
 4148 05c7 1A       		.uleb128 0x1a
 4149 05c8 73747200 		.ascii	"str\000"
 4150 05cc 01       		.byte	0x1
 4151 05cd 5A       		.byte	0x5a
 4152 05ce D4050000 		.4byte	0x5d4
 4153 05d2 00       		.byte	0
 4154 05d3 00       		.byte	0
 4155 05d4 0F       		.uleb128 0xf
 4156 05d5 B8000000 		.4byte	0xb8
 4157 05d9 E4050000 		.4byte	0x5e4
 4158 05dd 1C       		.uleb128 0x1c
 4159 05de A2000000 		.4byte	0xa2
 4160 05e2 7F       		.byte	0x7f
 4161 05e3 00       		.byte	0
 4162 05e4 1D       		.uleb128 0x1d
 4163 05e5 35060000 		.4byte	.LASF105
 4164 05e9 01       		.byte	0x1
 4165 05ea 3C       		.byte	0x3c
 4166 05eb 00000000 		.4byte	.LFB66
 4167 05ef 02000000 		.4byte	.LFE66-.LFB66
 4168 05f3 01       		.uleb128 0x1
 4169 05f4 9C       		.byte	0x9c
 4170 05f5 07060000 		.4byte	0x607
 4171 05f9 1E       		.uleb128 0x1e
 4172 05fa 68020000 		.4byte	.LASF133
 4173 05fe 01       		.byte	0x1
 4174 05ff 3C       		.byte	0x3c
 4175 0600 B2000000 		.4byte	0xb2
 4176 0604 01       		.uleb128 0x1
 4177 0605 50       		.byte	0x50
 4178 0606 00       		.byte	0
 4179 0607 1F       		.uleb128 0x1f
 4180 0608 07030000 		.4byte	.LASF85
 4181 060c 01       		.byte	0x1
 4182 060d 2C       		.byte	0x2c
 4183 060e 00000000 		.4byte	.LFB63
 4184 0612 10000000 		.4byte	.LFE63-.LFB63
 4185 0616 01       		.uleb128 0x1
 4186 0617 9C       		.byte	0x9c
 4187 0618 26060000 		.4byte	0x626
ARM GAS  C:\Users\honet\AppData\Local\Temp\cc6gsi1c.s 			page 90


 4188 061c 20       		.uleb128 0x20
 4189 061d 0C000000 		.4byte	.LVL1
 4190 0621 C22C0000 		.4byte	0x2cc2
 4191 0625 00       		.byte	0
 4192 0626 1F       		.uleb128 0x1f
 4193 0627 F3050000 		.4byte	.LASF86
 4194 062b 01       		.byte	0x1
 4195 062c 32       		.byte	0x32
 4196 062d 00000000 		.4byte	.LFB64
 4197 0631 08000000 		.4byte	.LFE64-.LFB64
 4198 0635 01       		.uleb128 0x1
 4199 0636 9C       		.byte	0x9c
 4200 0637 50060000 		.4byte	0x650
 4201 063b 21       		.uleb128 0x21
 4202 063c 08000000 		.4byte	.LVL2
 4203 0640 CA2C0000 		.4byte	0x2cca
 4204 0644 22       		.uleb128 0x22
 4205 0645 01       		.uleb128 0x1
 4206 0646 51       		.byte	0x51
 4207 0647 01       		.uleb128 0x1
 4208 0648 31       		.byte	0x31
 4209 0649 22       		.uleb128 0x22
 4210 064a 01       		.uleb128 0x1
 4211 064b 50       		.byte	0x50
 4212 064c 01       		.uleb128 0x1
 4213 064d 31       		.byte	0x31
 4214 064e 00       		.byte	0
 4215 064f 00       		.byte	0
 4216 0650 1F       		.uleb128 0x1f
 4217 0651 62030000 		.4byte	.LASF87
 4218 0655 01       		.byte	0x1
 4219 0656 37       		.byte	0x37
 4220 0657 00000000 		.4byte	.LFB65
 4221 065b 08000000 		.4byte	.LFE65-.LFB65
 4222 065f 01       		.uleb128 0x1
 4223 0660 9C       		.byte	0x9c
 4224 0661 7B060000 		.4byte	0x67b
 4225 0665 21       		.uleb128 0x21
 4226 0666 08000000 		.4byte	.LVL3
 4227 066a CA2C0000 		.4byte	0x2cca
 4228 066e 22       		.uleb128 0x22
 4229 066f 01       		.uleb128 0x1
 4230 0670 51       		.byte	0x51
 4231 0671 01       		.uleb128 0x1
 4232 0672 31       		.byte	0x31
 4233 0673 22       		.uleb128 0x22
 4234 0674 01       		.uleb128 0x1
 4235 0675 50       		.byte	0x50
 4236 0676 02       		.uleb128 0x2
 4237 0677 08       		.byte	0x8
 4238 0678 C8       		.byte	0xc8
 4239 0679 00       		.byte	0
 4240 067a 00       		.byte	0
 4241 067b 23       		.uleb128 0x23
 4242 067c 2E040000 		.4byte	0x42e
 4243 0680 00000000 		.4byte	.LFB71
 4244 0684 B4020000 		.4byte	.LFE71-.LFB71
ARM GAS  C:\Users\honet\AppData\Local\Temp\cc6gsi1c.s 			page 91


 4245 0688 01       		.uleb128 0x1
 4246 0689 9C       		.byte	0x9c
 4247 068a F4090000 		.4byte	0x9f4
 4248 068e 24       		.uleb128 0x24
 4249 068f 3A040000 		.4byte	0x43a
 4250 0693 00000000 		.4byte	.LLST0
 4251 0697 24       		.uleb128 0x24
 4252 0698 45040000 		.4byte	0x445
 4253 069c 2C000000 		.4byte	.LLST1
 4254 06a0 25       		.uleb128 0x25
 4255 06a1 08000000 		.4byte	.LBB140
 4256 06a5 18000000 		.4byte	.LBE140-.LBB140
 4257 06a9 F4060000 		.4byte	0x6f4
 4258 06ad 26       		.uleb128 0x26
 4259 06ae 55040000 		.4byte	0x455
 4260 06b2 03       		.uleb128 0x3
 4261 06b3 91       		.byte	0x91
 4262 06b4 F07E     		.sleb128 -144
 4263 06b6 27       		.uleb128 0x27
 4264 06b7 12000000 		.4byte	.LVL7
 4265 06bb E02C0000 		.4byte	0x2ce0
 4266 06bf DA060000 		.4byte	0x6da
 4267 06c3 22       		.uleb128 0x22
 4268 06c4 01       		.uleb128 0x1
 4269 06c5 52       		.byte	0x52
 4270 06c6 03       		.uleb128 0x3
 4271 06c7 F3       		.byte	0xf3
 4272 06c8 01       		.uleb128 0x1
 4273 06c9 50       		.byte	0x50
 4274 06ca 22       		.uleb128 0x22
 4275 06cb 01       		.uleb128 0x1
 4276 06cc 51       		.byte	0x51
 4277 06cd 05       		.uleb128 0x5
 4278 06ce 03       		.byte	0x3
 4279 06cf 00000000 		.4byte	.LC0
 4280 06d3 22       		.uleb128 0x22
 4281 06d4 01       		.uleb128 0x1
 4282 06d5 50       		.byte	0x50
 4283 06d6 02       		.uleb128 0x2
 4284 06d7 74       		.byte	0x74
 4285 06d8 00       		.sleb128 0
 4286 06d9 00       		.byte	0
 4287 06da 28       		.uleb128 0x28
 4288 06db 16000000 		.4byte	.LVL8
 4289 06df FB2C0000 		.4byte	0x2cfb
 4290 06e3 29       		.uleb128 0x29
 4291 06e4 20000000 		.4byte	.LVL9
 4292 06e8 062D0000 		.4byte	0x2d06
 4293 06ec 22       		.uleb128 0x22
 4294 06ed 01       		.uleb128 0x1
 4295 06ee 50       		.byte	0x50
 4296 06ef 02       		.uleb128 0x2
 4297 06f0 74       		.byte	0x74
 4298 06f1 00       		.sleb128 0
 4299 06f2 00       		.byte	0
 4300 06f3 00       		.byte	0
 4301 06f4 25       		.uleb128 0x25
ARM GAS  C:\Users\honet\AppData\Local\Temp\cc6gsi1c.s 			page 92


 4302 06f5 52000000 		.4byte	.LBB141
 4303 06f9 1A000000 		.4byte	.LBE141-.LBB141
 4304 06fd 14070000 		.4byte	0x714
 4305 0701 26       		.uleb128 0x26
 4306 0702 A9050000 		.4byte	0x5a9
 4307 0706 03       		.uleb128 0x3
 4308 0707 91       		.byte	0x91
 4309 0708 F07E     		.sleb128 -144
 4310 070a 28       		.uleb128 0x28
 4311 070b 68000000 		.4byte	.LVL10
 4312 070f FB2C0000 		.4byte	0x2cfb
 4313 0713 00       		.byte	0
 4314 0714 2A       		.uleb128 0x2a
 4315 0715 00000000 		.4byte	.Ldebug_ranges0+0
 4316 0719 67070000 		.4byte	0x767
 4317 071d 26       		.uleb128 0x26
 4318 071e BA050000 		.4byte	0x5ba
 4319 0722 03       		.uleb128 0x3
 4320 0723 91       		.byte	0x91
 4321 0724 F07E     		.sleb128 -144
 4322 0726 27       		.uleb128 0x27
 4323 0727 72000000 		.4byte	.LVL11
 4324 072b 062D0000 		.4byte	0x2d06
 4325 072f 3A070000 		.4byte	0x73a
 4326 0733 22       		.uleb128 0x22
 4327 0734 01       		.uleb128 0x1
 4328 0735 50       		.byte	0x50
 4329 0736 02       		.uleb128 0x2
 4330 0737 74       		.byte	0x74
 4331 0738 00       		.sleb128 0
 4332 0739 00       		.byte	0
 4333 073a 27       		.uleb128 0x27
 4334 073b 50020000 		.4byte	.LVL33
 4335 073f E02C0000 		.4byte	0x2ce0
 4336 0743 5D070000 		.4byte	0x75d
 4337 0747 22       		.uleb128 0x22
 4338 0748 01       		.uleb128 0x1
 4339 0749 52       		.byte	0x52
 4340 074a 02       		.uleb128 0x2
 4341 074b 75       		.byte	0x75
 4342 074c 00       		.sleb128 0
 4343 074d 22       		.uleb128 0x22
 4344 074e 01       		.uleb128 0x1
 4345 074f 51       		.byte	0x51
 4346 0750 05       		.uleb128 0x5
 4347 0751 03       		.byte	0x3
 4348 0752 4C010000 		.4byte	.LC21
 4349 0756 22       		.uleb128 0x22
 4350 0757 01       		.uleb128 0x1
 4351 0758 50       		.byte	0x50
 4352 0759 02       		.uleb128 0x2
 4353 075a 74       		.byte	0x74
 4354 075b 00       		.sleb128 0
 4355 075c 00       		.byte	0
 4356 075d 28       		.uleb128 0x28
 4357 075e 54020000 		.4byte	.LVL34
 4358 0762 FB2C0000 		.4byte	0x2cfb
ARM GAS  C:\Users\honet\AppData\Local\Temp\cc6gsi1c.s 			page 93


 4359 0766 00       		.byte	0
 4360 0767 25       		.uleb128 0x25
 4361 0768 72000000 		.4byte	.LBB143
 4362 076c 14000000 		.4byte	.LBE143-.LBB143
 4363 0770 97070000 		.4byte	0x797
 4364 0774 26       		.uleb128 0x26
 4365 0775 C7050000 		.4byte	0x5c7
 4366 0779 03       		.uleb128 0x3
 4367 077a 91       		.byte	0x91
 4368 077b F07E     		.sleb128 -144
 4369 077d 28       		.uleb128 0x28
 4370 077e 7C000000 		.4byte	.LVL12
 4371 0782 FB2C0000 		.4byte	0x2cfb
 4372 0786 29       		.uleb128 0x29
 4373 0787 86000000 		.4byte	.LVL13
 4374 078b 062D0000 		.4byte	0x2d06
 4375 078f 22       		.uleb128 0x22
 4376 0790 01       		.uleb128 0x1
 4377 0791 50       		.byte	0x50
 4378 0792 02       		.uleb128 0x2
 4379 0793 74       		.byte	0x74
 4380 0794 00       		.sleb128 0
 4381 0795 00       		.byte	0
 4382 0796 00       		.byte	0
 4383 0797 25       		.uleb128 0x25
 4384 0798 8A000000 		.4byte	.LBB144
 4385 079c 22000000 		.4byte	.LBE144-.LBB144
 4386 07a0 B7070000 		.4byte	0x7b7
 4387 07a4 26       		.uleb128 0x26
 4388 07a5 98050000 		.4byte	0x598
 4389 07a9 03       		.uleb128 0x3
 4390 07aa 91       		.byte	0x91
 4391 07ab F07E     		.sleb128 -144
 4392 07ad 28       		.uleb128 0x28
 4393 07ae A6000000 		.4byte	.LVL14
 4394 07b2 FB2C0000 		.4byte	0x2cfb
 4395 07b6 00       		.byte	0
 4396 07b7 25       		.uleb128 0x25
 4397 07b8 AC000000 		.4byte	.LBB145
 4398 07bc 1C000000 		.4byte	.LBE145-.LBB145
 4399 07c0 D7070000 		.4byte	0x7d7
 4400 07c4 26       		.uleb128 0x26
 4401 07c5 87050000 		.4byte	0x587
 4402 07c9 03       		.uleb128 0x3
 4403 07ca 91       		.byte	0x91
 4404 07cb F07E     		.sleb128 -144
 4405 07cd 28       		.uleb128 0x28
 4406 07ce C2000000 		.4byte	.LVL15
 4407 07d2 FB2C0000 		.4byte	0x2cfb
 4408 07d6 00       		.byte	0
 4409 07d7 25       		.uleb128 0x25
 4410 07d8 C8000000 		.4byte	.LBB146
 4411 07dc 14000000 		.4byte	.LBE146-.LBB146
 4412 07e0 F7070000 		.4byte	0x7f7
 4413 07e4 26       		.uleb128 0x26
 4414 07e5 76050000 		.4byte	0x576
 4415 07e9 03       		.uleb128 0x3
ARM GAS  C:\Users\honet\AppData\Local\Temp\cc6gsi1c.s 			page 94


 4416 07ea 91       		.byte	0x91
 4417 07eb F07E     		.sleb128 -144
 4418 07ed 28       		.uleb128 0x28
 4419 07ee D6000000 		.4byte	.LVL16
 4420 07f2 FB2C0000 		.4byte	0x2cfb
 4421 07f6 00       		.byte	0
 4422 07f7 25       		.uleb128 0x25
 4423 07f8 DC000000 		.4byte	.LBB147
 4424 07fc 1A000000 		.4byte	.LBE147-.LBB147
 4425 0800 17080000 		.4byte	0x817
 4426 0804 26       		.uleb128 0x26
 4427 0805 65050000 		.4byte	0x565
 4428 0809 03       		.uleb128 0x3
 4429 080a 91       		.byte	0x91
 4430 080b F07E     		.sleb128 -144
 4431 080d 28       		.uleb128 0x28
 4432 080e F0000000 		.4byte	.LVL17
 4433 0812 FB2C0000 		.4byte	0x2cfb
 4434 0816 00       		.byte	0
 4435 0817 25       		.uleb128 0x25
 4436 0818 F6000000 		.4byte	.LBB148
 4437 081c 12000000 		.4byte	.LBE148-.LBB148
 4438 0820 37080000 		.4byte	0x837
 4439 0824 26       		.uleb128 0x26
 4440 0825 54050000 		.4byte	0x554
 4441 0829 03       		.uleb128 0x3
 4442 082a 91       		.byte	0x91
 4443 082b F07E     		.sleb128 -144
 4444 082d 28       		.uleb128 0x28
 4445 082e 02010000 		.4byte	.LVL18
 4446 0832 FB2C0000 		.4byte	0x2cfb
 4447 0836 00       		.byte	0
 4448 0837 25       		.uleb128 0x25
 4449 0838 08010000 		.4byte	.LBB149
 4450 083c 16000000 		.4byte	.LBE149-.LBB149
 4451 0840 57080000 		.4byte	0x857
 4452 0844 26       		.uleb128 0x26
 4453 0845 43050000 		.4byte	0x543
 4454 0849 03       		.uleb128 0x3
 4455 084a 91       		.byte	0x91
 4456 084b F07E     		.sleb128 -144
 4457 084d 28       		.uleb128 0x28
 4458 084e 18010000 		.4byte	.LVL19
 4459 0852 FB2C0000 		.4byte	0x2cfb
 4460 0856 00       		.byte	0
 4461 0857 25       		.uleb128 0x25
 4462 0858 1E010000 		.4byte	.LBB150
 4463 085c 1A000000 		.4byte	.LBE150-.LBB150
 4464 0860 77080000 		.4byte	0x877
 4465 0864 26       		.uleb128 0x26
 4466 0865 32050000 		.4byte	0x532
 4467 0869 03       		.uleb128 0x3
 4468 086a 91       		.byte	0x91
 4469 086b F07E     		.sleb128 -144
 4470 086d 28       		.uleb128 0x28
 4471 086e 32010000 		.4byte	.LVL20
 4472 0872 FB2C0000 		.4byte	0x2cfb
ARM GAS  C:\Users\honet\AppData\Local\Temp\cc6gsi1c.s 			page 95


 4473 0876 00       		.byte	0
 4474 0877 25       		.uleb128 0x25
 4475 0878 38010000 		.4byte	.LBB151
 4476 087c 16000000 		.4byte	.LBE151-.LBB151
 4477 0880 97080000 		.4byte	0x897
 4478 0884 26       		.uleb128 0x26
 4479 0885 21050000 		.4byte	0x521
 4480 0889 03       		.uleb128 0x3
 4481 088a 91       		.byte	0x91
 4482 088b F07E     		.sleb128 -144
 4483 088d 28       		.uleb128 0x28
 4484 088e 48010000 		.4byte	.LVL21
 4485 0892 FB2C0000 		.4byte	0x2cfb
 4486 0896 00       		.byte	0
 4487 0897 25       		.uleb128 0x25
 4488 0898 4E010000 		.4byte	.LBB152
 4489 089c 1C000000 		.4byte	.LBE152-.LBB152
 4490 08a0 B7080000 		.4byte	0x8b7
 4491 08a4 26       		.uleb128 0x26
 4492 08a5 10050000 		.4byte	0x510
 4493 08a9 03       		.uleb128 0x3
 4494 08aa 91       		.byte	0x91
 4495 08ab F07E     		.sleb128 -144
 4496 08ad 28       		.uleb128 0x28
 4497 08ae 64010000 		.4byte	.LVL22
 4498 08b2 FB2C0000 		.4byte	0x2cfb
 4499 08b6 00       		.byte	0
 4500 08b7 25       		.uleb128 0x25
 4501 08b8 6A010000 		.4byte	.LBB153
 4502 08bc 16000000 		.4byte	.LBE153-.LBB153
 4503 08c0 D7080000 		.4byte	0x8d7
 4504 08c4 26       		.uleb128 0x26
 4505 08c5 FF040000 		.4byte	0x4ff
 4506 08c9 03       		.uleb128 0x3
 4507 08ca 91       		.byte	0x91
 4508 08cb F07E     		.sleb128 -144
 4509 08cd 28       		.uleb128 0x28
 4510 08ce 7A010000 		.4byte	.LVL23
 4511 08d2 FB2C0000 		.4byte	0x2cfb
 4512 08d6 00       		.byte	0
 4513 08d7 25       		.uleb128 0x25
 4514 08d8 80010000 		.4byte	.LBB154
 4515 08dc 14000000 		.4byte	.LBE154-.LBB154
 4516 08e0 F7080000 		.4byte	0x8f7
 4517 08e4 26       		.uleb128 0x26
 4518 08e5 EE040000 		.4byte	0x4ee
 4519 08e9 03       		.uleb128 0x3
 4520 08ea 91       		.byte	0x91
 4521 08eb F07E     		.sleb128 -144
 4522 08ed 28       		.uleb128 0x28
 4523 08ee 8E010000 		.4byte	.LVL24
 4524 08f2 FB2C0000 		.4byte	0x2cfb
 4525 08f6 00       		.byte	0
 4526 08f7 25       		.uleb128 0x25
 4527 08f8 94010000 		.4byte	.LBB155
 4528 08fc 14000000 		.4byte	.LBE155-.LBB155
 4529 0900 17090000 		.4byte	0x917
ARM GAS  C:\Users\honet\AppData\Local\Temp\cc6gsi1c.s 			page 96


 4530 0904 26       		.uleb128 0x26
 4531 0905 DD040000 		.4byte	0x4dd
 4532 0909 03       		.uleb128 0x3
 4533 090a 91       		.byte	0x91
 4534 090b F07E     		.sleb128 -144
 4535 090d 28       		.uleb128 0x28
 4536 090e A2010000 		.4byte	.LVL25
 4537 0912 FB2C0000 		.4byte	0x2cfb
 4538 0916 00       		.byte	0
 4539 0917 25       		.uleb128 0x25
 4540 0918 A8010000 		.4byte	.LBB156
 4541 091c 12000000 		.4byte	.LBE156-.LBB156
 4542 0920 37090000 		.4byte	0x937
 4543 0924 26       		.uleb128 0x26
 4544 0925 CC040000 		.4byte	0x4cc
 4545 0929 03       		.uleb128 0x3
 4546 092a 91       		.byte	0x91
 4547 092b F07E     		.sleb128 -144
 4548 092d 28       		.uleb128 0x28
 4549 092e B4010000 		.4byte	.LVL26
 4550 0932 FB2C0000 		.4byte	0x2cfb
 4551 0936 00       		.byte	0
 4552 0937 25       		.uleb128 0x25
 4553 0938 BA010000 		.4byte	.LBB157
 4554 093c 1A000000 		.4byte	.LBE157-.LBB157
 4555 0940 57090000 		.4byte	0x957
 4556 0944 26       		.uleb128 0x26
 4557 0945 BB040000 		.4byte	0x4bb
 4558 0949 03       		.uleb128 0x3
 4559 094a 91       		.byte	0x91
 4560 094b F07E     		.sleb128 -144
 4561 094d 28       		.uleb128 0x28
 4562 094e CE010000 		.4byte	.LVL27
 4563 0952 FB2C0000 		.4byte	0x2cfb
 4564 0956 00       		.byte	0
 4565 0957 25       		.uleb128 0x25
 4566 0958 D4010000 		.4byte	.LBB158
 4567 095c 1A000000 		.4byte	.LBE158-.LBB158
 4568 0960 77090000 		.4byte	0x977
 4569 0964 26       		.uleb128 0x26
 4570 0965 AA040000 		.4byte	0x4aa
 4571 0969 03       		.uleb128 0x3
 4572 096a 91       		.byte	0x91
 4573 096b F07E     		.sleb128 -144
 4574 096d 28       		.uleb128 0x28
 4575 096e E8010000 		.4byte	.LVL28
 4576 0972 FB2C0000 		.4byte	0x2cfb
 4577 0976 00       		.byte	0
 4578 0977 25       		.uleb128 0x25
 4579 0978 EE010000 		.4byte	.LBB159
 4580 097c 14000000 		.4byte	.LBE159-.LBB159
 4581 0980 97090000 		.4byte	0x997
 4582 0984 26       		.uleb128 0x26
 4583 0985 99040000 		.4byte	0x499
 4584 0989 03       		.uleb128 0x3
 4585 098a 91       		.byte	0x91
 4586 098b F07E     		.sleb128 -144
ARM GAS  C:\Users\honet\AppData\Local\Temp\cc6gsi1c.s 			page 97


 4587 098d 28       		.uleb128 0x28
 4588 098e FC010000 		.4byte	.LVL29
 4589 0992 FB2C0000 		.4byte	0x2cfb
 4590 0996 00       		.byte	0
 4591 0997 25       		.uleb128 0x25
 4592 0998 02020000 		.4byte	.LBB160
 4593 099c 1A000000 		.4byte	.LBE160-.LBB160
 4594 09a0 B7090000 		.4byte	0x9b7
 4595 09a4 26       		.uleb128 0x26
 4596 09a5 88040000 		.4byte	0x488
 4597 09a9 03       		.uleb128 0x3
 4598 09aa 91       		.byte	0x91
 4599 09ab F07E     		.sleb128 -144
 4600 09ad 28       		.uleb128 0x28
 4601 09ae 16020000 		.4byte	.LVL30
 4602 09b2 FB2C0000 		.4byte	0x2cfb
 4603 09b6 00       		.byte	0
 4604 09b7 25       		.uleb128 0x25
 4605 09b8 1C020000 		.4byte	.LBB161
 4606 09bc 14000000 		.4byte	.LBE161-.LBB161
 4607 09c0 D7090000 		.4byte	0x9d7
 4608 09c4 26       		.uleb128 0x26
 4609 09c5 77040000 		.4byte	0x477
 4610 09c9 03       		.uleb128 0x3
 4611 09ca 91       		.byte	0x91
 4612 09cb F07E     		.sleb128 -144
 4613 09cd 28       		.uleb128 0x28
 4614 09ce 2A020000 		.4byte	.LVL31
 4615 09d2 FB2C0000 		.4byte	0x2cfb
 4616 09d6 00       		.byte	0
 4617 09d7 2B       		.uleb128 0x2b
 4618 09d8 30020000 		.4byte	.LBB162
 4619 09dc 16000000 		.4byte	.LBE162-.LBB162
 4620 09e0 26       		.uleb128 0x26
 4621 09e1 66040000 		.4byte	0x466
 4622 09e5 03       		.uleb128 0x3
 4623 09e6 91       		.byte	0x91
 4624 09e7 F07E     		.sleb128 -144
 4625 09e9 28       		.uleb128 0x28
 4626 09ea 40020000 		.4byte	.LVL32
 4627 09ee FB2C0000 		.4byte	0x2cfb
 4628 09f2 00       		.byte	0
 4629 09f3 00       		.byte	0
 4630 09f4 23       		.uleb128 0x23
 4631 09f5 2E040000 		.4byte	0x42e
 4632 09f9 00000000 		.4byte	.LFB67
 4633 09fd 08000000 		.4byte	.LFE67-.LFB67
 4634 0a01 01       		.uleb128 0x1
 4635 0a02 9C       		.byte	0x9c
 4636 0a03 230A0000 		.4byte	0xa23
 4637 0a07 24       		.uleb128 0x24
 4638 0a08 3A040000 		.4byte	0x43a
 4639 0a0c 4D000000 		.4byte	.LLST2
 4640 0a10 24       		.uleb128 0x24
 4641 0a11 45040000 		.4byte	0x445
 4642 0a15 6E000000 		.4byte	.LLST3
 4643 0a19 20       		.uleb128 0x20
ARM GAS  C:\Users\honet\AppData\Local\Temp\cc6gsi1c.s 			page 98


 4644 0a1a 08000000 		.4byte	.LVL36
 4645 0a1e 7B060000 		.4byte	0x67b
 4646 0a22 00       		.byte	0
 4647 0a23 2C       		.uleb128 0x2c
 4648 0a24 67000000 		.4byte	.LASF88
 4649 0a28 01       		.byte	0x1
 4650 0a29 60       		.byte	0x60
 4651 0a2a 00000000 		.4byte	.LFB68
 4652 0a2e D4080000 		.4byte	.LFE68-.LFB68
 4653 0a32 01       		.uleb128 0x1
 4654 0a33 9C       		.byte	0x9c
 4655 0a34 4D230000 		.4byte	0x234d
 4656 0a38 2D       		.uleb128 0x2d
 4657 0a39 2A020000 		.4byte	.LASF89
 4658 0a3d 01       		.byte	0x1
 4659 0a3e 62       		.byte	0x62
 4660 0a3f EB000000 		.4byte	0xeb
 4661 0a43 0010     		.2byte	0x1000
 4662 0a45 2E       		.uleb128 0x2e
 4663 0a46 C7000000 		.4byte	.LASF90
 4664 0a4a 01       		.byte	0x1
 4665 0a4b 63       		.byte	0x63
 4666 0a4c 4D230000 		.4byte	0x234d
 4667 0a50 06       		.uleb128 0x6
 4668 0a51 03       		.byte	0x3
 4669 0a52 00000000 		.4byte	buffer
 4670 0a56 9F       		.byte	0x9f
 4671 0a57 2F       		.uleb128 0x2f
 4672 0a58 72657300 		.ascii	"res\000"
 4673 0a5c 01       		.byte	0x1
 4674 0a5d 65       		.byte	0x65
 4675 0a5e 0F040000 		.4byte	0x40f
 4676 0a62 8F000000 		.4byte	.LLST4
 4677 0a66 2E       		.uleb128 0x2e
 4678 0a67 E0000000 		.4byte	.LASF91
 4679 0a6b 01       		.byte	0x1
 4680 0a6c 66       		.byte	0x66
 4681 0a6d 67010000 		.4byte	0x167
 4682 0a71 03       		.uleb128 0x3
 4683 0a72 91       		.byte	0x91
 4684 0a73 F875     		.sleb128 -1288
 4685 0a75 2E       		.uleb128 0x2e
 4686 0a76 53020000 		.4byte	.LASF92
 4687 0a7a 01       		.byte	0x1
 4688 0a7b 66       		.byte	0x66
 4689 0a7c 67010000 		.4byte	0x167
 4690 0a80 03       		.uleb128 0x3
 4691 0a81 91       		.byte	0x91
 4692 0a82 FC75     		.sleb128 -1284
 4693 0a84 2E       		.uleb128 0x2e
 4694 0a85 5A030000 		.4byte	.LASF93
 4695 0a89 01       		.byte	0x1
 4696 0a8a 68       		.byte	0x68
 4697 0a8b 9B020000 		.4byte	0x29b
 4698 0a8f 03       		.uleb128 0x3
 4699 0a90 91       		.byte	0x91
 4700 0a91 A87B     		.sleb128 -600
ARM GAS  C:\Users\honet\AppData\Local\Temp\cc6gsi1c.s 			page 99


 4701 0a93 30       		.uleb128 0x30
 4702 0a94 DB000000 		.4byte	.LASF94
 4703 0a98 01       		.byte	0x1
 4704 0a99 6B       		.byte	0x6b
 4705 0a9a 1B040000 		.4byte	0x41b
 4706 0a9e C0010000 		.4byte	.LLST5
 4707 0aa2 31       		.uleb128 0x31
 4708 0aa3 CC020000 		.4byte	.LASF104
 4709 0aa7 01       		.byte	0x1
 4710 0aa8 1E01     		.2byte	0x11e
 4711 0aaa 46000000 		.4byte	.L112
 4712 0aae 30       		.uleb128 0x30
 4713 0aaf 85010000 		.4byte	.LASF95
 4714 0ab3 01       		.byte	0x1
 4715 0ab4 71       		.byte	0x71
 4716 0ab5 0F040000 		.4byte	0x40f
 4717 0ab9 DE010000 		.4byte	.LLST6
 4718 0abd 30       		.uleb128 0x30
 4719 0abe B0030000 		.4byte	.LASF96
 4720 0ac2 01       		.byte	0x1
 4721 0ac3 A1       		.byte	0xa1
 4722 0ac4 8D000000 		.4byte	0x8d
 4723 0ac8 FC010000 		.4byte	.LLST7
 4724 0acc 2E       		.uleb128 0x2e
 4725 0acd F9040000 		.4byte	.LASF97
 4726 0ad1 01       		.byte	0x1
 4727 0ad2 A2       		.byte	0xa2
 4728 0ad3 82030000 		.4byte	0x382
 4729 0ad7 03       		.uleb128 0x3
 4730 0ad8 91       		.byte	0x91
 4731 0ad9 8077     		.sleb128 -1152
 4732 0adb 30       		.uleb128 0x30
 4733 0adc 7F010000 		.4byte	.LASF98
 4734 0ae0 01       		.byte	0x1
 4735 0ae1 AD       		.byte	0xad
 4736 0ae2 8D000000 		.4byte	0x8d
 4737 0ae6 7D020000 		.4byte	.LLST8
 4738 0aea 30       		.uleb128 0x30
 4739 0aeb AB030000 		.4byte	.LASF99
 4740 0aef 01       		.byte	0x1
 4741 0af0 B0       		.byte	0xb0
 4742 0af1 8D000000 		.4byte	0x8d
 4743 0af5 F3020000 		.4byte	.LLST9
 4744 0af9 30       		.uleb128 0x30
 4745 0afa 63010000 		.4byte	.LASF100
 4746 0afe 01       		.byte	0x1
 4747 0aff CA       		.byte	0xca
 4748 0b00 50000000 		.4byte	0x50
 4749 0b04 52040000 		.4byte	.LLST10
 4750 0b08 2A       		.uleb128 0x2a
 4751 0b09 18000000 		.4byte	.Ldebug_ranges0+0x18
 4752 0b0d 3A0B0000 		.4byte	0xb3a
 4753 0b11 32       		.uleb128 0x32
 4754 0b12 73747200 		.ascii	"str\000"
 4755 0b16 01       		.byte	0x1
 4756 0b17 6A       		.byte	0x6a
 4757 0b18 D4050000 		.4byte	0x5d4
ARM GAS  C:\Users\honet\AppData\Local\Temp\cc6gsi1c.s 			page 100


 4758 0b1c 03       		.uleb128 0x3
 4759 0b1d 91       		.byte	0x91
 4760 0b1e A87B     		.sleb128 -600
 4761 0b20 28       		.uleb128 0x28
 4762 0b21 18000000 		.4byte	.LVL38
 4763 0b25 FB2C0000 		.4byte	0x2cfb
 4764 0b29 29       		.uleb128 0x29
 4765 0b2a 22000000 		.4byte	.LVL39
 4766 0b2e 062D0000 		.4byte	0x2d06
 4767 0b32 22       		.uleb128 0x22
 4768 0b33 01       		.uleb128 0x1
 4769 0b34 50       		.byte	0x50
 4770 0b35 02       		.uleb128 0x2
 4771 0b36 74       		.byte	0x74
 4772 0b37 70       		.sleb128 -16
 4773 0b38 00       		.byte	0
 4774 0b39 00       		.byte	0
 4775 0b3a 25       		.uleb128 0x25
 4776 0b3b 2A000000 		.4byte	.LBB166
 4777 0b3f 18000000 		.4byte	.LBE166-.LBB166
 4778 0b43 950B0000 		.4byte	0xb95
 4779 0b47 32       		.uleb128 0x32
 4780 0b48 73747200 		.ascii	"str\000"
 4781 0b4c 01       		.byte	0x1
 4782 0b4d 6C       		.byte	0x6c
 4783 0b4e D4050000 		.4byte	0x5d4
 4784 0b52 03       		.uleb128 0x3
 4785 0b53 91       		.byte	0x91
 4786 0b54 A87B     		.sleb128 -600
 4787 0b56 27       		.uleb128 0x27
 4788 0b57 34000000 		.4byte	.LVL42
 4789 0b5b E02C0000 		.4byte	0x2ce0
 4790 0b5f 7A0B0000 		.4byte	0xb7a
 4791 0b63 22       		.uleb128 0x22
 4792 0b64 01       		.uleb128 0x1
 4793 0b65 52       		.byte	0x52
 4794 0b66 02       		.uleb128 0x2
 4795 0b67 74       		.byte	0x74
 4796 0b68 00       		.sleb128 0
 4797 0b69 22       		.uleb128 0x22
 4798 0b6a 01       		.uleb128 0x1
 4799 0b6b 51       		.byte	0x51
 4800 0b6c 05       		.uleb128 0x5
 4801 0b6d 03       		.byte	0x3
 4802 0b6e 64010000 		.4byte	.LC23
 4803 0b72 22       		.uleb128 0x22
 4804 0b73 01       		.uleb128 0x1
 4805 0b74 50       		.byte	0x50
 4806 0b75 03       		.uleb128 0x3
 4807 0b76 91       		.byte	0x91
 4808 0b77 A87B     		.sleb128 -600
 4809 0b79 00       		.byte	0
 4810 0b7a 28       		.uleb128 0x28
 4811 0b7b 38000000 		.4byte	.LVL43
 4812 0b7f FB2C0000 		.4byte	0x2cfb
 4813 0b83 29       		.uleb128 0x29
 4814 0b84 42000000 		.4byte	.LVL44
ARM GAS  C:\Users\honet\AppData\Local\Temp\cc6gsi1c.s 			page 101


 4815 0b88 062D0000 		.4byte	0x2d06
 4816 0b8c 22       		.uleb128 0x22
 4817 0b8d 01       		.uleb128 0x1
 4818 0b8e 50       		.byte	0x50
 4819 0b8f 03       		.uleb128 0x3
 4820 0b90 91       		.byte	0x91
 4821 0b91 A87B     		.sleb128 -600
 4822 0b93 00       		.byte	0
 4823 0b94 00       		.byte	0
 4824 0b95 25       		.uleb128 0x25
 4825 0b96 4C000000 		.4byte	.LBB167
 4826 0b9a 16000000 		.4byte	.LBE167-.LBB167
 4827 0b9e CC0B0000 		.4byte	0xbcc
 4828 0ba2 33       		.uleb128 0x33
 4829 0ba3 73747200 		.ascii	"str\000"
 4830 0ba7 01       		.byte	0x1
 4831 0ba8 2001     		.2byte	0x120
 4832 0baa D4050000 		.4byte	0x5d4
 4833 0bae 03       		.uleb128 0x3
 4834 0baf 91       		.byte	0x91
 4835 0bb0 8076     		.sleb128 -1280
 4836 0bb2 28       		.uleb128 0x28
 4837 0bb3 58000000 		.4byte	.LVL47
 4838 0bb7 FB2C0000 		.4byte	0x2cfb
 4839 0bbb 29       		.uleb128 0x29
 4840 0bbc 62000000 		.4byte	.LVL48
 4841 0bc0 062D0000 		.4byte	0x2d06
 4842 0bc4 22       		.uleb128 0x22
 4843 0bc5 01       		.uleb128 0x1
 4844 0bc6 50       		.byte	0x50
 4845 0bc7 02       		.uleb128 0x2
 4846 0bc8 76       		.byte	0x76
 4847 0bc9 00       		.sleb128 0
 4848 0bca 00       		.byte	0
 4849 0bcb 00       		.byte	0
 4850 0bcc 2A       		.uleb128 0x2a
 4851 0bcd 30000000 		.4byte	.Ldebug_ranges0+0x30
 4852 0bd1 FE0B0000 		.4byte	0xbfe
 4853 0bd5 32       		.uleb128 0x32
 4854 0bd6 73747200 		.ascii	"str\000"
 4855 0bda 01       		.byte	0x1
 4856 0bdb 73       		.byte	0x73
 4857 0bdc D4050000 		.4byte	0x5d4
 4858 0be0 03       		.uleb128 0x3
 4859 0be1 91       		.byte	0x91
 4860 0be2 8077     		.sleb128 -1152
 4861 0be4 28       		.uleb128 0x28
 4862 0be5 90000000 		.4byte	.LVL53
 4863 0be9 FB2C0000 		.4byte	0x2cfb
 4864 0bed 29       		.uleb128 0x29
 4865 0bee 9C000000 		.4byte	.LVL54
 4866 0bf2 062D0000 		.4byte	0x2d06
 4867 0bf6 22       		.uleb128 0x22
 4868 0bf7 01       		.uleb128 0x1
 4869 0bf8 50       		.byte	0x50
 4870 0bf9 02       		.uleb128 0x2
 4871 0bfa 77       		.byte	0x77
ARM GAS  C:\Users\honet\AppData\Local\Temp\cc6gsi1c.s 			page 102


 4872 0bfb 00       		.sleb128 0
 4873 0bfc 00       		.byte	0
 4874 0bfd 00       		.byte	0
 4875 0bfe 25       		.uleb128 0x25
 4876 0bff F0000000 		.4byte	.LBB171
 4877 0c03 1E000000 		.4byte	.LBE171-.LBB171
 4878 0c07 340C0000 		.4byte	0xc34
 4879 0c0b 32       		.uleb128 0x32
 4880 0c0c 73747200 		.ascii	"str\000"
 4881 0c10 01       		.byte	0x1
 4882 0c11 7E       		.byte	0x7e
 4883 0c12 D4050000 		.4byte	0x5d4
 4884 0c16 03       		.uleb128 0x3
 4885 0c17 91       		.byte	0x91
 4886 0c18 8077     		.sleb128 -1152
 4887 0c1a 28       		.uleb128 0x28
 4888 0c1b 04010000 		.4byte	.LVL57
 4889 0c1f FB2C0000 		.4byte	0x2cfb
 4890 0c23 29       		.uleb128 0x29
 4891 0c24 0E010000 		.4byte	.LVL58
 4892 0c28 062D0000 		.4byte	0x2d06
 4893 0c2c 22       		.uleb128 0x22
 4894 0c2d 01       		.uleb128 0x1
 4895 0c2e 50       		.byte	0x50
 4896 0c2f 02       		.uleb128 0x2
 4897 0c30 77       		.byte	0x77
 4898 0c31 00       		.sleb128 0
 4899 0c32 00       		.byte	0
 4900 0c33 00       		.byte	0
 4901 0c34 2A       		.uleb128 0x2a
 4902 0c35 50000000 		.4byte	.Ldebug_ranges0+0x50
 4903 0c39 660C0000 		.4byte	0xc66
 4904 0c3d 32       		.uleb128 0x32
 4905 0c3e 73747200 		.ascii	"str\000"
 4906 0c42 01       		.byte	0x1
 4907 0c43 83       		.byte	0x83
 4908 0c44 D4050000 		.4byte	0x5d4
 4909 0c48 03       		.uleb128 0x3
 4910 0c49 91       		.byte	0x91
 4911 0c4a 8077     		.sleb128 -1152
 4912 0c4c 28       		.uleb128 0x28
 4913 0c4d 32010000 		.4byte	.LVL59
 4914 0c51 FB2C0000 		.4byte	0x2cfb
 4915 0c55 29       		.uleb128 0x29
 4916 0c56 40010000 		.4byte	.LVL60
 4917 0c5a 062D0000 		.4byte	0x2d06
 4918 0c5e 22       		.uleb128 0x22
 4919 0c5f 01       		.uleb128 0x1
 4920 0c60 50       		.byte	0x50
 4921 0c61 02       		.uleb128 0x2
 4922 0c62 74       		.byte	0x74
 4923 0c63 00       		.sleb128 0
 4924 0c64 00       		.byte	0
 4925 0c65 00       		.byte	0
 4926 0c66 2A       		.uleb128 0x2a
 4927 0c67 68000000 		.4byte	.Ldebug_ranges0+0x68
 4928 0c6b 980C0000 		.4byte	0xc98
ARM GAS  C:\Users\honet\AppData\Local\Temp\cc6gsi1c.s 			page 103


 4929 0c6f 32       		.uleb128 0x32
 4930 0c70 73747200 		.ascii	"str\000"
 4931 0c74 01       		.byte	0x1
 4932 0c75 89       		.byte	0x89
 4933 0c76 D4050000 		.4byte	0x5d4
 4934 0c7a 03       		.uleb128 0x3
 4935 0c7b 91       		.byte	0x91
 4936 0c7c 8077     		.sleb128 -1152
 4937 0c7e 28       		.uleb128 0x28
 4938 0c7f 50010000 		.4byte	.LVL61
 4939 0c83 FB2C0000 		.4byte	0x2cfb
 4940 0c87 29       		.uleb128 0x29
 4941 0c88 5A010000 		.4byte	.LVL62
 4942 0c8c 062D0000 		.4byte	0x2d06
 4943 0c90 22       		.uleb128 0x22
 4944 0c91 01       		.uleb128 0x1
 4945 0c92 50       		.byte	0x50
 4946 0c93 02       		.uleb128 0x2
 4947 0c94 77       		.byte	0x77
 4948 0c95 00       		.sleb128 0
 4949 0c96 00       		.byte	0
 4950 0c97 00       		.byte	0
 4951 0c98 34       		.uleb128 0x34
 4952 0c99 2E040000 		.4byte	0x42e
 4953 0c9d 72010000 		.4byte	.LBB176
 4954 0ca1 80000000 		.4byte	.Ldebug_ranges0+0x80
 4955 0ca5 01       		.byte	0x1
 4956 0ca6 8F       		.byte	0x8f
 4957 0ca7 D10C0000 		.4byte	0xcd1
 4958 0cab 24       		.uleb128 0x24
 4959 0cac 45040000 		.4byte	0x445
 4960 0cb0 72040000 		.4byte	.LLST11
 4961 0cb4 24       		.uleb128 0x24
 4962 0cb5 3A040000 		.4byte	0x43a
 4963 0cb9 90040000 		.4byte	.LLST12
 4964 0cbd 29       		.uleb128 0x29
 4965 0cbe E4050000 		.4byte	.LVL191
 4966 0cc2 7B060000 		.4byte	0x67b
 4967 0cc6 22       		.uleb128 0x22
 4968 0cc7 01       		.uleb128 0x1
 4969 0cc8 50       		.byte	0x50
 4970 0cc9 05       		.uleb128 0x5
 4971 0cca 03       		.byte	0x3
 4972 0ccb 4C020000 		.4byte	.LC37
 4973 0ccf 00       		.byte	0
 4974 0cd0 00       		.byte	0
 4975 0cd1 2A       		.uleb128 0x2a
 4976 0cd2 98000000 		.4byte	.Ldebug_ranges0+0x98
 4977 0cd6 9D0D0000 		.4byte	0xd9d
 4978 0cda 2E       		.uleb128 0x2e
 4979 0cdb E0000000 		.4byte	.LASF91
 4980 0cdf 01       		.byte	0x1
 4981 0ce0 92       		.byte	0x92
 4982 0ce1 67010000 		.4byte	0x167
 4983 0ce5 03       		.uleb128 0x3
 4984 0ce6 91       		.byte	0x91
 4985 0ce7 8077     		.sleb128 -1152
ARM GAS  C:\Users\honet\AppData\Local\Temp\cc6gsi1c.s 			page 104


 4986 0ce9 2F       		.uleb128 0x2f
 4987 0cea 737A00   		.ascii	"sz\000"
 4988 0ced 01       		.byte	0x1
 4989 0cee 92       		.byte	0x92
 4990 0cef 33000000 		.4byte	0x33
 4991 0cf3 C8040000 		.4byte	.LLST13
 4992 0cf7 2F       		.uleb128 0x2f
 4993 0cf8 72657300 		.ascii	"res\000"
 4994 0cfc 01       		.byte	0x1
 4995 0cfd 92       		.byte	0x92
 4996 0cfe 0F040000 		.4byte	0x40f
 4997 0d02 F4040000 		.4byte	.LLST14
 4998 0d06 25       		.uleb128 0x25
 4999 0d07 7A010000 		.4byte	.LBB180
 5000 0d0b 1E000000 		.4byte	.LBE180-.LBB180
 5001 0d0f 3C0D0000 		.4byte	0xd3c
 5002 0d13 32       		.uleb128 0x32
 5003 0d14 73747200 		.ascii	"str\000"
 5004 0d18 01       		.byte	0x1
 5005 0d19 92       		.byte	0x92
 5006 0d1a D4050000 		.4byte	0x5d4
 5007 0d1e 03       		.uleb128 0x3
 5008 0d1f 91       		.byte	0x91
 5009 0d20 8077     		.sleb128 -1152
 5010 0d22 28       		.uleb128 0x28
 5011 0d23 8E010000 		.4byte	.LVL68
 5012 0d27 FB2C0000 		.4byte	0x2cfb
 5013 0d2b 29       		.uleb128 0x29
 5014 0d2c 98010000 		.4byte	.LVL69
 5015 0d30 062D0000 		.4byte	0x2d06
 5016 0d34 22       		.uleb128 0x22
 5017 0d35 01       		.uleb128 0x1
 5018 0d36 50       		.byte	0x50
 5019 0d37 02       		.uleb128 0x2
 5020 0d38 77       		.byte	0x77
 5021 0d39 00       		.sleb128 0
 5022 0d3a 00       		.byte	0
 5023 0d3b 00       		.byte	0
 5024 0d3c 34       		.uleb128 0x34
 5025 0d3d 2E040000 		.4byte	0x42e
 5026 0d41 A4010000 		.4byte	.LBB181
 5027 0d45 B0000000 		.4byte	.Ldebug_ranges0+0xb0
 5028 0d49 01       		.byte	0x1
 5029 0d4a 92       		.byte	0x92
 5030 0d4b 750D0000 		.4byte	0xd75
 5031 0d4f 24       		.uleb128 0x24
 5032 0d50 45040000 		.4byte	0x445
 5033 0d54 F4040000 		.4byte	.LLST14
 5034 0d58 24       		.uleb128 0x24
 5035 0d59 3A040000 		.4byte	0x43a
 5036 0d5d 12050000 		.4byte	.LLST16
 5037 0d61 29       		.uleb128 0x29
 5038 0d62 48060000 		.4byte	.LVL200
 5039 0d66 7B060000 		.4byte	0x67b
 5040 0d6a 22       		.uleb128 0x22
 5041 0d6b 01       		.uleb128 0x1
 5042 0d6c 50       		.byte	0x50
ARM GAS  C:\Users\honet\AppData\Local\Temp\cc6gsi1c.s 			page 105


 5043 0d6d 05       		.uleb128 0x5
 5044 0d6e 03       		.byte	0x3
 5045 0d6f 64020000 		.4byte	.LC39
 5046 0d73 00       		.byte	0
 5047 0d74 00       		.byte	0
 5048 0d75 29       		.uleb128 0x29
 5049 0d76 A4010000 		.4byte	.LVL70
 5050 0d7a 222D0000 		.4byte	0x2d22
 5051 0d7e 22       		.uleb128 0x22
 5052 0d7f 01       		.uleb128 0x1
 5053 0d80 53       		.byte	0x53
 5054 0d81 02       		.uleb128 0x2
 5055 0d82 77       		.byte	0x77
 5056 0d83 00       		.sleb128 0
 5057 0d84 22       		.uleb128 0x22
 5058 0d85 01       		.uleb128 0x1
 5059 0d86 52       		.byte	0x52
 5060 0d87 01       		.uleb128 0x1
 5061 0d88 3E       		.byte	0x3e
 5062 0d89 22       		.uleb128 0x22
 5063 0d8a 01       		.uleb128 0x1
 5064 0d8b 51       		.byte	0x51
 5065 0d8c 05       		.uleb128 0x5
 5066 0d8d 03       		.byte	0x3
 5067 0d8e 54020000 		.4byte	.LC38
 5068 0d92 22       		.uleb128 0x22
 5069 0d93 01       		.uleb128 0x1
 5070 0d94 50       		.byte	0x50
 5071 0d95 05       		.uleb128 0x5
 5072 0d96 03       		.byte	0x3
 5073 0d97 00000000 		.4byte	File
 5074 0d9b 00       		.byte	0
 5075 0d9c 00       		.byte	0
 5076 0d9d 25       		.uleb128 0x25
 5077 0d9e B0010000 		.4byte	.LBB185
 5078 0da2 1A000000 		.4byte	.LBE185-.LBB185
 5079 0da6 B80D0000 		.4byte	0xdb8
 5080 0daa 2F       		.uleb128 0x2f
 5081 0dab 6900     		.ascii	"i\000"
 5082 0dad 01       		.byte	0x1
 5083 0dae 95       		.byte	0x95
 5084 0daf 2C000000 		.4byte	0x2c
 5085 0db3 4A050000 		.4byte	.LLST17
 5086 0db7 00       		.byte	0
 5087 0db8 2A       		.uleb128 0x2a
 5088 0db9 C8000000 		.4byte	.Ldebug_ranges0+0xc8
 5089 0dbd A90E0000 		.4byte	0xea9
 5090 0dc1 2E       		.uleb128 0x2e
 5091 0dc2 E0000000 		.4byte	.LASF91
 5092 0dc6 01       		.byte	0x1
 5093 0dc7 9E       		.byte	0x9e
 5094 0dc8 67010000 		.4byte	0x167
 5095 0dcc 03       		.uleb128 0x3
 5096 0dcd 91       		.byte	0x91
 5097 0dce 8077     		.sleb128 -1152
 5098 0dd0 2F       		.uleb128 0x2f
 5099 0dd1 737A00   		.ascii	"sz\000"
ARM GAS  C:\Users\honet\AppData\Local\Temp\cc6gsi1c.s 			page 106


 5100 0dd4 01       		.byte	0x1
 5101 0dd5 9E       		.byte	0x9e
 5102 0dd6 33000000 		.4byte	0x33
 5103 0dda 74050000 		.4byte	.LLST18
 5104 0dde 2F       		.uleb128 0x2f
 5105 0ddf 72657300 		.ascii	"res\000"
 5106 0de3 01       		.byte	0x1
 5107 0de4 9E       		.byte	0x9e
 5108 0de5 0F040000 		.4byte	0x40f
 5109 0de9 A3050000 		.4byte	.LLST19
 5110 0ded 25       		.uleb128 0x25
 5111 0dee CA010000 		.4byte	.LBB187
 5112 0df2 1A000000 		.4byte	.LBE187-.LBB187
 5113 0df6 470E0000 		.4byte	0xe47
 5114 0dfa 32       		.uleb128 0x32
 5115 0dfb 73747200 		.ascii	"str\000"
 5116 0dff 01       		.byte	0x1
 5117 0e00 9E       		.byte	0x9e
 5118 0e01 D4050000 		.4byte	0x5d4
 5119 0e05 03       		.uleb128 0x3
 5120 0e06 91       		.byte	0x91
 5121 0e07 8077     		.sleb128 -1152
 5122 0e09 27       		.uleb128 0x27
 5123 0e0a D6010000 		.4byte	.LVL77
 5124 0e0e E02C0000 		.4byte	0x2ce0
 5125 0e12 2D0E0000 		.4byte	0xe2d
 5126 0e16 22       		.uleb128 0x22
 5127 0e17 01       		.uleb128 0x1
 5128 0e18 52       		.byte	0x52
 5129 0e19 03       		.uleb128 0x3
 5130 0e1a 0A       		.byte	0xa
 5131 0e1b 0080     		.2byte	0x8000
 5132 0e1d 22       		.uleb128 0x22
 5133 0e1e 01       		.uleb128 0x1
 5134 0e1f 51       		.byte	0x51
 5135 0e20 05       		.uleb128 0x5
 5136 0e21 03       		.byte	0x3
 5137 0e22 6C020000 		.4byte	.LC40
 5138 0e26 22       		.uleb128 0x22
 5139 0e27 01       		.uleb128 0x1
 5140 0e28 50       		.byte	0x50
 5141 0e29 02       		.uleb128 0x2
 5142 0e2a 77       		.byte	0x77
 5143 0e2b 00       		.sleb128 0
 5144 0e2c 00       		.byte	0
 5145 0e2d 28       		.uleb128 0x28
 5146 0e2e DA010000 		.4byte	.LVL78
 5147 0e32 FB2C0000 		.4byte	0x2cfb
 5148 0e36 29       		.uleb128 0x29
 5149 0e37 E4010000 		.4byte	.LVL79
 5150 0e3b 062D0000 		.4byte	0x2d06
 5151 0e3f 22       		.uleb128 0x22
 5152 0e40 01       		.uleb128 0x1
 5153 0e41 50       		.byte	0x50
 5154 0e42 02       		.uleb128 0x2
 5155 0e43 77       		.byte	0x77
 5156 0e44 00       		.sleb128 0
ARM GAS  C:\Users\honet\AppData\Local\Temp\cc6gsi1c.s 			page 107


 5157 0e45 00       		.byte	0
 5158 0e46 00       		.byte	0
 5159 0e47 34       		.uleb128 0x34
 5160 0e48 2E040000 		.4byte	0x42e
 5161 0e4c F0010000 		.4byte	.LBB188
 5162 0e50 E0000000 		.4byte	.Ldebug_ranges0+0xe0
 5163 0e54 01       		.byte	0x1
 5164 0e55 9E       		.byte	0x9e
 5165 0e56 800E0000 		.4byte	0xe80
 5166 0e5a 24       		.uleb128 0x24
 5167 0e5b 45040000 		.4byte	0x445
 5168 0e5f A3050000 		.4byte	.LLST19
 5169 0e63 24       		.uleb128 0x24
 5170 0e64 3A040000 		.4byte	0x43a
 5171 0e68 C1050000 		.4byte	.LLST21
 5172 0e6c 29       		.uleb128 0x29
 5173 0e6d 58060000 		.4byte	.LVL206
 5174 0e71 7B060000 		.4byte	0x67b
 5175 0e75 22       		.uleb128 0x22
 5176 0e76 01       		.uleb128 0x1
 5177 0e77 50       		.byte	0x50
 5178 0e78 05       		.uleb128 0x5
 5179 0e79 03       		.byte	0x3
 5180 0e7a 64020000 		.4byte	.LC39
 5181 0e7e 00       		.byte	0
 5182 0e7f 00       		.byte	0
 5183 0e80 29       		.uleb128 0x29
 5184 0e81 F0010000 		.4byte	.LVL80
 5185 0e85 222D0000 		.4byte	0x2d22
 5186 0e89 22       		.uleb128 0x22
 5187 0e8a 01       		.uleb128 0x1
 5188 0e8b 53       		.byte	0x53
 5189 0e8c 02       		.uleb128 0x2
 5190 0e8d 77       		.byte	0x77
 5191 0e8e 00       		.sleb128 0
 5192 0e8f 22       		.uleb128 0x22
 5193 0e90 01       		.uleb128 0x1
 5194 0e91 52       		.byte	0x52
 5195 0e92 02       		.uleb128 0x2
 5196 0e93 08       		.byte	0x8
 5197 0e94 22       		.byte	0x22
 5198 0e95 22       		.uleb128 0x22
 5199 0e96 01       		.uleb128 0x1
 5200 0e97 51       		.byte	0x51
 5201 0e98 05       		.uleb128 0x5
 5202 0e99 03       		.byte	0x3
 5203 0e9a 6C020000 		.4byte	.LC40
 5204 0e9e 22       		.uleb128 0x22
 5205 0e9f 01       		.uleb128 0x1
 5206 0ea0 50       		.byte	0x50
 5207 0ea1 05       		.uleb128 0x5
 5208 0ea2 03       		.byte	0x3
 5209 0ea3 00000000 		.4byte	File
 5210 0ea7 00       		.byte	0
 5211 0ea8 00       		.byte	0
 5212 0ea9 34       		.uleb128 0x34
 5213 0eaa 2E040000 		.4byte	0x42e
ARM GAS  C:\Users\honet\AppData\Local\Temp\cc6gsi1c.s 			page 108


 5214 0eae 0A020000 		.4byte	.LBB192
 5215 0eb2 F8000000 		.4byte	.Ldebug_ranges0+0xf8
 5216 0eb6 01       		.byte	0x1
 5217 0eb7 A4       		.byte	0xa4
 5218 0eb8 E20E0000 		.4byte	0xee2
 5219 0ebc 24       		.uleb128 0x24
 5220 0ebd 45040000 		.4byte	0x445
 5221 0ec1 F9050000 		.4byte	.LLST22
 5222 0ec5 24       		.uleb128 0x24
 5223 0ec6 3A040000 		.4byte	0x43a
 5224 0eca 17060000 		.4byte	.LLST23
 5225 0ece 29       		.uleb128 0x29
 5226 0ecf 50060000 		.4byte	.LVL203
 5227 0ed3 7B060000 		.4byte	0x67b
 5228 0ed7 22       		.uleb128 0x22
 5229 0ed8 01       		.uleb128 0x1
 5230 0ed9 50       		.byte	0x50
 5231 0eda 05       		.uleb128 0x5
 5232 0edb 03       		.byte	0x3
 5233 0edc 4C020000 		.4byte	.LC37
 5234 0ee0 00       		.byte	0
 5235 0ee1 00       		.byte	0
 5236 0ee2 34       		.uleb128 0x34
 5237 0ee3 2E040000 		.4byte	0x42e
 5238 0ee7 20020000 		.4byte	.LBB195
 5239 0eeb 10010000 		.4byte	.Ldebug_ranges0+0x110
 5240 0eef 01       		.byte	0x1
 5241 0ef0 A7       		.byte	0xa7
 5242 0ef1 1B0F0000 		.4byte	0xf1b
 5243 0ef5 24       		.uleb128 0x24
 5244 0ef6 45040000 		.4byte	0x445
 5245 0efa 5F060000 		.4byte	.LLST24
 5246 0efe 24       		.uleb128 0x24
 5247 0eff 3A040000 		.4byte	0x43a
 5248 0f03 7D060000 		.4byte	.LLST25
 5249 0f07 29       		.uleb128 0x29
 5250 0f08 9C080000 		.4byte	.LVL300
 5251 0f0c 7B060000 		.4byte	0x67b
 5252 0f10 22       		.uleb128 0x22
 5253 0f11 01       		.uleb128 0x1
 5254 0f12 50       		.byte	0x50
 5255 0f13 05       		.uleb128 0x5
 5256 0f14 03       		.byte	0x3
 5257 0f15 64020000 		.4byte	.LC39
 5258 0f19 00       		.byte	0
 5259 0f1a 00       		.byte	0
 5260 0f1b 34       		.uleb128 0x34
 5261 0f1c 2E040000 		.4byte	0x42e
 5262 0f20 2E020000 		.4byte	.LBB198
 5263 0f24 28010000 		.4byte	.Ldebug_ranges0+0x128
 5264 0f28 01       		.byte	0x1
 5265 0f29 A9       		.byte	0xa9
 5266 0f2a 540F0000 		.4byte	0xf54
 5267 0f2e 24       		.uleb128 0x24
 5268 0f2f 45040000 		.4byte	0x445
 5269 0f33 A5060000 		.4byte	.LLST26
 5270 0f37 24       		.uleb128 0x24
ARM GAS  C:\Users\honet\AppData\Local\Temp\cc6gsi1c.s 			page 109


 5271 0f38 3A040000 		.4byte	0x43a
 5272 0f3c C3060000 		.4byte	.LLST27
 5273 0f40 29       		.uleb128 0x29
 5274 0f41 94080000 		.4byte	.LVL297
 5275 0f45 7B060000 		.4byte	0x67b
 5276 0f49 22       		.uleb128 0x22
 5277 0f4a 01       		.uleb128 0x1
 5278 0f4b 50       		.byte	0x50
 5279 0f4c 05       		.uleb128 0x5
 5280 0f4d 03       		.byte	0x3
 5281 0f4e A0020000 		.4byte	.LC42
 5282 0f52 00       		.byte	0
 5283 0f53 00       		.byte	0
 5284 0f54 2A       		.uleb128 0x2a
 5285 0f55 40010000 		.4byte	.Ldebug_ranges0+0x140
 5286 0f59 3F100000 		.4byte	0x103f
 5287 0f5d 2E       		.uleb128 0x2e
 5288 0f5e E0000000 		.4byte	.LASF91
 5289 0f62 01       		.byte	0x1
 5290 0f63 AE       		.byte	0xae
 5291 0f64 67010000 		.4byte	0x167
 5292 0f68 03       		.uleb128 0x3
 5293 0f69 91       		.byte	0x91
 5294 0f6a 8076     		.sleb128 -1280
 5295 0f6c 2F       		.uleb128 0x2f
 5296 0f6d 737A00   		.ascii	"sz\000"
 5297 0f70 01       		.byte	0x1
 5298 0f71 AE       		.byte	0xae
 5299 0f72 33000000 		.4byte	0x33
 5300 0f76 EB060000 		.4byte	.LLST28
 5301 0f7a 2F       		.uleb128 0x2f
 5302 0f7b 72657300 		.ascii	"res\000"
 5303 0f7f 01       		.byte	0x1
 5304 0f80 AE       		.byte	0xae
 5305 0f81 0F040000 		.4byte	0x40f
 5306 0f85 23070000 		.4byte	.LLST29
 5307 0f89 2A       		.uleb128 0x2a
 5308 0f8a 60010000 		.4byte	.Ldebug_ranges0+0x160
 5309 0f8e DE0F0000 		.4byte	0xfde
 5310 0f92 32       		.uleb128 0x32
 5311 0f93 73747200 		.ascii	"str\000"
 5312 0f97 01       		.byte	0x1
 5313 0f98 AE       		.byte	0xae
 5314 0f99 D4050000 		.4byte	0x5d4
 5315 0f9d 03       		.uleb128 0x3
 5316 0f9e 91       		.byte	0x91
 5317 0f9f 8076     		.sleb128 -1280
 5318 0fa1 27       		.uleb128 0x27
 5319 0fa2 48020000 		.4byte	.LVL90
 5320 0fa6 E02C0000 		.4byte	0x2ce0
 5321 0faa C40F0000 		.4byte	0xfc4
 5322 0fae 22       		.uleb128 0x22
 5323 0faf 01       		.uleb128 0x1
 5324 0fb0 52       		.byte	0x52
 5325 0fb1 02       		.uleb128 0x2
 5326 0fb2 74       		.byte	0x74
 5327 0fb3 00       		.sleb128 0
ARM GAS  C:\Users\honet\AppData\Local\Temp\cc6gsi1c.s 			page 110


 5328 0fb4 22       		.uleb128 0x22
 5329 0fb5 01       		.uleb128 0x1
 5330 0fb6 51       		.byte	0x51
 5331 0fb7 05       		.uleb128 0x5
 5332 0fb8 03       		.byte	0x3
 5333 0fb9 A8020000 		.4byte	.LC43
 5334 0fbd 22       		.uleb128 0x22
 5335 0fbe 01       		.uleb128 0x1
 5336 0fbf 50       		.byte	0x50
 5337 0fc0 02       		.uleb128 0x2
 5338 0fc1 76       		.byte	0x76
 5339 0fc2 00       		.sleb128 0
 5340 0fc3 00       		.byte	0
 5341 0fc4 28       		.uleb128 0x28
 5342 0fc5 4C020000 		.4byte	.LVL91
 5343 0fc9 FB2C0000 		.4byte	0x2cfb
 5344 0fcd 29       		.uleb128 0x29
 5345 0fce 56020000 		.4byte	.LVL92
 5346 0fd2 062D0000 		.4byte	0x2d06
 5347 0fd6 22       		.uleb128 0x22
 5348 0fd7 01       		.uleb128 0x1
 5349 0fd8 50       		.byte	0x50
 5350 0fd9 02       		.uleb128 0x2
 5351 0fda 76       		.byte	0x76
 5352 0fdb 00       		.sleb128 0
 5353 0fdc 00       		.byte	0
 5354 0fdd 00       		.byte	0
 5355 0fde 34       		.uleb128 0x34
 5356 0fdf 2E040000 		.4byte	0x42e
 5357 0fe3 62020000 		.4byte	.LBB204
 5358 0fe7 78010000 		.4byte	.Ldebug_ranges0+0x178
 5359 0feb 01       		.byte	0x1
 5360 0fec AE       		.byte	0xae
 5361 0fed 17100000 		.4byte	0x1017
 5362 0ff1 24       		.uleb128 0x24
 5363 0ff2 45040000 		.4byte	0x445
 5364 0ff6 23070000 		.4byte	.LLST29
 5365 0ffa 24       		.uleb128 0x24
 5366 0ffb 3A040000 		.4byte	0x43a
 5367 0fff 41070000 		.4byte	.LLST31
 5368 1003 29       		.uleb128 0x29
 5369 1004 8C080000 		.4byte	.LVL294
 5370 1008 7B060000 		.4byte	0x67b
 5371 100c 22       		.uleb128 0x22
 5372 100d 01       		.uleb128 0x1
 5373 100e 50       		.byte	0x50
 5374 100f 05       		.uleb128 0x5
 5375 1010 03       		.byte	0x3
 5376 1011 64020000 		.4byte	.LC39
 5377 1015 00       		.byte	0
 5378 1016 00       		.byte	0
 5379 1017 29       		.uleb128 0x29
 5380 1018 62020000 		.4byte	.LVL93
 5381 101c 222D0000 		.4byte	0x2d22
 5382 1020 22       		.uleb128 0x22
 5383 1021 01       		.uleb128 0x1
 5384 1022 53       		.byte	0x53
ARM GAS  C:\Users\honet\AppData\Local\Temp\cc6gsi1c.s 			page 111


 5385 1023 02       		.uleb128 0x2
 5386 1024 76       		.byte	0x76
 5387 1025 00       		.sleb128 0
 5388 1026 22       		.uleb128 0x22
 5389 1027 01       		.uleb128 0x1
 5390 1028 52       		.byte	0x52
 5391 1029 01       		.uleb128 0x1
 5392 102a 3C       		.byte	0x3c
 5393 102b 22       		.uleb128 0x22
 5394 102c 01       		.uleb128 0x1
 5395 102d 51       		.byte	0x51
 5396 102e 05       		.uleb128 0x5
 5397 102f 03       		.byte	0x3
 5398 1030 A8020000 		.4byte	.LC43
 5399 1034 22       		.uleb128 0x22
 5400 1035 01       		.uleb128 0x1
 5401 1036 50       		.byte	0x50
 5402 1037 05       		.uleb128 0x5
 5403 1038 03       		.byte	0x3
 5404 1039 00000000 		.4byte	File
 5405 103d 00       		.byte	0
 5406 103e 00       		.byte	0
 5407 103f 2A       		.uleb128 0x2a
 5408 1040 90010000 		.4byte	.Ldebug_ranges0+0x190
 5409 1044 38110000 		.4byte	0x1138
 5410 1048 2E       		.uleb128 0x2e
 5411 1049 E0000000 		.4byte	.LASF91
 5412 104d 01       		.byte	0x1
 5413 104e B1       		.byte	0xb1
 5414 104f 67010000 		.4byte	0x167
 5415 1053 03       		.uleb128 0x3
 5416 1054 91       		.byte	0x91
 5417 1055 8076     		.sleb128 -1280
 5418 1057 2F       		.uleb128 0x2f
 5419 1058 737A00   		.ascii	"sz\000"
 5420 105b 01       		.byte	0x1
 5421 105c B1       		.byte	0xb1
 5422 105d 33000000 		.4byte	0x33
 5423 1061 89070000 		.4byte	.LLST32
 5424 1065 2F       		.uleb128 0x2f
 5425 1066 72657300 		.ascii	"res\000"
 5426 106a 01       		.byte	0x1
 5427 106b B1       		.byte	0xb1
 5428 106c 0F040000 		.4byte	0x40f
 5429 1070 C1070000 		.4byte	.LLST33
 5430 1074 25       		.uleb128 0x25
 5431 1075 6E020000 		.4byte	.LBB210
 5432 1079 1A000000 		.4byte	.LBE210-.LBB210
 5433 107d D7100000 		.4byte	0x10d7
 5434 1081 32       		.uleb128 0x32
 5435 1082 73747200 		.ascii	"str\000"
 5436 1086 01       		.byte	0x1
 5437 1087 B1       		.byte	0xb1
 5438 1088 D4050000 		.4byte	0x5d4
 5439 108c 03       		.uleb128 0x3
 5440 108d 91       		.byte	0x91
 5441 108e 8076     		.sleb128 -1280
ARM GAS  C:\Users\honet\AppData\Local\Temp\cc6gsi1c.s 			page 112


 5442 1090 27       		.uleb128 0x27
 5443 1091 7A020000 		.4byte	.LVL96
 5444 1095 E02C0000 		.4byte	0x2ce0
 5445 1099 BD100000 		.4byte	0x10bd
 5446 109d 22       		.uleb128 0x22
 5447 109e 01       		.uleb128 0x1
 5448 109f 52       		.byte	0x52
 5449 10a0 0C       		.uleb128 0xc
 5450 10a1 40       		.byte	0x40
 5451 10a2 3E       		.byte	0x3e
 5452 10a3 24       		.byte	0x24
 5453 10a4 F7       		.byte	0xf7
 5454 10a5 25       		.uleb128 0x25
 5455 10a6 74       		.byte	0x74
 5456 10a7 00       		.sleb128 0
 5457 10a8 F7       		.byte	0xf7
 5458 10a9 25       		.uleb128 0x25
 5459 10aa 1B       		.byte	0x1b
 5460 10ab F7       		.byte	0xf7
 5461 10ac 00       		.uleb128 0
 5462 10ad 22       		.uleb128 0x22
 5463 10ae 01       		.uleb128 0x1
 5464 10af 51       		.byte	0x51
 5465 10b0 05       		.uleb128 0x5
 5466 10b1 03       		.byte	0x3
 5467 10b2 B8020000 		.4byte	.LC44
 5468 10b6 22       		.uleb128 0x22
 5469 10b7 01       		.uleb128 0x1
 5470 10b8 50       		.byte	0x50
 5471 10b9 02       		.uleb128 0x2
 5472 10ba 76       		.byte	0x76
 5473 10bb 00       		.sleb128 0
 5474 10bc 00       		.byte	0
 5475 10bd 28       		.uleb128 0x28
 5476 10be 7E020000 		.4byte	.LVL97
 5477 10c2 FB2C0000 		.4byte	0x2cfb
 5478 10c6 29       		.uleb128 0x29
 5479 10c7 88020000 		.4byte	.LVL98
 5480 10cb 062D0000 		.4byte	0x2d06
 5481 10cf 22       		.uleb128 0x22
 5482 10d0 01       		.uleb128 0x1
 5483 10d1 50       		.byte	0x50
 5484 10d2 02       		.uleb128 0x2
 5485 10d3 76       		.byte	0x76
 5486 10d4 00       		.sleb128 0
 5487 10d5 00       		.byte	0
 5488 10d6 00       		.byte	0
 5489 10d7 34       		.uleb128 0x34
 5490 10d8 2E040000 		.4byte	0x42e
 5491 10dc 94020000 		.4byte	.LBB211
 5492 10e0 A8010000 		.4byte	.Ldebug_ranges0+0x1a8
 5493 10e4 01       		.byte	0x1
 5494 10e5 B1       		.byte	0xb1
 5495 10e6 10110000 		.4byte	0x1110
 5496 10ea 24       		.uleb128 0x24
 5497 10eb 45040000 		.4byte	0x445
 5498 10ef C1070000 		.4byte	.LLST33
ARM GAS  C:\Users\honet\AppData\Local\Temp\cc6gsi1c.s 			page 113


 5499 10f3 24       		.uleb128 0x24
 5500 10f4 3A040000 		.4byte	0x43a
 5501 10f8 DF070000 		.4byte	.LLST35
 5502 10fc 29       		.uleb128 0x29
 5503 10fd 84080000 		.4byte	.LVL291
 5504 1101 7B060000 		.4byte	0x67b
 5505 1105 22       		.uleb128 0x22
 5506 1106 01       		.uleb128 0x1
 5507 1107 50       		.byte	0x50
 5508 1108 05       		.uleb128 0x5
 5509 1109 03       		.byte	0x3
 5510 110a 64020000 		.4byte	.LC39
 5511 110e 00       		.byte	0
 5512 110f 00       		.byte	0
 5513 1110 29       		.uleb128 0x29
 5514 1111 94020000 		.4byte	.LVL99
 5515 1115 222D0000 		.4byte	0x2d22
 5516 1119 22       		.uleb128 0x22
 5517 111a 01       		.uleb128 0x1
 5518 111b 53       		.byte	0x53
 5519 111c 02       		.uleb128 0x2
 5520 111d 76       		.byte	0x76
 5521 111e 00       		.sleb128 0
 5522 111f 22       		.uleb128 0x22
 5523 1120 01       		.uleb128 0x1
 5524 1121 52       		.byte	0x52
 5525 1122 01       		.uleb128 0x1
 5526 1123 3F       		.byte	0x3f
 5527 1124 22       		.uleb128 0x22
 5528 1125 01       		.uleb128 0x1
 5529 1126 51       		.byte	0x51
 5530 1127 05       		.uleb128 0x5
 5531 1128 03       		.byte	0x3
 5532 1129 B8020000 		.4byte	.LC44
 5533 112d 22       		.uleb128 0x22
 5534 112e 01       		.uleb128 0x1
 5535 112f 50       		.byte	0x50
 5536 1130 05       		.uleb128 0x5
 5537 1131 03       		.byte	0x3
 5538 1132 00000000 		.4byte	File
 5539 1136 00       		.byte	0
 5540 1137 00       		.byte	0
 5541 1138 2A       		.uleb128 0x2a
 5542 1139 C0010000 		.4byte	.Ldebug_ranges0+0x1c0
 5543 113d 29120000 		.4byte	0x1229
 5544 1141 2E       		.uleb128 0x2e
 5545 1142 E0000000 		.4byte	.LASF91
 5546 1146 01       		.byte	0x1
 5547 1147 B6       		.byte	0xb6
 5548 1148 67010000 		.4byte	0x167
 5549 114c 03       		.uleb128 0x3
 5550 114d 91       		.byte	0x91
 5551 114e 8076     		.sleb128 -1280
 5552 1150 2F       		.uleb128 0x2f
 5553 1151 737A00   		.ascii	"sz\000"
 5554 1154 01       		.byte	0x1
 5555 1155 B6       		.byte	0xb6
ARM GAS  C:\Users\honet\AppData\Local\Temp\cc6gsi1c.s 			page 114


 5556 1156 33000000 		.4byte	0x33
 5557 115a 27080000 		.4byte	.LLST36
 5558 115e 2F       		.uleb128 0x2f
 5559 115f 72657300 		.ascii	"res\000"
 5560 1163 01       		.byte	0x1
 5561 1164 B6       		.byte	0xb6
 5562 1165 0F040000 		.4byte	0x40f
 5563 1169 63080000 		.4byte	.LLST37
 5564 116d 25       		.uleb128 0x25
 5565 116e 9C020000 		.4byte	.LBB216
 5566 1172 1A000000 		.4byte	.LBE216-.LBB216
 5567 1176 C7110000 		.4byte	0x11c7
 5568 117a 32       		.uleb128 0x32
 5569 117b 73747200 		.ascii	"str\000"
 5570 117f 01       		.byte	0x1
 5571 1180 B6       		.byte	0xb6
 5572 1181 D4050000 		.4byte	0x5d4
 5573 1185 03       		.uleb128 0x3
 5574 1186 91       		.byte	0x91
 5575 1187 8076     		.sleb128 -1280
 5576 1189 27       		.uleb128 0x27
 5577 118a A8020000 		.4byte	.LVL101
 5578 118e E02C0000 		.4byte	0x2ce0
 5579 1192 AD110000 		.4byte	0x11ad
 5580 1196 22       		.uleb128 0x22
 5581 1197 01       		.uleb128 0x1
 5582 1198 52       		.byte	0x52
 5583 1199 03       		.uleb128 0x3
 5584 119a 0A       		.byte	0xa
 5585 119b 0080     		.2byte	0x8000
 5586 119d 22       		.uleb128 0x22
 5587 119e 01       		.uleb128 0x1
 5588 119f 51       		.byte	0x51
 5589 11a0 05       		.uleb128 0x5
 5590 11a1 03       		.byte	0x3
 5591 11a2 C8020000 		.4byte	.LC45
 5592 11a6 22       		.uleb128 0x22
 5593 11a7 01       		.uleb128 0x1
 5594 11a8 50       		.byte	0x50
 5595 11a9 02       		.uleb128 0x2
 5596 11aa 76       		.byte	0x76
 5597 11ab 00       		.sleb128 0
 5598 11ac 00       		.byte	0
 5599 11ad 28       		.uleb128 0x28
 5600 11ae AC020000 		.4byte	.LVL102
 5601 11b2 FB2C0000 		.4byte	0x2cfb
 5602 11b6 29       		.uleb128 0x29
 5603 11b7 B6020000 		.4byte	.LVL103
 5604 11bb 062D0000 		.4byte	0x2d06
 5605 11bf 22       		.uleb128 0x22
 5606 11c0 01       		.uleb128 0x1
 5607 11c1 50       		.byte	0x50
 5608 11c2 02       		.uleb128 0x2
 5609 11c3 76       		.byte	0x76
 5610 11c4 00       		.sleb128 0
 5611 11c5 00       		.byte	0
 5612 11c6 00       		.byte	0
ARM GAS  C:\Users\honet\AppData\Local\Temp\cc6gsi1c.s 			page 115


 5613 11c7 34       		.uleb128 0x34
 5614 11c8 2E040000 		.4byte	0x42e
 5615 11cc C2020000 		.4byte	.LBB217
 5616 11d0 D8010000 		.4byte	.Ldebug_ranges0+0x1d8
 5617 11d4 01       		.byte	0x1
 5618 11d5 B6       		.byte	0xb6
 5619 11d6 00120000 		.4byte	0x1200
 5620 11da 24       		.uleb128 0x24
 5621 11db 45040000 		.4byte	0x445
 5622 11df 63080000 		.4byte	.LLST37
 5623 11e3 24       		.uleb128 0x24
 5624 11e4 3A040000 		.4byte	0x43a
 5625 11e8 81080000 		.4byte	.LLST39
 5626 11ec 29       		.uleb128 0x29
 5627 11ed 7C080000 		.4byte	.LVL288
 5628 11f1 7B060000 		.4byte	0x67b
 5629 11f5 22       		.uleb128 0x22
 5630 11f6 01       		.uleb128 0x1
 5631 11f7 50       		.byte	0x50
 5632 11f8 05       		.uleb128 0x5
 5633 11f9 03       		.byte	0x3
 5634 11fa 64020000 		.4byte	.LC39
 5635 11fe 00       		.byte	0
 5636 11ff 00       		.byte	0
 5637 1200 29       		.uleb128 0x29
 5638 1201 C2020000 		.4byte	.LVL104
 5639 1205 222D0000 		.4byte	0x2d22
 5640 1209 22       		.uleb128 0x22
 5641 120a 01       		.uleb128 0x1
 5642 120b 53       		.byte	0x53
 5643 120c 02       		.uleb128 0x2
 5644 120d 76       		.byte	0x76
 5645 120e 00       		.sleb128 0
 5646 120f 22       		.uleb128 0x22
 5647 1210 01       		.uleb128 0x1
 5648 1211 52       		.byte	0x52
 5649 1212 02       		.uleb128 0x2
 5650 1213 08       		.byte	0x8
 5651 1214 24       		.byte	0x24
 5652 1215 22       		.uleb128 0x22
 5653 1216 01       		.uleb128 0x1
 5654 1217 51       		.byte	0x51
 5655 1218 05       		.uleb128 0x5
 5656 1219 03       		.byte	0x3
 5657 121a C8020000 		.4byte	.LC45
 5658 121e 22       		.uleb128 0x22
 5659 121f 01       		.uleb128 0x1
 5660 1220 50       		.byte	0x50
 5661 1221 05       		.uleb128 0x5
 5662 1222 03       		.byte	0x3
 5663 1223 00000000 		.4byte	File
 5664 1227 00       		.byte	0
 5665 1228 00       		.byte	0
 5666 1229 34       		.uleb128 0x34
 5667 122a 2E040000 		.4byte	0x42e
 5668 122e E4020000 		.4byte	.LBB221
 5669 1232 F0010000 		.4byte	.Ldebug_ranges0+0x1f0
ARM GAS  C:\Users\honet\AppData\Local\Temp\cc6gsi1c.s 			page 116


 5670 1236 01       		.byte	0x1
 5671 1237 BE       		.byte	0xbe
 5672 1238 62120000 		.4byte	0x1262
 5673 123c 24       		.uleb128 0x24
 5674 123d 45040000 		.4byte	0x445
 5675 1241 C9080000 		.4byte	.LLST40
 5676 1245 24       		.uleb128 0x24
 5677 1246 3A040000 		.4byte	0x43a
 5678 124a E7080000 		.4byte	.LLST41
 5679 124e 29       		.uleb128 0x29
 5680 124f 74080000 		.4byte	.LVL285
 5681 1253 7B060000 		.4byte	0x67b
 5682 1257 22       		.uleb128 0x22
 5683 1258 01       		.uleb128 0x1
 5684 1259 50       		.byte	0x50
 5685 125a 05       		.uleb128 0x5
 5686 125b 03       		.byte	0x3
 5687 125c 4C020000 		.4byte	.LC37
 5688 1260 00       		.byte	0
 5689 1261 00       		.byte	0
 5690 1262 34       		.uleb128 0x34
 5691 1263 2E040000 		.4byte	0x42e
 5692 1267 FA020000 		.4byte	.LBB224
 5693 126b 08020000 		.4byte	.Ldebug_ranges0+0x208
 5694 126f 01       		.byte	0x1
 5695 1270 C1       		.byte	0xc1
 5696 1271 9B120000 		.4byte	0x129b
 5697 1275 24       		.uleb128 0x24
 5698 1276 45040000 		.4byte	0x445
 5699 127a 2F090000 		.4byte	.LLST42
 5700 127e 24       		.uleb128 0x24
 5701 127f 3A040000 		.4byte	0x43a
 5702 1283 4D090000 		.4byte	.LLST43
 5703 1287 29       		.uleb128 0x29
 5704 1288 AC080000 		.4byte	.LVL306
 5705 128c 7B060000 		.4byte	0x67b
 5706 1290 22       		.uleb128 0x22
 5707 1291 01       		.uleb128 0x1
 5708 1292 50       		.byte	0x50
 5709 1293 05       		.uleb128 0x5
 5710 1294 03       		.byte	0x3
 5711 1295 F0020000 		.4byte	.LC46
 5712 1299 00       		.byte	0
 5713 129a 00       		.byte	0
 5714 129b 34       		.uleb128 0x34
 5715 129c 2E040000 		.4byte	0x42e
 5716 12a0 08030000 		.4byte	.LBB227
 5717 12a4 20020000 		.4byte	.Ldebug_ranges0+0x220
 5718 12a8 01       		.byte	0x1
 5719 12a9 C3       		.byte	0xc3
 5720 12aa D4120000 		.4byte	0x12d4
 5721 12ae 24       		.uleb128 0x24
 5722 12af 45040000 		.4byte	0x445
 5723 12b3 75090000 		.4byte	.LLST44
 5724 12b7 24       		.uleb128 0x24
 5725 12b8 3A040000 		.4byte	0x43a
 5726 12bc 93090000 		.4byte	.LLST45
ARM GAS  C:\Users\honet\AppData\Local\Temp\cc6gsi1c.s 			page 117


 5727 12c0 29       		.uleb128 0x29
 5728 12c1 A4080000 		.4byte	.LVL303
 5729 12c5 7B060000 		.4byte	0x67b
 5730 12c9 22       		.uleb128 0x22
 5731 12ca 01       		.uleb128 0x1
 5732 12cb 50       		.byte	0x50
 5733 12cc 05       		.uleb128 0x5
 5734 12cd 03       		.byte	0x3
 5735 12ce A0020000 		.4byte	.LC42
 5736 12d2 00       		.byte	0
 5737 12d3 00       		.byte	0
 5738 12d4 2A       		.uleb128 0x2a
 5739 12d5 38020000 		.4byte	.Ldebug_ranges0+0x238
 5740 12d9 BF130000 		.4byte	0x13bf
 5741 12dd 2E       		.uleb128 0x2e
 5742 12de E0000000 		.4byte	.LASF91
 5743 12e2 01       		.byte	0x1
 5744 12e3 C8       		.byte	0xc8
 5745 12e4 67010000 		.4byte	0x167
 5746 12e8 03       		.uleb128 0x3
 5747 12e9 91       		.byte	0x91
 5748 12ea 8076     		.sleb128 -1280
 5749 12ec 2F       		.uleb128 0x2f
 5750 12ed 737A00   		.ascii	"sz\000"
 5751 12f0 01       		.byte	0x1
 5752 12f1 C8       		.byte	0xc8
 5753 12f2 33000000 		.4byte	0x33
 5754 12f6 BB090000 		.4byte	.LLST46
 5755 12fa 2F       		.uleb128 0x2f
 5756 12fb 72657300 		.ascii	"res\000"
 5757 12ff 01       		.byte	0x1
 5758 1300 C8       		.byte	0xc8
 5759 1301 0F040000 		.4byte	0x40f
 5760 1305 E7090000 		.4byte	.LLST47
 5761 1309 2A       		.uleb128 0x2a
 5762 130a 60020000 		.4byte	.Ldebug_ranges0+0x260
 5763 130e 5E130000 		.4byte	0x135e
 5764 1312 32       		.uleb128 0x32
 5765 1313 73747200 		.ascii	"str\000"
 5766 1317 01       		.byte	0x1
 5767 1318 C8       		.byte	0xc8
 5768 1319 D4050000 		.4byte	0x5d4
 5769 131d 03       		.uleb128 0x3
 5770 131e 91       		.byte	0x91
 5771 131f 8076     		.sleb128 -1280
 5772 1321 27       		.uleb128 0x27
 5773 1322 22030000 		.4byte	.LVL115
 5774 1326 E02C0000 		.4byte	0x2ce0
 5775 132a 44130000 		.4byte	0x1344
 5776 132e 22       		.uleb128 0x22
 5777 132f 01       		.uleb128 0x1
 5778 1330 52       		.byte	0x52
 5779 1331 02       		.uleb128 0x2
 5780 1332 7A       		.byte	0x7a
 5781 1333 00       		.sleb128 0
 5782 1334 22       		.uleb128 0x22
 5783 1335 01       		.uleb128 0x1
ARM GAS  C:\Users\honet\AppData\Local\Temp\cc6gsi1c.s 			page 118


 5784 1336 51       		.byte	0x51
 5785 1337 05       		.uleb128 0x5
 5786 1338 03       		.byte	0x3
 5787 1339 F8020000 		.4byte	.LC47
 5788 133d 22       		.uleb128 0x22
 5789 133e 01       		.uleb128 0x1
 5790 133f 50       		.byte	0x50
 5791 1340 02       		.uleb128 0x2
 5792 1341 76       		.byte	0x76
 5793 1342 00       		.sleb128 0
 5794 1343 00       		.byte	0
 5795 1344 28       		.uleb128 0x28
 5796 1345 26030000 		.4byte	.LVL116
 5797 1349 FB2C0000 		.4byte	0x2cfb
 5798 134d 29       		.uleb128 0x29
 5799 134e 30030000 		.4byte	.LVL117
 5800 1352 062D0000 		.4byte	0x2d06
 5801 1356 22       		.uleb128 0x22
 5802 1357 01       		.uleb128 0x1
 5803 1358 50       		.byte	0x50
 5804 1359 02       		.uleb128 0x2
 5805 135a 76       		.byte	0x76
 5806 135b 00       		.sleb128 0
 5807 135c 00       		.byte	0
 5808 135d 00       		.byte	0
 5809 135e 34       		.uleb128 0x34
 5810 135f 2E040000 		.4byte	0x42e
 5811 1363 3C030000 		.4byte	.LBB233
 5812 1367 78020000 		.4byte	.Ldebug_ranges0+0x278
 5813 136b 01       		.byte	0x1
 5814 136c C8       		.byte	0xc8
 5815 136d 97130000 		.4byte	0x1397
 5816 1371 24       		.uleb128 0x24
 5817 1372 45040000 		.4byte	0x445
 5818 1376 E7090000 		.4byte	.LLST47
 5819 137a 24       		.uleb128 0x24
 5820 137b 3A040000 		.4byte	0x43a
 5821 137f 050A0000 		.4byte	.LLST49
 5822 1383 29       		.uleb128 0x29
 5823 1384 64080000 		.4byte	.LVL279
 5824 1388 7B060000 		.4byte	0x67b
 5825 138c 22       		.uleb128 0x22
 5826 138d 01       		.uleb128 0x1
 5827 138e 50       		.byte	0x50
 5828 138f 05       		.uleb128 0x5
 5829 1390 03       		.byte	0x3
 5830 1391 64020000 		.4byte	.LC39
 5831 1395 00       		.byte	0
 5832 1396 00       		.byte	0
 5833 1397 29       		.uleb128 0x29
 5834 1398 3C030000 		.4byte	.LVL118
 5835 139c 222D0000 		.4byte	0x2d22
 5836 13a0 22       		.uleb128 0x22
 5837 13a1 01       		.uleb128 0x1
 5838 13a2 53       		.byte	0x53
 5839 13a3 02       		.uleb128 0x2
 5840 13a4 76       		.byte	0x76
ARM GAS  C:\Users\honet\AppData\Local\Temp\cc6gsi1c.s 			page 119


 5841 13a5 00       		.sleb128 0
 5842 13a6 22       		.uleb128 0x22
 5843 13a7 01       		.uleb128 0x1
 5844 13a8 52       		.byte	0x52
 5845 13a9 01       		.uleb128 0x1
 5846 13aa 48       		.byte	0x48
 5847 13ab 22       		.uleb128 0x22
 5848 13ac 01       		.uleb128 0x1
 5849 13ad 51       		.byte	0x51
 5850 13ae 05       		.uleb128 0x5
 5851 13af 03       		.byte	0x3
 5852 13b0 F8020000 		.4byte	.LC47
 5853 13b4 22       		.uleb128 0x22
 5854 13b5 01       		.uleb128 0x1
 5855 13b6 50       		.byte	0x50
 5856 13b7 05       		.uleb128 0x5
 5857 13b8 03       		.byte	0x3
 5858 13b9 00000000 		.4byte	File
 5859 13bd 00       		.byte	0
 5860 13be 00       		.byte	0
 5861 13bf 2A       		.uleb128 0x2a
 5862 13c0 90020000 		.4byte	.Ldebug_ranges0+0x290
 5863 13c4 D6130000 		.4byte	0x13d6
 5864 13c8 2F       		.uleb128 0x2f
 5865 13c9 6900     		.ascii	"i\000"
 5866 13cb 01       		.byte	0x1
 5867 13cc CB       		.byte	0xcb
 5868 13cd 2C000000 		.4byte	0x2c
 5869 13d1 3D0A0000 		.4byte	.LLST50
 5870 13d5 00       		.byte	0
 5871 13d6 25       		.uleb128 0x25
 5872 13d7 7A030000 		.4byte	.LBB241
 5873 13db 2C000000 		.4byte	.LBE241-.LBB241
 5874 13df 93140000 		.4byte	0x1493
 5875 13e3 2E       		.uleb128 0x2e
 5876 13e4 E0000000 		.4byte	.LASF91
 5877 13e8 01       		.byte	0x1
 5878 13e9 D0       		.byte	0xd0
 5879 13ea 67010000 		.4byte	0x167
 5880 13ee 03       		.uleb128 0x3
 5881 13ef 91       		.byte	0x91
 5882 13f0 8076     		.sleb128 -1280
 5883 13f2 2F       		.uleb128 0x2f
 5884 13f3 737A00   		.ascii	"sz\000"
 5885 13f6 01       		.byte	0x1
 5886 13f7 D0       		.byte	0xd0
 5887 13f8 33000000 		.4byte	0x33
 5888 13fc 670A0000 		.4byte	.LLST51
 5889 1400 2F       		.uleb128 0x2f
 5890 1401 72657300 		.ascii	"res\000"
 5891 1405 01       		.byte	0x1
 5892 1406 D0       		.byte	0xd0
 5893 1407 0F040000 		.4byte	0x40f
 5894 140b 7B0A0000 		.4byte	.LLST52
 5895 140f 25       		.uleb128 0x25
 5896 1410 7A030000 		.4byte	.LBB242
 5897 1414 18000000 		.4byte	.LBE242-.LBB242
ARM GAS  C:\Users\honet\AppData\Local\Temp\cc6gsi1c.s 			page 120


 5898 1418 45140000 		.4byte	0x1445
 5899 141c 32       		.uleb128 0x32
 5900 141d 73747200 		.ascii	"str\000"
 5901 1421 01       		.byte	0x1
 5902 1422 D0       		.byte	0xd0
 5903 1423 D4050000 		.4byte	0x5d4
 5904 1427 03       		.uleb128 0x3
 5905 1428 91       		.byte	0x91
 5906 1429 8076     		.sleb128 -1280
 5907 142b 28       		.uleb128 0x28
 5908 142c 88030000 		.4byte	.LVL126
 5909 1430 FB2C0000 		.4byte	0x2cfb
 5910 1434 29       		.uleb128 0x29
 5911 1435 92030000 		.4byte	.LVL127
 5912 1439 062D0000 		.4byte	0x2d06
 5913 143d 22       		.uleb128 0x22
 5914 143e 01       		.uleb128 0x1
 5915 143f 50       		.byte	0x50
 5916 1440 02       		.uleb128 0x2
 5917 1441 76       		.byte	0x76
 5918 1442 00       		.sleb128 0
 5919 1443 00       		.byte	0
 5920 1444 00       		.byte	0
 5921 1445 35       		.uleb128 0x35
 5922 1446 2E040000 		.4byte	0x42e
 5923 144a 9E030000 		.4byte	.LBB243
 5924 144e 08000000 		.4byte	.LBE243-.LBB243
 5925 1452 01       		.byte	0x1
 5926 1453 D0       		.byte	0xd0
 5927 1454 6B140000 		.4byte	0x146b
 5928 1458 24       		.uleb128 0x24
 5929 1459 45040000 		.4byte	0x445
 5930 145d 7B0A0000 		.4byte	.LLST52
 5931 1461 24       		.uleb128 0x24
 5932 1462 3A040000 		.4byte	0x43a
 5933 1466 8E0A0000 		.4byte	.LLST54
 5934 146a 00       		.byte	0
 5935 146b 29       		.uleb128 0x29
 5936 146c 9E030000 		.4byte	.LVL128
 5937 1470 222D0000 		.4byte	0x2d22
 5938 1474 22       		.uleb128 0x22
 5939 1475 01       		.uleb128 0x1
 5940 1476 53       		.byte	0x53
 5941 1477 02       		.uleb128 0x2
 5942 1478 76       		.byte	0x76
 5943 1479 00       		.sleb128 0
 5944 147a 22       		.uleb128 0x22
 5945 147b 01       		.uleb128 0x1
 5946 147c 52       		.byte	0x52
 5947 147d 01       		.uleb128 0x1
 5948 147e 38       		.byte	0x38
 5949 147f 22       		.uleb128 0x22
 5950 1480 01       		.uleb128 0x1
 5951 1481 51       		.byte	0x51
 5952 1482 05       		.uleb128 0x5
 5953 1483 03       		.byte	0x3
 5954 1484 14030000 		.4byte	.LC48
ARM GAS  C:\Users\honet\AppData\Local\Temp\cc6gsi1c.s 			page 121


 5955 1488 22       		.uleb128 0x22
 5956 1489 01       		.uleb128 0x1
 5957 148a 50       		.byte	0x50
 5958 148b 05       		.uleb128 0x5
 5959 148c 03       		.byte	0x3
 5960 148d 00000000 		.4byte	File
 5961 1491 00       		.byte	0
 5962 1492 00       		.byte	0
 5963 1493 2A       		.uleb128 0x2a
 5964 1494 A8020000 		.4byte	.Ldebug_ranges0+0x2a8
 5965 1498 8C150000 		.4byte	0x158c
 5966 149c 2E       		.uleb128 0x2e
 5967 149d E0000000 		.4byte	.LASF91
 5968 14a1 01       		.byte	0x1
 5969 14a2 D5       		.byte	0xd5
 5970 14a3 67010000 		.4byte	0x167
 5971 14a7 03       		.uleb128 0x3
 5972 14a8 91       		.byte	0x91
 5973 14a9 8076     		.sleb128 -1280
 5974 14ab 2F       		.uleb128 0x2f
 5975 14ac 737A00   		.ascii	"sz\000"
 5976 14af 01       		.byte	0x1
 5977 14b0 D5       		.byte	0xd5
 5978 14b1 33000000 		.4byte	0x33
 5979 14b5 A60A0000 		.4byte	.LLST55
 5980 14b9 2F       		.uleb128 0x2f
 5981 14ba 72657300 		.ascii	"res\000"
 5982 14be 01       		.byte	0x1
 5983 14bf D5       		.byte	0xd5
 5984 14c0 0F040000 		.4byte	0x40f
 5985 14c4 D20A0000 		.4byte	.LLST56
 5986 14c8 25       		.uleb128 0x25
 5987 14c9 AA030000 		.4byte	.LBB246
 5988 14cd 1A000000 		.4byte	.LBE246-.LBB246
 5989 14d1 2B150000 		.4byte	0x152b
 5990 14d5 32       		.uleb128 0x32
 5991 14d6 73747200 		.ascii	"str\000"
 5992 14da 01       		.byte	0x1
 5993 14db D5       		.byte	0xd5
 5994 14dc D4050000 		.4byte	0x5d4
 5995 14e0 03       		.uleb128 0x3
 5996 14e1 91       		.byte	0x91
 5997 14e2 8076     		.sleb128 -1280
 5998 14e4 27       		.uleb128 0x27
 5999 14e5 B6030000 		.4byte	.LVL131
 6000 14e9 E02C0000 		.4byte	0x2ce0
 6001 14ed 11150000 		.4byte	0x1511
 6002 14f1 22       		.uleb128 0x22
 6003 14f2 01       		.uleb128 0x1
 6004 14f3 52       		.byte	0x52
 6005 14f4 0C       		.uleb128 0xc
 6006 14f5 40       		.byte	0x40
 6007 14f6 3E       		.byte	0x3e
 6008 14f7 24       		.byte	0x24
 6009 14f8 F7       		.byte	0xf7
 6010 14f9 25       		.uleb128 0x25
 6011 14fa 7A       		.byte	0x7a
ARM GAS  C:\Users\honet\AppData\Local\Temp\cc6gsi1c.s 			page 122


 6012 14fb 00       		.sleb128 0
 6013 14fc F7       		.byte	0xf7
 6014 14fd 25       		.uleb128 0x25
 6015 14fe 1B       		.byte	0x1b
 6016 14ff F7       		.byte	0xf7
 6017 1500 00       		.uleb128 0
 6018 1501 22       		.uleb128 0x22
 6019 1502 01       		.uleb128 0x1
 6020 1503 51       		.byte	0x51
 6021 1504 05       		.uleb128 0x5
 6022 1505 03       		.byte	0x3
 6023 1506 B8020000 		.4byte	.LC44
 6024 150a 22       		.uleb128 0x22
 6025 150b 01       		.uleb128 0x1
 6026 150c 50       		.byte	0x50
 6027 150d 02       		.uleb128 0x2
 6028 150e 76       		.byte	0x76
 6029 150f 00       		.sleb128 0
 6030 1510 00       		.byte	0
 6031 1511 28       		.uleb128 0x28
 6032 1512 BA030000 		.4byte	.LVL132
 6033 1516 FB2C0000 		.4byte	0x2cfb
 6034 151a 29       		.uleb128 0x29
 6035 151b C4030000 		.4byte	.LVL133
 6036 151f 062D0000 		.4byte	0x2d06
 6037 1523 22       		.uleb128 0x22
 6038 1524 01       		.uleb128 0x1
 6039 1525 50       		.byte	0x50
 6040 1526 02       		.uleb128 0x2
 6041 1527 76       		.byte	0x76
 6042 1528 00       		.sleb128 0
 6043 1529 00       		.byte	0
 6044 152a 00       		.byte	0
 6045 152b 34       		.uleb128 0x34
 6046 152c 2E040000 		.4byte	0x42e
 6047 1530 D0030000 		.4byte	.LBB247
 6048 1534 C0020000 		.4byte	.Ldebug_ranges0+0x2c0
 6049 1538 01       		.byte	0x1
 6050 1539 D5       		.byte	0xd5
 6051 153a 64150000 		.4byte	0x1564
 6052 153e 24       		.uleb128 0x24
 6053 153f 45040000 		.4byte	0x445
 6054 1543 D20A0000 		.4byte	.LLST56
 6055 1547 24       		.uleb128 0x24
 6056 1548 3A040000 		.4byte	0x43a
 6057 154c F00A0000 		.4byte	.LLST58
 6058 1550 29       		.uleb128 0x29
 6059 1551 6C080000 		.4byte	.LVL282
 6060 1555 7B060000 		.4byte	0x67b
 6061 1559 22       		.uleb128 0x22
 6062 155a 01       		.uleb128 0x1
 6063 155b 50       		.byte	0x50
 6064 155c 05       		.uleb128 0x5
 6065 155d 03       		.byte	0x3
 6066 155e 64020000 		.4byte	.LC39
 6067 1562 00       		.byte	0
 6068 1563 00       		.byte	0
ARM GAS  C:\Users\honet\AppData\Local\Temp\cc6gsi1c.s 			page 123


 6069 1564 29       		.uleb128 0x29
 6070 1565 D0030000 		.4byte	.LVL134
 6071 1569 222D0000 		.4byte	0x2d22
 6072 156d 22       		.uleb128 0x22
 6073 156e 01       		.uleb128 0x1
 6074 156f 53       		.byte	0x53
 6075 1570 02       		.uleb128 0x2
 6076 1571 76       		.byte	0x76
 6077 1572 00       		.sleb128 0
 6078 1573 22       		.uleb128 0x22
 6079 1574 01       		.uleb128 0x1
 6080 1575 52       		.byte	0x52
 6081 1576 01       		.uleb128 0x1
 6082 1577 3F       		.byte	0x3f
 6083 1578 22       		.uleb128 0x22
 6084 1579 01       		.uleb128 0x1
 6085 157a 51       		.byte	0x51
 6086 157b 05       		.uleb128 0x5
 6087 157c 03       		.byte	0x3
 6088 157d B8020000 		.4byte	.LC44
 6089 1581 22       		.uleb128 0x22
 6090 1582 01       		.uleb128 0x1
 6091 1583 50       		.byte	0x50
 6092 1584 05       		.uleb128 0x5
 6093 1585 03       		.byte	0x3
 6094 1586 00000000 		.4byte	File
 6095 158a 00       		.byte	0
 6096 158b 00       		.byte	0
 6097 158c 25       		.uleb128 0x25
 6098 158d D8030000 		.4byte	.LBB251
 6099 1591 1E000000 		.4byte	.LBE251-.LBB251
 6100 1595 C2150000 		.4byte	0x15c2
 6101 1599 32       		.uleb128 0x32
 6102 159a 73747200 		.ascii	"str\000"
 6103 159e 01       		.byte	0x1
 6104 159f D8       		.byte	0xd8
 6105 15a0 D4050000 		.4byte	0x5d4
 6106 15a4 03       		.uleb128 0x3
 6107 15a5 91       		.byte	0x91
 6108 15a6 8076     		.sleb128 -1280
 6109 15a8 28       		.uleb128 0x28
 6110 15a9 EC030000 		.4byte	.LVL136
 6111 15ad FB2C0000 		.4byte	0x2cfb
 6112 15b1 29       		.uleb128 0x29
 6113 15b2 F6030000 		.4byte	.LVL137
 6114 15b6 062D0000 		.4byte	0x2d06
 6115 15ba 22       		.uleb128 0x22
 6116 15bb 01       		.uleb128 0x1
 6117 15bc 50       		.byte	0x50
 6118 15bd 02       		.uleb128 0x2
 6119 15be 76       		.byte	0x76
 6120 15bf 00       		.sleb128 0
 6121 15c0 00       		.byte	0
 6122 15c1 00       		.byte	0
 6123 15c2 2A       		.uleb128 0x2a
 6124 15c3 D8020000 		.4byte	.Ldebug_ranges0+0x2d8
 6125 15c7 881F0000 		.4byte	0x1f88
ARM GAS  C:\Users\honet\AppData\Local\Temp\cc6gsi1c.s 			page 124


 6126 15cb 2F       		.uleb128 0x2f
 6127 15cc 6B00     		.ascii	"k\000"
 6128 15ce 01       		.byte	0x1
 6129 15cf DC       		.byte	0xdc
 6130 15d0 2C000000 		.4byte	0x2c
 6131 15d4 280B0000 		.4byte	.LLST59
 6132 15d8 2A       		.uleb128 0x2a
 6133 15d9 F8020000 		.4byte	.Ldebug_ranges0+0x2f8
 6134 15dd C8160000 		.4byte	0x16c8
 6135 15e1 2E       		.uleb128 0x2e
 6136 15e2 E0000000 		.4byte	.LASF91
 6137 15e6 01       		.byte	0x1
 6138 15e7 DF       		.byte	0xdf
 6139 15e8 67010000 		.4byte	0x167
 6140 15ec 03       		.uleb128 0x3
 6141 15ed 91       		.byte	0x91
 6142 15ee 8076     		.sleb128 -1280
 6143 15f0 2F       		.uleb128 0x2f
 6144 15f1 737A00   		.ascii	"sz\000"
 6145 15f4 01       		.byte	0x1
 6146 15f5 DF       		.byte	0xdf
 6147 15f6 33000000 		.4byte	0x33
 6148 15fa 3C0B0000 		.4byte	.LLST60
 6149 15fe 2F       		.uleb128 0x2f
 6150 15ff 72657300 		.ascii	"res\000"
 6151 1603 01       		.byte	0x1
 6152 1604 DF       		.byte	0xdf
 6153 1605 0F040000 		.4byte	0x40f
 6154 1609 5C0B0000 		.4byte	.LLST61
 6155 160d 25       		.uleb128 0x25
 6156 160e 00040000 		.4byte	.LBB254
 6157 1612 62000000 		.4byte	.LBE254-.LBB254
 6158 1616 67160000 		.4byte	0x1667
 6159 161a 32       		.uleb128 0x32
 6160 161b 73747200 		.ascii	"str\000"
 6161 161f 01       		.byte	0x1
 6162 1620 DF       		.byte	0xdf
 6163 1621 D4050000 		.4byte	0x5d4
 6164 1625 03       		.uleb128 0x3
 6165 1626 91       		.byte	0x91
 6166 1627 8076     		.sleb128 -1280
 6167 1629 27       		.uleb128 0x27
 6168 162a 0C040000 		.4byte	.LVL140
 6169 162e E02C0000 		.4byte	0x2ce0
 6170 1632 4D160000 		.4byte	0x164d
 6171 1636 22       		.uleb128 0x22
 6172 1637 01       		.uleb128 0x1
 6173 1638 52       		.byte	0x52
 6174 1639 03       		.uleb128 0x3
 6175 163a 0A       		.byte	0xa
 6176 163b 0080     		.2byte	0x8000
 6177 163d 22       		.uleb128 0x22
 6178 163e 01       		.uleb128 0x1
 6179 163f 51       		.byte	0x51
 6180 1640 05       		.uleb128 0x5
 6181 1641 03       		.byte	0x3
 6182 1642 4C030000 		.4byte	.LC51
ARM GAS  C:\Users\honet\AppData\Local\Temp\cc6gsi1c.s 			page 125


 6183 1646 22       		.uleb128 0x22
 6184 1647 01       		.uleb128 0x1
 6185 1648 50       		.byte	0x50
 6186 1649 02       		.uleb128 0x2
 6187 164a 76       		.byte	0x76
 6188 164b 00       		.sleb128 0
 6189 164c 00       		.byte	0
 6190 164d 28       		.uleb128 0x28
 6191 164e 58040000 		.4byte	.LVL141
 6192 1652 FB2C0000 		.4byte	0x2cfb
 6193 1656 29       		.uleb128 0x29
 6194 1657 62040000 		.4byte	.LVL142
 6195 165b 062D0000 		.4byte	0x2d06
 6196 165f 22       		.uleb128 0x22
 6197 1660 01       		.uleb128 0x1
 6198 1661 50       		.byte	0x50
 6199 1662 02       		.uleb128 0x2
 6200 1663 76       		.byte	0x76
 6201 1664 00       		.sleb128 0
 6202 1665 00       		.byte	0
 6203 1666 00       		.byte	0
 6204 1667 34       		.uleb128 0x34
 6205 1668 2E040000 		.4byte	0x42e
 6206 166c 6E040000 		.4byte	.LBB255
 6207 1670 10030000 		.4byte	.Ldebug_ranges0+0x310
 6208 1674 01       		.byte	0x1
 6209 1675 DF       		.byte	0xdf
 6210 1676 A0160000 		.4byte	0x16a0
 6211 167a 24       		.uleb128 0x24
 6212 167b 45040000 		.4byte	0x445
 6213 167f 5C0B0000 		.4byte	.LLST61
 6214 1683 24       		.uleb128 0x24
 6215 1684 3A040000 		.4byte	0x43a
 6216 1688 7A0B0000 		.4byte	.LLST63
 6217 168c 29       		.uleb128 0x29
 6218 168d 42070000 		.4byte	.LVL244
 6219 1691 7B060000 		.4byte	0x67b
 6220 1695 22       		.uleb128 0x22
 6221 1696 01       		.uleb128 0x1
 6222 1697 50       		.byte	0x50
 6223 1698 05       		.uleb128 0x5
 6224 1699 03       		.byte	0x3
 6225 169a 64020000 		.4byte	.LC39
 6226 169e 00       		.byte	0
 6227 169f 00       		.byte	0
 6228 16a0 29       		.uleb128 0x29
 6229 16a1 6E040000 		.4byte	.LVL143
 6230 16a5 222D0000 		.4byte	0x2d22
 6231 16a9 22       		.uleb128 0x22
 6232 16aa 01       		.uleb128 0x1
 6233 16ab 53       		.byte	0x53
 6234 16ac 02       		.uleb128 0x2
 6235 16ad 76       		.byte	0x76
 6236 16ae 00       		.sleb128 0
 6237 16af 22       		.uleb128 0x22
 6238 16b0 01       		.uleb128 0x1
 6239 16b1 52       		.byte	0x52
ARM GAS  C:\Users\honet\AppData\Local\Temp\cc6gsi1c.s 			page 126


 6240 16b2 01       		.uleb128 0x1
 6241 16b3 4E       		.byte	0x4e
 6242 16b4 22       		.uleb128 0x22
 6243 16b5 01       		.uleb128 0x1
 6244 16b6 51       		.byte	0x51
 6245 16b7 05       		.uleb128 0x5
 6246 16b8 03       		.byte	0x3
 6247 16b9 4C030000 		.4byte	.LC51
 6248 16bd 22       		.uleb128 0x22
 6249 16be 01       		.uleb128 0x1
 6250 16bf 50       		.byte	0x50
 6251 16c0 05       		.uleb128 0x5
 6252 16c1 03       		.byte	0x3
 6253 16c2 00000000 		.4byte	File
 6254 16c6 00       		.byte	0
 6255 16c7 00       		.byte	0
 6256 16c8 34       		.uleb128 0x34
 6257 16c9 2E040000 		.4byte	0x42e
 6258 16cd 82040000 		.4byte	.LBB259
 6259 16d1 28030000 		.4byte	.Ldebug_ranges0+0x328
 6260 16d5 01       		.byte	0x1
 6261 16d6 E4       		.byte	0xe4
 6262 16d7 01170000 		.4byte	0x1701
 6263 16db 24       		.uleb128 0x24
 6264 16dc 45040000 		.4byte	0x445
 6265 16e0 A20B0000 		.4byte	.LLST64
 6266 16e4 24       		.uleb128 0x24
 6267 16e5 3A040000 		.4byte	0x43a
 6268 16e9 C00B0000 		.4byte	.LLST65
 6269 16ed 29       		.uleb128 0x29
 6270 16ee 38070000 		.4byte	.LVL241
 6271 16f2 7B060000 		.4byte	0x67b
 6272 16f6 22       		.uleb128 0x22
 6273 16f7 01       		.uleb128 0x1
 6274 16f8 50       		.byte	0x50
 6275 16f9 05       		.uleb128 0x5
 6276 16fa 03       		.byte	0x3
 6277 16fb 4C020000 		.4byte	.LC37
 6278 16ff 00       		.byte	0
 6279 1700 00       		.byte	0
 6280 1701 34       		.uleb128 0x34
 6281 1702 2E040000 		.4byte	0x42e
 6282 1706 96040000 		.4byte	.LBB262
 6283 170a 40030000 		.4byte	.Ldebug_ranges0+0x340
 6284 170e 01       		.byte	0x1
 6285 170f E7       		.byte	0xe7
 6286 1710 3A170000 		.4byte	0x173a
 6287 1714 24       		.uleb128 0x24
 6288 1715 45040000 		.4byte	0x445
 6289 1719 F80B0000 		.4byte	.LLST66
 6290 171d 24       		.uleb128 0x24
 6291 171e 3A040000 		.4byte	0x43a
 6292 1722 160C0000 		.4byte	.LLST67
 6293 1726 29       		.uleb128 0x29
 6294 1727 CE070000 		.4byte	.LVL265
 6295 172b 7B060000 		.4byte	0x67b
 6296 172f 22       		.uleb128 0x22
ARM GAS  C:\Users\honet\AppData\Local\Temp\cc6gsi1c.s 			page 127


 6297 1730 01       		.uleb128 0x1
 6298 1731 50       		.byte	0x50
 6299 1732 05       		.uleb128 0x5
 6300 1733 03       		.byte	0x3
 6301 1734 64020000 		.4byte	.LC39
 6302 1738 00       		.byte	0
 6303 1739 00       		.byte	0
 6304 173a 34       		.uleb128 0x34
 6305 173b 2E040000 		.4byte	0x42e
 6306 173f A2040000 		.4byte	.LBB265
 6307 1743 58030000 		.4byte	.Ldebug_ranges0+0x358
 6308 1747 01       		.byte	0x1
 6309 1748 E9       		.byte	0xe9
 6310 1749 73170000 		.4byte	0x1773
 6311 174d 24       		.uleb128 0x24
 6312 174e 45040000 		.4byte	0x445
 6313 1752 3E0C0000 		.4byte	.LLST68
 6314 1756 24       		.uleb128 0x24
 6315 1757 3A040000 		.4byte	0x43a
 6316 175b 5C0C0000 		.4byte	.LLST69
 6317 175f 29       		.uleb128 0x29
 6318 1760 C4070000 		.4byte	.LVL262
 6319 1764 7B060000 		.4byte	0x67b
 6320 1768 22       		.uleb128 0x22
 6321 1769 01       		.uleb128 0x1
 6322 176a 50       		.byte	0x50
 6323 176b 05       		.uleb128 0x5
 6324 176c 03       		.byte	0x3
 6325 176d A0020000 		.4byte	.LC42
 6326 1771 00       		.byte	0
 6327 1772 00       		.byte	0
 6328 1773 2A       		.uleb128 0x2a
 6329 1774 70030000 		.4byte	.Ldebug_ranges0+0x370
 6330 1778 5E180000 		.4byte	0x185e
 6331 177c 2E       		.uleb128 0x2e
 6332 177d E0000000 		.4byte	.LASF91
 6333 1781 01       		.byte	0x1
 6334 1782 EE       		.byte	0xee
 6335 1783 67010000 		.4byte	0x167
 6336 1787 03       		.uleb128 0x3
 6337 1788 91       		.byte	0x91
 6338 1789 8076     		.sleb128 -1280
 6339 178b 2F       		.uleb128 0x2f
 6340 178c 737A00   		.ascii	"sz\000"
 6341 178f 01       		.byte	0x1
 6342 1790 EE       		.byte	0xee
 6343 1791 33000000 		.4byte	0x33
 6344 1795 840C0000 		.4byte	.LLST70
 6345 1799 2F       		.uleb128 0x2f
 6346 179a 72657300 		.ascii	"res\000"
 6347 179e 01       		.byte	0x1
 6348 179f EE       		.byte	0xee
 6349 17a0 0F040000 		.4byte	0x40f
 6350 17a4 B00C0000 		.4byte	.LLST71
 6351 17a8 2A       		.uleb128 0x2a
 6352 17a9 90030000 		.4byte	.Ldebug_ranges0+0x390
 6353 17ad FD170000 		.4byte	0x17fd
ARM GAS  C:\Users\honet\AppData\Local\Temp\cc6gsi1c.s 			page 128


 6354 17b1 32       		.uleb128 0x32
 6355 17b2 73747200 		.ascii	"str\000"
 6356 17b6 01       		.byte	0x1
 6357 17b7 EE       		.byte	0xee
 6358 17b8 D4050000 		.4byte	0x5d4
 6359 17bc 03       		.uleb128 0x3
 6360 17bd 91       		.byte	0x91
 6361 17be 8076     		.sleb128 -1280
 6362 17c0 27       		.uleb128 0x27
 6363 17c1 B8040000 		.4byte	.LVL153
 6364 17c5 E02C0000 		.4byte	0x2ce0
 6365 17c9 E3170000 		.4byte	0x17e3
 6366 17cd 22       		.uleb128 0x22
 6367 17ce 01       		.uleb128 0x1
 6368 17cf 52       		.byte	0x52
 6369 17d0 02       		.uleb128 0x2
 6370 17d1 74       		.byte	0x74
 6371 17d2 00       		.sleb128 0
 6372 17d3 22       		.uleb128 0x22
 6373 17d4 01       		.uleb128 0x1
 6374 17d5 51       		.byte	0x51
 6375 17d6 05       		.uleb128 0x5
 6376 17d7 03       		.byte	0x3
 6377 17d8 A8020000 		.4byte	.LC43
 6378 17dc 22       		.uleb128 0x22
 6379 17dd 01       		.uleb128 0x1
 6380 17de 50       		.byte	0x50
 6381 17df 02       		.uleb128 0x2
 6382 17e0 76       		.byte	0x76
 6383 17e1 00       		.sleb128 0
 6384 17e2 00       		.byte	0
 6385 17e3 28       		.uleb128 0x28
 6386 17e4 BC040000 		.4byte	.LVL154
 6387 17e8 FB2C0000 		.4byte	0x2cfb
 6388 17ec 29       		.uleb128 0x29
 6389 17ed C6040000 		.4byte	.LVL155
 6390 17f1 062D0000 		.4byte	0x2d06
 6391 17f5 22       		.uleb128 0x22
 6392 17f6 01       		.uleb128 0x1
 6393 17f7 50       		.byte	0x50
 6394 17f8 02       		.uleb128 0x2
 6395 17f9 76       		.byte	0x76
 6396 17fa 00       		.sleb128 0
 6397 17fb 00       		.byte	0
 6398 17fc 00       		.byte	0
 6399 17fd 34       		.uleb128 0x34
 6400 17fe 2E040000 		.4byte	0x42e
 6401 1802 D2040000 		.4byte	.LBB271
 6402 1806 A8030000 		.4byte	.Ldebug_ranges0+0x3a8
 6403 180a 01       		.byte	0x1
 6404 180b EE       		.byte	0xee
 6405 180c 36180000 		.4byte	0x1836
 6406 1810 24       		.uleb128 0x24
 6407 1811 45040000 		.4byte	0x445
 6408 1815 B00C0000 		.4byte	.LLST71
 6409 1819 24       		.uleb128 0x24
 6410 181a 3A040000 		.4byte	0x43a
ARM GAS  C:\Users\honet\AppData\Local\Temp\cc6gsi1c.s 			page 129


 6411 181e CE0C0000 		.4byte	.LLST73
 6412 1822 29       		.uleb128 0x29
 6413 1823 2E070000 		.4byte	.LVL238
 6414 1827 7B060000 		.4byte	0x67b
 6415 182b 22       		.uleb128 0x22
 6416 182c 01       		.uleb128 0x1
 6417 182d 50       		.byte	0x50
 6418 182e 05       		.uleb128 0x5
 6419 182f 03       		.byte	0x3
 6420 1830 64020000 		.4byte	.LC39
 6421 1834 00       		.byte	0
 6422 1835 00       		.byte	0
 6423 1836 29       		.uleb128 0x29
 6424 1837 D2040000 		.4byte	.LVL156
 6425 183b 222D0000 		.4byte	0x2d22
 6426 183f 22       		.uleb128 0x22
 6427 1840 01       		.uleb128 0x1
 6428 1841 53       		.byte	0x53
 6429 1842 02       		.uleb128 0x2
 6430 1843 76       		.byte	0x76
 6431 1844 00       		.sleb128 0
 6432 1845 22       		.uleb128 0x22
 6433 1846 01       		.uleb128 0x1
 6434 1847 52       		.byte	0x52
 6435 1848 01       		.uleb128 0x1
 6436 1849 3C       		.byte	0x3c
 6437 184a 22       		.uleb128 0x22
 6438 184b 01       		.uleb128 0x1
 6439 184c 51       		.byte	0x51
 6440 184d 05       		.uleb128 0x5
 6441 184e 03       		.byte	0x3
 6442 184f A8020000 		.4byte	.LC43
 6443 1853 22       		.uleb128 0x22
 6444 1854 01       		.uleb128 0x1
 6445 1855 50       		.byte	0x50
 6446 1856 05       		.uleb128 0x5
 6447 1857 03       		.byte	0x3
 6448 1858 00000000 		.4byte	File
 6449 185c 00       		.byte	0
 6450 185d 00       		.byte	0
 6451 185e 2A       		.uleb128 0x2a
 6452 185f C0030000 		.4byte	.Ldebug_ranges0+0x3c0
 6453 1863 57190000 		.4byte	0x1957
 6454 1867 2E       		.uleb128 0x2e
 6455 1868 E0000000 		.4byte	.LASF91
 6456 186c 01       		.byte	0x1
 6457 186d F1       		.byte	0xf1
 6458 186e 67010000 		.4byte	0x167
 6459 1872 03       		.uleb128 0x3
 6460 1873 91       		.byte	0x91
 6461 1874 8076     		.sleb128 -1280
 6462 1876 2F       		.uleb128 0x2f
 6463 1877 737A00   		.ascii	"sz\000"
 6464 187a 01       		.byte	0x1
 6465 187b F1       		.byte	0xf1
 6466 187c 33000000 		.4byte	0x33
 6467 1880 060D0000 		.4byte	.LLST74
ARM GAS  C:\Users\honet\AppData\Local\Temp\cc6gsi1c.s 			page 130


 6468 1884 2F       		.uleb128 0x2f
 6469 1885 72657300 		.ascii	"res\000"
 6470 1889 01       		.byte	0x1
 6471 188a F1       		.byte	0xf1
 6472 188b 0F040000 		.4byte	0x40f
 6473 188f 320D0000 		.4byte	.LLST75
 6474 1893 25       		.uleb128 0x25
 6475 1894 DC040000 		.4byte	.LBB277
 6476 1898 1A000000 		.4byte	.LBE277-.LBB277
 6477 189c F6180000 		.4byte	0x18f6
 6478 18a0 32       		.uleb128 0x32
 6479 18a1 73747200 		.ascii	"str\000"
 6480 18a5 01       		.byte	0x1
 6481 18a6 F1       		.byte	0xf1
 6482 18a7 D4050000 		.4byte	0x5d4
 6483 18ab 03       		.uleb128 0x3
 6484 18ac 91       		.byte	0x91
 6485 18ad 8076     		.sleb128 -1280
 6486 18af 27       		.uleb128 0x27
 6487 18b0 E8040000 		.4byte	.LVL159
 6488 18b4 E02C0000 		.4byte	0x2ce0
 6489 18b8 DC180000 		.4byte	0x18dc
 6490 18bc 22       		.uleb128 0x22
 6491 18bd 01       		.uleb128 0x1
 6492 18be 52       		.byte	0x52
 6493 18bf 0C       		.uleb128 0xc
 6494 18c0 40       		.byte	0x40
 6495 18c1 3E       		.byte	0x3e
 6496 18c2 24       		.byte	0x24
 6497 18c3 F7       		.byte	0xf7
 6498 18c4 25       		.uleb128 0x25
 6499 18c5 74       		.byte	0x74
 6500 18c6 00       		.sleb128 0
 6501 18c7 F7       		.byte	0xf7
 6502 18c8 25       		.uleb128 0x25
 6503 18c9 1B       		.byte	0x1b
 6504 18ca F7       		.byte	0xf7
 6505 18cb 00       		.uleb128 0
 6506 18cc 22       		.uleb128 0x22
 6507 18cd 01       		.uleb128 0x1
 6508 18ce 51       		.byte	0x51
 6509 18cf 05       		.uleb128 0x5
 6510 18d0 03       		.byte	0x3
 6511 18d1 B8020000 		.4byte	.LC44
 6512 18d5 22       		.uleb128 0x22
 6513 18d6 01       		.uleb128 0x1
 6514 18d7 50       		.byte	0x50
 6515 18d8 02       		.uleb128 0x2
 6516 18d9 76       		.byte	0x76
 6517 18da 00       		.sleb128 0
 6518 18db 00       		.byte	0
 6519 18dc 28       		.uleb128 0x28
 6520 18dd EC040000 		.4byte	.LVL160
 6521 18e1 FB2C0000 		.4byte	0x2cfb
 6522 18e5 29       		.uleb128 0x29
 6523 18e6 F6040000 		.4byte	.LVL161
 6524 18ea 062D0000 		.4byte	0x2d06
ARM GAS  C:\Users\honet\AppData\Local\Temp\cc6gsi1c.s 			page 131


 6525 18ee 22       		.uleb128 0x22
 6526 18ef 01       		.uleb128 0x1
 6527 18f0 50       		.byte	0x50
 6528 18f1 02       		.uleb128 0x2
 6529 18f2 76       		.byte	0x76
 6530 18f3 00       		.sleb128 0
 6531 18f4 00       		.byte	0
 6532 18f5 00       		.byte	0
 6533 18f6 34       		.uleb128 0x34
 6534 18f7 2E040000 		.4byte	0x42e
 6535 18fb 02050000 		.4byte	.LBB278
 6536 18ff D8030000 		.4byte	.Ldebug_ranges0+0x3d8
 6537 1903 01       		.byte	0x1
 6538 1904 F1       		.byte	0xf1
 6539 1905 2F190000 		.4byte	0x192f
 6540 1909 24       		.uleb128 0x24
 6541 190a 45040000 		.4byte	0x445
 6542 190e 320D0000 		.4byte	.LLST75
 6543 1912 24       		.uleb128 0x24
 6544 1913 3A040000 		.4byte	0x43a
 6545 1917 500D0000 		.4byte	.LLST77
 6546 191b 29       		.uleb128 0x29
 6547 191c 24070000 		.4byte	.LVL235
 6548 1920 7B060000 		.4byte	0x67b
 6549 1924 22       		.uleb128 0x22
 6550 1925 01       		.uleb128 0x1
 6551 1926 50       		.byte	0x50
 6552 1927 05       		.uleb128 0x5
 6553 1928 03       		.byte	0x3
 6554 1929 64020000 		.4byte	.LC39
 6555 192d 00       		.byte	0
 6556 192e 00       		.byte	0
 6557 192f 29       		.uleb128 0x29
 6558 1930 02050000 		.4byte	.LVL162
 6559 1934 222D0000 		.4byte	0x2d22
 6560 1938 22       		.uleb128 0x22
 6561 1939 01       		.uleb128 0x1
 6562 193a 53       		.byte	0x53
 6563 193b 02       		.uleb128 0x2
 6564 193c 76       		.byte	0x76
 6565 193d 00       		.sleb128 0
 6566 193e 22       		.uleb128 0x22
 6567 193f 01       		.uleb128 0x1
 6568 1940 52       		.byte	0x52
 6569 1941 01       		.uleb128 0x1
 6570 1942 3F       		.byte	0x3f
 6571 1943 22       		.uleb128 0x22
 6572 1944 01       		.uleb128 0x1
 6573 1945 51       		.byte	0x51
 6574 1946 05       		.uleb128 0x5
 6575 1947 03       		.byte	0x3
 6576 1948 B8020000 		.4byte	.LC44
 6577 194c 22       		.uleb128 0x22
 6578 194d 01       		.uleb128 0x1
 6579 194e 50       		.byte	0x50
 6580 194f 05       		.uleb128 0x5
 6581 1950 03       		.byte	0x3
ARM GAS  C:\Users\honet\AppData\Local\Temp\cc6gsi1c.s 			page 132


 6582 1951 00000000 		.4byte	File
 6583 1955 00       		.byte	0
 6584 1956 00       		.byte	0
 6585 1957 2A       		.uleb128 0x2a
 6586 1958 F0030000 		.4byte	.Ldebug_ranges0+0x3f0
 6587 195c 481A0000 		.4byte	0x1a48
 6588 1960 2E       		.uleb128 0x2e
 6589 1961 E0000000 		.4byte	.LASF91
 6590 1965 01       		.byte	0x1
 6591 1966 F6       		.byte	0xf6
 6592 1967 67010000 		.4byte	0x167
 6593 196b 03       		.uleb128 0x3
 6594 196c 91       		.byte	0x91
 6595 196d 8076     		.sleb128 -1280
 6596 196f 2F       		.uleb128 0x2f
 6597 1970 737A00   		.ascii	"sz\000"
 6598 1973 01       		.byte	0x1
 6599 1974 F6       		.byte	0xf6
 6600 1975 33000000 		.4byte	0x33
 6601 1979 880D0000 		.4byte	.LLST78
 6602 197d 2F       		.uleb128 0x2f
 6603 197e 72657300 		.ascii	"res\000"
 6604 1982 01       		.byte	0x1
 6605 1983 F6       		.byte	0xf6
 6606 1984 0F040000 		.4byte	0x40f
 6607 1988 B70D0000 		.4byte	.LLST79
 6608 198c 25       		.uleb128 0x25
 6609 198d 08050000 		.4byte	.LBB283
 6610 1991 1A000000 		.4byte	.LBE283-.LBB283
 6611 1995 E6190000 		.4byte	0x19e6
 6612 1999 32       		.uleb128 0x32
 6613 199a 73747200 		.ascii	"str\000"
 6614 199e 01       		.byte	0x1
 6615 199f F6       		.byte	0xf6
 6616 19a0 D4050000 		.4byte	0x5d4
 6617 19a4 03       		.uleb128 0x3
 6618 19a5 91       		.byte	0x91
 6619 19a6 8076     		.sleb128 -1280
 6620 19a8 27       		.uleb128 0x27
 6621 19a9 14050000 		.4byte	.LVL164
 6622 19ad E02C0000 		.4byte	0x2ce0
 6623 19b1 CC190000 		.4byte	0x19cc
 6624 19b5 22       		.uleb128 0x22
 6625 19b6 01       		.uleb128 0x1
 6626 19b7 52       		.byte	0x52
 6627 19b8 03       		.uleb128 0x3
 6628 19b9 0A       		.byte	0xa
 6629 19ba 0080     		.2byte	0x8000
 6630 19bc 22       		.uleb128 0x22
 6631 19bd 01       		.uleb128 0x1
 6632 19be 51       		.byte	0x51
 6633 19bf 05       		.uleb128 0x5
 6634 19c0 03       		.byte	0x3
 6635 19c1 7C030000 		.4byte	.LC53
 6636 19c5 22       		.uleb128 0x22
 6637 19c6 01       		.uleb128 0x1
 6638 19c7 50       		.byte	0x50
ARM GAS  C:\Users\honet\AppData\Local\Temp\cc6gsi1c.s 			page 133


 6639 19c8 02       		.uleb128 0x2
 6640 19c9 76       		.byte	0x76
 6641 19ca 00       		.sleb128 0
 6642 19cb 00       		.byte	0
 6643 19cc 28       		.uleb128 0x28
 6644 19cd 18050000 		.4byte	.LVL165
 6645 19d1 FB2C0000 		.4byte	0x2cfb
 6646 19d5 29       		.uleb128 0x29
 6647 19d6 22050000 		.4byte	.LVL166
 6648 19da 062D0000 		.4byte	0x2d06
 6649 19de 22       		.uleb128 0x22
 6650 19df 01       		.uleb128 0x1
 6651 19e0 50       		.byte	0x50
 6652 19e1 02       		.uleb128 0x2
 6653 19e2 76       		.byte	0x76
 6654 19e3 00       		.sleb128 0
 6655 19e4 00       		.byte	0
 6656 19e5 00       		.byte	0
 6657 19e6 34       		.uleb128 0x34
 6658 19e7 2E040000 		.4byte	0x42e
 6659 19eb 2E050000 		.4byte	.LBB284
 6660 19ef 08040000 		.4byte	.Ldebug_ranges0+0x408
 6661 19f3 01       		.byte	0x1
 6662 19f4 F6       		.byte	0xf6
 6663 19f5 1F1A0000 		.4byte	0x1a1f
 6664 19f9 24       		.uleb128 0x24
 6665 19fa 45040000 		.4byte	0x445
 6666 19fe B70D0000 		.4byte	.LLST79
 6667 1a02 24       		.uleb128 0x24
 6668 1a03 3A040000 		.4byte	0x43a
 6669 1a07 D50D0000 		.4byte	.LLST81
 6670 1a0b 29       		.uleb128 0x29
 6671 1a0c A6070000 		.4byte	.LVL253
 6672 1a10 7B060000 		.4byte	0x67b
 6673 1a14 22       		.uleb128 0x22
 6674 1a15 01       		.uleb128 0x1
 6675 1a16 50       		.byte	0x50
 6676 1a17 05       		.uleb128 0x5
 6677 1a18 03       		.byte	0x3
 6678 1a19 64020000 		.4byte	.LC39
 6679 1a1d 00       		.byte	0
 6680 1a1e 00       		.byte	0
 6681 1a1f 29       		.uleb128 0x29
 6682 1a20 2E050000 		.4byte	.LVL167
 6683 1a24 222D0000 		.4byte	0x2d22
 6684 1a28 22       		.uleb128 0x22
 6685 1a29 01       		.uleb128 0x1
 6686 1a2a 53       		.byte	0x53
 6687 1a2b 02       		.uleb128 0x2
 6688 1a2c 76       		.byte	0x76
 6689 1a2d 00       		.sleb128 0
 6690 1a2e 22       		.uleb128 0x22
 6691 1a2f 01       		.uleb128 0x1
 6692 1a30 52       		.byte	0x52
 6693 1a31 02       		.uleb128 0x2
 6694 1a32 08       		.byte	0x8
 6695 1a33 20       		.byte	0x20
ARM GAS  C:\Users\honet\AppData\Local\Temp\cc6gsi1c.s 			page 134


 6696 1a34 22       		.uleb128 0x22
 6697 1a35 01       		.uleb128 0x1
 6698 1a36 51       		.byte	0x51
 6699 1a37 05       		.uleb128 0x5
 6700 1a38 03       		.byte	0x3
 6701 1a39 7C030000 		.4byte	.LC53
 6702 1a3d 22       		.uleb128 0x22
 6703 1a3e 01       		.uleb128 0x1
 6704 1a3f 50       		.byte	0x50
 6705 1a40 05       		.uleb128 0x5
 6706 1a41 03       		.byte	0x3
 6707 1a42 00000000 		.4byte	File
 6708 1a46 00       		.byte	0
 6709 1a47 00       		.byte	0
 6710 1a48 34       		.uleb128 0x34
 6711 1a49 2E040000 		.4byte	0x42e
 6712 1a4d 4E050000 		.4byte	.LBB288
 6713 1a51 20040000 		.4byte	.Ldebug_ranges0+0x420
 6714 1a55 01       		.byte	0x1
 6715 1a56 FE       		.byte	0xfe
 6716 1a57 811A0000 		.4byte	0x1a81
 6717 1a5b 24       		.uleb128 0x24
 6718 1a5c 45040000 		.4byte	0x445
 6719 1a60 0D0E0000 		.4byte	.LLST82
 6720 1a64 24       		.uleb128 0x24
 6721 1a65 3A040000 		.4byte	0x43a
 6722 1a69 2B0E0000 		.4byte	.LLST83
 6723 1a6d 29       		.uleb128 0x29
 6724 1a6e 9C070000 		.4byte	.LVL250
 6725 1a72 7B060000 		.4byte	0x67b
 6726 1a76 22       		.uleb128 0x22
 6727 1a77 01       		.uleb128 0x1
 6728 1a78 50       		.byte	0x50
 6729 1a79 05       		.uleb128 0x5
 6730 1a7a 03       		.byte	0x3
 6731 1a7b 4C020000 		.4byte	.LC37
 6732 1a7f 00       		.byte	0
 6733 1a80 00       		.byte	0
 6734 1a81 36       		.uleb128 0x36
 6735 1a82 2E040000 		.4byte	0x42e
 6736 1a86 62050000 		.4byte	.LBB291
 6737 1a8a 38040000 		.4byte	.Ldebug_ranges0+0x438
 6738 1a8e 01       		.byte	0x1
 6739 1a8f 0101     		.2byte	0x101
 6740 1a91 BB1A0000 		.4byte	0x1abb
 6741 1a95 24       		.uleb128 0x24
 6742 1a96 45040000 		.4byte	0x445
 6743 1a9a 730E0000 		.4byte	.LLST84
 6744 1a9e 24       		.uleb128 0x24
 6745 1a9f 3A040000 		.4byte	0x43a
 6746 1aa3 910E0000 		.4byte	.LLST85
 6747 1aa7 29       		.uleb128 0x29
 6748 1aa8 BA070000 		.4byte	.LVL259
 6749 1aac 7B060000 		.4byte	0x67b
 6750 1ab0 22       		.uleb128 0x22
 6751 1ab1 01       		.uleb128 0x1
 6752 1ab2 50       		.byte	0x50
ARM GAS  C:\Users\honet\AppData\Local\Temp\cc6gsi1c.s 			page 135


 6753 1ab3 05       		.uleb128 0x5
 6754 1ab4 03       		.byte	0x3
 6755 1ab5 F0020000 		.4byte	.LC46
 6756 1ab9 00       		.byte	0
 6757 1aba 00       		.byte	0
 6758 1abb 36       		.uleb128 0x36
 6759 1abc 2E040000 		.4byte	0x42e
 6760 1ac0 6E050000 		.4byte	.LBB294
 6761 1ac4 50040000 		.4byte	.Ldebug_ranges0+0x450
 6762 1ac8 01       		.byte	0x1
 6763 1ac9 0301     		.2byte	0x103
 6764 1acb F51A0000 		.4byte	0x1af5
 6765 1acf 24       		.uleb128 0x24
 6766 1ad0 45040000 		.4byte	0x445
 6767 1ad4 B90E0000 		.4byte	.LLST86
 6768 1ad8 24       		.uleb128 0x24
 6769 1ad9 3A040000 		.4byte	0x43a
 6770 1add D70E0000 		.4byte	.LLST87
 6771 1ae1 29       		.uleb128 0x29
 6772 1ae2 B0070000 		.4byte	.LVL256
 6773 1ae6 7B060000 		.4byte	0x67b
 6774 1aea 22       		.uleb128 0x22
 6775 1aeb 01       		.uleb128 0x1
 6776 1aec 50       		.byte	0x50
 6777 1aed 05       		.uleb128 0x5
 6778 1aee 03       		.byte	0x3
 6779 1aef A0020000 		.4byte	.LC42
 6780 1af3 00       		.byte	0
 6781 1af4 00       		.byte	0
 6782 1af5 2A       		.uleb128 0x2a
 6783 1af6 68040000 		.4byte	.Ldebug_ranges0+0x468
 6784 1afa E51B0000 		.4byte	0x1be5
 6785 1afe 37       		.uleb128 0x37
 6786 1aff E0000000 		.4byte	.LASF91
 6787 1b03 01       		.byte	0x1
 6788 1b04 0801     		.2byte	0x108
 6789 1b06 67010000 		.4byte	0x167
 6790 1b0a 03       		.uleb128 0x3
 6791 1b0b 91       		.byte	0x91
 6792 1b0c 8076     		.sleb128 -1280
 6793 1b0e 38       		.uleb128 0x38
 6794 1b0f 737A00   		.ascii	"sz\000"
 6795 1b12 01       		.byte	0x1
 6796 1b13 0801     		.2byte	0x108
 6797 1b15 33000000 		.4byte	0x33
 6798 1b19 FF0E0000 		.4byte	.LLST88
 6799 1b1d 38       		.uleb128 0x38
 6800 1b1e 72657300 		.ascii	"res\000"
 6801 1b22 01       		.byte	0x1
 6802 1b23 0801     		.2byte	0x108
 6803 1b25 0F040000 		.4byte	0x40f
 6804 1b29 2B0F0000 		.4byte	.LLST89
 6805 1b2d 2A       		.uleb128 0x2a
 6806 1b2e 90040000 		.4byte	.Ldebug_ranges0+0x490
 6807 1b32 831B0000 		.4byte	0x1b83
 6808 1b36 33       		.uleb128 0x33
 6809 1b37 73747200 		.ascii	"str\000"
ARM GAS  C:\Users\honet\AppData\Local\Temp\cc6gsi1c.s 			page 136


 6810 1b3b 01       		.byte	0x1
 6811 1b3c 0801     		.2byte	0x108
 6812 1b3e D4050000 		.4byte	0x5d4
 6813 1b42 03       		.uleb128 0x3
 6814 1b43 91       		.byte	0x91
 6815 1b44 8076     		.sleb128 -1280
 6816 1b46 27       		.uleb128 0x27
 6817 1b47 86050000 		.4byte	.LVL178
 6818 1b4b E02C0000 		.4byte	0x2ce0
 6819 1b4f 691B0000 		.4byte	0x1b69
 6820 1b53 22       		.uleb128 0x22
 6821 1b54 01       		.uleb128 0x1
 6822 1b55 52       		.byte	0x52
 6823 1b56 02       		.uleb128 0x2
 6824 1b57 78       		.byte	0x78
 6825 1b58 00       		.sleb128 0
 6826 1b59 22       		.uleb128 0x22
 6827 1b5a 01       		.uleb128 0x1
 6828 1b5b 51       		.byte	0x51
 6829 1b5c 05       		.uleb128 0x5
 6830 1b5d 03       		.byte	0x3
 6831 1b5e F8020000 		.4byte	.LC47
 6832 1b62 22       		.uleb128 0x22
 6833 1b63 01       		.uleb128 0x1
 6834 1b64 50       		.byte	0x50
 6835 1b65 02       		.uleb128 0x2
 6836 1b66 76       		.byte	0x76
 6837 1b67 00       		.sleb128 0
 6838 1b68 00       		.byte	0
 6839 1b69 28       		.uleb128 0x28
 6840 1b6a 8A050000 		.4byte	.LVL179
 6841 1b6e FB2C0000 		.4byte	0x2cfb
 6842 1b72 29       		.uleb128 0x29
 6843 1b73 94050000 		.4byte	.LVL180
 6844 1b77 062D0000 		.4byte	0x2d06
 6845 1b7b 22       		.uleb128 0x22
 6846 1b7c 01       		.uleb128 0x1
 6847 1b7d 50       		.byte	0x50
 6848 1b7e 02       		.uleb128 0x2
 6849 1b7f 76       		.byte	0x76
 6850 1b80 00       		.sleb128 0
 6851 1b81 00       		.byte	0
 6852 1b82 00       		.byte	0
 6853 1b83 36       		.uleb128 0x36
 6854 1b84 2E040000 		.4byte	0x42e
 6855 1b88 A0050000 		.4byte	.LBB300
 6856 1b8c A8040000 		.4byte	.Ldebug_ranges0+0x4a8
 6857 1b90 01       		.byte	0x1
 6858 1b91 0801     		.2byte	0x108
 6859 1b93 BD1B0000 		.4byte	0x1bbd
 6860 1b97 24       		.uleb128 0x24
 6861 1b98 45040000 		.4byte	0x445
 6862 1b9c 2B0F0000 		.4byte	.LLST89
 6863 1ba0 24       		.uleb128 0x24
 6864 1ba1 3A040000 		.4byte	0x43a
 6865 1ba5 490F0000 		.4byte	.LLST91
 6866 1ba9 29       		.uleb128 0x29
ARM GAS  C:\Users\honet\AppData\Local\Temp\cc6gsi1c.s 			page 137


 6867 1baa 4C070000 		.4byte	.LVL247
 6868 1bae 7B060000 		.4byte	0x67b
 6869 1bb2 22       		.uleb128 0x22
 6870 1bb3 01       		.uleb128 0x1
 6871 1bb4 50       		.byte	0x50
 6872 1bb5 05       		.uleb128 0x5
 6873 1bb6 03       		.byte	0x3
 6874 1bb7 64020000 		.4byte	.LC39
 6875 1bbb 00       		.byte	0
 6876 1bbc 00       		.byte	0
 6877 1bbd 29       		.uleb128 0x29
 6878 1bbe A0050000 		.4byte	.LVL181
 6879 1bc2 222D0000 		.4byte	0x2d22
 6880 1bc6 22       		.uleb128 0x22
 6881 1bc7 01       		.uleb128 0x1
 6882 1bc8 53       		.byte	0x53
 6883 1bc9 02       		.uleb128 0x2
 6884 1bca 76       		.byte	0x76
 6885 1bcb 00       		.sleb128 0
 6886 1bcc 22       		.uleb128 0x22
 6887 1bcd 01       		.uleb128 0x1
 6888 1bce 52       		.byte	0x52
 6889 1bcf 01       		.uleb128 0x1
 6890 1bd0 48       		.byte	0x48
 6891 1bd1 22       		.uleb128 0x22
 6892 1bd2 01       		.uleb128 0x1
 6893 1bd3 51       		.byte	0x51
 6894 1bd4 05       		.uleb128 0x5
 6895 1bd5 03       		.byte	0x3
 6896 1bd6 F8020000 		.4byte	.LC47
 6897 1bda 22       		.uleb128 0x22
 6898 1bdb 01       		.uleb128 0x1
 6899 1bdc 50       		.byte	0x50
 6900 1bdd 05       		.uleb128 0x5
 6901 1bde 03       		.byte	0x3
 6902 1bdf 00000000 		.4byte	File
 6903 1be3 00       		.byte	0
 6904 1be4 00       		.byte	0
 6905 1be5 2A       		.uleb128 0x2a
 6906 1be6 C0040000 		.4byte	.Ldebug_ranges0+0x4c0
 6907 1bea FD1B0000 		.4byte	0x1bfd
 6908 1bee 38       		.uleb128 0x38
 6909 1bef 6900     		.ascii	"i\000"
 6910 1bf1 01       		.byte	0x1
 6911 1bf2 0B01     		.2byte	0x10b
 6912 1bf4 2C000000 		.4byte	0x2c
 6913 1bf8 810F0000 		.4byte	.LLST92
 6914 1bfc 00       		.byte	0
 6915 1bfd 25       		.uleb128 0x25
 6916 1bfe 60060000 		.4byte	.LBB308
 6917 1c02 28000000 		.4byte	.LBE308-.LBB308
 6918 1c06 BF1C0000 		.4byte	0x1cbf
 6919 1c0a 37       		.uleb128 0x37
 6920 1c0b E0000000 		.4byte	.LASF91
 6921 1c0f 01       		.byte	0x1
 6922 1c10 1001     		.2byte	0x110
 6923 1c12 67010000 		.4byte	0x167
ARM GAS  C:\Users\honet\AppData\Local\Temp\cc6gsi1c.s 			page 138


 6924 1c16 03       		.uleb128 0x3
 6925 1c17 91       		.byte	0x91
 6926 1c18 8076     		.sleb128 -1280
 6927 1c1a 38       		.uleb128 0x38
 6928 1c1b 737A00   		.ascii	"sz\000"
 6929 1c1e 01       		.byte	0x1
 6930 1c1f 1001     		.2byte	0x110
 6931 1c21 33000000 		.4byte	0x33
 6932 1c25 B60F0000 		.4byte	.LLST93
 6933 1c29 38       		.uleb128 0x38
 6934 1c2a 72657300 		.ascii	"res\000"
 6935 1c2e 01       		.byte	0x1
 6936 1c2f 1001     		.2byte	0x110
 6937 1c31 0F040000 		.4byte	0x40f
 6938 1c35 CA0F0000 		.4byte	.LLST94
 6939 1c39 25       		.uleb128 0x25
 6940 1c3a 60060000 		.4byte	.LBB309
 6941 1c3e 18000000 		.4byte	.LBE309-.LBB309
 6942 1c42 701C0000 		.4byte	0x1c70
 6943 1c46 33       		.uleb128 0x33
 6944 1c47 73747200 		.ascii	"str\000"
 6945 1c4b 01       		.byte	0x1
 6946 1c4c 1001     		.2byte	0x110
 6947 1c4e D4050000 		.4byte	0x5d4
 6948 1c52 03       		.uleb128 0x3
 6949 1c53 91       		.byte	0x91
 6950 1c54 8076     		.sleb128 -1280
 6951 1c56 28       		.uleb128 0x28
 6952 1c57 6E060000 		.4byte	.LVL209
 6953 1c5b FB2C0000 		.4byte	0x2cfb
 6954 1c5f 29       		.uleb128 0x29
 6955 1c60 78060000 		.4byte	.LVL210
 6956 1c64 062D0000 		.4byte	0x2d06
 6957 1c68 22       		.uleb128 0x22
 6958 1c69 01       		.uleb128 0x1
 6959 1c6a 50       		.byte	0x50
 6960 1c6b 02       		.uleb128 0x2
 6961 1c6c 76       		.byte	0x76
 6962 1c6d 00       		.sleb128 0
 6963 1c6e 00       		.byte	0
 6964 1c6f 00       		.byte	0
 6965 1c70 39       		.uleb128 0x39
 6966 1c71 2E040000 		.4byte	0x42e
 6967 1c75 84060000 		.4byte	.LBB310
 6968 1c79 04000000 		.4byte	.LBE310-.LBB310
 6969 1c7d 01       		.byte	0x1
 6970 1c7e 1001     		.2byte	0x110
 6971 1c80 971C0000 		.4byte	0x1c97
 6972 1c84 24       		.uleb128 0x24
 6973 1c85 45040000 		.4byte	0x445
 6974 1c89 CA0F0000 		.4byte	.LLST94
 6975 1c8d 24       		.uleb128 0x24
 6976 1c8e 3A040000 		.4byte	0x43a
 6977 1c92 DD0F0000 		.4byte	.LLST96
 6978 1c96 00       		.byte	0
 6979 1c97 29       		.uleb128 0x29
 6980 1c98 84060000 		.4byte	.LVL211
ARM GAS  C:\Users\honet\AppData\Local\Temp\cc6gsi1c.s 			page 139


 6981 1c9c 222D0000 		.4byte	0x2d22
 6982 1ca0 22       		.uleb128 0x22
 6983 1ca1 01       		.uleb128 0x1
 6984 1ca2 53       		.byte	0x53
 6985 1ca3 02       		.uleb128 0x2
 6986 1ca4 76       		.byte	0x76
 6987 1ca5 00       		.sleb128 0
 6988 1ca6 22       		.uleb128 0x22
 6989 1ca7 01       		.uleb128 0x1
 6990 1ca8 52       		.byte	0x52
 6991 1ca9 01       		.uleb128 0x1
 6992 1caa 38       		.byte	0x38
 6993 1cab 22       		.uleb128 0x22
 6994 1cac 01       		.uleb128 0x1
 6995 1cad 51       		.byte	0x51
 6996 1cae 05       		.uleb128 0x5
 6997 1caf 03       		.byte	0x3
 6998 1cb0 14030000 		.4byte	.LC48
 6999 1cb4 22       		.uleb128 0x22
 7000 1cb5 01       		.uleb128 0x1
 7001 1cb6 50       		.byte	0x50
 7002 1cb7 05       		.uleb128 0x5
 7003 1cb8 03       		.byte	0x3
 7004 1cb9 00000000 		.4byte	File
 7005 1cbd 00       		.byte	0
 7006 1cbe 00       		.byte	0
 7007 1cbf 2A       		.uleb128 0x2a
 7008 1cc0 D8040000 		.4byte	.Ldebug_ranges0+0x4d8
 7009 1cc4 BD1D0000 		.4byte	0x1dbd
 7010 1cc8 37       		.uleb128 0x37
 7011 1cc9 E0000000 		.4byte	.LASF91
 7012 1ccd 01       		.byte	0x1
 7013 1cce 1501     		.2byte	0x115
 7014 1cd0 67010000 		.4byte	0x167
 7015 1cd4 03       		.uleb128 0x3
 7016 1cd5 91       		.byte	0x91
 7017 1cd6 8076     		.sleb128 -1280
 7018 1cd8 38       		.uleb128 0x38
 7019 1cd9 737A00   		.ascii	"sz\000"
 7020 1cdc 01       		.byte	0x1
 7021 1cdd 1501     		.2byte	0x115
 7022 1cdf 33000000 		.4byte	0x33
 7023 1ce3 F50F0000 		.4byte	.LLST97
 7024 1ce7 38       		.uleb128 0x38
 7025 1ce8 72657300 		.ascii	"res\000"
 7026 1cec 01       		.byte	0x1
 7027 1ced 1501     		.2byte	0x115
 7028 1cef 0F040000 		.4byte	0x40f
 7029 1cf3 15100000 		.4byte	.LLST98
 7030 1cf7 25       		.uleb128 0x25
 7031 1cf8 8C060000 		.4byte	.LBB313
 7032 1cfc 1A000000 		.4byte	.LBE313-.LBB313
 7033 1d00 5B1D0000 		.4byte	0x1d5b
 7034 1d04 33       		.uleb128 0x33
 7035 1d05 73747200 		.ascii	"str\000"
 7036 1d09 01       		.byte	0x1
 7037 1d0a 1501     		.2byte	0x115
ARM GAS  C:\Users\honet\AppData\Local\Temp\cc6gsi1c.s 			page 140


 7038 1d0c D4050000 		.4byte	0x5d4
 7039 1d10 03       		.uleb128 0x3
 7040 1d11 91       		.byte	0x91
 7041 1d12 8076     		.sleb128 -1280
 7042 1d14 27       		.uleb128 0x27
 7043 1d15 98060000 		.4byte	.LVL214
 7044 1d19 E02C0000 		.4byte	0x2ce0
 7045 1d1d 411D0000 		.4byte	0x1d41
 7046 1d21 22       		.uleb128 0x22
 7047 1d22 01       		.uleb128 0x1
 7048 1d23 52       		.byte	0x52
 7049 1d24 0C       		.uleb128 0xc
 7050 1d25 40       		.byte	0x40
 7051 1d26 3E       		.byte	0x3e
 7052 1d27 24       		.byte	0x24
 7053 1d28 F7       		.byte	0xf7
 7054 1d29 25       		.uleb128 0x25
 7055 1d2a 78       		.byte	0x78
 7056 1d2b 00       		.sleb128 0
 7057 1d2c F7       		.byte	0xf7
 7058 1d2d 25       		.uleb128 0x25
 7059 1d2e 1B       		.byte	0x1b
 7060 1d2f F7       		.byte	0xf7
 7061 1d30 00       		.uleb128 0
 7062 1d31 22       		.uleb128 0x22
 7063 1d32 01       		.uleb128 0x1
 7064 1d33 51       		.byte	0x51
 7065 1d34 05       		.uleb128 0x5
 7066 1d35 03       		.byte	0x3
 7067 1d36 B8020000 		.4byte	.LC44
 7068 1d3a 22       		.uleb128 0x22
 7069 1d3b 01       		.uleb128 0x1
 7070 1d3c 50       		.byte	0x50
 7071 1d3d 02       		.uleb128 0x2
 7072 1d3e 76       		.byte	0x76
 7073 1d3f 00       		.sleb128 0
 7074 1d40 00       		.byte	0
 7075 1d41 28       		.uleb128 0x28
 7076 1d42 9C060000 		.4byte	.LVL215
 7077 1d46 FB2C0000 		.4byte	0x2cfb
 7078 1d4a 29       		.uleb128 0x29
 7079 1d4b A6060000 		.4byte	.LVL216
 7080 1d4f 062D0000 		.4byte	0x2d06
 7081 1d53 22       		.uleb128 0x22
 7082 1d54 01       		.uleb128 0x1
 7083 1d55 50       		.byte	0x50
 7084 1d56 02       		.uleb128 0x2
 7085 1d57 76       		.byte	0x76
 7086 1d58 00       		.sleb128 0
 7087 1d59 00       		.byte	0
 7088 1d5a 00       		.byte	0
 7089 1d5b 36       		.uleb128 0x36
 7090 1d5c 2E040000 		.4byte	0x42e
 7091 1d60 B2060000 		.4byte	.LBB314
 7092 1d64 F0040000 		.4byte	.Ldebug_ranges0+0x4f0
 7093 1d68 01       		.byte	0x1
 7094 1d69 1501     		.2byte	0x115
ARM GAS  C:\Users\honet\AppData\Local\Temp\cc6gsi1c.s 			page 141


 7095 1d6b 951D0000 		.4byte	0x1d95
 7096 1d6f 24       		.uleb128 0x24
 7097 1d70 45040000 		.4byte	0x445
 7098 1d74 15100000 		.4byte	.LLST98
 7099 1d78 24       		.uleb128 0x24
 7100 1d79 3A040000 		.4byte	0x43a
 7101 1d7d 33100000 		.4byte	.LLST100
 7102 1d81 29       		.uleb128 0x29
 7103 1d82 1A070000 		.4byte	.LVL232
 7104 1d86 7B060000 		.4byte	0x67b
 7105 1d8a 22       		.uleb128 0x22
 7106 1d8b 01       		.uleb128 0x1
 7107 1d8c 50       		.byte	0x50
 7108 1d8d 05       		.uleb128 0x5
 7109 1d8e 03       		.byte	0x3
 7110 1d8f 64020000 		.4byte	.LC39
 7111 1d93 00       		.byte	0
 7112 1d94 00       		.byte	0
 7113 1d95 29       		.uleb128 0x29
 7114 1d96 B2060000 		.4byte	.LVL217
 7115 1d9a 222D0000 		.4byte	0x2d22
 7116 1d9e 22       		.uleb128 0x22
 7117 1d9f 01       		.uleb128 0x1
 7118 1da0 53       		.byte	0x53
 7119 1da1 02       		.uleb128 0x2
 7120 1da2 76       		.byte	0x76
 7121 1da3 00       		.sleb128 0
 7122 1da4 22       		.uleb128 0x22
 7123 1da5 01       		.uleb128 0x1
 7124 1da6 52       		.byte	0x52
 7125 1da7 01       		.uleb128 0x1
 7126 1da8 3F       		.byte	0x3f
 7127 1da9 22       		.uleb128 0x22
 7128 1daa 01       		.uleb128 0x1
 7129 1dab 51       		.byte	0x51
 7130 1dac 05       		.uleb128 0x5
 7131 1dad 03       		.byte	0x3
 7132 1dae B8020000 		.4byte	.LC44
 7133 1db2 22       		.uleb128 0x22
 7134 1db3 01       		.uleb128 0x1
 7135 1db4 50       		.byte	0x50
 7136 1db5 05       		.uleb128 0x5
 7137 1db6 03       		.byte	0x3
 7138 1db7 00000000 		.4byte	File
 7139 1dbb 00       		.byte	0
 7140 1dbc 00       		.byte	0
 7141 1dbd 25       		.uleb128 0x25
 7142 1dbe DA060000 		.4byte	.LBB318
 7143 1dc2 38000000 		.4byte	.LBE318-.LBB318
 7144 1dc6 921E0000 		.4byte	0x1e92
 7145 1dca 37       		.uleb128 0x37
 7146 1dcb E0000000 		.4byte	.LASF91
 7147 1dcf 01       		.byte	0x1
 7148 1dd0 1201     		.2byte	0x112
 7149 1dd2 67010000 		.4byte	0x167
 7150 1dd6 03       		.uleb128 0x3
 7151 1dd7 91       		.byte	0x91
ARM GAS  C:\Users\honet\AppData\Local\Temp\cc6gsi1c.s 			page 142


 7152 1dd8 8076     		.sleb128 -1280
 7153 1dda 38       		.uleb128 0x38
 7154 1ddb 737A00   		.ascii	"sz\000"
 7155 1dde 01       		.byte	0x1
 7156 1ddf 1201     		.2byte	0x112
 7157 1de1 33000000 		.4byte	0x33
 7158 1de5 5B100000 		.4byte	.LLST101
 7159 1de9 38       		.uleb128 0x38
 7160 1dea 72657300 		.ascii	"res\000"
 7161 1dee 01       		.byte	0x1
 7162 1def 1201     		.2byte	0x112
 7163 1df1 0F040000 		.4byte	0x40f
 7164 1df5 6F100000 		.4byte	.LLST102
 7165 1df9 25       		.uleb128 0x25
 7166 1dfa DA060000 		.4byte	.LBB319
 7167 1dfe 1E000000 		.4byte	.LBE319-.LBB319
 7168 1e02 301E0000 		.4byte	0x1e30
 7169 1e06 33       		.uleb128 0x33
 7170 1e07 73747200 		.ascii	"str\000"
 7171 1e0b 01       		.byte	0x1
 7172 1e0c 1201     		.2byte	0x112
 7173 1e0e D4050000 		.4byte	0x5d4
 7174 1e12 03       		.uleb128 0x3
 7175 1e13 91       		.byte	0x91
 7176 1e14 8076     		.sleb128 -1280
 7177 1e16 28       		.uleb128 0x28
 7178 1e17 EE060000 		.4byte	.LVL225
 7179 1e1b FB2C0000 		.4byte	0x2cfb
 7180 1e1f 29       		.uleb128 0x29
 7181 1e20 F8060000 		.4byte	.LVL226
 7182 1e24 062D0000 		.4byte	0x2d06
 7183 1e28 22       		.uleb128 0x22
 7184 1e29 01       		.uleb128 0x1
 7185 1e2a 50       		.byte	0x50
 7186 1e2b 02       		.uleb128 0x2
 7187 1e2c 76       		.byte	0x76
 7188 1e2d 00       		.sleb128 0
 7189 1e2e 00       		.byte	0
 7190 1e2f 00       		.byte	0
 7191 1e30 39       		.uleb128 0x39
 7192 1e31 2E040000 		.4byte	0x42e
 7193 1e35 04070000 		.4byte	.LBB320
 7194 1e39 0E000000 		.4byte	.LBE320-.LBB320
 7195 1e3d 01       		.byte	0x1
 7196 1e3e 1201     		.2byte	0x112
 7197 1e40 6A1E0000 		.4byte	0x1e6a
 7198 1e44 24       		.uleb128 0x24
 7199 1e45 45040000 		.4byte	0x445
 7200 1e49 6F100000 		.4byte	.LLST102
 7201 1e4d 24       		.uleb128 0x24
 7202 1e4e 3A040000 		.4byte	0x43a
 7203 1e52 82100000 		.4byte	.LLST104
 7204 1e56 29       		.uleb128 0x29
 7205 1e57 10070000 		.4byte	.LVL229
 7206 1e5b 7B060000 		.4byte	0x67b
 7207 1e5f 22       		.uleb128 0x22
 7208 1e60 01       		.uleb128 0x1
ARM GAS  C:\Users\honet\AppData\Local\Temp\cc6gsi1c.s 			page 143


 7209 1e61 50       		.byte	0x50
 7210 1e62 05       		.uleb128 0x5
 7211 1e63 03       		.byte	0x3
 7212 1e64 64020000 		.4byte	.LC39
 7213 1e68 00       		.byte	0
 7214 1e69 00       		.byte	0
 7215 1e6a 29       		.uleb128 0x29
 7216 1e6b 04070000 		.4byte	.LVL227
 7217 1e6f 222D0000 		.4byte	0x2d22
 7218 1e73 22       		.uleb128 0x22
 7219 1e74 01       		.uleb128 0x1
 7220 1e75 53       		.byte	0x53
 7221 1e76 02       		.uleb128 0x2
 7222 1e77 76       		.byte	0x76
 7223 1e78 00       		.sleb128 0
 7224 1e79 22       		.uleb128 0x22
 7225 1e7a 01       		.uleb128 0x1
 7226 1e7b 52       		.byte	0x52
 7227 1e7c 01       		.uleb128 0x1
 7228 1e7d 3E       		.byte	0x3e
 7229 1e7e 22       		.uleb128 0x22
 7230 1e7f 01       		.uleb128 0x1
 7231 1e80 51       		.byte	0x51
 7232 1e81 05       		.uleb128 0x5
 7233 1e82 03       		.byte	0x3
 7234 1e83 20030000 		.4byte	.LC49
 7235 1e87 22       		.uleb128 0x22
 7236 1e88 01       		.uleb128 0x1
 7237 1e89 50       		.byte	0x50
 7238 1e8a 05       		.uleb128 0x5
 7239 1e8b 03       		.byte	0x3
 7240 1e8c 00000000 		.4byte	File
 7241 1e90 00       		.byte	0
 7242 1e91 00       		.byte	0
 7243 1e92 27       		.uleb128 0x27
 7244 1e93 82040000 		.4byte	.LVL146
 7245 1e97 532D0000 		.4byte	0x2d53
 7246 1e9b B41E0000 		.4byte	0x1eb4
 7247 1e9f 22       		.uleb128 0x22
 7248 1ea0 01       		.uleb128 0x1
 7249 1ea1 52       		.byte	0x52
 7250 1ea2 01       		.uleb128 0x1
 7251 1ea3 3A       		.byte	0x3a
 7252 1ea4 22       		.uleb128 0x22
 7253 1ea5 01       		.uleb128 0x1
 7254 1ea6 51       		.byte	0x51
 7255 1ea7 05       		.uleb128 0x5
 7256 1ea8 03       		.byte	0x3
 7257 1ea9 6C030000 		.4byte	.LC52
 7258 1ead 22       		.uleb128 0x22
 7259 1eae 01       		.uleb128 0x1
 7260 1eaf 50       		.byte	0x50
 7261 1eb0 02       		.uleb128 0x2
 7262 1eb1 77       		.byte	0x77
 7263 1eb2 00       		.sleb128 0
 7264 1eb3 00       		.byte	0
 7265 1eb4 27       		.uleb128 0x27
ARM GAS  C:\Users\honet\AppData\Local\Temp\cc6gsi1c.s 			page 144


 7266 1eb5 96040000 		.4byte	.LVL148
 7267 1eb9 222D0000 		.4byte	0x2d22
 7268 1ebd DE1E0000 		.4byte	0x1ede
 7269 1ec1 22       		.uleb128 0x22
 7270 1ec2 01       		.uleb128 0x1
 7271 1ec3 53       		.byte	0x53
 7272 1ec4 02       		.uleb128 0x2
 7273 1ec5 7D       		.byte	0x7d
 7274 1ec6 00       		.sleb128 0
 7275 1ec7 22       		.uleb128 0x22
 7276 1ec8 01       		.uleb128 0x1
 7277 1ec9 52       		.byte	0x52
 7278 1eca 03       		.uleb128 0x3
 7279 1ecb 0A       		.byte	0xa
 7280 1ecc 0080     		.2byte	0x8000
 7281 1ece 22       		.uleb128 0x22
 7282 1ecf 01       		.uleb128 0x1
 7283 1ed0 51       		.byte	0x51
 7284 1ed1 05       		.uleb128 0x5
 7285 1ed2 03       		.byte	0x3
 7286 1ed3 00000000 		.4byte	buffer
 7287 1ed7 22       		.uleb128 0x22
 7288 1ed8 01       		.uleb128 0x1
 7289 1ed9 50       		.byte	0x50
 7290 1eda 02       		.uleb128 0x2
 7291 1edb 77       		.byte	0x77
 7292 1edc 00       		.sleb128 0
 7293 1edd 00       		.byte	0
 7294 1ede 27       		.uleb128 0x27
 7295 1edf A2040000 		.4byte	.LVL150
 7296 1ee3 7E2D0000 		.4byte	0x2d7e
 7297 1ee7 F21E0000 		.4byte	0x1ef2
 7298 1eeb 22       		.uleb128 0x22
 7299 1eec 01       		.uleb128 0x1
 7300 1eed 50       		.byte	0x50
 7301 1eee 02       		.uleb128 0x2
 7302 1eef 77       		.byte	0x77
 7303 1ef0 00       		.sleb128 0
 7304 1ef1 00       		.byte	0
 7305 1ef2 27       		.uleb128 0x27
 7306 1ef3 40050000 		.4byte	.LVL169
 7307 1ef7 942D0000 		.4byte	0x2d94
 7308 1efb 151F0000 		.4byte	0x1f15
 7309 1eff 22       		.uleb128 0x22
 7310 1f00 01       		.uleb128 0x1
 7311 1f01 52       		.byte	0x52
 7312 1f02 03       		.uleb128 0x3
 7313 1f03 0A       		.byte	0xa
 7314 1f04 0080     		.2byte	0x8000
 7315 1f06 22       		.uleb128 0x22
 7316 1f07 01       		.uleb128 0x1
 7317 1f08 51       		.byte	0x51
 7318 1f09 01       		.uleb128 0x1
 7319 1f0a 30       		.byte	0x30
 7320 1f0b 22       		.uleb128 0x22
 7321 1f0c 01       		.uleb128 0x1
 7322 1f0d 50       		.byte	0x50
ARM GAS  C:\Users\honet\AppData\Local\Temp\cc6gsi1c.s 			page 145


 7323 1f0e 05       		.uleb128 0x5
 7324 1f0f 03       		.byte	0x3
 7325 1f10 00000000 		.4byte	buffer
 7326 1f14 00       		.byte	0
 7327 1f15 27       		.uleb128 0x27
 7328 1f16 4E050000 		.4byte	.LVL171
 7329 1f1a 532D0000 		.4byte	0x2d53
 7330 1f1e 371F0000 		.4byte	0x1f37
 7331 1f22 22       		.uleb128 0x22
 7332 1f23 01       		.uleb128 0x1
 7333 1f24 52       		.byte	0x52
 7334 1f25 01       		.uleb128 0x1
 7335 1f26 31       		.byte	0x31
 7336 1f27 22       		.uleb128 0x22
 7337 1f28 01       		.uleb128 0x1
 7338 1f29 51       		.byte	0x51
 7339 1f2a 05       		.uleb128 0x5
 7340 1f2b 03       		.byte	0x3
 7341 1f2c 6C030000 		.4byte	.LC52
 7342 1f30 22       		.uleb128 0x22
 7343 1f31 01       		.uleb128 0x1
 7344 1f32 50       		.byte	0x50
 7345 1f33 02       		.uleb128 0x2
 7346 1f34 77       		.byte	0x77
 7347 1f35 00       		.sleb128 0
 7348 1f36 00       		.byte	0
 7349 1f37 27       		.uleb128 0x27
 7350 1f38 62050000 		.4byte	.LVL173
 7351 1f3c B12D0000 		.4byte	0x2db1
 7352 1f40 621F0000 		.4byte	0x1f62
 7353 1f44 22       		.uleb128 0x22
 7354 1f45 01       		.uleb128 0x1
 7355 1f46 53       		.byte	0x53
 7356 1f47 03       		.uleb128 0x3
 7357 1f48 91       		.byte	0x91
 7358 1f49 FC75     		.sleb128 -1284
 7359 1f4b 22       		.uleb128 0x22
 7360 1f4c 01       		.uleb128 0x1
 7361 1f4d 52       		.byte	0x52
 7362 1f4e 03       		.uleb128 0x3
 7363 1f4f 0A       		.byte	0xa
 7364 1f50 0080     		.2byte	0x8000
 7365 1f52 22       		.uleb128 0x22
 7366 1f53 01       		.uleb128 0x1
 7367 1f54 51       		.byte	0x51
 7368 1f55 05       		.uleb128 0x5
 7369 1f56 03       		.byte	0x3
 7370 1f57 00000000 		.4byte	buffer
 7371 1f5b 22       		.uleb128 0x22
 7372 1f5c 01       		.uleb128 0x1
 7373 1f5d 50       		.byte	0x50
 7374 1f5e 02       		.uleb128 0x2
 7375 1f5f 77       		.byte	0x77
 7376 1f60 00       		.sleb128 0
 7377 1f61 00       		.byte	0
 7378 1f62 27       		.uleb128 0x27
 7379 1f63 6E050000 		.4byte	.LVL175
ARM GAS  C:\Users\honet\AppData\Local\Temp\cc6gsi1c.s 			page 146


 7380 1f67 7E2D0000 		.4byte	0x2d7e
 7381 1f6b 761F0000 		.4byte	0x1f76
 7382 1f6f 22       		.uleb128 0x22
 7383 1f70 01       		.uleb128 0x1
 7384 1f71 50       		.byte	0x50
 7385 1f72 02       		.uleb128 0x2
 7386 1f73 77       		.byte	0x77
 7387 1f74 00       		.sleb128 0
 7388 1f75 00       		.byte	0
 7389 1f76 29       		.uleb128 0x29
 7390 1f77 BC060000 		.4byte	.LVL219
 7391 1f7b D62D0000 		.4byte	0x2dd6
 7392 1f7f 22       		.uleb128 0x22
 7393 1f80 01       		.uleb128 0x1
 7394 1f81 50       		.byte	0x50
 7395 1f82 03       		.uleb128 0x3
 7396 1f83 0A       		.byte	0xa
 7397 1f84 E803     		.2byte	0x3e8
 7398 1f86 00       		.byte	0
 7399 1f87 00       		.byte	0
 7400 1f88 25       		.uleb128 0x25
 7401 1f89 E6050000 		.4byte	.LBB335
 7402 1f8d 1C000000 		.4byte	.LBE335-.LBB335
 7403 1f91 BE1F0000 		.4byte	0x1fbe
 7404 1f95 32       		.uleb128 0x32
 7405 1f96 73747200 		.ascii	"str\000"
 7406 1f9a 01       		.byte	0x1
 7407 1f9b 78       		.byte	0x78
 7408 1f9c D4050000 		.4byte	0x5d4
 7409 1fa0 03       		.uleb128 0x3
 7410 1fa1 91       		.byte	0x91
 7411 1fa2 8077     		.sleb128 -1152
 7412 1fa4 28       		.uleb128 0x28
 7413 1fa5 F6050000 		.4byte	.LVL193
 7414 1fa9 FB2C0000 		.4byte	0x2cfb
 7415 1fad 29       		.uleb128 0x29
 7416 1fae 00060000 		.4byte	.LVL194
 7417 1fb2 062D0000 		.4byte	0x2d06
 7418 1fb6 22       		.uleb128 0x22
 7419 1fb7 01       		.uleb128 0x1
 7420 1fb8 50       		.byte	0x50
 7421 1fb9 02       		.uleb128 0x2
 7422 1fba 77       		.byte	0x77
 7423 1fbb 00       		.sleb128 0
 7424 1fbc 00       		.byte	0
 7425 1fbd 00       		.byte	0
 7426 1fbe 25       		.uleb128 0x25
 7427 1fbf 04060000 		.4byte	.LBB336
 7428 1fc3 14000000 		.4byte	.LBE336-.LBB336
 7429 1fc7 E41F0000 		.4byte	0x1fe4
 7430 1fcb 32       		.uleb128 0x32
 7431 1fcc 73747200 		.ascii	"str\000"
 7432 1fd0 01       		.byte	0x1
 7433 1fd1 76       		.byte	0x76
 7434 1fd2 D4050000 		.4byte	0x5d4
 7435 1fd6 03       		.uleb128 0x3
 7436 1fd7 91       		.byte	0x91
ARM GAS  C:\Users\honet\AppData\Local\Temp\cc6gsi1c.s 			page 147


 7437 1fd8 8077     		.sleb128 -1152
 7438 1fda 28       		.uleb128 0x28
 7439 1fdb 12060000 		.4byte	.LVL195
 7440 1fdf FB2C0000 		.4byte	0x2cfb
 7441 1fe3 00       		.byte	0
 7442 1fe4 25       		.uleb128 0x25
 7443 1fe5 18060000 		.4byte	.LBB337
 7444 1fe9 16000000 		.4byte	.LBE337-.LBB337
 7445 1fed 0A200000 		.4byte	0x200a
 7446 1ff1 32       		.uleb128 0x32
 7447 1ff2 73747200 		.ascii	"str\000"
 7448 1ff6 01       		.byte	0x1
 7449 1ff7 75       		.byte	0x75
 7450 1ff8 D4050000 		.4byte	0x5d4
 7451 1ffc 03       		.uleb128 0x3
 7452 1ffd 91       		.byte	0x91
 7453 1ffe 8077     		.sleb128 -1152
 7454 2000 28       		.uleb128 0x28
 7455 2001 28060000 		.4byte	.LVL196
 7456 2005 FB2C0000 		.4byte	0x2cfb
 7457 2009 00       		.byte	0
 7458 200a 25       		.uleb128 0x25
 7459 200b 2E060000 		.4byte	.LBB338
 7460 200f 14000000 		.4byte	.LBE338-.LBB338
 7461 2013 30200000 		.4byte	0x2030
 7462 2017 32       		.uleb128 0x32
 7463 2018 73747200 		.ascii	"str\000"
 7464 201c 01       		.byte	0x1
 7465 201d 77       		.byte	0x77
 7466 201e D4050000 		.4byte	0x5d4
 7467 2022 03       		.uleb128 0x3
 7468 2023 91       		.byte	0x91
 7469 2024 8077     		.sleb128 -1152
 7470 2026 28       		.uleb128 0x28
 7471 2027 3C060000 		.4byte	.LVL197
 7472 202b FB2C0000 		.4byte	0x2cfb
 7473 202f 00       		.byte	0
 7474 2030 39       		.uleb128 0x39
 7475 2031 2E040000 		.4byte	0x42e
 7476 2035 CA060000 		.4byte	.LBB343
 7477 2039 10000000 		.4byte	.LBE343-.LBB343
 7478 203d 01       		.byte	0x1
 7479 203e 1B01     		.2byte	0x11b
 7480 2040 6A200000 		.4byte	0x206a
 7481 2044 24       		.uleb128 0x24
 7482 2045 45040000 		.4byte	0x445
 7483 2049 9A100000 		.4byte	.LLST105
 7484 204d 24       		.uleb128 0x24
 7485 204e 3A040000 		.4byte	0x43a
 7486 2052 AD100000 		.4byte	.LLST106
 7487 2056 29       		.uleb128 0x29
 7488 2057 D8060000 		.4byte	.LVL222
 7489 205b 7B060000 		.4byte	0x67b
 7490 205f 22       		.uleb128 0x22
 7491 2060 01       		.uleb128 0x1
 7492 2061 50       		.byte	0x50
 7493 2062 05       		.uleb128 0x5
ARM GAS  C:\Users\honet\AppData\Local\Temp\cc6gsi1c.s 			page 148


 7494 2063 03       		.byte	0x3
 7495 2064 A0020000 		.4byte	.LC42
 7496 2068 00       		.byte	0
 7497 2069 00       		.byte	0
 7498 206a 25       		.uleb128 0x25
 7499 206b D0070000 		.4byte	.LBB346
 7500 206f 1C000000 		.4byte	.LBE346-.LBB346
 7501 2073 90200000 		.4byte	0x2090
 7502 2077 32       		.uleb128 0x32
 7503 2078 73747200 		.ascii	"str\000"
 7504 207c 01       		.byte	0x1
 7505 207d 80       		.byte	0x80
 7506 207e D4050000 		.4byte	0x5d4
 7507 2082 03       		.uleb128 0x3
 7508 2083 91       		.byte	0x91
 7509 2084 8077     		.sleb128 -1152
 7510 2086 28       		.uleb128 0x28
 7511 2087 E6070000 		.4byte	.LVL267
 7512 208b FB2C0000 		.4byte	0x2cfb
 7513 208f 00       		.byte	0
 7514 2090 25       		.uleb128 0x25
 7515 2091 EC070000 		.4byte	.LBB347
 7516 2095 1C000000 		.4byte	.LBE347-.LBB347
 7517 2099 B6200000 		.4byte	0x20b6
 7518 209d 32       		.uleb128 0x32
 7519 209e 73747200 		.ascii	"str\000"
 7520 20a2 01       		.byte	0x1
 7521 20a3 82       		.byte	0x82
 7522 20a4 D4050000 		.4byte	0x5d4
 7523 20a8 03       		.uleb128 0x3
 7524 20a9 91       		.byte	0x91
 7525 20aa 8077     		.sleb128 -1152
 7526 20ac 28       		.uleb128 0x28
 7527 20ad 02080000 		.4byte	.LVL268
 7528 20b1 FB2C0000 		.4byte	0x2cfb
 7529 20b5 00       		.byte	0
 7530 20b6 25       		.uleb128 0x25
 7531 20b7 08080000 		.4byte	.LBB348
 7532 20bb 1C000000 		.4byte	.LBE348-.LBB348
 7533 20bf DC200000 		.4byte	0x20dc
 7534 20c3 32       		.uleb128 0x32
 7535 20c4 73747200 		.ascii	"str\000"
 7536 20c8 01       		.byte	0x1
 7537 20c9 81       		.byte	0x81
 7538 20ca D4050000 		.4byte	0x5d4
 7539 20ce 03       		.uleb128 0x3
 7540 20cf 91       		.byte	0x91
 7541 20d0 8077     		.sleb128 -1152
 7542 20d2 28       		.uleb128 0x28
 7543 20d3 1E080000 		.4byte	.LVL269
 7544 20d7 FB2C0000 		.4byte	0x2cfb
 7545 20db 00       		.byte	0
 7546 20dc 25       		.uleb128 0x25
 7547 20dd 24080000 		.4byte	.LBB349
 7548 20e1 3A000000 		.4byte	.LBE349-.LBB349
 7549 20e5 AC210000 		.4byte	0x21ac
 7550 20e9 2E       		.uleb128 0x2e
ARM GAS  C:\Users\honet\AppData\Local\Temp\cc6gsi1c.s 			page 149


 7551 20ea E0000000 		.4byte	.LASF91
 7552 20ee 01       		.byte	0x1
 7553 20ef D2       		.byte	0xd2
 7554 20f0 67010000 		.4byte	0x167
 7555 20f4 03       		.uleb128 0x3
 7556 20f5 91       		.byte	0x91
 7557 20f6 8076     		.sleb128 -1280
 7558 20f8 2F       		.uleb128 0x2f
 7559 20f9 737A00   		.ascii	"sz\000"
 7560 20fc 01       		.byte	0x1
 7561 20fd D2       		.byte	0xd2
 7562 20fe 33000000 		.4byte	0x33
 7563 2102 C5100000 		.4byte	.LLST107
 7564 2106 2F       		.uleb128 0x2f
 7565 2107 72657300 		.ascii	"res\000"
 7566 210b 01       		.byte	0x1
 7567 210c D2       		.byte	0xd2
 7568 210d 0F040000 		.4byte	0x40f
 7569 2111 D9100000 		.4byte	.LLST108
 7570 2115 25       		.uleb128 0x25
 7571 2116 24080000 		.4byte	.LBB350
 7572 211a 1E000000 		.4byte	.LBE350-.LBB350
 7573 211e 4B210000 		.4byte	0x214b
 7574 2122 32       		.uleb128 0x32
 7575 2123 73747200 		.ascii	"str\000"
 7576 2127 01       		.byte	0x1
 7577 2128 D2       		.byte	0xd2
 7578 2129 D4050000 		.4byte	0x5d4
 7579 212d 03       		.uleb128 0x3
 7580 212e 91       		.byte	0x91
 7581 212f 8076     		.sleb128 -1280
 7582 2131 28       		.uleb128 0x28
 7583 2132 38080000 		.4byte	.LVL272
 7584 2136 FB2C0000 		.4byte	0x2cfb
 7585 213a 29       		.uleb128 0x29
 7586 213b 42080000 		.4byte	.LVL273
 7587 213f 062D0000 		.4byte	0x2d06
 7588 2143 22       		.uleb128 0x22
 7589 2144 01       		.uleb128 0x1
 7590 2145 50       		.byte	0x50
 7591 2146 02       		.uleb128 0x2
 7592 2147 76       		.byte	0x76
 7593 2148 00       		.sleb128 0
 7594 2149 00       		.byte	0
 7595 214a 00       		.byte	0
 7596 214b 35       		.uleb128 0x35
 7597 214c 2E040000 		.4byte	0x42e
 7598 2150 4E080000 		.4byte	.LBB351
 7599 2154 10000000 		.4byte	.LBE351-.LBB351
 7600 2158 01       		.byte	0x1
 7601 2159 D2       		.byte	0xd2
 7602 215a 84210000 		.4byte	0x2184
 7603 215e 24       		.uleb128 0x24
 7604 215f 45040000 		.4byte	0x445
 7605 2163 D9100000 		.4byte	.LLST108
 7606 2167 24       		.uleb128 0x24
 7607 2168 3A040000 		.4byte	0x43a
ARM GAS  C:\Users\honet\AppData\Local\Temp\cc6gsi1c.s 			page 150


 7608 216c EC100000 		.4byte	.LLST110
 7609 2170 29       		.uleb128 0x29
 7610 2171 5C080000 		.4byte	.LVL276
 7611 2175 7B060000 		.4byte	0x67b
 7612 2179 22       		.uleb128 0x22
 7613 217a 01       		.uleb128 0x1
 7614 217b 50       		.byte	0x50
 7615 217c 05       		.uleb128 0x5
 7616 217d 03       		.byte	0x3
 7617 217e 64020000 		.4byte	.LC39
 7618 2182 00       		.byte	0
 7619 2183 00       		.byte	0
 7620 2184 29       		.uleb128 0x29
 7621 2185 4E080000 		.4byte	.LVL274
 7622 2189 222D0000 		.4byte	0x2d22
 7623 218d 22       		.uleb128 0x22
 7624 218e 01       		.uleb128 0x1
 7625 218f 53       		.byte	0x53
 7626 2190 02       		.uleb128 0x2
 7627 2191 76       		.byte	0x76
 7628 2192 00       		.sleb128 0
 7629 2193 22       		.uleb128 0x22
 7630 2194 01       		.uleb128 0x1
 7631 2195 52       		.byte	0x52
 7632 2196 01       		.uleb128 0x1
 7633 2197 3E       		.byte	0x3e
 7634 2198 22       		.uleb128 0x22
 7635 2199 01       		.uleb128 0x1
 7636 219a 51       		.byte	0x51
 7637 219b 05       		.uleb128 0x5
 7638 219c 03       		.byte	0x3
 7639 219d 20030000 		.4byte	.LC49
 7640 21a1 22       		.uleb128 0x22
 7641 21a2 01       		.uleb128 0x1
 7642 21a3 50       		.byte	0x50
 7643 21a4 05       		.uleb128 0x5
 7644 21a5 03       		.byte	0x3
 7645 21a6 00000000 		.4byte	File
 7646 21aa 00       		.byte	0
 7647 21ab 00       		.byte	0
 7648 21ac 27       		.uleb128 0x27
 7649 21ad 28000000 		.4byte	.LVL40
 7650 21b1 E72D0000 		.4byte	0x2de7
 7651 21b5 BF210000 		.4byte	0x21bf
 7652 21b9 22       		.uleb128 0x22
 7653 21ba 01       		.uleb128 0x1
 7654 21bb 50       		.byte	0x50
 7655 21bc 01       		.uleb128 0x1
 7656 21bd 30       		.byte	0x30
 7657 21be 00       		.byte	0
 7658 21bf 27       		.uleb128 0x27
 7659 21c0 4C000000 		.4byte	.LVL46
 7660 21c4 FD2D0000 		.4byte	0x2dfd
 7661 21c8 D2210000 		.4byte	0x21d2
 7662 21cc 22       		.uleb128 0x22
 7663 21cd 01       		.uleb128 0x1
 7664 21ce 50       		.byte	0x50
ARM GAS  C:\Users\honet\AppData\Local\Temp\cc6gsi1c.s 			page 151


 7665 21cf 01       		.uleb128 0x1
 7666 21d0 30       		.byte	0x30
 7667 21d1 00       		.byte	0
 7668 21d2 27       		.uleb128 0x27
 7669 21d3 74000000 		.4byte	.LVL50
 7670 21d7 0E2E0000 		.4byte	0x2e0e
 7671 21db F5210000 		.4byte	0x21f5
 7672 21df 22       		.uleb128 0x22
 7673 21e0 01       		.uleb128 0x1
 7674 21e1 52       		.byte	0x52
 7675 21e2 01       		.uleb128 0x1
 7676 21e3 31       		.byte	0x31
 7677 21e4 22       		.uleb128 0x22
 7678 21e5 01       		.uleb128 0x1
 7679 21e6 51       		.byte	0x51
 7680 21e7 05       		.uleb128 0x5
 7681 21e8 03       		.byte	0x3
 7682 21e9 7C010000 		.4byte	.LC24
 7683 21ed 22       		.uleb128 0x22
 7684 21ee 01       		.uleb128 0x1
 7685 21ef 50       		.byte	0x50
 7686 21f0 03       		.uleb128 0x3
 7687 21f1 91       		.byte	0x91
 7688 21f2 A87B     		.sleb128 -600
 7689 21f4 00       		.byte	0
 7690 21f5 27       		.uleb128 0x27
 7691 21f6 62010000 		.4byte	.LVL63
 7692 21fa D62D0000 		.4byte	0x2dd6
 7693 21fe 0A220000 		.4byte	0x220a
 7694 2202 22       		.uleb128 0x22
 7695 2203 01       		.uleb128 0x1
 7696 2204 50       		.byte	0x50
 7697 2205 03       		.uleb128 0x3
 7698 2206 0A       		.byte	0xa
 7699 2207 F401     		.2byte	0x1f4
 7700 2209 00       		.byte	0
 7701 220a 27       		.uleb128 0x27
 7702 220b 68010000 		.4byte	.LVL64
 7703 220f 2E2E0000 		.4byte	0x2e2e
 7704 2213 1D220000 		.4byte	0x221d
 7705 2217 22       		.uleb128 0x22
 7706 2218 01       		.uleb128 0x1
 7707 2219 50       		.byte	0x50
 7708 221a 01       		.uleb128 0x1
 7709 221b 30       		.byte	0x30
 7710 221c 00       		.byte	0
 7711 221d 27       		.uleb128 0x27
 7712 221e 72010000 		.4byte	.LVL65
 7713 2222 532D0000 		.4byte	0x2d53
 7714 2226 42220000 		.4byte	0x2242
 7715 222a 22       		.uleb128 0x22
 7716 222b 01       		.uleb128 0x1
 7717 222c 52       		.byte	0x52
 7718 222d 01       		.uleb128 0x1
 7719 222e 3A       		.byte	0x3a
 7720 222f 22       		.uleb128 0x22
 7721 2230 01       		.uleb128 0x1
ARM GAS  C:\Users\honet\AppData\Local\Temp\cc6gsi1c.s 			page 152


 7722 2231 51       		.byte	0x51
 7723 2232 05       		.uleb128 0x5
 7724 2233 03       		.byte	0x3
 7725 2234 40020000 		.4byte	.LC36
 7726 2238 22       		.uleb128 0x22
 7727 2239 01       		.uleb128 0x1
 7728 223a 50       		.byte	0x50
 7729 223b 05       		.uleb128 0x5
 7730 223c 03       		.byte	0x3
 7731 223d 00000000 		.4byte	File
 7732 2241 00       		.byte	0
 7733 2242 27       		.uleb128 0x27
 7734 2243 0A020000 		.4byte	.LVL83
 7735 2247 532D0000 		.4byte	0x2d53
 7736 224b 64220000 		.4byte	0x2264
 7737 224f 22       		.uleb128 0x22
 7738 2250 01       		.uleb128 0x1
 7739 2251 52       		.byte	0x52
 7740 2252 01       		.uleb128 0x1
 7741 2253 3A       		.byte	0x3a
 7742 2254 22       		.uleb128 0x22
 7743 2255 01       		.uleb128 0x1
 7744 2256 51       		.byte	0x51
 7745 2257 05       		.uleb128 0x5
 7746 2258 03       		.byte	0x3
 7747 2259 90020000 		.4byte	.LC41
 7748 225d 22       		.uleb128 0x22
 7749 225e 01       		.uleb128 0x1
 7750 225f 50       		.byte	0x50
 7751 2260 02       		.uleb128 0x2
 7752 2261 77       		.byte	0x77
 7753 2262 00       		.sleb128 0
 7754 2263 00       		.byte	0
 7755 2264 27       		.uleb128 0x27
 7756 2265 20020000 		.4byte	.LVL85
 7757 2269 222D0000 		.4byte	0x2d22
 7758 226d 8E220000 		.4byte	0x228e
 7759 2271 22       		.uleb128 0x22
 7760 2272 01       		.uleb128 0x1
 7761 2273 53       		.byte	0x53
 7762 2274 02       		.uleb128 0x2
 7763 2275 7D       		.byte	0x7d
 7764 2276 00       		.sleb128 0
 7765 2277 22       		.uleb128 0x22
 7766 2278 01       		.uleb128 0x1
 7767 2279 52       		.byte	0x52
 7768 227a 03       		.uleb128 0x3
 7769 227b 0A       		.byte	0xa
 7770 227c 0080     		.2byte	0x8000
 7771 227e 22       		.uleb128 0x22
 7772 227f 01       		.uleb128 0x1
 7773 2280 51       		.byte	0x51
 7774 2281 05       		.uleb128 0x5
 7775 2282 03       		.byte	0x3
 7776 2283 00000000 		.4byte	buffer
 7777 2287 22       		.uleb128 0x22
 7778 2288 01       		.uleb128 0x1
ARM GAS  C:\Users\honet\AppData\Local\Temp\cc6gsi1c.s 			page 153


 7779 2289 50       		.byte	0x50
 7780 228a 02       		.uleb128 0x2
 7781 228b 77       		.byte	0x77
 7782 228c 00       		.sleb128 0
 7783 228d 00       		.byte	0
 7784 228e 27       		.uleb128 0x27
 7785 228f 2E020000 		.4byte	.LVL87
 7786 2293 7E2D0000 		.4byte	0x2d7e
 7787 2297 A2220000 		.4byte	0x22a2
 7788 229b 22       		.uleb128 0x22
 7789 229c 01       		.uleb128 0x1
 7790 229d 50       		.byte	0x50
 7791 229e 02       		.uleb128 0x2
 7792 229f 77       		.byte	0x77
 7793 22a0 00       		.sleb128 0
 7794 22a1 00       		.byte	0
 7795 22a2 27       		.uleb128 0x27
 7796 22a3 D6020000 		.4byte	.LVL106
 7797 22a7 942D0000 		.4byte	0x2d94
 7798 22ab C5220000 		.4byte	0x22c5
 7799 22af 22       		.uleb128 0x22
 7800 22b0 01       		.uleb128 0x1
 7801 22b1 52       		.byte	0x52
 7802 22b2 03       		.uleb128 0x3
 7803 22b3 0A       		.byte	0xa
 7804 22b4 0080     		.2byte	0x8000
 7805 22b6 22       		.uleb128 0x22
 7806 22b7 01       		.uleb128 0x1
 7807 22b8 51       		.byte	0x51
 7808 22b9 01       		.uleb128 0x1
 7809 22ba 30       		.byte	0x30
 7810 22bb 22       		.uleb128 0x22
 7811 22bc 01       		.uleb128 0x1
 7812 22bd 50       		.byte	0x50
 7813 22be 05       		.uleb128 0x5
 7814 22bf 03       		.byte	0x3
 7815 22c0 00000000 		.4byte	buffer
 7816 22c4 00       		.byte	0
 7817 22c5 27       		.uleb128 0x27
 7818 22c6 E4020000 		.4byte	.LVL108
 7819 22ca 532D0000 		.4byte	0x2d53
 7820 22ce E7220000 		.4byte	0x22e7
 7821 22d2 22       		.uleb128 0x22
 7822 22d3 01       		.uleb128 0x1
 7823 22d4 52       		.byte	0x52
 7824 22d5 01       		.uleb128 0x1
 7825 22d6 31       		.byte	0x31
 7826 22d7 22       		.uleb128 0x22
 7827 22d8 01       		.uleb128 0x1
 7828 22d9 51       		.byte	0x51
 7829 22da 05       		.uleb128 0x5
 7830 22db 03       		.byte	0x3
 7831 22dc 90020000 		.4byte	.LC41
 7832 22e0 22       		.uleb128 0x22
 7833 22e1 01       		.uleb128 0x1
 7834 22e2 50       		.byte	0x50
 7835 22e3 02       		.uleb128 0x2
ARM GAS  C:\Users\honet\AppData\Local\Temp\cc6gsi1c.s 			page 154


 7836 22e4 77       		.byte	0x77
 7837 22e5 00       		.sleb128 0
 7838 22e6 00       		.byte	0
 7839 22e7 27       		.uleb128 0x27
 7840 22e8 FA020000 		.4byte	.LVL110
 7841 22ec B12D0000 		.4byte	0x2db1
 7842 22f0 12230000 		.4byte	0x2312
 7843 22f4 22       		.uleb128 0x22
 7844 22f5 01       		.uleb128 0x1
 7845 22f6 53       		.byte	0x53
 7846 22f7 03       		.uleb128 0x3
 7847 22f8 91       		.byte	0x91
 7848 22f9 FC75     		.sleb128 -1284
 7849 22fb 22       		.uleb128 0x22
 7850 22fc 01       		.uleb128 0x1
 7851 22fd 52       		.byte	0x52
 7852 22fe 03       		.uleb128 0x3
 7853 22ff 0A       		.byte	0xa
 7854 2300 0080     		.2byte	0x8000
 7855 2302 22       		.uleb128 0x22
 7856 2303 01       		.uleb128 0x1
 7857 2304 51       		.byte	0x51
 7858 2305 05       		.uleb128 0x5
 7859 2306 03       		.byte	0x3
 7860 2307 00000000 		.4byte	buffer
 7861 230b 22       		.uleb128 0x22
 7862 230c 01       		.uleb128 0x1
 7863 230d 50       		.byte	0x50
 7864 230e 02       		.uleb128 0x2
 7865 230f 77       		.byte	0x77
 7866 2310 00       		.sleb128 0
 7867 2311 00       		.byte	0
 7868 2312 27       		.uleb128 0x27
 7869 2313 08030000 		.4byte	.LVL112
 7870 2317 7E2D0000 		.4byte	0x2d7e
 7871 231b 26230000 		.4byte	0x2326
 7872 231f 22       		.uleb128 0x22
 7873 2320 01       		.uleb128 0x1
 7874 2321 50       		.byte	0x50
 7875 2322 02       		.uleb128 0x2
 7876 2323 77       		.byte	0x77
 7877 2324 00       		.sleb128 0
 7878 2325 00       		.byte	0
 7879 2326 27       		.uleb128 0x27
 7880 2327 FC030000 		.4byte	.LVL138
 7881 232b 2E2E0000 		.4byte	0x2e2e
 7882 232f 39230000 		.4byte	0x2339
 7883 2333 22       		.uleb128 0x22
 7884 2334 01       		.uleb128 0x1
 7885 2335 50       		.byte	0x50
 7886 2336 01       		.uleb128 0x1
 7887 2337 31       		.byte	0x31
 7888 2338 00       		.byte	0
 7889 2339 29       		.uleb128 0x29
 7890 233a CA060000 		.4byte	.LVL220
 7891 233e 7E2D0000 		.4byte	0x2d7e
 7892 2342 22       		.uleb128 0x22
ARM GAS  C:\Users\honet\AppData\Local\Temp\cc6gsi1c.s 			page 155


 7893 2343 01       		.uleb128 0x1
 7894 2344 50       		.byte	0x50
 7895 2345 05       		.uleb128 0x5
 7896 2346 03       		.byte	0x3
 7897 2347 00000000 		.4byte	File
 7898 234b 00       		.byte	0
 7899 234c 00       		.byte	0
 7900 234d 06       		.uleb128 0x6
 7901 234e 04       		.byte	0x4
 7902 234f 21010000 		.4byte	0x121
 7903 2353 3A       		.uleb128 0x3a
 7904 2354 11030000 		.4byte	.LASF101
 7905 2358 01       		.byte	0x1
 7906 2359 2401     		.2byte	0x124
 7907 235b 00000000 		.4byte	.LFB69
 7908 235f B0030000 		.4byte	.LFE69-.LFB69
 7909 2363 01       		.uleb128 0x1
 7910 2364 9C       		.byte	0x9c
 7911 2365 F42A0000 		.4byte	0x2af4
 7912 2369 3B       		.uleb128 0x3b
 7913 236a 2A020000 		.4byte	.LASF89
 7914 236e 01       		.byte	0x1
 7915 236f 2601     		.2byte	0x126
 7916 2371 EB000000 		.4byte	0xeb
 7917 2375 0010     		.2byte	0x1000
 7918 2377 37       		.uleb128 0x37
 7919 2378 C7000000 		.4byte	.LASF90
 7920 237c 01       		.byte	0x1
 7921 237d 2701     		.2byte	0x127
 7922 237f 4D230000 		.4byte	0x234d
 7923 2383 06       		.uleb128 0x6
 7924 2384 03       		.byte	0x3
 7925 2385 00000000 		.4byte	buffer
 7926 2389 9F       		.byte	0x9f
 7927 238a 37       		.uleb128 0x37
 7928 238b 5A030000 		.4byte	.LASF93
 7929 238f 01       		.byte	0x1
 7930 2390 2901     		.2byte	0x129
 7931 2392 9B020000 		.4byte	0x29b
 7932 2396 03       		.uleb128 0x3
 7933 2397 91       		.byte	0x91
 7934 2398 B07B     		.sleb128 -592
 7935 239a 38       		.uleb128 0x38
 7936 239b 72657300 		.ascii	"res\000"
 7937 239f 01       		.byte	0x1
 7938 23a0 2A01     		.2byte	0x12a
 7939 23a2 0F040000 		.4byte	0x40f
 7940 23a6 04110000 		.4byte	.LLST111
 7941 23aa 37       		.uleb128 0x37
 7942 23ab E0000000 		.4byte	.LASF91
 7943 23af 01       		.byte	0x1
 7944 23b0 2B01     		.2byte	0x12b
 7945 23b2 67010000 		.4byte	0x167
 7946 23b6 03       		.uleb128 0x3
 7947 23b7 91       		.byte	0x91
 7948 23b8 8076     		.sleb128 -1280
 7949 23ba 37       		.uleb128 0x37
ARM GAS  C:\Users\honet\AppData\Local\Temp\cc6gsi1c.s 			page 156


 7950 23bb 53020000 		.4byte	.LASF92
 7951 23bf 01       		.byte	0x1
 7952 23c0 2B01     		.2byte	0x12b
 7953 23c2 67010000 		.4byte	0x167
 7954 23c6 03       		.uleb128 0x3
 7955 23c7 91       		.byte	0x91
 7956 23c8 8476     		.sleb128 -1276
 7957 23ca 3C       		.uleb128 0x3c
 7958 23cb 01050000 		.4byte	.LASF102
 7959 23cf 01       		.byte	0x1
 7960 23d0 2C01     		.2byte	0x12c
 7961 23d2 EB000000 		.4byte	0xeb
 7962 23d6 22110000 		.4byte	.LLST112
 7963 23da 3C       		.uleb128 0x3c
 7964 23db 3A030000 		.4byte	.LASF103
 7965 23df 01       		.byte	0x1
 7966 23e0 2D01     		.2byte	0x12d
 7967 23e2 EB000000 		.4byte	0xeb
 7968 23e6 5C110000 		.4byte	.LLST113
 7969 23ea 3C       		.uleb128 0x3c
 7970 23eb DB000000 		.4byte	.LASF94
 7971 23ef 01       		.byte	0x1
 7972 23f0 3501     		.2byte	0x135
 7973 23f2 1B040000 		.4byte	0x41b
 7974 23f6 93110000 		.4byte	.LLST114
 7975 23fa 31       		.uleb128 0x31
 7976 23fb CC020000 		.4byte	.LASF104
 7977 23ff 01       		.byte	0x1
 7978 2400 7E01     		.2byte	0x17e
 7979 2402 64000000 		.4byte	.L396
 7980 2406 3C       		.uleb128 0x3c
 7981 2407 85010000 		.4byte	.LASF95
 7982 240b 01       		.byte	0x1
 7983 240c 3901     		.2byte	0x139
 7984 240e 0F040000 		.4byte	0x40f
 7985 2412 B1110000 		.4byte	.LLST115
 7986 2416 25       		.uleb128 0x25
 7987 2417 0C000000 		.4byte	.LBB363
 7988 241b 1A000000 		.4byte	.LBE363-.LBB363
 7989 241f 32240000 		.4byte	0x2432
 7990 2423 38       		.uleb128 0x38
 7991 2424 6900     		.ascii	"i\000"
 7992 2426 01       		.byte	0x1
 7993 2427 3001     		.2byte	0x130
 7994 2429 2C000000 		.4byte	0x2c
 7995 242d CF110000 		.4byte	.LLST116
 7996 2431 00       		.byte	0
 7997 2432 25       		.uleb128 0x25
 7998 2433 26000000 		.4byte	.LBB364
 7999 2437 1A000000 		.4byte	.LBE364-.LBB364
 8000 243b 69240000 		.4byte	0x2469
 8001 243f 33       		.uleb128 0x33
 8002 2440 73747200 		.ascii	"str\000"
 8003 2444 01       		.byte	0x1
 8004 2445 3401     		.2byte	0x134
 8005 2447 D4050000 		.4byte	0x5d4
 8006 244b 03       		.uleb128 0x3
ARM GAS  C:\Users\honet\AppData\Local\Temp\cc6gsi1c.s 			page 157


 8007 244c 91       		.byte	0x91
 8008 244d B07B     		.sleb128 -592
 8009 244f 28       		.uleb128 0x28
 8010 2450 36000000 		.4byte	.LVL313
 8011 2454 FB2C0000 		.4byte	0x2cfb
 8012 2458 29       		.uleb128 0x29
 8013 2459 40000000 		.4byte	.LVL314
 8014 245d 062D0000 		.4byte	0x2d06
 8015 2461 22       		.uleb128 0x22
 8016 2462 01       		.uleb128 0x1
 8017 2463 50       		.byte	0x50
 8018 2464 02       		.uleb128 0x2
 8019 2465 74       		.byte	0x74
 8020 2466 70       		.sleb128 -16
 8021 2467 00       		.byte	0
 8022 2468 00       		.byte	0
 8023 2469 25       		.uleb128 0x25
 8024 246a 48000000 		.4byte	.LBB365
 8025 246e 18000000 		.4byte	.LBE365-.LBB365
 8026 2472 C5240000 		.4byte	0x24c5
 8027 2476 33       		.uleb128 0x33
 8028 2477 73747200 		.ascii	"str\000"
 8029 247b 01       		.byte	0x1
 8030 247c 3601     		.2byte	0x136
 8031 247e D4050000 		.4byte	0x5d4
 8032 2482 03       		.uleb128 0x3
 8033 2483 91       		.byte	0x91
 8034 2484 B07B     		.sleb128 -592
 8035 2486 27       		.uleb128 0x27
 8036 2487 52000000 		.4byte	.LVL317
 8037 248b E02C0000 		.4byte	0x2ce0
 8038 248f AA240000 		.4byte	0x24aa
 8039 2493 22       		.uleb128 0x22
 8040 2494 01       		.uleb128 0x1
 8041 2495 52       		.byte	0x52
 8042 2496 02       		.uleb128 0x2
 8043 2497 74       		.byte	0x74
 8044 2498 00       		.sleb128 0
 8045 2499 22       		.uleb128 0x22
 8046 249a 01       		.uleb128 0x1
 8047 249b 51       		.byte	0x51
 8048 249c 05       		.uleb128 0x5
 8049 249d 03       		.byte	0x3
 8050 249e 64010000 		.4byte	.LC23
 8051 24a2 22       		.uleb128 0x22
 8052 24a3 01       		.uleb128 0x1
 8053 24a4 50       		.byte	0x50
 8054 24a5 03       		.uleb128 0x3
 8055 24a6 91       		.byte	0x91
 8056 24a7 B07B     		.sleb128 -592
 8057 24a9 00       		.byte	0
 8058 24aa 28       		.uleb128 0x28
 8059 24ab 56000000 		.4byte	.LVL318
 8060 24af FB2C0000 		.4byte	0x2cfb
 8061 24b3 29       		.uleb128 0x29
 8062 24b4 60000000 		.4byte	.LVL319
 8063 24b8 062D0000 		.4byte	0x2d06
ARM GAS  C:\Users\honet\AppData\Local\Temp\cc6gsi1c.s 			page 158


 8064 24bc 22       		.uleb128 0x22
 8065 24bd 01       		.uleb128 0x1
 8066 24be 50       		.byte	0x50
 8067 24bf 03       		.uleb128 0x3
 8068 24c0 91       		.byte	0x91
 8069 24c1 B07B     		.sleb128 -592
 8070 24c3 00       		.byte	0
 8071 24c4 00       		.byte	0
 8072 24c5 25       		.uleb128 0x25
 8073 24c6 6A000000 		.4byte	.LBB366
 8074 24ca 16000000 		.4byte	.LBE366-.LBB366
 8075 24ce FC240000 		.4byte	0x24fc
 8076 24d2 33       		.uleb128 0x33
 8077 24d3 73747200 		.ascii	"str\000"
 8078 24d7 01       		.byte	0x1
 8079 24d8 8001     		.2byte	0x180
 8080 24da D4050000 		.4byte	0x5d4
 8081 24de 03       		.uleb128 0x3
 8082 24df 91       		.byte	0x91
 8083 24e0 8877     		.sleb128 -1144
 8084 24e2 28       		.uleb128 0x28
 8085 24e3 76000000 		.4byte	.LVL322
 8086 24e7 FB2C0000 		.4byte	0x2cfb
 8087 24eb 29       		.uleb128 0x29
 8088 24ec 80000000 		.4byte	.LVL323
 8089 24f0 062D0000 		.4byte	0x2d06
 8090 24f4 22       		.uleb128 0x22
 8091 24f5 01       		.uleb128 0x1
 8092 24f6 50       		.byte	0x50
 8093 24f7 02       		.uleb128 0x2
 8094 24f8 74       		.byte	0x74
 8095 24f9 00       		.sleb128 0
 8096 24fa 00       		.byte	0
 8097 24fb 00       		.byte	0
 8098 24fc 2A       		.uleb128 0x2a
 8099 24fd 08050000 		.4byte	.Ldebug_ranges0+0x508
 8100 2501 2F250000 		.4byte	0x252f
 8101 2505 33       		.uleb128 0x33
 8102 2506 73747200 		.ascii	"str\000"
 8103 250a 01       		.byte	0x1
 8104 250b 3B01     		.2byte	0x13b
 8105 250d D4050000 		.4byte	0x5d4
 8106 2511 03       		.uleb128 0x3
 8107 2512 91       		.byte	0x91
 8108 2513 8877     		.sleb128 -1144
 8109 2515 28       		.uleb128 0x28
 8110 2516 AC000000 		.4byte	.LVL328
 8111 251a FB2C0000 		.4byte	0x2cfb
 8112 251e 29       		.uleb128 0x29
 8113 251f B8000000 		.4byte	.LVL329
 8114 2523 062D0000 		.4byte	0x2d06
 8115 2527 22       		.uleb128 0x22
 8116 2528 01       		.uleb128 0x1
 8117 2529 50       		.byte	0x50
 8118 252a 02       		.uleb128 0x2
 8119 252b 74       		.byte	0x74
 8120 252c 00       		.sleb128 0
ARM GAS  C:\Users\honet\AppData\Local\Temp\cc6gsi1c.s 			page 159


 8121 252d 00       		.byte	0
 8122 252e 00       		.byte	0
 8123 252f 25       		.uleb128 0x25
 8124 2530 F8000000 		.4byte	.LBB371
 8125 2534 1C000000 		.4byte	.LBE371-.LBB371
 8126 2538 66250000 		.4byte	0x2566
 8127 253c 33       		.uleb128 0x33
 8128 253d 73747200 		.ascii	"str\000"
 8129 2541 01       		.byte	0x1
 8130 2542 4601     		.2byte	0x146
 8131 2544 D4050000 		.4byte	0x5d4
 8132 2548 03       		.uleb128 0x3
 8133 2549 91       		.byte	0x91
 8134 254a 8877     		.sleb128 -1144
 8135 254c 28       		.uleb128 0x28
 8136 254d 0A010000 		.4byte	.LVL332
 8137 2551 FB2C0000 		.4byte	0x2cfb
 8138 2555 29       		.uleb128 0x29
 8139 2556 14010000 		.4byte	.LVL333
 8140 255a 062D0000 		.4byte	0x2d06
 8141 255e 22       		.uleb128 0x22
 8142 255f 01       		.uleb128 0x1
 8143 2560 50       		.byte	0x50
 8144 2561 02       		.uleb128 0x2
 8145 2562 74       		.byte	0x74
 8146 2563 00       		.sleb128 0
 8147 2564 00       		.byte	0
 8148 2565 00       		.byte	0
 8149 2566 2A       		.uleb128 0x2a
 8150 2567 30050000 		.4byte	.Ldebug_ranges0+0x530
 8151 256b 99250000 		.4byte	0x2599
 8152 256f 33       		.uleb128 0x33
 8153 2570 73747200 		.ascii	"str\000"
 8154 2574 01       		.byte	0x1
 8155 2575 4B01     		.2byte	0x14b
 8156 2577 D4050000 		.4byte	0x5d4
 8157 257b 03       		.uleb128 0x3
 8158 257c 91       		.byte	0x91
 8159 257d 8877     		.sleb128 -1144
 8160 257f 28       		.uleb128 0x28
 8161 2580 38010000 		.4byte	.LVL334
 8162 2584 FB2C0000 		.4byte	0x2cfb
 8163 2588 29       		.uleb128 0x29
 8164 2589 46010000 		.4byte	.LVL335
 8165 258d 062D0000 		.4byte	0x2d06
 8166 2591 22       		.uleb128 0x22
 8167 2592 01       		.uleb128 0x1
 8168 2593 50       		.byte	0x50
 8169 2594 02       		.uleb128 0x2
 8170 2595 75       		.byte	0x75
 8171 2596 00       		.sleb128 0
 8172 2597 00       		.byte	0
 8173 2598 00       		.byte	0
 8174 2599 2A       		.uleb128 0x2a
 8175 259a 50050000 		.4byte	.Ldebug_ranges0+0x550
 8176 259e CC250000 		.4byte	0x25cc
 8177 25a2 33       		.uleb128 0x33
ARM GAS  C:\Users\honet\AppData\Local\Temp\cc6gsi1c.s 			page 160


 8178 25a3 73747200 		.ascii	"str\000"
 8179 25a7 01       		.byte	0x1
 8180 25a8 5101     		.2byte	0x151
 8181 25aa D4050000 		.4byte	0x5d4
 8182 25ae 03       		.uleb128 0x3
 8183 25af 91       		.byte	0x91
 8184 25b0 8877     		.sleb128 -1144
 8185 25b2 28       		.uleb128 0x28
 8186 25b3 5C010000 		.4byte	.LVL337
 8187 25b7 FB2C0000 		.4byte	0x2cfb
 8188 25bb 29       		.uleb128 0x29
 8189 25bc 6A010000 		.4byte	.LVL338
 8190 25c0 062D0000 		.4byte	0x2d06
 8191 25c4 22       		.uleb128 0x22
 8192 25c5 01       		.uleb128 0x1
 8193 25c6 50       		.byte	0x50
 8194 25c7 02       		.uleb128 0x2
 8195 25c8 75       		.byte	0x75
 8196 25c9 00       		.sleb128 0
 8197 25ca 00       		.byte	0
 8198 25cb 00       		.byte	0
 8199 25cc 2A       		.uleb128 0x2a
 8200 25cd 78050000 		.4byte	.Ldebug_ranges0+0x578
 8201 25d1 FF250000 		.4byte	0x25ff
 8202 25d5 33       		.uleb128 0x33
 8203 25d6 73747200 		.ascii	"str\000"
 8204 25da 01       		.byte	0x1
 8205 25db 5201     		.2byte	0x152
 8206 25dd D4050000 		.4byte	0x5d4
 8207 25e1 03       		.uleb128 0x3
 8208 25e2 91       		.byte	0x91
 8209 25e3 8877     		.sleb128 -1144
 8210 25e5 28       		.uleb128 0x28
 8211 25e6 7E010000 		.4byte	.LVL339
 8212 25ea FB2C0000 		.4byte	0x2cfb
 8213 25ee 29       		.uleb128 0x29
 8214 25ef 88010000 		.4byte	.LVL340
 8215 25f3 062D0000 		.4byte	0x2d06
 8216 25f7 22       		.uleb128 0x22
 8217 25f8 01       		.uleb128 0x1
 8218 25f9 50       		.byte	0x50
 8219 25fa 02       		.uleb128 0x2
 8220 25fb 74       		.byte	0x74
 8221 25fc 00       		.sleb128 0
 8222 25fd 00       		.byte	0
 8223 25fe 00       		.byte	0
 8224 25ff 2A       		.uleb128 0x2a
 8225 2600 98050000 		.4byte	.Ldebug_ranges0+0x598
 8226 2604 7A290000 		.4byte	0x297a
 8227 2608 3C       		.uleb128 0x3c
 8228 2609 B0030000 		.4byte	.LASF96
 8229 260d 01       		.byte	0x1
 8230 260e 5A01     		.2byte	0x15a
 8231 2610 EB000000 		.4byte	0xeb
 8232 2614 EE110000 		.4byte	.LLST117
 8233 2618 37       		.uleb128 0x37
 8234 2619 F9040000 		.4byte	.LASF97
ARM GAS  C:\Users\honet\AppData\Local\Temp\cc6gsi1c.s 			page 161


 8235 261d 01       		.byte	0x1
 8236 261e 5B01     		.2byte	0x15b
 8237 2620 82030000 		.4byte	0x382
 8238 2624 03       		.uleb128 0x3
 8239 2625 91       		.byte	0x91
 8240 2626 8877     		.sleb128 -1144
 8241 2628 2A       		.uleb128 0x2a
 8242 2629 B0050000 		.4byte	.Ldebug_ranges0+0x5b0
 8243 262d 65270000 		.4byte	0x2765
 8244 2631 3C       		.uleb128 0x3c
 8245 2632 7F010000 		.4byte	.LASF98
 8246 2636 01       		.byte	0x1
 8247 2637 6301     		.2byte	0x163
 8248 2639 EB000000 		.4byte	0xeb
 8249 263d 0C120000 		.4byte	.LLST118
 8250 2641 3C       		.uleb128 0x3c
 8251 2642 AB030000 		.4byte	.LASF99
 8252 2646 01       		.byte	0x1
 8253 2647 6701     		.2byte	0x167
 8254 2649 EB000000 		.4byte	0xeb
 8255 264d 1F120000 		.4byte	.LLST119
 8256 2651 2A       		.uleb128 0x2a
 8257 2652 C8050000 		.4byte	.Ldebug_ranges0+0x5c8
 8258 2656 8E260000 		.4byte	0x268e
 8259 265a 38       		.uleb128 0x38
 8260 265b 6B00     		.ascii	"k\000"
 8261 265d 01       		.byte	0x1
 8262 265e 5F01     		.2byte	0x15f
 8263 2660 EB000000 		.4byte	0xeb
 8264 2664 68120000 		.4byte	.LLST120
 8265 2668 29       		.uleb128 0x29
 8266 2669 D6010000 		.4byte	.LVL349
 8267 266d 222D0000 		.4byte	0x2d22
 8268 2671 22       		.uleb128 0x22
 8269 2672 01       		.uleb128 0x1
 8270 2673 53       		.byte	0x53
 8271 2674 02       		.uleb128 0x2
 8272 2675 7D       		.byte	0x7d
 8273 2676 00       		.sleb128 0
 8274 2677 22       		.uleb128 0x22
 8275 2678 01       		.uleb128 0x1
 8276 2679 52       		.byte	0x52
 8277 267a 02       		.uleb128 0x2
 8278 267b 76       		.byte	0x76
 8279 267c 00       		.sleb128 0
 8280 267d 22       		.uleb128 0x22
 8281 267e 01       		.uleb128 0x1
 8282 267f 51       		.byte	0x51
 8283 2680 05       		.uleb128 0x5
 8284 2681 03       		.byte	0x3
 8285 2682 00000000 		.4byte	buffer
 8286 2686 22       		.uleb128 0x22
 8287 2687 01       		.uleb128 0x1
 8288 2688 50       		.byte	0x50
 8289 2689 02       		.uleb128 0x2
 8290 268a 74       		.byte	0x74
 8291 268b 00       		.sleb128 0
ARM GAS  C:\Users\honet\AppData\Local\Temp\cc6gsi1c.s 			page 162


 8292 268c 00       		.byte	0
 8293 268d 00       		.byte	0
 8294 268e 25       		.uleb128 0x25
 8295 268f E8010000 		.4byte	.LBB385
 8296 2693 1A000000 		.4byte	.LBE385-.LBB385
 8297 2697 EA260000 		.4byte	0x26ea
 8298 269b 33       		.uleb128 0x33
 8299 269c 73747200 		.ascii	"str\000"
 8300 26a0 01       		.byte	0x1
 8301 26a1 6601     		.2byte	0x166
 8302 26a3 D4050000 		.4byte	0x5d4
 8303 26a7 03       		.uleb128 0x3
 8304 26a8 91       		.byte	0x91
 8305 26a9 8876     		.sleb128 -1272
 8306 26ab 27       		.uleb128 0x27
 8307 26ac F2010000 		.4byte	.LVL352
 8308 26b0 E02C0000 		.4byte	0x2ce0
 8309 26b4 CF260000 		.4byte	0x26cf
 8310 26b8 22       		.uleb128 0x22
 8311 26b9 01       		.uleb128 0x1
 8312 26ba 52       		.byte	0x52
 8313 26bb 02       		.uleb128 0x2
 8314 26bc 75       		.byte	0x75
 8315 26bd 00       		.sleb128 0
 8316 26be 22       		.uleb128 0x22
 8317 26bf 01       		.uleb128 0x1
 8318 26c0 51       		.byte	0x51
 8319 26c1 05       		.uleb128 0x5
 8320 26c2 03       		.byte	0x3
 8321 26c3 08040000 		.4byte	.LC58
 8322 26c7 22       		.uleb128 0x22
 8323 26c8 01       		.uleb128 0x1
 8324 26c9 50       		.byte	0x50
 8325 26ca 03       		.uleb128 0x3
 8326 26cb 91       		.byte	0x91
 8327 26cc 8876     		.sleb128 -1272
 8328 26ce 00       		.byte	0
 8329 26cf 28       		.uleb128 0x28
 8330 26d0 F6010000 		.4byte	.LVL353
 8331 26d4 FB2C0000 		.4byte	0x2cfb
 8332 26d8 29       		.uleb128 0x29
 8333 26d9 00020000 		.4byte	.LVL354
 8334 26dd 062D0000 		.4byte	0x2d06
 8335 26e1 22       		.uleb128 0x22
 8336 26e2 01       		.uleb128 0x1
 8337 26e3 50       		.byte	0x50
 8338 26e4 03       		.uleb128 0x3
 8339 26e5 91       		.byte	0x91
 8340 26e6 8876     		.sleb128 -1272
 8341 26e8 00       		.byte	0
 8342 26e9 00       		.byte	0
 8343 26ea 25       		.uleb128 0x25
 8344 26eb 06020000 		.4byte	.LBB386
 8345 26ef 1A000000 		.4byte	.LBE386-.LBB386
 8346 26f3 54270000 		.4byte	0x2754
 8347 26f7 33       		.uleb128 0x33
 8348 26f8 73747200 		.ascii	"str\000"
ARM GAS  C:\Users\honet\AppData\Local\Temp\cc6gsi1c.s 			page 163


 8349 26fc 01       		.byte	0x1
 8350 26fd 6801     		.2byte	0x168
 8351 26ff D4050000 		.4byte	0x5d4
 8352 2703 03       		.uleb128 0x3
 8353 2704 91       		.byte	0x91
 8354 2705 8876     		.sleb128 -1272
 8355 2707 27       		.uleb128 0x27
 8356 2708 12020000 		.4byte	.LVL356
 8357 270c E02C0000 		.4byte	0x2ce0
 8358 2710 39270000 		.4byte	0x2739
 8359 2714 22       		.uleb128 0x22
 8360 2715 01       		.uleb128 0x1
 8361 2716 52       		.byte	0x52
 8362 2717 10       		.uleb128 0x10
 8363 2718 76       		.byte	0x76
 8364 2719 00       		.sleb128 0
 8365 271a 33       		.byte	0x33
 8366 271b 24       		.byte	0x24
 8367 271c 77       		.byte	0x77
 8368 271d 00       		.sleb128 0
 8369 271e 1E       		.byte	0x1e
 8370 271f F7       		.byte	0xf7
 8371 2720 25       		.uleb128 0x25
 8372 2721 75       		.byte	0x75
 8373 2722 00       		.sleb128 0
 8374 2723 F7       		.byte	0xf7
 8375 2724 25       		.uleb128 0x25
 8376 2725 1B       		.byte	0x1b
 8377 2726 F7       		.byte	0xf7
 8378 2727 00       		.uleb128 0
 8379 2728 22       		.uleb128 0x22
 8380 2729 01       		.uleb128 0x1
 8381 272a 51       		.byte	0x51
 8382 272b 05       		.uleb128 0x5
 8383 272c 03       		.byte	0x3
 8384 272d 08040000 		.4byte	.LC58
 8385 2731 22       		.uleb128 0x22
 8386 2732 01       		.uleb128 0x1
 8387 2733 50       		.byte	0x50
 8388 2734 03       		.uleb128 0x3
 8389 2735 91       		.byte	0x91
 8390 2736 8876     		.sleb128 -1272
 8391 2738 00       		.byte	0
 8392 2739 28       		.uleb128 0x28
 8393 273a 16020000 		.4byte	.LVL357
 8394 273e FB2C0000 		.4byte	0x2cfb
 8395 2742 29       		.uleb128 0x29
 8396 2743 20020000 		.4byte	.LVL358
 8397 2747 062D0000 		.4byte	0x2d06
 8398 274b 22       		.uleb128 0x22
 8399 274c 01       		.uleb128 0x1
 8400 274d 50       		.byte	0x50
 8401 274e 03       		.uleb128 0x3
 8402 274f 91       		.byte	0x91
 8403 2750 8876     		.sleb128 -1272
 8404 2752 00       		.byte	0
 8405 2753 00       		.byte	0
ARM GAS  C:\Users\honet\AppData\Local\Temp\cc6gsi1c.s 			page 164


 8406 2754 29       		.uleb128 0x29
 8407 2755 E8010000 		.4byte	.LVL351
 8408 2759 7E2D0000 		.4byte	0x2d7e
 8409 275d 22       		.uleb128 0x22
 8410 275e 01       		.uleb128 0x1
 8411 275f 50       		.byte	0x50
 8412 2760 02       		.uleb128 0x2
 8413 2761 74       		.byte	0x74
 8414 2762 00       		.sleb128 0
 8415 2763 00       		.byte	0
 8416 2764 00       		.byte	0
 8417 2765 25       		.uleb128 0x25
 8418 2766 92010000 		.4byte	.LBB387
 8419 276a 18000000 		.4byte	.LBE387-.LBB387
 8420 276e BF270000 		.4byte	0x27bf
 8421 2772 33       		.uleb128 0x33
 8422 2773 73747200 		.ascii	"str\000"
 8423 2777 01       		.byte	0x1
 8424 2778 5501     		.2byte	0x155
 8425 277a D4050000 		.4byte	0x5d4
 8426 277e 03       		.uleb128 0x3
 8427 277f 91       		.byte	0x91
 8428 2780 8877     		.sleb128 -1144
 8429 2782 27       		.uleb128 0x27
 8430 2783 9C010000 		.4byte	.LVL342
 8431 2787 E02C0000 		.4byte	0x2ce0
 8432 278b A5270000 		.4byte	0x27a5
 8433 278f 22       		.uleb128 0x22
 8434 2790 01       		.uleb128 0x1
 8435 2791 52       		.byte	0x52
 8436 2792 02       		.uleb128 0x2
 8437 2793 76       		.byte	0x76
 8438 2794 00       		.sleb128 0
 8439 2795 22       		.uleb128 0x22
 8440 2796 01       		.uleb128 0x1
 8441 2797 51       		.byte	0x51
 8442 2798 05       		.uleb128 0x5
 8443 2799 03       		.byte	0x3
 8444 279a 00040000 		.4byte	.LC57
 8445 279e 22       		.uleb128 0x22
 8446 279f 01       		.uleb128 0x1
 8447 27a0 50       		.byte	0x50
 8448 27a1 02       		.uleb128 0x2
 8449 27a2 74       		.byte	0x74
 8450 27a3 00       		.sleb128 0
 8451 27a4 00       		.byte	0
 8452 27a5 28       		.uleb128 0x28
 8453 27a6 A0010000 		.4byte	.LVL343
 8454 27aa FB2C0000 		.4byte	0x2cfb
 8455 27ae 29       		.uleb128 0x29
 8456 27af AA010000 		.4byte	.LVL344
 8457 27b3 062D0000 		.4byte	0x2d06
 8458 27b7 22       		.uleb128 0x22
 8459 27b8 01       		.uleb128 0x1
 8460 27b9 50       		.byte	0x50
 8461 27ba 02       		.uleb128 0x2
 8462 27bb 74       		.byte	0x74
ARM GAS  C:\Users\honet\AppData\Local\Temp\cc6gsi1c.s 			page 165


 8463 27bc 00       		.sleb128 0
 8464 27bd 00       		.byte	0
 8465 27be 00       		.byte	0
 8466 27bf 25       		.uleb128 0x25
 8467 27c0 2C020000 		.4byte	.LBB389
 8468 27c4 5E000000 		.4byte	.LBE389-.LBB389
 8469 27c8 01290000 		.4byte	0x2901
 8470 27cc 3C       		.uleb128 0x3c
 8471 27cd 7F010000 		.4byte	.LASF98
 8472 27d1 01       		.byte	0x1
 8473 27d2 7201     		.2byte	0x172
 8474 27d4 EB000000 		.4byte	0xeb
 8475 27d8 93120000 		.4byte	.LLST121
 8476 27dc 3C       		.uleb128 0x3c
 8477 27dd AB030000 		.4byte	.LASF99
 8478 27e1 01       		.byte	0x1
 8479 27e2 7601     		.2byte	0x176
 8480 27e4 EB000000 		.4byte	0xeb
 8481 27e8 A6120000 		.4byte	.LLST122
 8482 27ec 2A       		.uleb128 0x2a
 8483 27ed E0050000 		.4byte	.Ldebug_ranges0+0x5e0
 8484 27f1 2A280000 		.4byte	0x282a
 8485 27f5 38       		.uleb128 0x38
 8486 27f6 6B00     		.ascii	"k\000"
 8487 27f8 01       		.byte	0x1
 8488 27f9 6E01     		.2byte	0x16e
 8489 27fb EB000000 		.4byte	0xeb
 8490 27ff EF120000 		.4byte	.LLST123
 8491 2803 29       		.uleb128 0x29
 8492 2804 40020000 		.4byte	.LVL362
 8493 2808 B12D0000 		.4byte	0x2db1
 8494 280c 22       		.uleb128 0x22
 8495 280d 01       		.uleb128 0x1
 8496 280e 53       		.byte	0x53
 8497 280f 03       		.uleb128 0x3
 8498 2810 91       		.byte	0x91
 8499 2811 8476     		.sleb128 -1276
 8500 2813 22       		.uleb128 0x22
 8501 2814 01       		.uleb128 0x1
 8502 2815 52       		.byte	0x52
 8503 2816 02       		.uleb128 0x2
 8504 2817 76       		.byte	0x76
 8505 2818 00       		.sleb128 0
 8506 2819 22       		.uleb128 0x22
 8507 281a 01       		.uleb128 0x1
 8508 281b 51       		.byte	0x51
 8509 281c 05       		.uleb128 0x5
 8510 281d 03       		.byte	0x3
 8511 281e 00000000 		.4byte	buffer
 8512 2822 22       		.uleb128 0x22
 8513 2823 01       		.uleb128 0x1
 8514 2824 50       		.byte	0x50
 8515 2825 02       		.uleb128 0x2
 8516 2826 74       		.byte	0x74
 8517 2827 00       		.sleb128 0
 8518 2828 00       		.byte	0
 8519 2829 00       		.byte	0
ARM GAS  C:\Users\honet\AppData\Local\Temp\cc6gsi1c.s 			page 166


 8520 282a 25       		.uleb128 0x25
 8521 282b 52020000 		.4byte	.LBB392
 8522 282f 1A000000 		.4byte	.LBE392-.LBB392
 8523 2833 86280000 		.4byte	0x2886
 8524 2837 33       		.uleb128 0x33
 8525 2838 73747200 		.ascii	"str\000"
 8526 283c 01       		.byte	0x1
 8527 283d 7501     		.2byte	0x175
 8528 283f D4050000 		.4byte	0x5d4
 8529 2843 03       		.uleb128 0x3
 8530 2844 91       		.byte	0x91
 8531 2845 8876     		.sleb128 -1272
 8532 2847 27       		.uleb128 0x27
 8533 2848 5C020000 		.4byte	.LVL365
 8534 284c E02C0000 		.4byte	0x2ce0
 8535 2850 6B280000 		.4byte	0x286b
 8536 2854 22       		.uleb128 0x22
 8537 2855 01       		.uleb128 0x1
 8538 2856 52       		.byte	0x52
 8539 2857 02       		.uleb128 0x2
 8540 2858 75       		.byte	0x75
 8541 2859 00       		.sleb128 0
 8542 285a 22       		.uleb128 0x22
 8543 285b 01       		.uleb128 0x1
 8544 285c 51       		.byte	0x51
 8545 285d 05       		.uleb128 0x5
 8546 285e 03       		.byte	0x3
 8547 285f 08040000 		.4byte	.LC58
 8548 2863 22       		.uleb128 0x22
 8549 2864 01       		.uleb128 0x1
 8550 2865 50       		.byte	0x50
 8551 2866 03       		.uleb128 0x3
 8552 2867 91       		.byte	0x91
 8553 2868 8876     		.sleb128 -1272
 8554 286a 00       		.byte	0
 8555 286b 28       		.uleb128 0x28
 8556 286c 60020000 		.4byte	.LVL366
 8557 2870 FB2C0000 		.4byte	0x2cfb
 8558 2874 29       		.uleb128 0x29
 8559 2875 6A020000 		.4byte	.LVL367
 8560 2879 062D0000 		.4byte	0x2d06
 8561 287d 22       		.uleb128 0x22
 8562 287e 01       		.uleb128 0x1
 8563 287f 50       		.byte	0x50
 8564 2880 03       		.uleb128 0x3
 8565 2881 91       		.byte	0x91
 8566 2882 8876     		.sleb128 -1272
 8567 2884 00       		.byte	0
 8568 2885 00       		.byte	0
 8569 2886 25       		.uleb128 0x25
 8570 2887 70020000 		.4byte	.LBB393
 8571 288b 1A000000 		.4byte	.LBE393-.LBB393
 8572 288f F0280000 		.4byte	0x28f0
 8573 2893 33       		.uleb128 0x33
 8574 2894 73747200 		.ascii	"str\000"
 8575 2898 01       		.byte	0x1
 8576 2899 7701     		.2byte	0x177
ARM GAS  C:\Users\honet\AppData\Local\Temp\cc6gsi1c.s 			page 167


 8577 289b D4050000 		.4byte	0x5d4
 8578 289f 03       		.uleb128 0x3
 8579 28a0 91       		.byte	0x91
 8580 28a1 8876     		.sleb128 -1272
 8581 28a3 27       		.uleb128 0x27
 8582 28a4 7C020000 		.4byte	.LVL369
 8583 28a8 E02C0000 		.4byte	0x2ce0
 8584 28ac D5280000 		.4byte	0x28d5
 8585 28b0 22       		.uleb128 0x22
 8586 28b1 01       		.uleb128 0x1
 8587 28b2 52       		.byte	0x52
 8588 28b3 10       		.uleb128 0x10
 8589 28b4 76       		.byte	0x76
 8590 28b5 00       		.sleb128 0
 8591 28b6 33       		.byte	0x33
 8592 28b7 24       		.byte	0x24
 8593 28b8 77       		.byte	0x77
 8594 28b9 00       		.sleb128 0
 8595 28ba 1E       		.byte	0x1e
 8596 28bb F7       		.byte	0xf7
 8597 28bc 25       		.uleb128 0x25
 8598 28bd 75       		.byte	0x75
 8599 28be 00       		.sleb128 0
 8600 28bf F7       		.byte	0xf7
 8601 28c0 25       		.uleb128 0x25
 8602 28c1 1B       		.byte	0x1b
 8603 28c2 F7       		.byte	0xf7
 8604 28c3 00       		.uleb128 0
 8605 28c4 22       		.uleb128 0x22
 8606 28c5 01       		.uleb128 0x1
 8607 28c6 51       		.byte	0x51
 8608 28c7 05       		.uleb128 0x5
 8609 28c8 03       		.byte	0x3
 8610 28c9 08040000 		.4byte	.LC58
 8611 28cd 22       		.uleb128 0x22
 8612 28ce 01       		.uleb128 0x1
 8613 28cf 50       		.byte	0x50
 8614 28d0 03       		.uleb128 0x3
 8615 28d1 91       		.byte	0x91
 8616 28d2 8876     		.sleb128 -1272
 8617 28d4 00       		.byte	0
 8618 28d5 28       		.uleb128 0x28
 8619 28d6 80020000 		.4byte	.LVL370
 8620 28da FB2C0000 		.4byte	0x2cfb
 8621 28de 29       		.uleb128 0x29
 8622 28df 8A020000 		.4byte	.LVL371
 8623 28e3 062D0000 		.4byte	0x2d06
 8624 28e7 22       		.uleb128 0x22
 8625 28e8 01       		.uleb128 0x1
 8626 28e9 50       		.byte	0x50
 8627 28ea 03       		.uleb128 0x3
 8628 28eb 91       		.byte	0x91
 8629 28ec 8876     		.sleb128 -1272
 8630 28ee 00       		.byte	0
 8631 28ef 00       		.byte	0
 8632 28f0 29       		.uleb128 0x29
 8633 28f1 52020000 		.4byte	.LVL364
ARM GAS  C:\Users\honet\AppData\Local\Temp\cc6gsi1c.s 			page 168


 8634 28f5 7E2D0000 		.4byte	0x2d7e
 8635 28f9 22       		.uleb128 0x22
 8636 28fa 01       		.uleb128 0x1
 8637 28fb 50       		.byte	0x50
 8638 28fc 02       		.uleb128 0x2
 8639 28fd 74       		.byte	0x74
 8640 28fe 00       		.sleb128 0
 8641 28ff 00       		.byte	0
 8642 2900 00       		.byte	0
 8643 2901 25       		.uleb128 0x25
 8644 2902 8A020000 		.4byte	.LBB394
 8645 2906 14000000 		.4byte	.LBE394-.LBB394
 8646 290a 39290000 		.4byte	0x2939
 8647 290e 33       		.uleb128 0x33
 8648 290f 73747200 		.ascii	"str\000"
 8649 2913 01       		.byte	0x1
 8650 2914 7A01     		.2byte	0x17a
 8651 2916 D4050000 		.4byte	0x5d4
 8652 291a 03       		.uleb128 0x3
 8653 291b 91       		.byte	0x91
 8654 291c 8876     		.sleb128 -1272
 8655 291e 28       		.uleb128 0x28
 8656 291f 94020000 		.4byte	.LVL372
 8657 2923 FB2C0000 		.4byte	0x2cfb
 8658 2927 29       		.uleb128 0x29
 8659 2928 9E020000 		.4byte	.LVL373
 8660 292c 062D0000 		.4byte	0x2d06
 8661 2930 22       		.uleb128 0x22
 8662 2931 01       		.uleb128 0x1
 8663 2932 50       		.byte	0x50
 8664 2933 03       		.uleb128 0x3
 8665 2934 91       		.byte	0x91
 8666 2935 8876     		.sleb128 -1272
 8667 2937 00       		.byte	0
 8668 2938 00       		.byte	0
 8669 2939 27       		.uleb128 0x27
 8670 293a C0010000 		.4byte	.LVL346
 8671 293e 532D0000 		.4byte	0x2d53
 8672 2942 5B290000 		.4byte	0x295b
 8673 2946 22       		.uleb128 0x22
 8674 2947 01       		.uleb128 0x1
 8675 2948 52       		.byte	0x52
 8676 2949 01       		.uleb128 0x1
 8677 294a 3A       		.byte	0x3a
 8678 294b 22       		.uleb128 0x22
 8679 294c 01       		.uleb128 0x1
 8680 294d 51       		.byte	0x51
 8681 294e 05       		.uleb128 0x5
 8682 294f 03       		.byte	0x3
 8683 2950 6C030000 		.4byte	.LC52
 8684 2954 22       		.uleb128 0x22
 8685 2955 01       		.uleb128 0x1
 8686 2956 50       		.byte	0x50
 8687 2957 02       		.uleb128 0x2
 8688 2958 74       		.byte	0x74
 8689 2959 00       		.sleb128 0
 8690 295a 00       		.byte	0
ARM GAS  C:\Users\honet\AppData\Local\Temp\cc6gsi1c.s 			page 169


 8691 295b 29       		.uleb128 0x29
 8692 295c 2A020000 		.4byte	.LVL359
 8693 2960 532D0000 		.4byte	0x2d53
 8694 2964 22       		.uleb128 0x22
 8695 2965 01       		.uleb128 0x1
 8696 2966 52       		.byte	0x52
 8697 2967 01       		.uleb128 0x1
 8698 2968 31       		.byte	0x31
 8699 2969 22       		.uleb128 0x22
 8700 296a 01       		.uleb128 0x1
 8701 296b 51       		.byte	0x51
 8702 296c 05       		.uleb128 0x5
 8703 296d 03       		.byte	0x3
 8704 296e 6C030000 		.4byte	.LC52
 8705 2972 22       		.uleb128 0x22
 8706 2973 01       		.uleb128 0x1
 8707 2974 50       		.byte	0x50
 8708 2975 02       		.uleb128 0x2
 8709 2976 74       		.byte	0x74
 8710 2977 00       		.sleb128 0
 8711 2978 00       		.byte	0
 8712 2979 00       		.byte	0
 8713 297a 25       		.uleb128 0x25
 8714 297b AC020000 		.4byte	.LBB397
 8715 297f 1A000000 		.4byte	.LBE397-.LBB397
 8716 2983 B1290000 		.4byte	0x29b1
 8717 2987 33       		.uleb128 0x33
 8718 2988 73747200 		.ascii	"str\000"
 8719 298c 01       		.byte	0x1
 8720 298d 4001     		.2byte	0x140
 8721 298f D4050000 		.4byte	0x5d4
 8722 2993 03       		.uleb128 0x3
 8723 2994 91       		.byte	0x91
 8724 2995 8877     		.sleb128 -1144
 8725 2997 28       		.uleb128 0x28
 8726 2998 BC020000 		.4byte	.LVL376
 8727 299c FB2C0000 		.4byte	0x2cfb
 8728 29a0 29       		.uleb128 0x29
 8729 29a1 C6020000 		.4byte	.LVL377
 8730 29a5 062D0000 		.4byte	0x2d06
 8731 29a9 22       		.uleb128 0x22
 8732 29aa 01       		.uleb128 0x1
 8733 29ab 50       		.byte	0x50
 8734 29ac 02       		.uleb128 0x2
 8735 29ad 74       		.byte	0x74
 8736 29ae 00       		.sleb128 0
 8737 29af 00       		.byte	0
 8738 29b0 00       		.byte	0
 8739 29b1 25       		.uleb128 0x25
 8740 29b2 C8020000 		.4byte	.LBB398
 8741 29b6 16000000 		.4byte	.LBE398-.LBB398
 8742 29ba D8290000 		.4byte	0x29d8
 8743 29be 33       		.uleb128 0x33
 8744 29bf 73747200 		.ascii	"str\000"
 8745 29c3 01       		.byte	0x1
 8746 29c4 3D01     		.2byte	0x13d
 8747 29c6 D4050000 		.4byte	0x5d4
ARM GAS  C:\Users\honet\AppData\Local\Temp\cc6gsi1c.s 			page 170


 8748 29ca 03       		.uleb128 0x3
 8749 29cb 91       		.byte	0x91
 8750 29cc 8877     		.sleb128 -1144
 8751 29ce 28       		.uleb128 0x28
 8752 29cf D8020000 		.4byte	.LVL378
 8753 29d3 FB2C0000 		.4byte	0x2cfb
 8754 29d7 00       		.byte	0
 8755 29d8 25       		.uleb128 0x25
 8756 29d9 DE020000 		.4byte	.LBB399
 8757 29dd 5A000000 		.4byte	.LBE399-.LBB399
 8758 29e1 FF290000 		.4byte	0x29ff
 8759 29e5 33       		.uleb128 0x33
 8760 29e6 73747200 		.ascii	"str\000"
 8761 29ea 01       		.byte	0x1
 8762 29eb 3F01     		.2byte	0x13f
 8763 29ed D4050000 		.4byte	0x5d4
 8764 29f1 03       		.uleb128 0x3
 8765 29f2 91       		.byte	0x91
 8766 29f3 8877     		.sleb128 -1144
 8767 29f5 28       		.uleb128 0x28
 8768 29f6 EC020000 		.4byte	.LVL379
 8769 29fa FB2C0000 		.4byte	0x2cfb
 8770 29fe 00       		.byte	0
 8771 29ff 25       		.uleb128 0x25
 8772 2a00 38030000 		.4byte	.LBB400
 8773 2a04 14000000 		.4byte	.LBE400-.LBB400
 8774 2a08 262A0000 		.4byte	0x2a26
 8775 2a0c 33       		.uleb128 0x33
 8776 2a0d 73747200 		.ascii	"str\000"
 8777 2a11 01       		.byte	0x1
 8778 2a12 3E01     		.2byte	0x13e
 8779 2a14 D4050000 		.4byte	0x5d4
 8780 2a18 03       		.uleb128 0x3
 8781 2a19 91       		.byte	0x91
 8782 2a1a 8877     		.sleb128 -1144
 8783 2a1c 28       		.uleb128 0x28
 8784 2a1d 46030000 		.4byte	.LVL380
 8785 2a21 FB2C0000 		.4byte	0x2cfb
 8786 2a25 00       		.byte	0
 8787 2a26 25       		.uleb128 0x25
 8788 2a27 4C030000 		.4byte	.LBB401
 8789 2a2b 1C000000 		.4byte	.LBE401-.LBB401
 8790 2a2f 4D2A0000 		.4byte	0x2a4d
 8791 2a33 33       		.uleb128 0x33
 8792 2a34 73747200 		.ascii	"str\000"
 8793 2a38 01       		.byte	0x1
 8794 2a39 4801     		.2byte	0x148
 8795 2a3b D4050000 		.4byte	0x5d4
 8796 2a3f 03       		.uleb128 0x3
 8797 2a40 91       		.byte	0x91
 8798 2a41 8877     		.sleb128 -1144
 8799 2a43 28       		.uleb128 0x28
 8800 2a44 62030000 		.4byte	.LVL381
 8801 2a48 FB2C0000 		.4byte	0x2cfb
 8802 2a4c 00       		.byte	0
 8803 2a4d 25       		.uleb128 0x25
 8804 2a4e 68030000 		.4byte	.LBB402
ARM GAS  C:\Users\honet\AppData\Local\Temp\cc6gsi1c.s 			page 171


 8805 2a52 1C000000 		.4byte	.LBE402-.LBB402
 8806 2a56 742A0000 		.4byte	0x2a74
 8807 2a5a 33       		.uleb128 0x33
 8808 2a5b 73747200 		.ascii	"str\000"
 8809 2a5f 01       		.byte	0x1
 8810 2a60 4A01     		.2byte	0x14a
 8811 2a62 D4050000 		.4byte	0x5d4
 8812 2a66 03       		.uleb128 0x3
 8813 2a67 91       		.byte	0x91
 8814 2a68 8877     		.sleb128 -1144
 8815 2a6a 28       		.uleb128 0x28
 8816 2a6b 7E030000 		.4byte	.LVL382
 8817 2a6f FB2C0000 		.4byte	0x2cfb
 8818 2a73 00       		.byte	0
 8819 2a74 25       		.uleb128 0x25
 8820 2a75 84030000 		.4byte	.LBB403
 8821 2a79 2C000000 		.4byte	.LBE403-.LBB403
 8822 2a7d 9B2A0000 		.4byte	0x2a9b
 8823 2a81 33       		.uleb128 0x33
 8824 2a82 73747200 		.ascii	"str\000"
 8825 2a86 01       		.byte	0x1
 8826 2a87 4901     		.2byte	0x149
 8827 2a89 D4050000 		.4byte	0x5d4
 8828 2a8d 03       		.uleb128 0x3
 8829 2a8e 91       		.byte	0x91
 8830 2a8f 8877     		.sleb128 -1144
 8831 2a91 28       		.uleb128 0x28
 8832 2a92 9A030000 		.4byte	.LVL383
 8833 2a96 FB2C0000 		.4byte	0x2cfb
 8834 2a9a 00       		.byte	0
 8835 2a9b 27       		.uleb128 0x27
 8836 2a9c 46000000 		.4byte	.LVL315
 8837 2aa0 E72D0000 		.4byte	0x2de7
 8838 2aa4 AE2A0000 		.4byte	0x2aae
 8839 2aa8 22       		.uleb128 0x22
 8840 2aa9 01       		.uleb128 0x1
 8841 2aaa 50       		.byte	0x50
 8842 2aab 01       		.uleb128 0x1
 8843 2aac 30       		.byte	0x30
 8844 2aad 00       		.byte	0
 8845 2aae 27       		.uleb128 0x27
 8846 2aaf 6A000000 		.4byte	.LVL321
 8847 2ab3 FD2D0000 		.4byte	0x2dfd
 8848 2ab7 C12A0000 		.4byte	0x2ac1
 8849 2abb 22       		.uleb128 0x22
 8850 2abc 01       		.uleb128 0x1
 8851 2abd 50       		.byte	0x50
 8852 2abe 01       		.uleb128 0x1
 8853 2abf 30       		.byte	0x30
 8854 2ac0 00       		.byte	0
 8855 2ac1 27       		.uleb128 0x27
 8856 2ac2 92000000 		.4byte	.LVL325
 8857 2ac6 0E2E0000 		.4byte	0x2e0e
 8858 2aca E42A0000 		.4byte	0x2ae4
 8859 2ace 22       		.uleb128 0x22
 8860 2acf 01       		.uleb128 0x1
 8861 2ad0 52       		.byte	0x52
ARM GAS  C:\Users\honet\AppData\Local\Temp\cc6gsi1c.s 			page 172


 8862 2ad1 01       		.uleb128 0x1
 8863 2ad2 31       		.byte	0x31
 8864 2ad3 22       		.uleb128 0x22
 8865 2ad4 01       		.uleb128 0x1
 8866 2ad5 51       		.byte	0x51
 8867 2ad6 05       		.uleb128 0x5
 8868 2ad7 03       		.byte	0x3
 8869 2ad8 7C010000 		.4byte	.LC24
 8870 2adc 22       		.uleb128 0x22
 8871 2add 01       		.uleb128 0x1
 8872 2ade 50       		.byte	0x50
 8873 2adf 03       		.uleb128 0x3
 8874 2ae0 91       		.byte	0x91
 8875 2ae1 B07B     		.sleb128 -592
 8876 2ae3 00       		.byte	0
 8877 2ae4 29       		.uleb128 0x29
 8878 2ae5 4C010000 		.4byte	.LVL336
 8879 2ae9 2E2E0000 		.4byte	0x2e2e
 8880 2aed 22       		.uleb128 0x22
 8881 2aee 01       		.uleb128 0x1
 8882 2aef 50       		.byte	0x50
 8883 2af0 01       		.uleb128 0x1
 8884 2af1 31       		.byte	0x31
 8885 2af2 00       		.byte	0
 8886 2af3 00       		.byte	0
 8887 2af4 3D       		.uleb128 0x3d
 8888 2af5 E1050000 		.4byte	.LASF106
 8889 2af9 01       		.byte	0x1
 8890 2afa 8401     		.2byte	0x184
 8891 2afc 2C000000 		.4byte	0x2c
 8892 2b00 00000000 		.4byte	.LFB70
 8893 2b04 9C000000 		.4byte	.LFE70-.LFB70
 8894 2b08 01       		.uleb128 0x1
 8895 2b09 9C       		.byte	0x9c
 8896 2b0a 682C0000 		.4byte	0x2c68
 8897 2b0e 25       		.uleb128 0x25
 8898 2b0f 3A000000 		.4byte	.LBB404
 8899 2b13 26000000 		.4byte	.LBE404-.LBB404
 8900 2b17 952B0000 		.4byte	0x2b95
 8901 2b1b 38       		.uleb128 0x38
 8902 2b1c 6900     		.ascii	"i\000"
 8903 2b1e 01       		.byte	0x1
 8904 2b1f 9701     		.2byte	0x197
 8905 2b21 2C000000 		.4byte	0x2c
 8906 2b25 1A130000 		.4byte	.LLST124
 8907 2b29 25       		.uleb128 0x25
 8908 2b2a 3C000000 		.4byte	.LBB405
 8909 2b2e 18000000 		.4byte	.LBE405-.LBB405
 8910 2b32 832B0000 		.4byte	0x2b83
 8911 2b36 33       		.uleb128 0x33
 8912 2b37 73747200 		.ascii	"str\000"
 8913 2b3b 01       		.byte	0x1
 8914 2b3c 9801     		.2byte	0x198
 8915 2b3e D4050000 		.4byte	0x5d4
 8916 2b42 03       		.uleb128 0x3
 8917 2b43 91       		.byte	0x91
 8918 2b44 F07E     		.sleb128 -144
ARM GAS  C:\Users\honet\AppData\Local\Temp\cc6gsi1c.s 			page 173


 8919 2b46 27       		.uleb128 0x27
 8920 2b47 46000000 		.4byte	.LVL393
 8921 2b4b E02C0000 		.4byte	0x2ce0
 8922 2b4f 692B0000 		.4byte	0x2b69
 8923 2b53 22       		.uleb128 0x22
 8924 2b54 01       		.uleb128 0x1
 8925 2b55 52       		.byte	0x52
 8926 2b56 02       		.uleb128 0x2
 8927 2b57 74       		.byte	0x74
 8928 2b58 00       		.sleb128 0
 8929 2b59 22       		.uleb128 0x22
 8930 2b5a 01       		.uleb128 0x1
 8931 2b5b 51       		.byte	0x51
 8932 2b5c 05       		.uleb128 0x5
 8933 2b5d 03       		.byte	0x3
 8934 2b5e 10040000 		.4byte	.LC59
 8935 2b62 22       		.uleb128 0x22
 8936 2b63 01       		.uleb128 0x1
 8937 2b64 50       		.byte	0x50
 8938 2b65 02       		.uleb128 0x2
 8939 2b66 7D       		.byte	0x7d
 8940 2b67 00       		.sleb128 0
 8941 2b68 00       		.byte	0
 8942 2b69 28       		.uleb128 0x28
 8943 2b6a 4A000000 		.4byte	.LVL394
 8944 2b6e FB2C0000 		.4byte	0x2cfb
 8945 2b72 29       		.uleb128 0x29
 8946 2b73 54000000 		.4byte	.LVL395
 8947 2b77 062D0000 		.4byte	0x2d06
 8948 2b7b 22       		.uleb128 0x22
 8949 2b7c 01       		.uleb128 0x1
 8950 2b7d 50       		.byte	0x50
 8951 2b7e 02       		.uleb128 0x2
 8952 2b7f 7D       		.byte	0x7d
 8953 2b80 00       		.sleb128 0
 8954 2b81 00       		.byte	0
 8955 2b82 00       		.byte	0
 8956 2b83 29       		.uleb128 0x29
 8957 2b84 5C000000 		.4byte	.LVL396
 8958 2b88 D62D0000 		.4byte	0x2dd6
 8959 2b8c 22       		.uleb128 0x22
 8960 2b8d 01       		.uleb128 0x1
 8961 2b8e 50       		.byte	0x50
 8962 2b8f 03       		.uleb128 0x3
 8963 2b90 0A       		.byte	0xa
 8964 2b91 E803     		.2byte	0x3e8
 8965 2b93 00       		.byte	0
 8966 2b94 00       		.byte	0
 8967 2b95 25       		.uleb128 0x25
 8968 2b96 60000000 		.4byte	.LBB406
 8969 2b9a 1E000000 		.4byte	.LBE406-.LBB406
 8970 2b9e CC2B0000 		.4byte	0x2bcc
 8971 2ba2 33       		.uleb128 0x33
 8972 2ba3 73747200 		.ascii	"str\000"
 8973 2ba7 01       		.byte	0x1
 8974 2ba8 9B01     		.2byte	0x19b
 8975 2baa D4050000 		.4byte	0x5d4
ARM GAS  C:\Users\honet\AppData\Local\Temp\cc6gsi1c.s 			page 174


 8976 2bae 03       		.uleb128 0x3
 8977 2baf 91       		.byte	0x91
 8978 2bb0 F07E     		.sleb128 -144
 8979 2bb2 28       		.uleb128 0x28
 8980 2bb3 74000000 		.4byte	.LVL398
 8981 2bb7 FB2C0000 		.4byte	0x2cfb
 8982 2bbb 29       		.uleb128 0x29
 8983 2bbc 7E000000 		.4byte	.LVL399
 8984 2bc0 062D0000 		.4byte	0x2d06
 8985 2bc4 22       		.uleb128 0x22
 8986 2bc5 01       		.uleb128 0x1
 8987 2bc6 50       		.byte	0x50
 8988 2bc7 02       		.uleb128 0x2
 8989 2bc8 7D       		.byte	0x7d
 8990 2bc9 00       		.sleb128 0
 8991 2bca 00       		.byte	0
 8992 2bcb 00       		.byte	0
 8993 2bcc 27       		.uleb128 0x27
 8994 2bcd 0C000000 		.4byte	.LVL384
 8995 2bd1 D62D0000 		.4byte	0x2dd6
 8996 2bd5 E12B0000 		.4byte	0x2be1
 8997 2bd9 22       		.uleb128 0x22
 8998 2bda 01       		.uleb128 0x1
 8999 2bdb 50       		.byte	0x50
 9000 2bdc 03       		.uleb128 0x3
 9001 2bdd 0A       		.byte	0xa
 9002 2bde E803     		.2byte	0x3e8
 9003 2be0 00       		.byte	0
 9004 2be1 27       		.uleb128 0x27
 9005 2be2 12000000 		.4byte	.LVL385
 9006 2be6 FD2D0000 		.4byte	0x2dfd
 9007 2bea F42B0000 		.4byte	0x2bf4
 9008 2bee 22       		.uleb128 0x22
 9009 2bef 01       		.uleb128 0x1
 9010 2bf0 50       		.byte	0x50
 9011 2bf1 01       		.uleb128 0x1
 9012 2bf2 31       		.byte	0x31
 9013 2bf3 00       		.byte	0
 9014 2bf4 27       		.uleb128 0x27
 9015 2bf5 1C000000 		.4byte	.LVL386
 9016 2bf9 3F2E0000 		.4byte	0x2e3f
 9017 2bfd 0C2C0000 		.4byte	0x2c0c
 9018 2c01 22       		.uleb128 0x22
 9019 2c02 01       		.uleb128 0x1
 9020 2c03 51       		.byte	0x51
 9021 2c04 01       		.uleb128 0x1
 9022 2c05 32       		.byte	0x32
 9023 2c06 22       		.uleb128 0x22
 9024 2c07 01       		.uleb128 0x1
 9025 2c08 50       		.byte	0x50
 9026 2c09 01       		.uleb128 0x1
 9027 2c0a 30       		.byte	0x30
 9028 2c0b 00       		.byte	0
 9029 2c0c 28       		.uleb128 0x28
 9030 2c0d 20000000 		.4byte	.LVL387
 9031 2c11 562E0000 		.4byte	0x2e56
 9032 2c15 28       		.uleb128 0x28
ARM GAS  C:\Users\honet\AppData\Local\Temp\cc6gsi1c.s 			page 175


 9033 2c16 28000000 		.4byte	.LVL388
 9034 2c1a 622E0000 		.4byte	0x2e62
 9035 2c1e 27       		.uleb128 0x27
 9036 2c1f 32000000 		.4byte	.LVL389
 9037 2c23 6D2E0000 		.4byte	0x2e6d
 9038 2c27 472C0000 		.4byte	0x2c47
 9039 2c2b 22       		.uleb128 0x22
 9040 2c2c 01       		.uleb128 0x1
 9041 2c2d 52       		.byte	0x52
 9042 2c2e 05       		.uleb128 0x5
 9043 2c2f 03       		.byte	0x3
 9044 2c30 00000000 		.4byte	PrintFxn
 9045 2c34 22       		.uleb128 0x22
 9046 2c35 01       		.uleb128 0x1
 9047 2c36 51       		.byte	0x51
 9048 2c37 05       		.uleb128 0x5
 9049 2c38 03       		.byte	0x3
 9050 2c39 00000000 		.4byte	SDCARD_FAST
 9051 2c3d 22       		.uleb128 0x22
 9052 2c3e 01       		.uleb128 0x1
 9053 2c3f 50       		.byte	0x50
 9054 2c40 05       		.uleb128 0x5
 9055 2c41 03       		.byte	0x3
 9056 2c42 00000000 		.4byte	SDCARD_SLOW
 9057 2c46 00       		.byte	0
 9058 2c47 27       		.uleb128 0x27
 9059 2c48 38000000 		.4byte	.LVL390
 9060 2c4c 882E0000 		.4byte	0x2e88
 9061 2c50 5E2C0000 		.4byte	0x2c5e
 9062 2c54 22       		.uleb128 0x22
 9063 2c55 01       		.uleb128 0x1
 9064 2c56 50       		.byte	0x50
 9065 2c57 05       		.uleb128 0x5
 9066 2c58 03       		.byte	0x3
 9067 2c59 00000000 		.4byte	MillisISR
 9068 2c5d 00       		.byte	0
 9069 2c5e 28       		.uleb128 0x28
 9070 2c5f 82000000 		.4byte	.LVL400
 9071 2c63 53230000 		.4byte	0x2353
 9072 2c67 00       		.byte	0
 9073 2c68 3E       		.uleb128 0x3e
 9074 2c69 C6040000 		.4byte	.LASF107
 9075 2c6d 08       		.byte	0x8
 9076 2c6e 9606     		.2byte	0x696
 9077 2c70 742C0000 		.4byte	0x2c74
 9078 2c74 3F       		.uleb128 0x3f
 9079 2c75 E0000000 		.4byte	0xe0
 9080 2c79 40       		.uleb128 0x40
 9081 2c7a AD000000 		.4byte	.LASF108
 9082 2c7e 01       		.byte	0x1
 9083 2c7f 12       		.byte	0x12
 9084 2c80 8A2C0000 		.4byte	0x2c8a
 9085 2c84 05       		.uleb128 0x5
 9086 2c85 03       		.byte	0x3
 9087 2c86 00000000 		.4byte	nmillis
 9088 2c8a 3F       		.uleb128 0x3f
 9089 2c8b 8D000000 		.4byte	0x8d
ARM GAS  C:\Users\honet\AppData\Local\Temp\cc6gsi1c.s 			page 176


 9090 2c8f 0F       		.uleb128 0xf
 9091 2c90 CA000000 		.4byte	0xca
 9092 2c94 A02C0000 		.4byte	0x2ca0
 9093 2c98 10       		.uleb128 0x10
 9094 2c99 A2000000 		.4byte	0xa2
 9095 2c9d FF7F     		.2byte	0x7fff
 9096 2c9f 00       		.byte	0
 9097 2ca0 40       		.uleb128 0x40
 9098 2ca1 29000000 		.4byte	.LASF109
 9099 2ca5 01       		.byte	0x1
 9100 2ca6 15       		.byte	0x15
 9101 2ca7 8F2C0000 		.4byte	0x2c8f
 9102 2cab 05       		.uleb128 0x5
 9103 2cac 03       		.byte	0x3
 9104 2cad 00000000 		.4byte	buffer
 9105 2cb1 40       		.uleb128 0x40
 9106 2cb2 37050000 		.4byte	.LASF110
 9107 2cb6 01       		.byte	0x1
 9108 2cb7 17       		.byte	0x17
 9109 2cb8 82030000 		.4byte	0x382
 9110 2cbc 05       		.uleb128 0x5
 9111 2cbd 03       		.byte	0x3
 9112 2cbe 00000000 		.4byte	File
 9113 2cc2 41       		.uleb128 0x41
 9114 2cc3 3F030000 		.4byte	.LASF134
 9115 2cc7 07       		.byte	0x7
 9116 2cc8 F101     		.2byte	0x1f1
 9117 2cca 42       		.uleb128 0x42
 9118 2ccb FF050000 		.4byte	.LASF112
 9119 2ccf 09       		.byte	0x9
 9120 2cd0 2F       		.byte	0x2f
 9121 2cd1 E02C0000 		.4byte	0x2ce0
 9122 2cd5 0B       		.uleb128 0xb
 9123 2cd6 02010000 		.4byte	0x102
 9124 2cda 0B       		.uleb128 0xb
 9125 2cdb F6000000 		.4byte	0xf6
 9126 2cdf 00       		.byte	0
 9127 2ce0 43       		.uleb128 0x43
 9128 2ce1 9A030000 		.4byte	.LASF114
 9129 2ce5 0B       		.byte	0xb
 9130 2ce6 DE       		.byte	0xde
 9131 2ce7 2C000000 		.4byte	0x2c
 9132 2ceb FB2C0000 		.4byte	0x2cfb
 9133 2cef 0B       		.uleb128 0xb
 9134 2cf0 B2000000 		.4byte	0xb2
 9135 2cf4 0B       		.uleb128 0xb
 9136 2cf5 BF000000 		.4byte	0xbf
 9137 2cf9 44       		.uleb128 0x44
 9138 2cfa 00       		.byte	0
 9139 2cfb 45       		.uleb128 0x45
 9140 2cfc 4E010000 		.4byte	.LASF126
 9141 2d00 0A       		.byte	0xa
 9142 2d01 28       		.byte	0x28
 9143 2d02 F6000000 		.4byte	0xf6
 9144 2d06 42       		.uleb128 0x42
 9145 2d07 70020000 		.4byte	.LASF113
 9146 2d0b 0A       		.byte	0xa
ARM GAS  C:\Users\honet\AppData\Local\Temp\cc6gsi1c.s 			page 177


 9147 2d0c 24       		.byte	0x24
 9148 2d0d 172D0000 		.4byte	0x2d17
 9149 2d11 0B       		.uleb128 0xb
 9150 2d12 172D0000 		.4byte	0x2d17
 9151 2d16 00       		.byte	0
 9152 2d17 06       		.uleb128 0x6
 9153 2d18 04       		.byte	0x4
 9154 2d19 1D2D0000 		.4byte	0x2d1d
 9155 2d1d 08       		.uleb128 0x8
 9156 2d1e 28010000 		.4byte	0x128
 9157 2d22 46       		.uleb128 0x46
 9158 2d23 E5020000 		.4byte	.LASF115
 9159 2d27 07       		.byte	0x7
 9160 2d28 2E01     		.2byte	0x12e
 9161 2d2a 0F040000 		.4byte	0x40f
 9162 2d2e 472D0000 		.4byte	0x2d47
 9163 2d32 0B       		.uleb128 0xb
 9164 2d33 472D0000 		.4byte	0x2d47
 9165 2d37 0B       		.uleb128 0xb
 9166 2d38 27040000 		.4byte	0x427
 9167 2d3c 0B       		.uleb128 0xb
 9168 2d3d 67010000 		.4byte	0x167
 9169 2d41 0B       		.uleb128 0xb
 9170 2d42 4D2D0000 		.4byte	0x2d4d
 9171 2d46 00       		.byte	0
 9172 2d47 06       		.uleb128 0x6
 9173 2d48 04       		.byte	0x4
 9174 2d49 82030000 		.4byte	0x382
 9175 2d4d 06       		.uleb128 0x6
 9176 2d4e 04       		.byte	0x4
 9177 2d4f 67010000 		.4byte	0x167
 9178 2d53 46       		.uleb128 0x46
 9179 2d54 07020000 		.4byte	.LASF116
 9180 2d58 07       		.byte	0x7
 9181 2d59 2B01     		.2byte	0x12b
 9182 2d5b 0F040000 		.4byte	0x40f
 9183 2d5f 732D0000 		.4byte	0x2d73
 9184 2d63 0B       		.uleb128 0xb
 9185 2d64 472D0000 		.4byte	0x2d47
 9186 2d68 0B       		.uleb128 0xb
 9187 2d69 732D0000 		.4byte	0x2d73
 9188 2d6d 0B       		.uleb128 0xb
 9189 2d6e 72010000 		.4byte	0x172
 9190 2d72 00       		.byte	0
 9191 2d73 06       		.uleb128 0x6
 9192 2d74 04       		.byte	0x4
 9193 2d75 792D0000 		.4byte	0x2d79
 9194 2d79 08       		.uleb128 0x8
 9195 2d7a 93010000 		.4byte	0x193
 9196 2d7e 46       		.uleb128 0x46
 9197 2d7f 5F000000 		.4byte	.LASF117
 9198 2d83 07       		.byte	0x7
 9199 2d84 2C01     		.2byte	0x12c
 9200 2d86 0F040000 		.4byte	0x40f
 9201 2d8a 942D0000 		.4byte	0x2d94
 9202 2d8e 0B       		.uleb128 0xb
 9203 2d8f 472D0000 		.4byte	0x2d47
ARM GAS  C:\Users\honet\AppData\Local\Temp\cc6gsi1c.s 			page 178


 9204 2d93 00       		.byte	0
 9205 2d94 47       		.uleb128 0x47
 9206 2d95 00030000 		.4byte	.LASF118
 9207 2d99 A9000000 		.4byte	0xa9
 9208 2d9d B12D0000 		.4byte	0x2db1
 9209 2da1 0B       		.uleb128 0xb
 9210 2da2 A9000000 		.4byte	0xa9
 9211 2da6 0B       		.uleb128 0xb
 9212 2da7 2C000000 		.4byte	0x2c
 9213 2dab 0B       		.uleb128 0xb
 9214 2dac A2000000 		.4byte	0xa2
 9215 2db0 00       		.byte	0
 9216 2db1 46       		.uleb128 0x46
 9217 2db2 35020000 		.4byte	.LASF119
 9218 2db6 07       		.byte	0x7
 9219 2db7 2D01     		.2byte	0x12d
 9220 2db9 0F040000 		.4byte	0x40f
 9221 2dbd D62D0000 		.4byte	0x2dd6
 9222 2dc1 0B       		.uleb128 0xb
 9223 2dc2 472D0000 		.4byte	0x2d47
 9224 2dc6 0B       		.uleb128 0xb
 9225 2dc7 A9000000 		.4byte	0xa9
 9226 2dcb 0B       		.uleb128 0xb
 9227 2dcc 67010000 		.4byte	0x167
 9228 2dd0 0B       		.uleb128 0xb
 9229 2dd1 4D2D0000 		.4byte	0x2d4d
 9230 2dd5 00       		.byte	0
 9231 2dd6 42       		.uleb128 0x42
 9232 2dd7 3C020000 		.4byte	.LASF120
 9233 2ddb 0C       		.byte	0xc
 9234 2ddc 76       		.byte	0x76
 9235 2ddd E72D0000 		.4byte	0x2de7
 9236 2de1 0B       		.uleb128 0xb
 9237 2de2 0E010000 		.4byte	0x10e
 9238 2de6 00       		.byte	0
 9239 2de7 46       		.uleb128 0x46
 9240 2de8 2E010000 		.4byte	.LASF121
 9241 2dec 07       		.byte	0x7
 9242 2ded EA01     		.2byte	0x1ea
 9243 2def 1B040000 		.4byte	0x41b
 9244 2df3 FD2D0000 		.4byte	0x2dfd
 9245 2df7 0B       		.uleb128 0xb
 9246 2df8 72010000 		.4byte	0x172
 9247 2dfc 00       		.byte	0
 9248 2dfd 42       		.uleb128 0x42
 9249 2dfe D3040000 		.4byte	.LASF122
 9250 2e02 0D       		.byte	0xd
 9251 2e03 27       		.byte	0x27
 9252 2e04 0E2E0000 		.4byte	0x2e0e
 9253 2e08 0B       		.uleb128 0xb
 9254 2e09 F6000000 		.4byte	0xf6
 9255 2e0d 00       		.byte	0
 9256 2e0e 46       		.uleb128 0x46
 9257 2e0f A2040000 		.4byte	.LASF123
 9258 2e13 07       		.byte	0x7
 9259 2e14 4501     		.2byte	0x145
 9260 2e16 0F040000 		.4byte	0x40f
ARM GAS  C:\Users\honet\AppData\Local\Temp\cc6gsi1c.s 			page 179


 9261 2e1a 2E2E0000 		.4byte	0x2e2e
 9262 2e1e 0B       		.uleb128 0xb
 9263 2e1f F5020000 		.4byte	0x2f5
 9264 2e23 0B       		.uleb128 0xb
 9265 2e24 732D0000 		.4byte	0x2d73
 9266 2e28 0B       		.uleb128 0xb
 9267 2e29 72010000 		.4byte	0x172
 9268 2e2d 00       		.byte	0
 9269 2e2e 42       		.uleb128 0x42
 9270 2e2f 89030000 		.4byte	.LASF124
 9271 2e33 06       		.byte	0x6
 9272 2e34 2A       		.byte	0x2a
 9273 2e35 3F2E0000 		.4byte	0x2e3f
 9274 2e39 0B       		.uleb128 0xb
 9275 2e3a CA000000 		.4byte	0xca
 9276 2e3e 00       		.byte	0
 9277 2e3f 48       		.uleb128 0x48
 9278 2e40 63040000 		.4byte	.LASF125
 9279 2e44 0E       		.byte	0xe
 9280 2e45 2A01     		.2byte	0x12a
 9281 2e47 562E0000 		.4byte	0x2e56
 9282 2e4b 0B       		.uleb128 0xb
 9283 2e4c F6000000 		.4byte	0xf6
 9284 2e50 0B       		.uleb128 0xb
 9285 2e51 F6000000 		.4byte	0xf6
 9286 2e55 00       		.byte	0
 9287 2e56 49       		.uleb128 0x49
 9288 2e57 9F010000 		.4byte	.LASF127
 9289 2e5b 0E       		.byte	0xe
 9290 2e5c 2D01     		.2byte	0x12d
 9291 2e5e F6000000 		.4byte	0xf6
 9292 2e62 45       		.uleb128 0x45
 9293 2e63 1B010000 		.4byte	.LASF128
 9294 2e67 0A       		.byte	0xa
 9295 2e68 22       		.byte	0x22
 9296 2e69 F6000000 		.4byte	0xf6
 9297 2e6d 42       		.uleb128 0x42
 9298 2e6e 22050000 		.4byte	.LASF129
 9299 2e72 06       		.byte	0x6
 9300 2e73 15       		.byte	0x15
 9301 2e74 882E0000 		.4byte	0x2e88
 9302 2e78 0B       		.uleb128 0xb
 9303 2e79 40010000 		.4byte	0x140
 9304 2e7d 0B       		.uleb128 0xb
 9305 2e7e 40010000 		.4byte	0x140
 9306 2e82 0B       		.uleb128 0xb
 9307 2e83 4B010000 		.4byte	0x14b
 9308 2e87 00       		.byte	0
 9309 2e88 4A       		.uleb128 0x4a
 9310 2e89 A5050000 		.4byte	.LASF135
 9311 2e8d 0F       		.byte	0xf
 9312 2e8e 18       		.byte	0x18
 9313 2e8f 0B       		.uleb128 0xb
 9314 2e90 34010000 		.4byte	0x134
 9315 2e94 00       		.byte	0
 9316 2e95 00       		.byte	0
 9317              		.section	.debug_abbrev,"",%progbits
ARM GAS  C:\Users\honet\AppData\Local\Temp\cc6gsi1c.s 			page 180


 9318              	.Ldebug_abbrev0:
 9319 0000 01       		.uleb128 0x1
 9320 0001 11       		.uleb128 0x11
 9321 0002 01       		.byte	0x1
 9322 0003 25       		.uleb128 0x25
 9323 0004 0E       		.uleb128 0xe
 9324 0005 13       		.uleb128 0x13
 9325 0006 0B       		.uleb128 0xb
 9326 0007 03       		.uleb128 0x3
 9327 0008 0E       		.uleb128 0xe
 9328 0009 1B       		.uleb128 0x1b
 9329 000a 0E       		.uleb128 0xe
 9330 000b 55       		.uleb128 0x55
 9331 000c 17       		.uleb128 0x17
 9332 000d 11       		.uleb128 0x11
 9333 000e 01       		.uleb128 0x1
 9334 000f 10       		.uleb128 0x10
 9335 0010 17       		.uleb128 0x17
 9336 0011 00       		.byte	0
 9337 0012 00       		.byte	0
 9338 0013 02       		.uleb128 0x2
 9339 0014 24       		.uleb128 0x24
 9340 0015 00       		.byte	0
 9341 0016 0B       		.uleb128 0xb
 9342 0017 0B       		.uleb128 0xb
 9343 0018 3E       		.uleb128 0x3e
 9344 0019 0B       		.uleb128 0xb
 9345 001a 03       		.uleb128 0x3
 9346 001b 0E       		.uleb128 0xe
 9347 001c 00       		.byte	0
 9348 001d 00       		.byte	0
 9349 001e 03       		.uleb128 0x3
 9350 001f 24       		.uleb128 0x24
 9351 0020 00       		.byte	0
 9352 0021 0B       		.uleb128 0xb
 9353 0022 0B       		.uleb128 0xb
 9354 0023 3E       		.uleb128 0x3e
 9355 0024 0B       		.uleb128 0xb
 9356 0025 03       		.uleb128 0x3
 9357 0026 08       		.uleb128 0x8
 9358 0027 00       		.byte	0
 9359 0028 00       		.byte	0
 9360 0029 04       		.uleb128 0x4
 9361 002a 16       		.uleb128 0x16
 9362 002b 00       		.byte	0
 9363 002c 03       		.uleb128 0x3
 9364 002d 0E       		.uleb128 0xe
 9365 002e 3A       		.uleb128 0x3a
 9366 002f 0B       		.uleb128 0xb
 9367 0030 3B       		.uleb128 0x3b
 9368 0031 0B       		.uleb128 0xb
 9369 0032 49       		.uleb128 0x49
 9370 0033 13       		.uleb128 0x13
 9371 0034 00       		.byte	0
 9372 0035 00       		.byte	0
 9373 0036 05       		.uleb128 0x5
 9374 0037 0F       		.uleb128 0xf
ARM GAS  C:\Users\honet\AppData\Local\Temp\cc6gsi1c.s 			page 181


 9375 0038 00       		.byte	0
 9376 0039 0B       		.uleb128 0xb
 9377 003a 0B       		.uleb128 0xb
 9378 003b 00       		.byte	0
 9379 003c 00       		.byte	0
 9380 003d 06       		.uleb128 0x6
 9381 003e 0F       		.uleb128 0xf
 9382 003f 00       		.byte	0
 9383 0040 0B       		.uleb128 0xb
 9384 0041 0B       		.uleb128 0xb
 9385 0042 49       		.uleb128 0x49
 9386 0043 13       		.uleb128 0x13
 9387 0044 00       		.byte	0
 9388 0045 00       		.byte	0
 9389 0046 07       		.uleb128 0x7
 9390 0047 15       		.uleb128 0x15
 9391 0048 00       		.byte	0
 9392 0049 27       		.uleb128 0x27
 9393 004a 19       		.uleb128 0x19
 9394 004b 00       		.byte	0
 9395 004c 00       		.byte	0
 9396 004d 08       		.uleb128 0x8
 9397 004e 26       		.uleb128 0x26
 9398 004f 00       		.byte	0
 9399 0050 49       		.uleb128 0x49
 9400 0051 13       		.uleb128 0x13
 9401 0052 00       		.byte	0
 9402 0053 00       		.byte	0
 9403 0054 09       		.uleb128 0x9
 9404 0055 16       		.uleb128 0x16
 9405 0056 00       		.byte	0
 9406 0057 03       		.uleb128 0x3
 9407 0058 0E       		.uleb128 0xe
 9408 0059 3A       		.uleb128 0x3a
 9409 005a 0B       		.uleb128 0xb
 9410 005b 3B       		.uleb128 0x3b
 9411 005c 05       		.uleb128 0x5
 9412 005d 49       		.uleb128 0x49
 9413 005e 13       		.uleb128 0x13
 9414 005f 00       		.byte	0
 9415 0060 00       		.byte	0
 9416 0061 0A       		.uleb128 0xa
 9417 0062 15       		.uleb128 0x15
 9418 0063 01       		.byte	0x1
 9419 0064 27       		.uleb128 0x27
 9420 0065 19       		.uleb128 0x19
 9421 0066 01       		.uleb128 0x1
 9422 0067 13       		.uleb128 0x13
 9423 0068 00       		.byte	0
 9424 0069 00       		.byte	0
 9425 006a 0B       		.uleb128 0xb
 9426 006b 05       		.uleb128 0x5
 9427 006c 00       		.byte	0
 9428 006d 49       		.uleb128 0x49
 9429 006e 13       		.uleb128 0x13
 9430 006f 00       		.byte	0
 9431 0070 00       		.byte	0
ARM GAS  C:\Users\honet\AppData\Local\Temp\cc6gsi1c.s 			page 182


 9432 0071 0C       		.uleb128 0xc
 9433 0072 13       		.uleb128 0x13
 9434 0073 01       		.byte	0x1
 9435 0074 0B       		.uleb128 0xb
 9436 0075 05       		.uleb128 0x5
 9437 0076 3A       		.uleb128 0x3a
 9438 0077 0B       		.uleb128 0xb
 9439 0078 3B       		.uleb128 0x3b
 9440 0079 0B       		.uleb128 0xb
 9441 007a 01       		.uleb128 0x1
 9442 007b 13       		.uleb128 0x13
 9443 007c 00       		.byte	0
 9444 007d 00       		.byte	0
 9445 007e 0D       		.uleb128 0xd
 9446 007f 0D       		.uleb128 0xd
 9447 0080 00       		.byte	0
 9448 0081 03       		.uleb128 0x3
 9449 0082 0E       		.uleb128 0xe
 9450 0083 3A       		.uleb128 0x3a
 9451 0084 0B       		.uleb128 0xb
 9452 0085 3B       		.uleb128 0x3b
 9453 0086 0B       		.uleb128 0xb
 9454 0087 49       		.uleb128 0x49
 9455 0088 13       		.uleb128 0x13
 9456 0089 38       		.uleb128 0x38
 9457 008a 0B       		.uleb128 0xb
 9458 008b 00       		.byte	0
 9459 008c 00       		.byte	0
 9460 008d 0E       		.uleb128 0xe
 9461 008e 0D       		.uleb128 0xd
 9462 008f 00       		.byte	0
 9463 0090 03       		.uleb128 0x3
 9464 0091 08       		.uleb128 0x8
 9465 0092 3A       		.uleb128 0x3a
 9466 0093 0B       		.uleb128 0xb
 9467 0094 3B       		.uleb128 0x3b
 9468 0095 0B       		.uleb128 0xb
 9469 0096 49       		.uleb128 0x49
 9470 0097 13       		.uleb128 0x13
 9471 0098 38       		.uleb128 0x38
 9472 0099 0B       		.uleb128 0xb
 9473 009a 00       		.byte	0
 9474 009b 00       		.byte	0
 9475 009c 0F       		.uleb128 0xf
 9476 009d 01       		.uleb128 0x1
 9477 009e 01       		.byte	0x1
 9478 009f 49       		.uleb128 0x49
 9479 00a0 13       		.uleb128 0x13
 9480 00a1 01       		.uleb128 0x1
 9481 00a2 13       		.uleb128 0x13
 9482 00a3 00       		.byte	0
 9483 00a4 00       		.byte	0
 9484 00a5 10       		.uleb128 0x10
 9485 00a6 21       		.uleb128 0x21
 9486 00a7 00       		.byte	0
 9487 00a8 49       		.uleb128 0x49
 9488 00a9 13       		.uleb128 0x13
ARM GAS  C:\Users\honet\AppData\Local\Temp\cc6gsi1c.s 			page 183


 9489 00aa 2F       		.uleb128 0x2f
 9490 00ab 05       		.uleb128 0x5
 9491 00ac 00       		.byte	0
 9492 00ad 00       		.byte	0
 9493 00ae 11       		.uleb128 0x11
 9494 00af 13       		.uleb128 0x13
 9495 00b0 01       		.byte	0x1
 9496 00b1 0B       		.uleb128 0xb
 9497 00b2 0B       		.uleb128 0xb
 9498 00b3 3A       		.uleb128 0x3a
 9499 00b4 0B       		.uleb128 0xb
 9500 00b5 3B       		.uleb128 0x3b
 9501 00b6 0B       		.uleb128 0xb
 9502 00b7 01       		.uleb128 0x1
 9503 00b8 13       		.uleb128 0x13
 9504 00b9 00       		.byte	0
 9505 00ba 00       		.byte	0
 9506 00bb 12       		.uleb128 0x12
 9507 00bc 16       		.uleb128 0x16
 9508 00bd 00       		.byte	0
 9509 00be 03       		.uleb128 0x3
 9510 00bf 08       		.uleb128 0x8
 9511 00c0 3A       		.uleb128 0x3a
 9512 00c1 0B       		.uleb128 0xb
 9513 00c2 3B       		.uleb128 0x3b
 9514 00c3 0B       		.uleb128 0xb
 9515 00c4 49       		.uleb128 0x49
 9516 00c5 13       		.uleb128 0x13
 9517 00c6 00       		.byte	0
 9518 00c7 00       		.byte	0
 9519 00c8 13       		.uleb128 0x13
 9520 00c9 04       		.uleb128 0x4
 9521 00ca 01       		.byte	0x1
 9522 00cb 0B       		.uleb128 0xb
 9523 00cc 0B       		.uleb128 0xb
 9524 00cd 3A       		.uleb128 0x3a
 9525 00ce 0B       		.uleb128 0xb
 9526 00cf 3B       		.uleb128 0x3b
 9527 00d0 05       		.uleb128 0x5
 9528 00d1 01       		.uleb128 0x1
 9529 00d2 13       		.uleb128 0x13
 9530 00d3 00       		.byte	0
 9531 00d4 00       		.byte	0
 9532 00d5 14       		.uleb128 0x14
 9533 00d6 28       		.uleb128 0x28
 9534 00d7 00       		.byte	0
 9535 00d8 03       		.uleb128 0x3
 9536 00d9 0E       		.uleb128 0xe
 9537 00da 1C       		.uleb128 0x1c
 9538 00db 0D       		.uleb128 0xd
 9539 00dc 00       		.byte	0
 9540 00dd 00       		.byte	0
 9541 00de 15       		.uleb128 0x15
 9542 00df 26       		.uleb128 0x26
 9543 00e0 00       		.byte	0
 9544 00e1 00       		.byte	0
 9545 00e2 00       		.byte	0
ARM GAS  C:\Users\honet\AppData\Local\Temp\cc6gsi1c.s 			page 184


 9546 00e3 16       		.uleb128 0x16
 9547 00e4 2E       		.uleb128 0x2e
 9548 00e5 01       		.byte	0x1
 9549 00e6 3F       		.uleb128 0x3f
 9550 00e7 19       		.uleb128 0x19
 9551 00e8 03       		.uleb128 0x3
 9552 00e9 0E       		.uleb128 0xe
 9553 00ea 3A       		.uleb128 0x3a
 9554 00eb 0B       		.uleb128 0xb
 9555 00ec 3B       		.uleb128 0x3b
 9556 00ed 0B       		.uleb128 0xb
 9557 00ee 27       		.uleb128 0x27
 9558 00ef 19       		.uleb128 0x19
 9559 00f0 20       		.uleb128 0x20
 9560 00f1 0B       		.uleb128 0xb
 9561 00f2 01       		.uleb128 0x1
 9562 00f3 13       		.uleb128 0x13
 9563 00f4 00       		.byte	0
 9564 00f5 00       		.byte	0
 9565 00f6 17       		.uleb128 0x17
 9566 00f7 05       		.uleb128 0x5
 9567 00f8 00       		.byte	0
 9568 00f9 03       		.uleb128 0x3
 9569 00fa 0E       		.uleb128 0xe
 9570 00fb 3A       		.uleb128 0x3a
 9571 00fc 0B       		.uleb128 0xb
 9572 00fd 3B       		.uleb128 0x3b
 9573 00fe 0B       		.uleb128 0xb
 9574 00ff 49       		.uleb128 0x49
 9575 0100 13       		.uleb128 0x13
 9576 0101 00       		.byte	0
 9577 0102 00       		.byte	0
 9578 0103 18       		.uleb128 0x18
 9579 0104 05       		.uleb128 0x5
 9580 0105 00       		.byte	0
 9581 0106 03       		.uleb128 0x3
 9582 0107 08       		.uleb128 0x8
 9583 0108 3A       		.uleb128 0x3a
 9584 0109 0B       		.uleb128 0xb
 9585 010a 3B       		.uleb128 0x3b
 9586 010b 0B       		.uleb128 0xb
 9587 010c 49       		.uleb128 0x49
 9588 010d 13       		.uleb128 0x13
 9589 010e 00       		.byte	0
 9590 010f 00       		.byte	0
 9591 0110 19       		.uleb128 0x19
 9592 0111 0B       		.uleb128 0xb
 9593 0112 01       		.byte	0x1
 9594 0113 01       		.uleb128 0x1
 9595 0114 13       		.uleb128 0x13
 9596 0115 00       		.byte	0
 9597 0116 00       		.byte	0
 9598 0117 1A       		.uleb128 0x1a
 9599 0118 34       		.uleb128 0x34
 9600 0119 00       		.byte	0
 9601 011a 03       		.uleb128 0x3
 9602 011b 08       		.uleb128 0x8
ARM GAS  C:\Users\honet\AppData\Local\Temp\cc6gsi1c.s 			page 185


 9603 011c 3A       		.uleb128 0x3a
 9604 011d 0B       		.uleb128 0xb
 9605 011e 3B       		.uleb128 0x3b
 9606 011f 0B       		.uleb128 0xb
 9607 0120 49       		.uleb128 0x49
 9608 0121 13       		.uleb128 0x13
 9609 0122 00       		.byte	0
 9610 0123 00       		.byte	0
 9611 0124 1B       		.uleb128 0x1b
 9612 0125 0B       		.uleb128 0xb
 9613 0126 01       		.byte	0x1
 9614 0127 00       		.byte	0
 9615 0128 00       		.byte	0
 9616 0129 1C       		.uleb128 0x1c
 9617 012a 21       		.uleb128 0x21
 9618 012b 00       		.byte	0
 9619 012c 49       		.uleb128 0x49
 9620 012d 13       		.uleb128 0x13
 9621 012e 2F       		.uleb128 0x2f
 9622 012f 0B       		.uleb128 0xb
 9623 0130 00       		.byte	0
 9624 0131 00       		.byte	0
 9625 0132 1D       		.uleb128 0x1d
 9626 0133 2E       		.uleb128 0x2e
 9627 0134 01       		.byte	0x1
 9628 0135 3F       		.uleb128 0x3f
 9629 0136 19       		.uleb128 0x19
 9630 0137 03       		.uleb128 0x3
 9631 0138 0E       		.uleb128 0xe
 9632 0139 3A       		.uleb128 0x3a
 9633 013a 0B       		.uleb128 0xb
 9634 013b 3B       		.uleb128 0x3b
 9635 013c 0B       		.uleb128 0xb
 9636 013d 27       		.uleb128 0x27
 9637 013e 19       		.uleb128 0x19
 9638 013f 11       		.uleb128 0x11
 9639 0140 01       		.uleb128 0x1
 9640 0141 12       		.uleb128 0x12
 9641 0142 06       		.uleb128 0x6
 9642 0143 40       		.uleb128 0x40
 9643 0144 18       		.uleb128 0x18
 9644 0145 9742     		.uleb128 0x2117
 9645 0147 19       		.uleb128 0x19
 9646 0148 01       		.uleb128 0x1
 9647 0149 13       		.uleb128 0x13
 9648 014a 00       		.byte	0
 9649 014b 00       		.byte	0
 9650 014c 1E       		.uleb128 0x1e
 9651 014d 05       		.uleb128 0x5
 9652 014e 00       		.byte	0
 9653 014f 03       		.uleb128 0x3
 9654 0150 0E       		.uleb128 0xe
 9655 0151 3A       		.uleb128 0x3a
 9656 0152 0B       		.uleb128 0xb
 9657 0153 3B       		.uleb128 0x3b
 9658 0154 0B       		.uleb128 0xb
 9659 0155 49       		.uleb128 0x49
ARM GAS  C:\Users\honet\AppData\Local\Temp\cc6gsi1c.s 			page 186


 9660 0156 13       		.uleb128 0x13
 9661 0157 02       		.uleb128 0x2
 9662 0158 18       		.uleb128 0x18
 9663 0159 00       		.byte	0
 9664 015a 00       		.byte	0
 9665 015b 1F       		.uleb128 0x1f
 9666 015c 2E       		.uleb128 0x2e
 9667 015d 01       		.byte	0x1
 9668 015e 3F       		.uleb128 0x3f
 9669 015f 19       		.uleb128 0x19
 9670 0160 03       		.uleb128 0x3
 9671 0161 0E       		.uleb128 0xe
 9672 0162 3A       		.uleb128 0x3a
 9673 0163 0B       		.uleb128 0xb
 9674 0164 3B       		.uleb128 0x3b
 9675 0165 0B       		.uleb128 0xb
 9676 0166 11       		.uleb128 0x11
 9677 0167 01       		.uleb128 0x1
 9678 0168 12       		.uleb128 0x12
 9679 0169 06       		.uleb128 0x6
 9680 016a 40       		.uleb128 0x40
 9681 016b 18       		.uleb128 0x18
 9682 016c 9742     		.uleb128 0x2117
 9683 016e 19       		.uleb128 0x19
 9684 016f 01       		.uleb128 0x1
 9685 0170 13       		.uleb128 0x13
 9686 0171 00       		.byte	0
 9687 0172 00       		.byte	0
 9688 0173 20       		.uleb128 0x20
 9689 0174 898201   		.uleb128 0x4109
 9690 0177 00       		.byte	0
 9691 0178 11       		.uleb128 0x11
 9692 0179 01       		.uleb128 0x1
 9693 017a 9542     		.uleb128 0x2115
 9694 017c 19       		.uleb128 0x19
 9695 017d 31       		.uleb128 0x31
 9696 017e 13       		.uleb128 0x13
 9697 017f 00       		.byte	0
 9698 0180 00       		.byte	0
 9699 0181 21       		.uleb128 0x21
 9700 0182 898201   		.uleb128 0x4109
 9701 0185 01       		.byte	0x1
 9702 0186 11       		.uleb128 0x11
 9703 0187 01       		.uleb128 0x1
 9704 0188 9542     		.uleb128 0x2115
 9705 018a 19       		.uleb128 0x19
 9706 018b 31       		.uleb128 0x31
 9707 018c 13       		.uleb128 0x13
 9708 018d 00       		.byte	0
 9709 018e 00       		.byte	0
 9710 018f 22       		.uleb128 0x22
 9711 0190 8A8201   		.uleb128 0x410a
 9712 0193 00       		.byte	0
 9713 0194 02       		.uleb128 0x2
 9714 0195 18       		.uleb128 0x18
 9715 0196 9142     		.uleb128 0x2111
 9716 0198 18       		.uleb128 0x18
ARM GAS  C:\Users\honet\AppData\Local\Temp\cc6gsi1c.s 			page 187


 9717 0199 00       		.byte	0
 9718 019a 00       		.byte	0
 9719 019b 23       		.uleb128 0x23
 9720 019c 2E       		.uleb128 0x2e
 9721 019d 01       		.byte	0x1
 9722 019e 31       		.uleb128 0x31
 9723 019f 13       		.uleb128 0x13
 9724 01a0 11       		.uleb128 0x11
 9725 01a1 01       		.uleb128 0x1
 9726 01a2 12       		.uleb128 0x12
 9727 01a3 06       		.uleb128 0x6
 9728 01a4 40       		.uleb128 0x40
 9729 01a5 18       		.uleb128 0x18
 9730 01a6 9742     		.uleb128 0x2117
 9731 01a8 19       		.uleb128 0x19
 9732 01a9 01       		.uleb128 0x1
 9733 01aa 13       		.uleb128 0x13
 9734 01ab 00       		.byte	0
 9735 01ac 00       		.byte	0
 9736 01ad 24       		.uleb128 0x24
 9737 01ae 05       		.uleb128 0x5
 9738 01af 00       		.byte	0
 9739 01b0 31       		.uleb128 0x31
 9740 01b1 13       		.uleb128 0x13
 9741 01b2 02       		.uleb128 0x2
 9742 01b3 17       		.uleb128 0x17
 9743 01b4 00       		.byte	0
 9744 01b5 00       		.byte	0
 9745 01b6 25       		.uleb128 0x25
 9746 01b7 0B       		.uleb128 0xb
 9747 01b8 01       		.byte	0x1
 9748 01b9 11       		.uleb128 0x11
 9749 01ba 01       		.uleb128 0x1
 9750 01bb 12       		.uleb128 0x12
 9751 01bc 06       		.uleb128 0x6
 9752 01bd 01       		.uleb128 0x1
 9753 01be 13       		.uleb128 0x13
 9754 01bf 00       		.byte	0
 9755 01c0 00       		.byte	0
 9756 01c1 26       		.uleb128 0x26
 9757 01c2 34       		.uleb128 0x34
 9758 01c3 00       		.byte	0
 9759 01c4 31       		.uleb128 0x31
 9760 01c5 13       		.uleb128 0x13
 9761 01c6 02       		.uleb128 0x2
 9762 01c7 18       		.uleb128 0x18
 9763 01c8 00       		.byte	0
 9764 01c9 00       		.byte	0
 9765 01ca 27       		.uleb128 0x27
 9766 01cb 898201   		.uleb128 0x4109
 9767 01ce 01       		.byte	0x1
 9768 01cf 11       		.uleb128 0x11
 9769 01d0 01       		.uleb128 0x1
 9770 01d1 31       		.uleb128 0x31
 9771 01d2 13       		.uleb128 0x13
 9772 01d3 01       		.uleb128 0x1
 9773 01d4 13       		.uleb128 0x13
ARM GAS  C:\Users\honet\AppData\Local\Temp\cc6gsi1c.s 			page 188


 9774 01d5 00       		.byte	0
 9775 01d6 00       		.byte	0
 9776 01d7 28       		.uleb128 0x28
 9777 01d8 898201   		.uleb128 0x4109
 9778 01db 00       		.byte	0
 9779 01dc 11       		.uleb128 0x11
 9780 01dd 01       		.uleb128 0x1
 9781 01de 31       		.uleb128 0x31
 9782 01df 13       		.uleb128 0x13
 9783 01e0 00       		.byte	0
 9784 01e1 00       		.byte	0
 9785 01e2 29       		.uleb128 0x29
 9786 01e3 898201   		.uleb128 0x4109
 9787 01e6 01       		.byte	0x1
 9788 01e7 11       		.uleb128 0x11
 9789 01e8 01       		.uleb128 0x1
 9790 01e9 31       		.uleb128 0x31
 9791 01ea 13       		.uleb128 0x13
 9792 01eb 00       		.byte	0
 9793 01ec 00       		.byte	0
 9794 01ed 2A       		.uleb128 0x2a
 9795 01ee 0B       		.uleb128 0xb
 9796 01ef 01       		.byte	0x1
 9797 01f0 55       		.uleb128 0x55
 9798 01f1 17       		.uleb128 0x17
 9799 01f2 01       		.uleb128 0x1
 9800 01f3 13       		.uleb128 0x13
 9801 01f4 00       		.byte	0
 9802 01f5 00       		.byte	0
 9803 01f6 2B       		.uleb128 0x2b
 9804 01f7 0B       		.uleb128 0xb
 9805 01f8 01       		.byte	0x1
 9806 01f9 11       		.uleb128 0x11
 9807 01fa 01       		.uleb128 0x1
 9808 01fb 12       		.uleb128 0x12
 9809 01fc 06       		.uleb128 0x6
 9810 01fd 00       		.byte	0
 9811 01fe 00       		.byte	0
 9812 01ff 2C       		.uleb128 0x2c
 9813 0200 2E       		.uleb128 0x2e
 9814 0201 01       		.byte	0x1
 9815 0202 3F       		.uleb128 0x3f
 9816 0203 19       		.uleb128 0x19
 9817 0204 03       		.uleb128 0x3
 9818 0205 0E       		.uleb128 0xe
 9819 0206 3A       		.uleb128 0x3a
 9820 0207 0B       		.uleb128 0xb
 9821 0208 3B       		.uleb128 0x3b
 9822 0209 0B       		.uleb128 0xb
 9823 020a 11       		.uleb128 0x11
 9824 020b 01       		.uleb128 0x1
 9825 020c 12       		.uleb128 0x12
 9826 020d 06       		.uleb128 0x6
 9827 020e 40       		.uleb128 0x40
 9828 020f 18       		.uleb128 0x18
 9829 0210 9642     		.uleb128 0x2116
 9830 0212 19       		.uleb128 0x19
ARM GAS  C:\Users\honet\AppData\Local\Temp\cc6gsi1c.s 			page 189


 9831 0213 01       		.uleb128 0x1
 9832 0214 13       		.uleb128 0x13
 9833 0215 00       		.byte	0
 9834 0216 00       		.byte	0
 9835 0217 2D       		.uleb128 0x2d
 9836 0218 34       		.uleb128 0x34
 9837 0219 00       		.byte	0
 9838 021a 03       		.uleb128 0x3
 9839 021b 0E       		.uleb128 0xe
 9840 021c 3A       		.uleb128 0x3a
 9841 021d 0B       		.uleb128 0xb
 9842 021e 3B       		.uleb128 0x3b
 9843 021f 0B       		.uleb128 0xb
 9844 0220 49       		.uleb128 0x49
 9845 0221 13       		.uleb128 0x13
 9846 0222 1C       		.uleb128 0x1c
 9847 0223 05       		.uleb128 0x5
 9848 0224 00       		.byte	0
 9849 0225 00       		.byte	0
 9850 0226 2E       		.uleb128 0x2e
 9851 0227 34       		.uleb128 0x34
 9852 0228 00       		.byte	0
 9853 0229 03       		.uleb128 0x3
 9854 022a 0E       		.uleb128 0xe
 9855 022b 3A       		.uleb128 0x3a
 9856 022c 0B       		.uleb128 0xb
 9857 022d 3B       		.uleb128 0x3b
 9858 022e 0B       		.uleb128 0xb
 9859 022f 49       		.uleb128 0x49
 9860 0230 13       		.uleb128 0x13
 9861 0231 02       		.uleb128 0x2
 9862 0232 18       		.uleb128 0x18
 9863 0233 00       		.byte	0
 9864 0234 00       		.byte	0
 9865 0235 2F       		.uleb128 0x2f
 9866 0236 34       		.uleb128 0x34
 9867 0237 00       		.byte	0
 9868 0238 03       		.uleb128 0x3
 9869 0239 08       		.uleb128 0x8
 9870 023a 3A       		.uleb128 0x3a
 9871 023b 0B       		.uleb128 0xb
 9872 023c 3B       		.uleb128 0x3b
 9873 023d 0B       		.uleb128 0xb
 9874 023e 49       		.uleb128 0x49
 9875 023f 13       		.uleb128 0x13
 9876 0240 02       		.uleb128 0x2
 9877 0241 17       		.uleb128 0x17
 9878 0242 00       		.byte	0
 9879 0243 00       		.byte	0
 9880 0244 30       		.uleb128 0x30
 9881 0245 34       		.uleb128 0x34
 9882 0246 00       		.byte	0
 9883 0247 03       		.uleb128 0x3
 9884 0248 0E       		.uleb128 0xe
 9885 0249 3A       		.uleb128 0x3a
 9886 024a 0B       		.uleb128 0xb
 9887 024b 3B       		.uleb128 0x3b
ARM GAS  C:\Users\honet\AppData\Local\Temp\cc6gsi1c.s 			page 190


 9888 024c 0B       		.uleb128 0xb
 9889 024d 49       		.uleb128 0x49
 9890 024e 13       		.uleb128 0x13
 9891 024f 02       		.uleb128 0x2
 9892 0250 17       		.uleb128 0x17
 9893 0251 00       		.byte	0
 9894 0252 00       		.byte	0
 9895 0253 31       		.uleb128 0x31
 9896 0254 0A       		.uleb128 0xa
 9897 0255 00       		.byte	0
 9898 0256 03       		.uleb128 0x3
 9899 0257 0E       		.uleb128 0xe
 9900 0258 3A       		.uleb128 0x3a
 9901 0259 0B       		.uleb128 0xb
 9902 025a 3B       		.uleb128 0x3b
 9903 025b 05       		.uleb128 0x5
 9904 025c 11       		.uleb128 0x11
 9905 025d 01       		.uleb128 0x1
 9906 025e 00       		.byte	0
 9907 025f 00       		.byte	0
 9908 0260 32       		.uleb128 0x32
 9909 0261 34       		.uleb128 0x34
 9910 0262 00       		.byte	0
 9911 0263 03       		.uleb128 0x3
 9912 0264 08       		.uleb128 0x8
 9913 0265 3A       		.uleb128 0x3a
 9914 0266 0B       		.uleb128 0xb
 9915 0267 3B       		.uleb128 0x3b
 9916 0268 0B       		.uleb128 0xb
 9917 0269 49       		.uleb128 0x49
 9918 026a 13       		.uleb128 0x13
 9919 026b 02       		.uleb128 0x2
 9920 026c 18       		.uleb128 0x18
 9921 026d 00       		.byte	0
 9922 026e 00       		.byte	0
 9923 026f 33       		.uleb128 0x33
 9924 0270 34       		.uleb128 0x34
 9925 0271 00       		.byte	0
 9926 0272 03       		.uleb128 0x3
 9927 0273 08       		.uleb128 0x8
 9928 0274 3A       		.uleb128 0x3a
 9929 0275 0B       		.uleb128 0xb
 9930 0276 3B       		.uleb128 0x3b
 9931 0277 05       		.uleb128 0x5
 9932 0278 49       		.uleb128 0x49
 9933 0279 13       		.uleb128 0x13
 9934 027a 02       		.uleb128 0x2
 9935 027b 18       		.uleb128 0x18
 9936 027c 00       		.byte	0
 9937 027d 00       		.byte	0
 9938 027e 34       		.uleb128 0x34
 9939 027f 1D       		.uleb128 0x1d
 9940 0280 01       		.byte	0x1
 9941 0281 31       		.uleb128 0x31
 9942 0282 13       		.uleb128 0x13
 9943 0283 52       		.uleb128 0x52
 9944 0284 01       		.uleb128 0x1
ARM GAS  C:\Users\honet\AppData\Local\Temp\cc6gsi1c.s 			page 191


 9945 0285 55       		.uleb128 0x55
 9946 0286 17       		.uleb128 0x17
 9947 0287 58       		.uleb128 0x58
 9948 0288 0B       		.uleb128 0xb
 9949 0289 59       		.uleb128 0x59
 9950 028a 0B       		.uleb128 0xb
 9951 028b 01       		.uleb128 0x1
 9952 028c 13       		.uleb128 0x13
 9953 028d 00       		.byte	0
 9954 028e 00       		.byte	0
 9955 028f 35       		.uleb128 0x35
 9956 0290 1D       		.uleb128 0x1d
 9957 0291 01       		.byte	0x1
 9958 0292 31       		.uleb128 0x31
 9959 0293 13       		.uleb128 0x13
 9960 0294 11       		.uleb128 0x11
 9961 0295 01       		.uleb128 0x1
 9962 0296 12       		.uleb128 0x12
 9963 0297 06       		.uleb128 0x6
 9964 0298 58       		.uleb128 0x58
 9965 0299 0B       		.uleb128 0xb
 9966 029a 59       		.uleb128 0x59
 9967 029b 0B       		.uleb128 0xb
 9968 029c 01       		.uleb128 0x1
 9969 029d 13       		.uleb128 0x13
 9970 029e 00       		.byte	0
 9971 029f 00       		.byte	0
 9972 02a0 36       		.uleb128 0x36
 9973 02a1 1D       		.uleb128 0x1d
 9974 02a2 01       		.byte	0x1
 9975 02a3 31       		.uleb128 0x31
 9976 02a4 13       		.uleb128 0x13
 9977 02a5 52       		.uleb128 0x52
 9978 02a6 01       		.uleb128 0x1
 9979 02a7 55       		.uleb128 0x55
 9980 02a8 17       		.uleb128 0x17
 9981 02a9 58       		.uleb128 0x58
 9982 02aa 0B       		.uleb128 0xb
 9983 02ab 59       		.uleb128 0x59
 9984 02ac 05       		.uleb128 0x5
 9985 02ad 01       		.uleb128 0x1
 9986 02ae 13       		.uleb128 0x13
 9987 02af 00       		.byte	0
 9988 02b0 00       		.byte	0
 9989 02b1 37       		.uleb128 0x37
 9990 02b2 34       		.uleb128 0x34
 9991 02b3 00       		.byte	0
 9992 02b4 03       		.uleb128 0x3
 9993 02b5 0E       		.uleb128 0xe
 9994 02b6 3A       		.uleb128 0x3a
 9995 02b7 0B       		.uleb128 0xb
 9996 02b8 3B       		.uleb128 0x3b
 9997 02b9 05       		.uleb128 0x5
 9998 02ba 49       		.uleb128 0x49
 9999 02bb 13       		.uleb128 0x13
 10000 02bc 02       		.uleb128 0x2
 10001 02bd 18       		.uleb128 0x18
ARM GAS  C:\Users\honet\AppData\Local\Temp\cc6gsi1c.s 			page 192


 10002 02be 00       		.byte	0
 10003 02bf 00       		.byte	0
 10004 02c0 38       		.uleb128 0x38
 10005 02c1 34       		.uleb128 0x34
 10006 02c2 00       		.byte	0
 10007 02c3 03       		.uleb128 0x3
 10008 02c4 08       		.uleb128 0x8
 10009 02c5 3A       		.uleb128 0x3a
 10010 02c6 0B       		.uleb128 0xb
 10011 02c7 3B       		.uleb128 0x3b
 10012 02c8 05       		.uleb128 0x5
 10013 02c9 49       		.uleb128 0x49
 10014 02ca 13       		.uleb128 0x13
 10015 02cb 02       		.uleb128 0x2
 10016 02cc 17       		.uleb128 0x17
 10017 02cd 00       		.byte	0
 10018 02ce 00       		.byte	0
 10019 02cf 39       		.uleb128 0x39
 10020 02d0 1D       		.uleb128 0x1d
 10021 02d1 01       		.byte	0x1
 10022 02d2 31       		.uleb128 0x31
 10023 02d3 13       		.uleb128 0x13
 10024 02d4 11       		.uleb128 0x11
 10025 02d5 01       		.uleb128 0x1
 10026 02d6 12       		.uleb128 0x12
 10027 02d7 06       		.uleb128 0x6
 10028 02d8 58       		.uleb128 0x58
 10029 02d9 0B       		.uleb128 0xb
 10030 02da 59       		.uleb128 0x59
 10031 02db 05       		.uleb128 0x5
 10032 02dc 01       		.uleb128 0x1
 10033 02dd 13       		.uleb128 0x13
 10034 02de 00       		.byte	0
 10035 02df 00       		.byte	0
 10036 02e0 3A       		.uleb128 0x3a
 10037 02e1 2E       		.uleb128 0x2e
 10038 02e2 01       		.byte	0x1
 10039 02e3 3F       		.uleb128 0x3f
 10040 02e4 19       		.uleb128 0x19
 10041 02e5 03       		.uleb128 0x3
 10042 02e6 0E       		.uleb128 0xe
 10043 02e7 3A       		.uleb128 0x3a
 10044 02e8 0B       		.uleb128 0xb
 10045 02e9 3B       		.uleb128 0x3b
 10046 02ea 05       		.uleb128 0x5
 10047 02eb 11       		.uleb128 0x11
 10048 02ec 01       		.uleb128 0x1
 10049 02ed 12       		.uleb128 0x12
 10050 02ee 06       		.uleb128 0x6
 10051 02ef 40       		.uleb128 0x40
 10052 02f0 18       		.uleb128 0x18
 10053 02f1 9642     		.uleb128 0x2116
 10054 02f3 19       		.uleb128 0x19
 10055 02f4 01       		.uleb128 0x1
 10056 02f5 13       		.uleb128 0x13
 10057 02f6 00       		.byte	0
 10058 02f7 00       		.byte	0
ARM GAS  C:\Users\honet\AppData\Local\Temp\cc6gsi1c.s 			page 193


 10059 02f8 3B       		.uleb128 0x3b
 10060 02f9 34       		.uleb128 0x34
 10061 02fa 00       		.byte	0
 10062 02fb 03       		.uleb128 0x3
 10063 02fc 0E       		.uleb128 0xe
 10064 02fd 3A       		.uleb128 0x3a
 10065 02fe 0B       		.uleb128 0xb
 10066 02ff 3B       		.uleb128 0x3b
 10067 0300 05       		.uleb128 0x5
 10068 0301 49       		.uleb128 0x49
 10069 0302 13       		.uleb128 0x13
 10070 0303 1C       		.uleb128 0x1c
 10071 0304 05       		.uleb128 0x5
 10072 0305 00       		.byte	0
 10073 0306 00       		.byte	0
 10074 0307 3C       		.uleb128 0x3c
 10075 0308 34       		.uleb128 0x34
 10076 0309 00       		.byte	0
 10077 030a 03       		.uleb128 0x3
 10078 030b 0E       		.uleb128 0xe
 10079 030c 3A       		.uleb128 0x3a
 10080 030d 0B       		.uleb128 0xb
 10081 030e 3B       		.uleb128 0x3b
 10082 030f 05       		.uleb128 0x5
 10083 0310 49       		.uleb128 0x49
 10084 0311 13       		.uleb128 0x13
 10085 0312 02       		.uleb128 0x2
 10086 0313 17       		.uleb128 0x17
 10087 0314 00       		.byte	0
 10088 0315 00       		.byte	0
 10089 0316 3D       		.uleb128 0x3d
 10090 0317 2E       		.uleb128 0x2e
 10091 0318 01       		.byte	0x1
 10092 0319 3F       		.uleb128 0x3f
 10093 031a 19       		.uleb128 0x19
 10094 031b 03       		.uleb128 0x3
 10095 031c 0E       		.uleb128 0xe
 10096 031d 3A       		.uleb128 0x3a
 10097 031e 0B       		.uleb128 0xb
 10098 031f 3B       		.uleb128 0x3b
 10099 0320 05       		.uleb128 0x5
 10100 0321 49       		.uleb128 0x49
 10101 0322 13       		.uleb128 0x13
 10102 0323 11       		.uleb128 0x11
 10103 0324 01       		.uleb128 0x1
 10104 0325 12       		.uleb128 0x12
 10105 0326 06       		.uleb128 0x6
 10106 0327 40       		.uleb128 0x40
 10107 0328 18       		.uleb128 0x18
 10108 0329 9742     		.uleb128 0x2117
 10109 032b 19       		.uleb128 0x19
 10110 032c 01       		.uleb128 0x1
 10111 032d 13       		.uleb128 0x13
 10112 032e 00       		.byte	0
 10113 032f 00       		.byte	0
 10114 0330 3E       		.uleb128 0x3e
 10115 0331 34       		.uleb128 0x34
ARM GAS  C:\Users\honet\AppData\Local\Temp\cc6gsi1c.s 			page 194


 10116 0332 00       		.byte	0
 10117 0333 03       		.uleb128 0x3
 10118 0334 0E       		.uleb128 0xe
 10119 0335 3A       		.uleb128 0x3a
 10120 0336 0B       		.uleb128 0xb
 10121 0337 3B       		.uleb128 0x3b
 10122 0338 05       		.uleb128 0x5
 10123 0339 49       		.uleb128 0x49
 10124 033a 13       		.uleb128 0x13
 10125 033b 3F       		.uleb128 0x3f
 10126 033c 19       		.uleb128 0x19
 10127 033d 3C       		.uleb128 0x3c
 10128 033e 19       		.uleb128 0x19
 10129 033f 00       		.byte	0
 10130 0340 00       		.byte	0
 10131 0341 3F       		.uleb128 0x3f
 10132 0342 35       		.uleb128 0x35
 10133 0343 00       		.byte	0
 10134 0344 49       		.uleb128 0x49
 10135 0345 13       		.uleb128 0x13
 10136 0346 00       		.byte	0
 10137 0347 00       		.byte	0
 10138 0348 40       		.uleb128 0x40
 10139 0349 34       		.uleb128 0x34
 10140 034a 00       		.byte	0
 10141 034b 03       		.uleb128 0x3
 10142 034c 0E       		.uleb128 0xe
 10143 034d 3A       		.uleb128 0x3a
 10144 034e 0B       		.uleb128 0xb
 10145 034f 3B       		.uleb128 0x3b
 10146 0350 0B       		.uleb128 0xb
 10147 0351 49       		.uleb128 0x49
 10148 0352 13       		.uleb128 0x13
 10149 0353 3F       		.uleb128 0x3f
 10150 0354 19       		.uleb128 0x19
 10151 0355 02       		.uleb128 0x2
 10152 0356 18       		.uleb128 0x18
 10153 0357 00       		.byte	0
 10154 0358 00       		.byte	0
 10155 0359 41       		.uleb128 0x41
 10156 035a 2E       		.uleb128 0x2e
 10157 035b 00       		.byte	0
 10158 035c 3F       		.uleb128 0x3f
 10159 035d 19       		.uleb128 0x19
 10160 035e 03       		.uleb128 0x3
 10161 035f 0E       		.uleb128 0xe
 10162 0360 3A       		.uleb128 0x3a
 10163 0361 0B       		.uleb128 0xb
 10164 0362 3B       		.uleb128 0x3b
 10165 0363 05       		.uleb128 0x5
 10166 0364 27       		.uleb128 0x27
 10167 0365 19       		.uleb128 0x19
 10168 0366 3C       		.uleb128 0x3c
 10169 0367 19       		.uleb128 0x19
 10170 0368 00       		.byte	0
 10171 0369 00       		.byte	0
 10172 036a 42       		.uleb128 0x42
ARM GAS  C:\Users\honet\AppData\Local\Temp\cc6gsi1c.s 			page 195


 10173 036b 2E       		.uleb128 0x2e
 10174 036c 01       		.byte	0x1
 10175 036d 3F       		.uleb128 0x3f
 10176 036e 19       		.uleb128 0x19
 10177 036f 03       		.uleb128 0x3
 10178 0370 0E       		.uleb128 0xe
 10179 0371 3A       		.uleb128 0x3a
 10180 0372 0B       		.uleb128 0xb
 10181 0373 3B       		.uleb128 0x3b
 10182 0374 0B       		.uleb128 0xb
 10183 0375 27       		.uleb128 0x27
 10184 0376 19       		.uleb128 0x19
 10185 0377 3C       		.uleb128 0x3c
 10186 0378 19       		.uleb128 0x19
 10187 0379 01       		.uleb128 0x1
 10188 037a 13       		.uleb128 0x13
 10189 037b 00       		.byte	0
 10190 037c 00       		.byte	0
 10191 037d 43       		.uleb128 0x43
 10192 037e 2E       		.uleb128 0x2e
 10193 037f 01       		.byte	0x1
 10194 0380 3F       		.uleb128 0x3f
 10195 0381 19       		.uleb128 0x19
 10196 0382 03       		.uleb128 0x3
 10197 0383 0E       		.uleb128 0xe
 10198 0384 3A       		.uleb128 0x3a
 10199 0385 0B       		.uleb128 0xb
 10200 0386 3B       		.uleb128 0x3b
 10201 0387 0B       		.uleb128 0xb
 10202 0388 27       		.uleb128 0x27
 10203 0389 19       		.uleb128 0x19
 10204 038a 49       		.uleb128 0x49
 10205 038b 13       		.uleb128 0x13
 10206 038c 3C       		.uleb128 0x3c
 10207 038d 19       		.uleb128 0x19
 10208 038e 01       		.uleb128 0x1
 10209 038f 13       		.uleb128 0x13
 10210 0390 00       		.byte	0
 10211 0391 00       		.byte	0
 10212 0392 44       		.uleb128 0x44
 10213 0393 18       		.uleb128 0x18
 10214 0394 00       		.byte	0
 10215 0395 00       		.byte	0
 10216 0396 00       		.byte	0
 10217 0397 45       		.uleb128 0x45
 10218 0398 2E       		.uleb128 0x2e
 10219 0399 00       		.byte	0
 10220 039a 3F       		.uleb128 0x3f
 10221 039b 19       		.uleb128 0x19
 10222 039c 03       		.uleb128 0x3
 10223 039d 0E       		.uleb128 0xe
 10224 039e 3A       		.uleb128 0x3a
 10225 039f 0B       		.uleb128 0xb
 10226 03a0 3B       		.uleb128 0x3b
 10227 03a1 0B       		.uleb128 0xb
 10228 03a2 27       		.uleb128 0x27
 10229 03a3 19       		.uleb128 0x19
ARM GAS  C:\Users\honet\AppData\Local\Temp\cc6gsi1c.s 			page 196


 10230 03a4 49       		.uleb128 0x49
 10231 03a5 13       		.uleb128 0x13
 10232 03a6 3C       		.uleb128 0x3c
 10233 03a7 19       		.uleb128 0x19
 10234 03a8 00       		.byte	0
 10235 03a9 00       		.byte	0
 10236 03aa 46       		.uleb128 0x46
 10237 03ab 2E       		.uleb128 0x2e
 10238 03ac 01       		.byte	0x1
 10239 03ad 3F       		.uleb128 0x3f
 10240 03ae 19       		.uleb128 0x19
 10241 03af 03       		.uleb128 0x3
 10242 03b0 0E       		.uleb128 0xe
 10243 03b1 3A       		.uleb128 0x3a
 10244 03b2 0B       		.uleb128 0xb
 10245 03b3 3B       		.uleb128 0x3b
 10246 03b4 05       		.uleb128 0x5
 10247 03b5 27       		.uleb128 0x27
 10248 03b6 19       		.uleb128 0x19
 10249 03b7 49       		.uleb128 0x49
 10250 03b8 13       		.uleb128 0x13
 10251 03b9 3C       		.uleb128 0x3c
 10252 03ba 19       		.uleb128 0x19
 10253 03bb 01       		.uleb128 0x1
 10254 03bc 13       		.uleb128 0x13
 10255 03bd 00       		.byte	0
 10256 03be 00       		.byte	0
 10257 03bf 47       		.uleb128 0x47
 10258 03c0 2E       		.uleb128 0x2e
 10259 03c1 01       		.byte	0x1
 10260 03c2 3F       		.uleb128 0x3f
 10261 03c3 19       		.uleb128 0x19
 10262 03c4 03       		.uleb128 0x3
 10263 03c5 0E       		.uleb128 0xe
 10264 03c6 27       		.uleb128 0x27
 10265 03c7 19       		.uleb128 0x19
 10266 03c8 49       		.uleb128 0x49
 10267 03c9 13       		.uleb128 0x13
 10268 03ca 34       		.uleb128 0x34
 10269 03cb 19       		.uleb128 0x19
 10270 03cc 3C       		.uleb128 0x3c
 10271 03cd 19       		.uleb128 0x19
 10272 03ce 01       		.uleb128 0x1
 10273 03cf 13       		.uleb128 0x13
 10274 03d0 00       		.byte	0
 10275 03d1 00       		.byte	0
 10276 03d2 48       		.uleb128 0x48
 10277 03d3 2E       		.uleb128 0x2e
 10278 03d4 01       		.byte	0x1
 10279 03d5 3F       		.uleb128 0x3f
 10280 03d6 19       		.uleb128 0x19
 10281 03d7 03       		.uleb128 0x3
 10282 03d8 0E       		.uleb128 0xe
 10283 03d9 3A       		.uleb128 0x3a
 10284 03da 0B       		.uleb128 0xb
 10285 03db 3B       		.uleb128 0x3b
 10286 03dc 05       		.uleb128 0x5
ARM GAS  C:\Users\honet\AppData\Local\Temp\cc6gsi1c.s 			page 197


 10287 03dd 27       		.uleb128 0x27
 10288 03de 19       		.uleb128 0x19
 10289 03df 3C       		.uleb128 0x3c
 10290 03e0 19       		.uleb128 0x19
 10291 03e1 01       		.uleb128 0x1
 10292 03e2 13       		.uleb128 0x13
 10293 03e3 00       		.byte	0
 10294 03e4 00       		.byte	0
 10295 03e5 49       		.uleb128 0x49
 10296 03e6 2E       		.uleb128 0x2e
 10297 03e7 00       		.byte	0
 10298 03e8 3F       		.uleb128 0x3f
 10299 03e9 19       		.uleb128 0x19
 10300 03ea 03       		.uleb128 0x3
 10301 03eb 0E       		.uleb128 0xe
 10302 03ec 3A       		.uleb128 0x3a
 10303 03ed 0B       		.uleb128 0xb
 10304 03ee 3B       		.uleb128 0x3b
 10305 03ef 05       		.uleb128 0x5
 10306 03f0 27       		.uleb128 0x27
 10307 03f1 19       		.uleb128 0x19
 10308 03f2 49       		.uleb128 0x49
 10309 03f3 13       		.uleb128 0x13
 10310 03f4 3C       		.uleb128 0x3c
 10311 03f5 19       		.uleb128 0x19
 10312 03f6 00       		.byte	0
 10313 03f7 00       		.byte	0
 10314 03f8 4A       		.uleb128 0x4a
 10315 03f9 2E       		.uleb128 0x2e
 10316 03fa 01       		.byte	0x1
 10317 03fb 3F       		.uleb128 0x3f
 10318 03fc 19       		.uleb128 0x19
 10319 03fd 03       		.uleb128 0x3
 10320 03fe 0E       		.uleb128 0xe
 10321 03ff 3A       		.uleb128 0x3a
 10322 0400 0B       		.uleb128 0xb
 10323 0401 3B       		.uleb128 0x3b
 10324 0402 0B       		.uleb128 0xb
 10325 0403 27       		.uleb128 0x27
 10326 0404 19       		.uleb128 0x19
 10327 0405 3C       		.uleb128 0x3c
 10328 0406 19       		.uleb128 0x19
 10329 0407 00       		.byte	0
 10330 0408 00       		.byte	0
 10331 0409 00       		.byte	0
 10332              		.section	.debug_loc,"",%progbits
 10333              	.Ldebug_loc0:
 10334              	.LLST0:
 10335 0000 00000000 		.4byte	.LVL4
 10336 0004 0A000000 		.4byte	.LVL5
 10337 0008 0100     		.2byte	0x1
 10338 000a 50       		.byte	0x50
 10339 000b 0A000000 		.4byte	.LVL5
 10340 000f 11000000 		.4byte	.LVL7-1
 10341 0013 0100     		.2byte	0x1
 10342 0015 52       		.byte	0x52
 10343 0016 11000000 		.4byte	.LVL7-1
ARM GAS  C:\Users\honet\AppData\Local\Temp\cc6gsi1c.s 			page 198


 10344 001a B4020000 		.4byte	.LFE71
 10345 001e 0400     		.2byte	0x4
 10346 0020 F3       		.byte	0xf3
 10347 0021 01       		.uleb128 0x1
 10348 0022 50       		.byte	0x50
 10349 0023 9F       		.byte	0x9f
 10350 0024 00000000 		.4byte	0
 10351 0028 00000000 		.4byte	0
 10352              	.LLST1:
 10353 002c 00000000 		.4byte	.LVL4
 10354 0030 0C000000 		.4byte	.LVL6
 10355 0034 0100     		.2byte	0x1
 10356 0036 51       		.byte	0x51
 10357 0037 0C000000 		.4byte	.LVL6
 10358 003b B4020000 		.4byte	.LFE71
 10359 003f 0400     		.2byte	0x4
 10360 0041 F3       		.byte	0xf3
 10361 0042 01       		.uleb128 0x1
 10362 0043 51       		.byte	0x51
 10363 0044 9F       		.byte	0x9f
 10364 0045 00000000 		.4byte	0
 10365 0049 00000000 		.4byte	0
 10366              	.LLST2:
 10367 004d 00000000 		.4byte	.LVL35
 10368 0051 07000000 		.4byte	.LVL36-1
 10369 0055 0100     		.2byte	0x1
 10370 0057 50       		.byte	0x50
 10371 0058 07000000 		.4byte	.LVL36-1
 10372 005c 08000000 		.4byte	.LFE67
 10373 0060 0400     		.2byte	0x4
 10374 0062 F3       		.byte	0xf3
 10375 0063 01       		.uleb128 0x1
 10376 0064 50       		.byte	0x50
 10377 0065 9F       		.byte	0x9f
 10378 0066 00000000 		.4byte	0
 10379 006a 00000000 		.4byte	0
 10380              	.LLST3:
 10381 006e 00000000 		.4byte	.LVL35
 10382 0072 07000000 		.4byte	.LVL36-1
 10383 0076 0100     		.2byte	0x1
 10384 0078 51       		.byte	0x51
 10385 0079 07000000 		.4byte	.LVL36-1
 10386 007d 08000000 		.4byte	.LFE67
 10387 0081 0400     		.2byte	0x4
 10388 0083 F3       		.byte	0xf3
 10389 0084 01       		.uleb128 0x1
 10390 0085 51       		.byte	0x51
 10391 0086 9F       		.byte	0x9f
 10392 0087 00000000 		.4byte	0
 10393 008b 00000000 		.4byte	0
 10394              	.LLST4:
 10395 008f 72010000 		.4byte	.LVL65
 10396 0093 80010000 		.4byte	.LVL67
 10397 0097 0100     		.2byte	0x1
 10398 0099 50       		.byte	0x50
 10399 009a 0A020000 		.4byte	.LVL83
 10400 009e 16020000 		.4byte	.LVL84
ARM GAS  C:\Users\honet\AppData\Local\Temp\cc6gsi1c.s 			page 199


 10401 00a2 0100     		.2byte	0x1
 10402 00a4 50       		.byte	0x50
 10403 00a5 20020000 		.4byte	.LVL85
 10404 00a9 28020000 		.4byte	.LVL86
 10405 00ad 0100     		.2byte	0x1
 10406 00af 50       		.byte	0x50
 10407 00b0 2E020000 		.4byte	.LVL87
 10408 00b4 36020000 		.4byte	.LVL88
 10409 00b8 0100     		.2byte	0x1
 10410 00ba 50       		.byte	0x50
 10411 00bb E4020000 		.4byte	.LVL108
 10412 00bf F0020000 		.4byte	.LVL109
 10413 00c3 0100     		.2byte	0x1
 10414 00c5 50       		.byte	0x50
 10415 00c6 FA020000 		.4byte	.LVL110
 10416 00ca 02030000 		.4byte	.LVL111
 10417 00ce 0100     		.2byte	0x1
 10418 00d0 50       		.byte	0x50
 10419 00d1 08030000 		.4byte	.LVL112
 10420 00d5 10030000 		.4byte	.LVL113
 10421 00d9 0100     		.2byte	0x1
 10422 00db 50       		.byte	0x50
 10423 00dc 82040000 		.4byte	.LVL146
 10424 00e0 8A040000 		.4byte	.LVL147
 10425 00e4 0100     		.2byte	0x1
 10426 00e6 50       		.byte	0x50
 10427 00e7 96040000 		.4byte	.LVL148
 10428 00eb 9C040000 		.4byte	.LVL149
 10429 00ef 0100     		.2byte	0x1
 10430 00f1 50       		.byte	0x50
 10431 00f2 A2040000 		.4byte	.LVL150
 10432 00f6 A8040000 		.4byte	.LVL151
 10433 00fa 0100     		.2byte	0x1
 10434 00fc 50       		.byte	0x50
 10435 00fd 4E050000 		.4byte	.LVL171
 10436 0101 56050000 		.4byte	.LVL172
 10437 0105 0100     		.2byte	0x1
 10438 0107 50       		.byte	0x50
 10439 0108 62050000 		.4byte	.LVL173
 10440 010c 68050000 		.4byte	.LVL174
 10441 0110 0100     		.2byte	0x1
 10442 0112 50       		.byte	0x50
 10443 0113 6E050000 		.4byte	.LVL175
 10444 0117 74050000 		.4byte	.LVL176
 10445 011b 0100     		.2byte	0x1
 10446 011d 50       		.byte	0x50
 10447 011e DE050000 		.4byte	.LVL189
 10448 0122 E0050000 		.4byte	.LVL190
 10449 0126 0100     		.2byte	0x1
 10450 0128 50       		.byte	0x50
 10451 0129 4A060000 		.4byte	.LVL201
 10452 012d 4C060000 		.4byte	.LVL202
 10453 0131 0100     		.2byte	0x1
 10454 0133 50       		.byte	0x50
 10455 0134 CA060000 		.4byte	.LVL220
 10456 0138 D4060000 		.4byte	.LVL221
 10457 013c 0100     		.2byte	0x1
ARM GAS  C:\Users\honet\AppData\Local\Temp\cc6gsi1c.s 			page 200


 10458 013e 50       		.byte	0x50
 10459 013f 30070000 		.4byte	.LVL239
 10460 0143 34070000 		.4byte	.LVL240
 10461 0147 0100     		.2byte	0x1
 10462 0149 50       		.byte	0x50
 10463 014a 94070000 		.4byte	.LVL248
 10464 014e 98070000 		.4byte	.LVL249
 10465 0152 0100     		.2byte	0x1
 10466 0154 50       		.byte	0x50
 10467 0155 A8070000 		.4byte	.LVL254
 10468 0159 AC070000 		.4byte	.LVL255
 10469 015d 0100     		.2byte	0x1
 10470 015f 50       		.byte	0x50
 10471 0160 B2070000 		.4byte	.LVL257
 10472 0164 B6070000 		.4byte	.LVL258
 10473 0168 0100     		.2byte	0x1
 10474 016a 50       		.byte	0x50
 10475 016b BC070000 		.4byte	.LVL260
 10476 016f C0070000 		.4byte	.LVL261
 10477 0173 0100     		.2byte	0x1
 10478 0175 50       		.byte	0x50
 10479 0176 C6070000 		.4byte	.LVL263
 10480 017a CA070000 		.4byte	.LVL264
 10481 017e 0100     		.2byte	0x1
 10482 0180 50       		.byte	0x50
 10483 0181 6E080000 		.4byte	.LVL283
 10484 0185 70080000 		.4byte	.LVL284
 10485 0189 0100     		.2byte	0x1
 10486 018b 50       		.byte	0x50
 10487 018c 8E080000 		.4byte	.LVL295
 10488 0190 90080000 		.4byte	.LVL296
 10489 0194 0100     		.2byte	0x1
 10490 0196 50       		.byte	0x50
 10491 0197 96080000 		.4byte	.LVL298
 10492 019b 98080000 		.4byte	.LVL299
 10493 019f 0100     		.2byte	0x1
 10494 01a1 50       		.byte	0x50
 10495 01a2 9E080000 		.4byte	.LVL301
 10496 01a6 A0080000 		.4byte	.LVL302
 10497 01aa 0100     		.2byte	0x1
 10498 01ac 50       		.byte	0x50
 10499 01ad A6080000 		.4byte	.LVL304
 10500 01b1 A8080000 		.4byte	.LVL305
 10501 01b5 0100     		.2byte	0x1
 10502 01b7 50       		.byte	0x50
 10503 01b8 00000000 		.4byte	0
 10504 01bc 00000000 		.4byte	0
 10505              	.LLST5:
 10506 01c0 2A000000 		.4byte	.LVL41
 10507 01c4 44000000 		.4byte	.LVL45
 10508 01c8 0100     		.2byte	0x1
 10509 01ca 54       		.byte	0x54
 10510 01cb 6A000000 		.4byte	.LVL49
 10511 01cf 78000000 		.4byte	.LVL51
 10512 01d3 0100     		.2byte	0x1
 10513 01d5 54       		.byte	0x54
 10514 01d6 00000000 		.4byte	0
ARM GAS  C:\Users\honet\AppData\Local\Temp\cc6gsi1c.s 			page 201


 10515 01da 00000000 		.4byte	0
 10516              	.LLST6:
 10517 01de 74000000 		.4byte	.LVL50
 10518 01e2 82000000 		.4byte	.LVL52
 10519 01e6 0100     		.2byte	0x1
 10520 01e8 50       		.byte	0x50
 10521 01e9 F0000000 		.4byte	.LVL55
 10522 01ed F6000000 		.4byte	.LVL56
 10523 01f1 0100     		.2byte	0x1
 10524 01f3 50       		.byte	0x50
 10525 01f4 00000000 		.4byte	0
 10526 01f8 00000000 		.4byte	0
 10527              	.LLST7:
 10528 01fc 06020000 		.4byte	.LVL82
 10529 0200 3E020000 		.4byte	.LVL89
 10530 0204 0100     		.2byte	0x1
 10531 0206 54       		.byte	0x54
 10532 0207 E0020000 		.4byte	.LVL107
 10533 020b 46030000 		.4byte	.LVL120
 10534 020f 0100     		.2byte	0x1
 10535 0211 54       		.byte	0x54
 10536 0212 7E040000 		.4byte	.LVL145
 10537 0216 B0040000 		.4byte	.LVL152
 10538 021a 0100     		.2byte	0x1
 10539 021c 54       		.byte	0x54
 10540 021d 4A050000 		.4byte	.LVL170
 10541 0221 A8050000 		.4byte	.LVL183
 10542 0225 0100     		.2byte	0x1
 10543 0227 54       		.byte	0x54
 10544 0228 4A060000 		.4byte	.LVL201
 10545 022c 52060000 		.4byte	.LVL204
 10546 0230 0100     		.2byte	0x1
 10547 0232 54       		.byte	0x54
 10548 0233 30070000 		.4byte	.LVL239
 10549 0237 3A070000 		.4byte	.LVL242
 10550 023b 0100     		.2byte	0x1
 10551 023d 54       		.byte	0x54
 10552 023e 44070000 		.4byte	.LVL245
 10553 0242 9E070000 		.4byte	.LVL251
 10554 0246 0100     		.2byte	0x1
 10555 0248 54       		.byte	0x54
 10556 0249 A8070000 		.4byte	.LVL254
 10557 024d D0070000 		.4byte	.LVL266
 10558 0251 0100     		.2byte	0x1
 10559 0253 54       		.byte	0x54
 10560 0254 5E080000 		.4byte	.LVL277
 10561 0258 66080000 		.4byte	.LVL280
 10562 025c 0100     		.2byte	0x1
 10563 025e 54       		.byte	0x54
 10564 025f 6E080000 		.4byte	.LVL283
 10565 0263 76080000 		.4byte	.LVL286
 10566 0267 0100     		.2byte	0x1
 10567 0269 54       		.byte	0x54
 10568 026a 8E080000 		.4byte	.LVL295
 10569 026e D4080000 		.4byte	.LFE68
 10570 0272 0100     		.2byte	0x1
 10571 0274 54       		.byte	0x54
ARM GAS  C:\Users\honet\AppData\Local\Temp\cc6gsi1c.s 			page 202


 10572 0275 00000000 		.4byte	0
 10573 0279 00000000 		.4byte	0
 10574              	.LLST8:
 10575 027d 3E020000 		.4byte	.LVL89
 10576 0281 E0020000 		.4byte	.LVL107
 10577 0285 0100     		.2byte	0x1
 10578 0287 54       		.byte	0x54
 10579 0288 1A030000 		.4byte	.LVL114
 10580 028c 00040000 		.4byte	.LVL139
 10581 0290 0100     		.2byte	0x1
 10582 0292 5A       		.byte	0x5a
 10583 0293 B0040000 		.4byte	.LVL152
 10584 0297 4A050000 		.4byte	.LVL170
 10585 029b 0100     		.2byte	0x1
 10586 029d 54       		.byte	0x54
 10587 029e 7E050000 		.4byte	.LVL177
 10588 02a2 DE050000 		.4byte	.LVL189
 10589 02a6 0100     		.2byte	0x1
 10590 02a8 58       		.byte	0x58
 10591 02a9 5A060000 		.4byte	.LVL207
 10592 02ad 1C070000 		.4byte	.LVL233
 10593 02b1 0100     		.2byte	0x1
 10594 02b3 58       		.byte	0x58
 10595 02b4 1C070000 		.4byte	.LVL233
 10596 02b8 30070000 		.4byte	.LVL239
 10597 02bc 0100     		.2byte	0x1
 10598 02be 54       		.byte	0x54
 10599 02bf 44070000 		.4byte	.LVL245
 10600 02c3 94070000 		.4byte	.LVL248
 10601 02c7 0100     		.2byte	0x1
 10602 02c9 58       		.byte	0x58
 10603 02ca 9E070000 		.4byte	.LVL251
 10604 02ce A8070000 		.4byte	.LVL254
 10605 02d2 0100     		.2byte	0x1
 10606 02d4 54       		.byte	0x54
 10607 02d5 24080000 		.4byte	.LVL270
 10608 02d9 6E080000 		.4byte	.LVL283
 10609 02dd 0100     		.2byte	0x1
 10610 02df 5A       		.byte	0x5a
 10611 02e0 76080000 		.4byte	.LVL286
 10612 02e4 8E080000 		.4byte	.LVL295
 10613 02e8 0100     		.2byte	0x1
 10614 02ea 54       		.byte	0x54
 10615 02eb 00000000 		.4byte	0
 10616 02ef 00000000 		.4byte	0
 10617              	.LLST9:
 10618 02f3 6A020000 		.4byte	.LVL94
 10619 02f7 72020000 		.4byte	.LVL95
 10620 02fb 0D00     		.2byte	0xd
 10621 02fd 40       		.byte	0x40
 10622 02fe 3E       		.byte	0x3e
 10623 02ff 24       		.byte	0x24
 10624 0300 F7       		.byte	0xf7
 10625 0301 25       		.uleb128 0x25
 10626 0302 74       		.byte	0x74
 10627 0303 00       		.sleb128 0
 10628 0304 F7       		.byte	0xf7
ARM GAS  C:\Users\honet\AppData\Local\Temp\cc6gsi1c.s 			page 203


 10629 0305 25       		.uleb128 0x25
 10630 0306 1B       		.byte	0x1b
 10631 0307 F7       		.byte	0xf7
 10632 0308 00       		.uleb128 0
 10633 0309 9F       		.byte	0x9f
 10634 030a 72020000 		.4byte	.LVL95
 10635 030e 79020000 		.4byte	.LVL96-1
 10636 0312 0100     		.2byte	0x1
 10637 0314 52       		.byte	0x52
 10638 0315 79020000 		.4byte	.LVL96-1
 10639 0319 E0020000 		.4byte	.LVL107
 10640 031d 0D00     		.2byte	0xd
 10641 031f 40       		.byte	0x40
 10642 0320 3E       		.byte	0x3e
 10643 0321 24       		.byte	0x24
 10644 0322 F7       		.byte	0xf7
 10645 0323 25       		.uleb128 0x25
 10646 0324 74       		.byte	0x74
 10647 0325 00       		.sleb128 0
 10648 0326 F7       		.byte	0xf7
 10649 0327 25       		.uleb128 0x25
 10650 0328 1B       		.byte	0x1b
 10651 0329 F7       		.byte	0xf7
 10652 032a 00       		.uleb128 0
 10653 032b 9F       		.byte	0x9f
 10654 032c A6030000 		.4byte	.LVL129
 10655 0330 AE030000 		.4byte	.LVL130
 10656 0334 0D00     		.2byte	0xd
 10657 0336 40       		.byte	0x40
 10658 0337 3E       		.byte	0x3e
 10659 0338 24       		.byte	0x24
 10660 0339 F7       		.byte	0xf7
 10661 033a 25       		.uleb128 0x25
 10662 033b 7A       		.byte	0x7a
 10663 033c 00       		.sleb128 0
 10664 033d F7       		.byte	0xf7
 10665 033e 25       		.uleb128 0x25
 10666 033f 1B       		.byte	0x1b
 10667 0340 F7       		.byte	0xf7
 10668 0341 00       		.uleb128 0
 10669 0342 9F       		.byte	0x9f
 10670 0343 AE030000 		.4byte	.LVL130
 10671 0347 B5030000 		.4byte	.LVL131-1
 10672 034b 0100     		.2byte	0x1
 10673 034d 52       		.byte	0x52
 10674 034e B5030000 		.4byte	.LVL131-1
 10675 0352 00040000 		.4byte	.LVL139
 10676 0356 0D00     		.2byte	0xd
 10677 0358 40       		.byte	0x40
 10678 0359 3E       		.byte	0x3e
 10679 035a 24       		.byte	0x24
 10680 035b F7       		.byte	0xf7
 10681 035c 25       		.uleb128 0x25
 10682 035d 7A       		.byte	0x7a
 10683 035e 00       		.sleb128 0
 10684 035f F7       		.byte	0xf7
 10685 0360 25       		.uleb128 0x25
ARM GAS  C:\Users\honet\AppData\Local\Temp\cc6gsi1c.s 			page 204


 10686 0361 1B       		.byte	0x1b
 10687 0362 F7       		.byte	0xf7
 10688 0363 00       		.uleb128 0
 10689 0364 9F       		.byte	0x9f
 10690 0365 D8040000 		.4byte	.LVL157
 10691 0369 E0040000 		.4byte	.LVL158
 10692 036d 0D00     		.2byte	0xd
 10693 036f 40       		.byte	0x40
 10694 0370 3E       		.byte	0x3e
 10695 0371 24       		.byte	0x24
 10696 0372 F7       		.byte	0xf7
 10697 0373 25       		.uleb128 0x25
 10698 0374 74       		.byte	0x74
 10699 0375 00       		.sleb128 0
 10700 0376 F7       		.byte	0xf7
 10701 0377 25       		.uleb128 0x25
 10702 0378 1B       		.byte	0x1b
 10703 0379 F7       		.byte	0xf7
 10704 037a 00       		.uleb128 0
 10705 037b 9F       		.byte	0x9f
 10706 037c E0040000 		.4byte	.LVL158
 10707 0380 E7040000 		.4byte	.LVL159-1
 10708 0384 0100     		.2byte	0x1
 10709 0386 52       		.byte	0x52
 10710 0387 E7040000 		.4byte	.LVL159-1
 10711 038b 4A050000 		.4byte	.LVL170
 10712 038f 0D00     		.2byte	0xd
 10713 0391 40       		.byte	0x40
 10714 0392 3E       		.byte	0x3e
 10715 0393 24       		.byte	0x24
 10716 0394 F7       		.byte	0xf7
 10717 0395 25       		.uleb128 0x25
 10718 0396 74       		.byte	0x74
 10719 0397 00       		.sleb128 0
 10720 0398 F7       		.byte	0xf7
 10721 0399 25       		.uleb128 0x25
 10722 039a 1B       		.byte	0x1b
 10723 039b F7       		.byte	0xf7
 10724 039c 00       		.uleb128 0
 10725 039d 9F       		.byte	0x9f
 10726 039e 88060000 		.4byte	.LVL212
 10727 03a2 90060000 		.4byte	.LVL213
 10728 03a6 0D00     		.2byte	0xd
 10729 03a8 40       		.byte	0x40
 10730 03a9 3E       		.byte	0x3e
 10731 03aa 24       		.byte	0x24
 10732 03ab F7       		.byte	0xf7
 10733 03ac 25       		.uleb128 0x25
 10734 03ad 78       		.byte	0x78
 10735 03ae 00       		.sleb128 0
 10736 03af F7       		.byte	0xf7
 10737 03b0 25       		.uleb128 0x25
 10738 03b1 1B       		.byte	0x1b
 10739 03b2 F7       		.byte	0xf7
 10740 03b3 00       		.uleb128 0
 10741 03b4 9F       		.byte	0x9f
 10742 03b5 90060000 		.4byte	.LVL213
ARM GAS  C:\Users\honet\AppData\Local\Temp\cc6gsi1c.s 			page 205


 10743 03b9 97060000 		.4byte	.LVL214-1
 10744 03bd 0100     		.2byte	0x1
 10745 03bf 52       		.byte	0x52
 10746 03c0 97060000 		.4byte	.LVL214-1
 10747 03c4 DA060000 		.4byte	.LVL223
 10748 03c8 0D00     		.2byte	0xd
 10749 03ca 40       		.byte	0x40
 10750 03cb 3E       		.byte	0x3e
 10751 03cc 24       		.byte	0x24
 10752 03cd F7       		.byte	0xf7
 10753 03ce 25       		.uleb128 0x25
 10754 03cf 78       		.byte	0x78
 10755 03d0 00       		.sleb128 0
 10756 03d1 F7       		.byte	0xf7
 10757 03d2 25       		.uleb128 0x25
 10758 03d3 1B       		.byte	0x1b
 10759 03d4 F7       		.byte	0xf7
 10760 03d5 00       		.uleb128 0
 10761 03d6 9F       		.byte	0x9f
 10762 03d7 12070000 		.4byte	.LVL230
 10763 03db 1C070000 		.4byte	.LVL233
 10764 03df 0D00     		.2byte	0xd
 10765 03e1 40       		.byte	0x40
 10766 03e2 3E       		.byte	0x3e
 10767 03e3 24       		.byte	0x24
 10768 03e4 F7       		.byte	0xf7
 10769 03e5 25       		.uleb128 0x25
 10770 03e6 78       		.byte	0x78
 10771 03e7 00       		.sleb128 0
 10772 03e8 F7       		.byte	0xf7
 10773 03e9 25       		.uleb128 0x25
 10774 03ea 1B       		.byte	0x1b
 10775 03eb F7       		.byte	0xf7
 10776 03ec 00       		.uleb128 0
 10777 03ed 9F       		.byte	0x9f
 10778 03ee 1C070000 		.4byte	.LVL233
 10779 03f2 26070000 		.4byte	.LVL236
 10780 03f6 0D00     		.2byte	0xd
 10781 03f8 40       		.byte	0x40
 10782 03f9 3E       		.byte	0x3e
 10783 03fa 24       		.byte	0x24
 10784 03fb F7       		.byte	0xf7
 10785 03fc 25       		.uleb128 0x25
 10786 03fd 74       		.byte	0x74
 10787 03fe 00       		.sleb128 0
 10788 03ff F7       		.byte	0xf7
 10789 0400 25       		.uleb128 0x25
 10790 0401 1B       		.byte	0x1b
 10791 0402 F7       		.byte	0xf7
 10792 0403 00       		.uleb128 0
 10793 0404 9F       		.byte	0x9f
 10794 0405 9E070000 		.4byte	.LVL251
 10795 0409 A8070000 		.4byte	.LVL254
 10796 040d 0D00     		.2byte	0xd
 10797 040f 40       		.byte	0x40
 10798 0410 3E       		.byte	0x3e
 10799 0411 24       		.byte	0x24
ARM GAS  C:\Users\honet\AppData\Local\Temp\cc6gsi1c.s 			page 206


 10800 0412 F7       		.byte	0xf7
 10801 0413 25       		.uleb128 0x25
 10802 0414 74       		.byte	0x74
 10803 0415 00       		.sleb128 0
 10804 0416 F7       		.byte	0xf7
 10805 0417 25       		.uleb128 0x25
 10806 0418 1B       		.byte	0x1b
 10807 0419 F7       		.byte	0xf7
 10808 041a 00       		.uleb128 0
 10809 041b 9F       		.byte	0x9f
 10810 041c 66080000 		.4byte	.LVL280
 10811 0420 6E080000 		.4byte	.LVL283
 10812 0424 0D00     		.2byte	0xd
 10813 0426 40       		.byte	0x40
 10814 0427 3E       		.byte	0x3e
 10815 0428 24       		.byte	0x24
 10816 0429 F7       		.byte	0xf7
 10817 042a 25       		.uleb128 0x25
 10818 042b 7A       		.byte	0x7a
 10819 042c 00       		.sleb128 0
 10820 042d F7       		.byte	0xf7
 10821 042e 25       		.uleb128 0x25
 10822 042f 1B       		.byte	0x1b
 10823 0430 F7       		.byte	0xf7
 10824 0431 00       		.uleb128 0
 10825 0432 9F       		.byte	0x9f
 10826 0433 76080000 		.4byte	.LVL286
 10827 0437 86080000 		.4byte	.LVL292
 10828 043b 0D00     		.2byte	0xd
 10829 043d 40       		.byte	0x40
 10830 043e 3E       		.byte	0x3e
 10831 043f 24       		.byte	0x24
 10832 0440 F7       		.byte	0xf7
 10833 0441 25       		.uleb128 0x25
 10834 0442 74       		.byte	0x74
 10835 0443 00       		.sleb128 0
 10836 0444 F7       		.byte	0xf7
 10837 0445 25       		.uleb128 0x25
 10838 0446 1B       		.byte	0x1b
 10839 0447 F7       		.byte	0xf7
 10840 0448 00       		.uleb128 0
 10841 0449 9F       		.byte	0x9f
 10842 044a 00000000 		.4byte	0
 10843 044e 00000000 		.4byte	0
 10844              	.LLST10:
 10845 0452 44030000 		.4byte	.LVL119
 10846 0456 4C030000 		.4byte	.LVL121
 10847 045a 0200     		.2byte	0x2
 10848 045c 30       		.byte	0x30
 10849 045d 9F       		.byte	0x9f
 10850 045e A6050000 		.4byte	.LVL182
 10851 0462 AE050000 		.4byte	.LVL184
 10852 0466 0200     		.2byte	0x2
 10853 0468 30       		.byte	0x30
 10854 0469 9F       		.byte	0x9f
 10855 046a 00000000 		.4byte	0
 10856 046e 00000000 		.4byte	0
ARM GAS  C:\Users\honet\AppData\Local\Temp\cc6gsi1c.s 			page 207


 10857              	.LLST11:
 10858 0472 72010000 		.4byte	.LVL65
 10859 0476 80010000 		.4byte	.LVL67
 10860 047a 0100     		.2byte	0x1
 10861 047c 50       		.byte	0x50
 10862 047d DE050000 		.4byte	.LVL189
 10863 0481 E0050000 		.4byte	.LVL190
 10864 0485 0100     		.2byte	0x1
 10865 0487 50       		.byte	0x50
 10866 0488 00000000 		.4byte	0
 10867 048c 00000000 		.4byte	0
 10868              	.LLST12:
 10869 0490 72010000 		.4byte	.LVL65
 10870 0494 E6050000 		.4byte	.LVL192
 10871 0498 0600     		.2byte	0x6
 10872 049a 03       		.byte	0x3
 10873 049b 4C020000 		.4byte	.LC37
 10874 049f 9F       		.byte	0x9f
 10875 04a0 42060000 		.4byte	.LVL198
 10876 04a4 D0070000 		.4byte	.LVL266
 10877 04a8 0600     		.2byte	0x6
 10878 04aa 03       		.byte	0x3
 10879 04ab 4C020000 		.4byte	.LC37
 10880 04af 9F       		.byte	0x9f
 10881 04b0 24080000 		.4byte	.LVL270
 10882 04b4 D4080000 		.4byte	.LFE68
 10883 04b8 0600     		.2byte	0x6
 10884 04ba 03       		.byte	0x3
 10885 04bb 4C020000 		.4byte	.LC37
 10886 04bf 9F       		.byte	0x9f
 10887 04c0 00000000 		.4byte	0
 10888 04c4 00000000 		.4byte	0
 10889              	.LLST13:
 10890 04c8 7A010000 		.4byte	.LVL66
 10891 04cc DE050000 		.4byte	.LVL189
 10892 04d0 0200     		.2byte	0x2
 10893 04d2 3E       		.byte	0x3e
 10894 04d3 9F       		.byte	0x9f
 10895 04d4 42060000 		.4byte	.LVL198
 10896 04d8 D0070000 		.4byte	.LVL266
 10897 04dc 0200     		.2byte	0x2
 10898 04de 3E       		.byte	0x3e
 10899 04df 9F       		.byte	0x9f
 10900 04e0 24080000 		.4byte	.LVL270
 10901 04e4 D4080000 		.4byte	.LFE68
 10902 04e8 0200     		.2byte	0x2
 10903 04ea 3E       		.byte	0x3e
 10904 04eb 9F       		.byte	0x9f
 10905 04ec 00000000 		.4byte	0
 10906 04f0 00000000 		.4byte	0
 10907              	.LLST14:
 10908 04f4 A4010000 		.4byte	.LVL70
 10909 04f8 AC010000 		.4byte	.LVL71
 10910 04fc 0100     		.2byte	0x1
 10911 04fe 50       		.byte	0x50
 10912 04ff 42060000 		.4byte	.LVL198
 10913 0503 44060000 		.4byte	.LVL199
ARM GAS  C:\Users\honet\AppData\Local\Temp\cc6gsi1c.s 			page 208


 10914 0507 0100     		.2byte	0x1
 10915 0509 50       		.byte	0x50
 10916 050a 00000000 		.4byte	0
 10917 050e 00000000 		.4byte	0
 10918              	.LLST16:
 10919 0512 A4010000 		.4byte	.LVL70
 10920 0516 DE050000 		.4byte	.LVL189
 10921 051a 0600     		.2byte	0x6
 10922 051c 03       		.byte	0x3
 10923 051d 64020000 		.4byte	.LC39
 10924 0521 9F       		.byte	0x9f
 10925 0522 42060000 		.4byte	.LVL198
 10926 0526 D0070000 		.4byte	.LVL266
 10927 052a 0600     		.2byte	0x6
 10928 052c 03       		.byte	0x3
 10929 052d 64020000 		.4byte	.LC39
 10930 0531 9F       		.byte	0x9f
 10931 0532 24080000 		.4byte	.LVL270
 10932 0536 D4080000 		.4byte	.LFE68
 10933 053a 0600     		.2byte	0x6
 10934 053c 03       		.byte	0x3
 10935 053d 64020000 		.4byte	.LC39
 10936 0541 9F       		.byte	0x9f
 10937 0542 00000000 		.4byte	0
 10938 0546 00000000 		.4byte	0
 10939              	.LLST17:
 10940 054a AC010000 		.4byte	.LVL71
 10941 054e B0010000 		.4byte	.LVL72
 10942 0552 0200     		.2byte	0x2
 10943 0554 30       		.byte	0x30
 10944 0555 9F       		.byte	0x9f
 10945 0556 B0010000 		.4byte	.LVL72
 10946 055a 06020000 		.4byte	.LVL82
 10947 055e 0100     		.2byte	0x1
 10948 0560 54       		.byte	0x54
 10949 0561 52060000 		.4byte	.LVL204
 10950 0565 5A060000 		.4byte	.LVL207
 10951 0569 0100     		.2byte	0x1
 10952 056b 54       		.byte	0x54
 10953 056c 00000000 		.4byte	0
 10954 0570 00000000 		.4byte	0
 10955              	.LLST18:
 10956 0574 CA010000 		.4byte	.LVL76
 10957 0578 DE050000 		.4byte	.LVL189
 10958 057c 0300     		.2byte	0x3
 10959 057e 08       		.byte	0x8
 10960 057f 22       		.byte	0x22
 10961 0580 9F       		.byte	0x9f
 10962 0581 4A060000 		.4byte	.LVL201
 10963 0585 D0070000 		.4byte	.LVL266
 10964 0589 0300     		.2byte	0x3
 10965 058b 08       		.byte	0x8
 10966 058c 22       		.byte	0x22
 10967 058d 9F       		.byte	0x9f
 10968 058e 24080000 		.4byte	.LVL270
 10969 0592 D4080000 		.4byte	.LFE68
 10970 0596 0300     		.2byte	0x3
ARM GAS  C:\Users\honet\AppData\Local\Temp\cc6gsi1c.s 			page 209


 10971 0598 08       		.byte	0x8
 10972 0599 22       		.byte	0x22
 10973 059a 9F       		.byte	0x9f
 10974 059b 00000000 		.4byte	0
 10975 059f 00000000 		.4byte	0
 10976              	.LLST19:
 10977 05a3 F0010000 		.4byte	.LVL80
 10978 05a7 F8010000 		.4byte	.LVL81
 10979 05ab 0100     		.2byte	0x1
 10980 05ad 50       		.byte	0x50
 10981 05ae 52060000 		.4byte	.LVL204
 10982 05b2 54060000 		.4byte	.LVL205
 10983 05b6 0100     		.2byte	0x1
 10984 05b8 50       		.byte	0x50
 10985 05b9 00000000 		.4byte	0
 10986 05bd 00000000 		.4byte	0
 10987              	.LLST21:
 10988 05c1 F0010000 		.4byte	.LVL80
 10989 05c5 DE050000 		.4byte	.LVL189
 10990 05c9 0600     		.2byte	0x6
 10991 05cb 03       		.byte	0x3
 10992 05cc 64020000 		.4byte	.LC39
 10993 05d0 9F       		.byte	0x9f
 10994 05d1 4A060000 		.4byte	.LVL201
 10995 05d5 D0070000 		.4byte	.LVL266
 10996 05d9 0600     		.2byte	0x6
 10997 05db 03       		.byte	0x3
 10998 05dc 64020000 		.4byte	.LC39
 10999 05e0 9F       		.byte	0x9f
 11000 05e1 24080000 		.4byte	.LVL270
 11001 05e5 D4080000 		.4byte	.LFE68
 11002 05e9 0600     		.2byte	0x6
 11003 05eb 03       		.byte	0x3
 11004 05ec 64020000 		.4byte	.LC39
 11005 05f0 9F       		.byte	0x9f
 11006 05f1 00000000 		.4byte	0
 11007 05f5 00000000 		.4byte	0
 11008              	.LLST22:
 11009 05f9 0A020000 		.4byte	.LVL83
 11010 05fd 16020000 		.4byte	.LVL84
 11011 0601 0100     		.2byte	0x1
 11012 0603 50       		.byte	0x50
 11013 0604 4A060000 		.4byte	.LVL201
 11014 0608 4C060000 		.4byte	.LVL202
 11015 060c 0100     		.2byte	0x1
 11016 060e 50       		.byte	0x50
 11017 060f 00000000 		.4byte	0
 11018 0613 00000000 		.4byte	0
 11019              	.LLST23:
 11020 0617 0A020000 		.4byte	.LVL83
 11021 061b DE050000 		.4byte	.LVL189
 11022 061f 0600     		.2byte	0x6
 11023 0621 03       		.byte	0x3
 11024 0622 4C020000 		.4byte	.LC37
 11025 0626 9F       		.byte	0x9f
 11026 0627 4A060000 		.4byte	.LVL201
 11027 062b 52060000 		.4byte	.LVL204
ARM GAS  C:\Users\honet\AppData\Local\Temp\cc6gsi1c.s 			page 210


 11028 062f 0600     		.2byte	0x6
 11029 0631 03       		.byte	0x3
 11030 0632 4C020000 		.4byte	.LC37
 11031 0636 9F       		.byte	0x9f
 11032 0637 5A060000 		.4byte	.LVL207
 11033 063b D0070000 		.4byte	.LVL266
 11034 063f 0600     		.2byte	0x6
 11035 0641 03       		.byte	0x3
 11036 0642 4C020000 		.4byte	.LC37
 11037 0646 9F       		.byte	0x9f
 11038 0647 24080000 		.4byte	.LVL270
 11039 064b D4080000 		.4byte	.LFE68
 11040 064f 0600     		.2byte	0x6
 11041 0651 03       		.byte	0x3
 11042 0652 4C020000 		.4byte	.LC37
 11043 0656 9F       		.byte	0x9f
 11044 0657 00000000 		.4byte	0
 11045 065b 00000000 		.4byte	0
 11046              	.LLST24:
 11047 065f 20020000 		.4byte	.LVL85
 11048 0663 28020000 		.4byte	.LVL86
 11049 0667 0100     		.2byte	0x1
 11050 0669 50       		.byte	0x50
 11051 066a 96080000 		.4byte	.LVL298
 11052 066e 98080000 		.4byte	.LVL299
 11053 0672 0100     		.2byte	0x1
 11054 0674 50       		.byte	0x50
 11055 0675 00000000 		.4byte	0
 11056 0679 00000000 		.4byte	0
 11057              	.LLST25:
 11058 067d 20020000 		.4byte	.LVL85
 11059 0681 36020000 		.4byte	.LVL88
 11060 0685 0600     		.2byte	0x6
 11061 0687 03       		.byte	0x3
 11062 0688 64020000 		.4byte	.LC39
 11063 068c 9F       		.byte	0x9f
 11064 068d 8E080000 		.4byte	.LVL295
 11065 0691 9E080000 		.4byte	.LVL301
 11066 0695 0600     		.2byte	0x6
 11067 0697 03       		.byte	0x3
 11068 0698 64020000 		.4byte	.LC39
 11069 069c 9F       		.byte	0x9f
 11070 069d 00000000 		.4byte	0
 11071 06a1 00000000 		.4byte	0
 11072              	.LLST26:
 11073 06a5 2E020000 		.4byte	.LVL87
 11074 06a9 36020000 		.4byte	.LVL88
 11075 06ad 0100     		.2byte	0x1
 11076 06af 50       		.byte	0x50
 11077 06b0 8E080000 		.4byte	.LVL295
 11078 06b4 90080000 		.4byte	.LVL296
 11079 06b8 0100     		.2byte	0x1
 11080 06ba 50       		.byte	0x50
 11081 06bb 00000000 		.4byte	0
 11082 06bf 00000000 		.4byte	0
 11083              	.LLST27:
 11084 06c3 2E020000 		.4byte	.LVL87
ARM GAS  C:\Users\honet\AppData\Local\Temp\cc6gsi1c.s 			page 211


 11085 06c7 36020000 		.4byte	.LVL88
 11086 06cb 0600     		.2byte	0x6
 11087 06cd 03       		.byte	0x3
 11088 06ce A0020000 		.4byte	.LC42
 11089 06d2 9F       		.byte	0x9f
 11090 06d3 8E080000 		.4byte	.LVL295
 11091 06d7 96080000 		.4byte	.LVL298
 11092 06db 0600     		.2byte	0x6
 11093 06dd 03       		.byte	0x3
 11094 06de A0020000 		.4byte	.LC42
 11095 06e2 9F       		.byte	0x9f
 11096 06e3 00000000 		.4byte	0
 11097 06e7 00000000 		.4byte	0
 11098              	.LLST28:
 11099 06eb 3E020000 		.4byte	.LVL89
 11100 06ef DE050000 		.4byte	.LVL189
 11101 06f3 0200     		.2byte	0x2
 11102 06f5 3C       		.byte	0x3c
 11103 06f6 9F       		.byte	0x9f
 11104 06f7 5A060000 		.4byte	.LVL207
 11105 06fb D0070000 		.4byte	.LVL266
 11106 06ff 0200     		.2byte	0x2
 11107 0701 3C       		.byte	0x3c
 11108 0702 9F       		.byte	0x9f
 11109 0703 24080000 		.4byte	.LVL270
 11110 0707 8E080000 		.4byte	.LVL295
 11111 070b 0200     		.2byte	0x2
 11112 070d 3C       		.byte	0x3c
 11113 070e 9F       		.byte	0x9f
 11114 070f 9E080000 		.4byte	.LVL301
 11115 0713 D4080000 		.4byte	.LFE68
 11116 0717 0200     		.2byte	0x2
 11117 0719 3C       		.byte	0x3c
 11118 071a 9F       		.byte	0x9f
 11119 071b 00000000 		.4byte	0
 11120 071f 00000000 		.4byte	0
 11121              	.LLST29:
 11122 0723 62020000 		.4byte	.LVL93
 11123 0727 6A020000 		.4byte	.LVL94
 11124 072b 0100     		.2byte	0x1
 11125 072d 50       		.byte	0x50
 11126 072e 86080000 		.4byte	.LVL292
 11127 0732 88080000 		.4byte	.LVL293
 11128 0736 0100     		.2byte	0x1
 11129 0738 50       		.byte	0x50
 11130 0739 00000000 		.4byte	0
 11131 073d 00000000 		.4byte	0
 11132              	.LLST31:
 11133 0741 62020000 		.4byte	.LVL93
 11134 0745 DE050000 		.4byte	.LVL189
 11135 0749 0600     		.2byte	0x6
 11136 074b 03       		.byte	0x3
 11137 074c 64020000 		.4byte	.LC39
 11138 0750 9F       		.byte	0x9f
 11139 0751 5A060000 		.4byte	.LVL207
 11140 0755 D0070000 		.4byte	.LVL266
 11141 0759 0600     		.2byte	0x6
ARM GAS  C:\Users\honet\AppData\Local\Temp\cc6gsi1c.s 			page 212


 11142 075b 03       		.byte	0x3
 11143 075c 64020000 		.4byte	.LC39
 11144 0760 9F       		.byte	0x9f
 11145 0761 24080000 		.4byte	.LVL270
 11146 0765 8E080000 		.4byte	.LVL295
 11147 0769 0600     		.2byte	0x6
 11148 076b 03       		.byte	0x3
 11149 076c 64020000 		.4byte	.LC39
 11150 0770 9F       		.byte	0x9f
 11151 0771 9E080000 		.4byte	.LVL301
 11152 0775 D4080000 		.4byte	.LFE68
 11153 0779 0600     		.2byte	0x6
 11154 077b 03       		.byte	0x3
 11155 077c 64020000 		.4byte	.LC39
 11156 0780 9F       		.byte	0x9f
 11157 0781 00000000 		.4byte	0
 11158 0785 00000000 		.4byte	0
 11159              	.LLST32:
 11160 0789 6A020000 		.4byte	.LVL94
 11161 078d DE050000 		.4byte	.LVL189
 11162 0791 0200     		.2byte	0x2
 11163 0793 3F       		.byte	0x3f
 11164 0794 9F       		.byte	0x9f
 11165 0795 5A060000 		.4byte	.LVL207
 11166 0799 D0070000 		.4byte	.LVL266
 11167 079d 0200     		.2byte	0x2
 11168 079f 3F       		.byte	0x3f
 11169 07a0 9F       		.byte	0x9f
 11170 07a1 24080000 		.4byte	.LVL270
 11171 07a5 86080000 		.4byte	.LVL292
 11172 07a9 0200     		.2byte	0x2
 11173 07ab 3F       		.byte	0x3f
 11174 07ac 9F       		.byte	0x9f
 11175 07ad 9E080000 		.4byte	.LVL301
 11176 07b1 D4080000 		.4byte	.LFE68
 11177 07b5 0200     		.2byte	0x2
 11178 07b7 3F       		.byte	0x3f
 11179 07b8 9F       		.byte	0x9f
 11180 07b9 00000000 		.4byte	0
 11181 07bd 00000000 		.4byte	0
 11182              	.LLST33:
 11183 07c1 94020000 		.4byte	.LVL99
 11184 07c5 9C020000 		.4byte	.LVL100
 11185 07c9 0100     		.2byte	0x1
 11186 07cb 50       		.byte	0x50
 11187 07cc 7E080000 		.4byte	.LVL289
 11188 07d0 80080000 		.4byte	.LVL290
 11189 07d4 0100     		.2byte	0x1
 11190 07d6 50       		.byte	0x50
 11191 07d7 00000000 		.4byte	0
 11192 07db 00000000 		.4byte	0
 11193              	.LLST35:
 11194 07df 94020000 		.4byte	.LVL99
 11195 07e3 DE050000 		.4byte	.LVL189
 11196 07e7 0600     		.2byte	0x6
 11197 07e9 03       		.byte	0x3
 11198 07ea 64020000 		.4byte	.LC39
ARM GAS  C:\Users\honet\AppData\Local\Temp\cc6gsi1c.s 			page 213


 11199 07ee 9F       		.byte	0x9f
 11200 07ef 5A060000 		.4byte	.LVL207
 11201 07f3 D0070000 		.4byte	.LVL266
 11202 07f7 0600     		.2byte	0x6
 11203 07f9 03       		.byte	0x3
 11204 07fa 64020000 		.4byte	.LC39
 11205 07fe 9F       		.byte	0x9f
 11206 07ff 24080000 		.4byte	.LVL270
 11207 0803 86080000 		.4byte	.LVL292
 11208 0807 0600     		.2byte	0x6
 11209 0809 03       		.byte	0x3
 11210 080a 64020000 		.4byte	.LC39
 11211 080e 9F       		.byte	0x9f
 11212 080f 9E080000 		.4byte	.LVL301
 11213 0813 D4080000 		.4byte	.LFE68
 11214 0817 0600     		.2byte	0x6
 11215 0819 03       		.byte	0x3
 11216 081a 64020000 		.4byte	.LC39
 11217 081e 9F       		.byte	0x9f
 11218 081f 00000000 		.4byte	0
 11219 0823 00000000 		.4byte	0
 11220              	.LLST36:
 11221 0827 9C020000 		.4byte	.LVL100
 11222 082b DE050000 		.4byte	.LVL189
 11223 082f 0300     		.2byte	0x3
 11224 0831 08       		.byte	0x8
 11225 0832 24       		.byte	0x24
 11226 0833 9F       		.byte	0x9f
 11227 0834 5A060000 		.4byte	.LVL207
 11228 0838 D0070000 		.4byte	.LVL266
 11229 083c 0300     		.2byte	0x3
 11230 083e 08       		.byte	0x8
 11231 083f 24       		.byte	0x24
 11232 0840 9F       		.byte	0x9f
 11233 0841 24080000 		.4byte	.LVL270
 11234 0845 7E080000 		.4byte	.LVL289
 11235 0849 0300     		.2byte	0x3
 11236 084b 08       		.byte	0x8
 11237 084c 24       		.byte	0x24
 11238 084d 9F       		.byte	0x9f
 11239 084e 9E080000 		.4byte	.LVL301
 11240 0852 D4080000 		.4byte	.LFE68
 11241 0856 0300     		.2byte	0x3
 11242 0858 08       		.byte	0x8
 11243 0859 24       		.byte	0x24
 11244 085a 9F       		.byte	0x9f
 11245 085b 00000000 		.4byte	0
 11246 085f 00000000 		.4byte	0
 11247              	.LLST37:
 11248 0863 C2020000 		.4byte	.LVL104
 11249 0867 CA020000 		.4byte	.LVL105
 11250 086b 0100     		.2byte	0x1
 11251 086d 50       		.byte	0x50
 11252 086e 76080000 		.4byte	.LVL286
 11253 0872 78080000 		.4byte	.LVL287
 11254 0876 0100     		.2byte	0x1
 11255 0878 50       		.byte	0x50
ARM GAS  C:\Users\honet\AppData\Local\Temp\cc6gsi1c.s 			page 214


 11256 0879 00000000 		.4byte	0
 11257 087d 00000000 		.4byte	0
 11258              	.LLST39:
 11259 0881 C2020000 		.4byte	.LVL104
 11260 0885 DE050000 		.4byte	.LVL189
 11261 0889 0600     		.2byte	0x6
 11262 088b 03       		.byte	0x3
 11263 088c 64020000 		.4byte	.LC39
 11264 0890 9F       		.byte	0x9f
 11265 0891 5A060000 		.4byte	.LVL207
 11266 0895 D0070000 		.4byte	.LVL266
 11267 0899 0600     		.2byte	0x6
 11268 089b 03       		.byte	0x3
 11269 089c 64020000 		.4byte	.LC39
 11270 08a0 9F       		.byte	0x9f
 11271 08a1 24080000 		.4byte	.LVL270
 11272 08a5 7E080000 		.4byte	.LVL289
 11273 08a9 0600     		.2byte	0x6
 11274 08ab 03       		.byte	0x3
 11275 08ac 64020000 		.4byte	.LC39
 11276 08b0 9F       		.byte	0x9f
 11277 08b1 9E080000 		.4byte	.LVL301
 11278 08b5 D4080000 		.4byte	.LFE68
 11279 08b9 0600     		.2byte	0x6
 11280 08bb 03       		.byte	0x3
 11281 08bc 64020000 		.4byte	.LC39
 11282 08c0 9F       		.byte	0x9f
 11283 08c1 00000000 		.4byte	0
 11284 08c5 00000000 		.4byte	0
 11285              	.LLST40:
 11286 08c9 E4020000 		.4byte	.LVL108
 11287 08cd F0020000 		.4byte	.LVL109
 11288 08d1 0100     		.2byte	0x1
 11289 08d3 50       		.byte	0x50
 11290 08d4 6E080000 		.4byte	.LVL283
 11291 08d8 70080000 		.4byte	.LVL284
 11292 08dc 0100     		.2byte	0x1
 11293 08de 50       		.byte	0x50
 11294 08df 00000000 		.4byte	0
 11295 08e3 00000000 		.4byte	0
 11296              	.LLST41:
 11297 08e7 E4020000 		.4byte	.LVL108
 11298 08eb DE050000 		.4byte	.LVL189
 11299 08ef 0600     		.2byte	0x6
 11300 08f1 03       		.byte	0x3
 11301 08f2 4C020000 		.4byte	.LC37
 11302 08f6 9F       		.byte	0x9f
 11303 08f7 5A060000 		.4byte	.LVL207
 11304 08fb D0070000 		.4byte	.LVL266
 11305 08ff 0600     		.2byte	0x6
 11306 0901 03       		.byte	0x3
 11307 0902 4C020000 		.4byte	.LC37
 11308 0906 9F       		.byte	0x9f
 11309 0907 24080000 		.4byte	.LVL270
 11310 090b 76080000 		.4byte	.LVL286
 11311 090f 0600     		.2byte	0x6
 11312 0911 03       		.byte	0x3
ARM GAS  C:\Users\honet\AppData\Local\Temp\cc6gsi1c.s 			page 215


 11313 0912 4C020000 		.4byte	.LC37
 11314 0916 9F       		.byte	0x9f
 11315 0917 9E080000 		.4byte	.LVL301
 11316 091b D4080000 		.4byte	.LFE68
 11317 091f 0600     		.2byte	0x6
 11318 0921 03       		.byte	0x3
 11319 0922 4C020000 		.4byte	.LC37
 11320 0926 9F       		.byte	0x9f
 11321 0927 00000000 		.4byte	0
 11322 092b 00000000 		.4byte	0
 11323              	.LLST42:
 11324 092f FA020000 		.4byte	.LVL110
 11325 0933 02030000 		.4byte	.LVL111
 11326 0937 0100     		.2byte	0x1
 11327 0939 50       		.byte	0x50
 11328 093a A6080000 		.4byte	.LVL304
 11329 093e A8080000 		.4byte	.LVL305
 11330 0942 0100     		.2byte	0x1
 11331 0944 50       		.byte	0x50
 11332 0945 00000000 		.4byte	0
 11333 0949 00000000 		.4byte	0
 11334              	.LLST43:
 11335 094d FA020000 		.4byte	.LVL110
 11336 0951 10030000 		.4byte	.LVL113
 11337 0955 0600     		.2byte	0x6
 11338 0957 03       		.byte	0x3
 11339 0958 F0020000 		.4byte	.LC46
 11340 095c 9F       		.byte	0x9f
 11341 095d 9E080000 		.4byte	.LVL301
 11342 0961 D4080000 		.4byte	.LFE68
 11343 0965 0600     		.2byte	0x6
 11344 0967 03       		.byte	0x3
 11345 0968 F0020000 		.4byte	.LC46
 11346 096c 9F       		.byte	0x9f
 11347 096d 00000000 		.4byte	0
 11348 0971 00000000 		.4byte	0
 11349              	.LLST44:
 11350 0975 08030000 		.4byte	.LVL112
 11351 0979 10030000 		.4byte	.LVL113
 11352 097d 0100     		.2byte	0x1
 11353 097f 50       		.byte	0x50
 11354 0980 9E080000 		.4byte	.LVL301
 11355 0984 A0080000 		.4byte	.LVL302
 11356 0988 0100     		.2byte	0x1
 11357 098a 50       		.byte	0x50
 11358 098b 00000000 		.4byte	0
 11359 098f 00000000 		.4byte	0
 11360              	.LLST45:
 11361 0993 08030000 		.4byte	.LVL112
 11362 0997 10030000 		.4byte	.LVL113
 11363 099b 0600     		.2byte	0x6
 11364 099d 03       		.byte	0x3
 11365 099e A0020000 		.4byte	.LC42
 11366 09a2 9F       		.byte	0x9f
 11367 09a3 9E080000 		.4byte	.LVL301
 11368 09a7 A6080000 		.4byte	.LVL304
 11369 09ab 0600     		.2byte	0x6
ARM GAS  C:\Users\honet\AppData\Local\Temp\cc6gsi1c.s 			page 216


 11370 09ad 03       		.byte	0x3
 11371 09ae A0020000 		.4byte	.LC42
 11372 09b2 9F       		.byte	0x9f
 11373 09b3 00000000 		.4byte	0
 11374 09b7 00000000 		.4byte	0
 11375              	.LLST46:
 11376 09bb 1A030000 		.4byte	.LVL114
 11377 09bf DE050000 		.4byte	.LVL189
 11378 09c3 0200     		.2byte	0x2
 11379 09c5 48       		.byte	0x48
 11380 09c6 9F       		.byte	0x9f
 11381 09c7 5A060000 		.4byte	.LVL207
 11382 09cb D0070000 		.4byte	.LVL266
 11383 09cf 0200     		.2byte	0x2
 11384 09d1 48       		.byte	0x48
 11385 09d2 9F       		.byte	0x9f
 11386 09d3 24080000 		.4byte	.LVL270
 11387 09d7 6E080000 		.4byte	.LVL283
 11388 09db 0200     		.2byte	0x2
 11389 09dd 48       		.byte	0x48
 11390 09de 9F       		.byte	0x9f
 11391 09df 00000000 		.4byte	0
 11392 09e3 00000000 		.4byte	0
 11393              	.LLST47:
 11394 09e7 3C030000 		.4byte	.LVL118
 11395 09eb 44030000 		.4byte	.LVL119
 11396 09ef 0100     		.2byte	0x1
 11397 09f1 50       		.byte	0x50
 11398 09f2 5E080000 		.4byte	.LVL277
 11399 09f6 60080000 		.4byte	.LVL278
 11400 09fa 0100     		.2byte	0x1
 11401 09fc 50       		.byte	0x50
 11402 09fd 00000000 		.4byte	0
 11403 0a01 00000000 		.4byte	0
 11404              	.LLST49:
 11405 0a05 3C030000 		.4byte	.LVL118
 11406 0a09 DE050000 		.4byte	.LVL189
 11407 0a0d 0600     		.2byte	0x6
 11408 0a0f 03       		.byte	0x3
 11409 0a10 64020000 		.4byte	.LC39
 11410 0a14 9F       		.byte	0x9f
 11411 0a15 5A060000 		.4byte	.LVL207
 11412 0a19 D0070000 		.4byte	.LVL266
 11413 0a1d 0600     		.2byte	0x6
 11414 0a1f 03       		.byte	0x3
 11415 0a20 64020000 		.4byte	.LC39
 11416 0a24 9F       		.byte	0x9f
 11417 0a25 24080000 		.4byte	.LVL270
 11418 0a29 6E080000 		.4byte	.LVL283
 11419 0a2d 0600     		.2byte	0x6
 11420 0a2f 03       		.byte	0x3
 11421 0a30 64020000 		.4byte	.LC39
 11422 0a34 9F       		.byte	0x9f
 11423 0a35 00000000 		.4byte	0
 11424 0a39 00000000 		.4byte	0
 11425              	.LLST50:
 11426 0a3d 44030000 		.4byte	.LVL119
ARM GAS  C:\Users\honet\AppData\Local\Temp\cc6gsi1c.s 			page 217


 11427 0a41 4C030000 		.4byte	.LVL121
 11428 0a45 0200     		.2byte	0x2
 11429 0a47 30       		.byte	0x30
 11430 0a48 9F       		.byte	0x9f
 11431 0a49 6E030000 		.4byte	.LVL124
 11432 0a4d A6030000 		.4byte	.LVL129
 11433 0a51 0100     		.2byte	0x1
 11434 0a53 54       		.byte	0x54
 11435 0a54 24080000 		.4byte	.LVL270
 11436 0a58 26080000 		.4byte	.LVL271
 11437 0a5c 0100     		.2byte	0x1
 11438 0a5e 54       		.byte	0x54
 11439 0a5f 00000000 		.4byte	0
 11440 0a63 00000000 		.4byte	0
 11441              	.LLST51:
 11442 0a67 7A030000 		.4byte	.LVL125
 11443 0a6b A6030000 		.4byte	.LVL129
 11444 0a6f 0200     		.2byte	0x2
 11445 0a71 38       		.byte	0x38
 11446 0a72 9F       		.byte	0x9f
 11447 0a73 00000000 		.4byte	0
 11448 0a77 00000000 		.4byte	0
 11449              	.LLST52:
 11450 0a7b 9E030000 		.4byte	.LVL128
 11451 0a7f A6030000 		.4byte	.LVL129
 11452 0a83 0100     		.2byte	0x1
 11453 0a85 50       		.byte	0x50
 11454 0a86 00000000 		.4byte	0
 11455 0a8a 00000000 		.4byte	0
 11456              	.LLST54:
 11457 0a8e 9E030000 		.4byte	.LVL128
 11458 0a92 A6030000 		.4byte	.LVL129
 11459 0a96 0600     		.2byte	0x6
 11460 0a98 03       		.byte	0x3
 11461 0a99 64020000 		.4byte	.LC39
 11462 0a9d 9F       		.byte	0x9f
 11463 0a9e 00000000 		.4byte	0
 11464 0aa2 00000000 		.4byte	0
 11465              	.LLST55:
 11466 0aa6 A6030000 		.4byte	.LVL129
 11467 0aaa DE050000 		.4byte	.LVL189
 11468 0aae 0200     		.2byte	0x2
 11469 0ab0 3F       		.byte	0x3f
 11470 0ab1 9F       		.byte	0x9f
 11471 0ab2 5A060000 		.4byte	.LVL207
 11472 0ab6 D0070000 		.4byte	.LVL266
 11473 0aba 0200     		.2byte	0x2
 11474 0abc 3F       		.byte	0x3f
 11475 0abd 9F       		.byte	0x9f
 11476 0abe 66080000 		.4byte	.LVL280
 11477 0ac2 6E080000 		.4byte	.LVL283
 11478 0ac6 0200     		.2byte	0x2
 11479 0ac8 3F       		.byte	0x3f
 11480 0ac9 9F       		.byte	0x9f
 11481 0aca 00000000 		.4byte	0
 11482 0ace 00000000 		.4byte	0
 11483              	.LLST56:
ARM GAS  C:\Users\honet\AppData\Local\Temp\cc6gsi1c.s 			page 218


 11484 0ad2 D0030000 		.4byte	.LVL134
 11485 0ad6 D8030000 		.4byte	.LVL135
 11486 0ada 0100     		.2byte	0x1
 11487 0adc 50       		.byte	0x50
 11488 0add 66080000 		.4byte	.LVL280
 11489 0ae1 68080000 		.4byte	.LVL281
 11490 0ae5 0100     		.2byte	0x1
 11491 0ae7 50       		.byte	0x50
 11492 0ae8 00000000 		.4byte	0
 11493 0aec 00000000 		.4byte	0
 11494              	.LLST58:
 11495 0af0 D0030000 		.4byte	.LVL134
 11496 0af4 DE050000 		.4byte	.LVL189
 11497 0af8 0600     		.2byte	0x6
 11498 0afa 03       		.byte	0x3
 11499 0afb 64020000 		.4byte	.LC39
 11500 0aff 9F       		.byte	0x9f
 11501 0b00 5A060000 		.4byte	.LVL207
 11502 0b04 D0070000 		.4byte	.LVL266
 11503 0b08 0600     		.2byte	0x6
 11504 0b0a 03       		.byte	0x3
 11505 0b0b 64020000 		.4byte	.LC39
 11506 0b0f 9F       		.byte	0x9f
 11507 0b10 66080000 		.4byte	.LVL280
 11508 0b14 6E080000 		.4byte	.LVL283
 11509 0b18 0600     		.2byte	0x6
 11510 0b1a 03       		.byte	0x3
 11511 0b1b 64020000 		.4byte	.LC39
 11512 0b1f 9F       		.byte	0x9f
 11513 0b20 00000000 		.4byte	0
 11514 0b24 00000000 		.4byte	0
 11515              	.LLST59:
 11516 0b28 FC030000 		.4byte	.LVL138
 11517 0b2c 00040000 		.4byte	.LVL139
 11518 0b30 0200     		.2byte	0x2
 11519 0b32 30       		.byte	0x30
 11520 0b33 9F       		.byte	0x9f
 11521 0b34 00000000 		.4byte	0
 11522 0b38 00000000 		.4byte	0
 11523              	.LLST60:
 11524 0b3c 00040000 		.4byte	.LVL139
 11525 0b40 DE050000 		.4byte	.LVL189
 11526 0b44 0200     		.2byte	0x2
 11527 0b46 4E       		.byte	0x4e
 11528 0b47 9F       		.byte	0x9f
 11529 0b48 5A060000 		.4byte	.LVL207
 11530 0b4c D0070000 		.4byte	.LVL266
 11531 0b50 0200     		.2byte	0x2
 11532 0b52 4E       		.byte	0x4e
 11533 0b53 9F       		.byte	0x9f
 11534 0b54 00000000 		.4byte	0
 11535 0b58 00000000 		.4byte	0
 11536              	.LLST61:
 11537 0b5c 6E040000 		.4byte	.LVL143
 11538 0b60 74040000 		.4byte	.LVL144
 11539 0b64 0100     		.2byte	0x1
 11540 0b66 50       		.byte	0x50
ARM GAS  C:\Users\honet\AppData\Local\Temp\cc6gsi1c.s 			page 219


 11541 0b67 3A070000 		.4byte	.LVL242
 11542 0b6b 3E070000 		.4byte	.LVL243
 11543 0b6f 0100     		.2byte	0x1
 11544 0b71 50       		.byte	0x50
 11545 0b72 00000000 		.4byte	0
 11546 0b76 00000000 		.4byte	0
 11547              	.LLST63:
 11548 0b7a 6E040000 		.4byte	.LVL143
 11549 0b7e DE050000 		.4byte	.LVL189
 11550 0b82 0600     		.2byte	0x6
 11551 0b84 03       		.byte	0x3
 11552 0b85 64020000 		.4byte	.LC39
 11553 0b89 9F       		.byte	0x9f
 11554 0b8a 5A060000 		.4byte	.LVL207
 11555 0b8e D0070000 		.4byte	.LVL266
 11556 0b92 0600     		.2byte	0x6
 11557 0b94 03       		.byte	0x3
 11558 0b95 64020000 		.4byte	.LC39
 11559 0b99 9F       		.byte	0x9f
 11560 0b9a 00000000 		.4byte	0
 11561 0b9e 00000000 		.4byte	0
 11562              	.LLST64:
 11563 0ba2 82040000 		.4byte	.LVL146
 11564 0ba6 8A040000 		.4byte	.LVL147
 11565 0baa 0100     		.2byte	0x1
 11566 0bac 50       		.byte	0x50
 11567 0bad 30070000 		.4byte	.LVL239
 11568 0bb1 34070000 		.4byte	.LVL240
 11569 0bb5 0100     		.2byte	0x1
 11570 0bb7 50       		.byte	0x50
 11571 0bb8 00000000 		.4byte	0
 11572 0bbc 00000000 		.4byte	0
 11573              	.LLST65:
 11574 0bc0 82040000 		.4byte	.LVL146
 11575 0bc4 DE050000 		.4byte	.LVL189
 11576 0bc8 0600     		.2byte	0x6
 11577 0bca 03       		.byte	0x3
 11578 0bcb 4C020000 		.4byte	.LC37
 11579 0bcf 9F       		.byte	0x9f
 11580 0bd0 5A060000 		.4byte	.LVL207
 11581 0bd4 3A070000 		.4byte	.LVL242
 11582 0bd8 0600     		.2byte	0x6
 11583 0bda 03       		.byte	0x3
 11584 0bdb 4C020000 		.4byte	.LC37
 11585 0bdf 9F       		.byte	0x9f
 11586 0be0 44070000 		.4byte	.LVL245
 11587 0be4 D0070000 		.4byte	.LVL266
 11588 0be8 0600     		.2byte	0x6
 11589 0bea 03       		.byte	0x3
 11590 0beb 4C020000 		.4byte	.LC37
 11591 0bef 9F       		.byte	0x9f
 11592 0bf0 00000000 		.4byte	0
 11593 0bf4 00000000 		.4byte	0
 11594              	.LLST66:
 11595 0bf8 96040000 		.4byte	.LVL148
 11596 0bfc 9C040000 		.4byte	.LVL149
 11597 0c00 0100     		.2byte	0x1
ARM GAS  C:\Users\honet\AppData\Local\Temp\cc6gsi1c.s 			page 220


 11598 0c02 50       		.byte	0x50
 11599 0c03 C6070000 		.4byte	.LVL263
 11600 0c07 CA070000 		.4byte	.LVL264
 11601 0c0b 0100     		.2byte	0x1
 11602 0c0d 50       		.byte	0x50
 11603 0c0e 00000000 		.4byte	0
 11604 0c12 00000000 		.4byte	0
 11605              	.LLST67:
 11606 0c16 96040000 		.4byte	.LVL148
 11607 0c1a A8040000 		.4byte	.LVL151
 11608 0c1e 0600     		.2byte	0x6
 11609 0c20 03       		.byte	0x3
 11610 0c21 64020000 		.4byte	.LC39
 11611 0c25 9F       		.byte	0x9f
 11612 0c26 BC070000 		.4byte	.LVL260
 11613 0c2a D0070000 		.4byte	.LVL266
 11614 0c2e 0600     		.2byte	0x6
 11615 0c30 03       		.byte	0x3
 11616 0c31 64020000 		.4byte	.LC39
 11617 0c35 9F       		.byte	0x9f
 11618 0c36 00000000 		.4byte	0
 11619 0c3a 00000000 		.4byte	0
 11620              	.LLST68:
 11621 0c3e A2040000 		.4byte	.LVL150
 11622 0c42 A8040000 		.4byte	.LVL151
 11623 0c46 0100     		.2byte	0x1
 11624 0c48 50       		.byte	0x50
 11625 0c49 BC070000 		.4byte	.LVL260
 11626 0c4d C0070000 		.4byte	.LVL261
 11627 0c51 0100     		.2byte	0x1
 11628 0c53 50       		.byte	0x50
 11629 0c54 00000000 		.4byte	0
 11630 0c58 00000000 		.4byte	0
 11631              	.LLST69:
 11632 0c5c A2040000 		.4byte	.LVL150
 11633 0c60 A8040000 		.4byte	.LVL151
 11634 0c64 0600     		.2byte	0x6
 11635 0c66 03       		.byte	0x3
 11636 0c67 A0020000 		.4byte	.LC42
 11637 0c6b 9F       		.byte	0x9f
 11638 0c6c BC070000 		.4byte	.LVL260
 11639 0c70 C6070000 		.4byte	.LVL263
 11640 0c74 0600     		.2byte	0x6
 11641 0c76 03       		.byte	0x3
 11642 0c77 A0020000 		.4byte	.LC42
 11643 0c7b 9F       		.byte	0x9f
 11644 0c7c 00000000 		.4byte	0
 11645 0c80 00000000 		.4byte	0
 11646              	.LLST70:
 11647 0c84 B0040000 		.4byte	.LVL152
 11648 0c88 DE050000 		.4byte	.LVL189
 11649 0c8c 0200     		.2byte	0x2
 11650 0c8e 3C       		.byte	0x3c
 11651 0c8f 9F       		.byte	0x9f
 11652 0c90 5A060000 		.4byte	.LVL207
 11653 0c94 30070000 		.4byte	.LVL239
 11654 0c98 0200     		.2byte	0x2
ARM GAS  C:\Users\honet\AppData\Local\Temp\cc6gsi1c.s 			page 221


 11655 0c9a 3C       		.byte	0x3c
 11656 0c9b 9F       		.byte	0x9f
 11657 0c9c 44070000 		.4byte	.LVL245
 11658 0ca0 BC070000 		.4byte	.LVL260
 11659 0ca4 0200     		.2byte	0x2
 11660 0ca6 3C       		.byte	0x3c
 11661 0ca7 9F       		.byte	0x9f
 11662 0ca8 00000000 		.4byte	0
 11663 0cac 00000000 		.4byte	0
 11664              	.LLST71:
 11665 0cb0 D2040000 		.4byte	.LVL156
 11666 0cb4 D8040000 		.4byte	.LVL157
 11667 0cb8 0100     		.2byte	0x1
 11668 0cba 50       		.byte	0x50
 11669 0cbb 26070000 		.4byte	.LVL236
 11670 0cbf 2A070000 		.4byte	.LVL237
 11671 0cc3 0100     		.2byte	0x1
 11672 0cc5 50       		.byte	0x50
 11673 0cc6 00000000 		.4byte	0
 11674 0cca 00000000 		.4byte	0
 11675              	.LLST73:
 11676 0cce D2040000 		.4byte	.LVL156
 11677 0cd2 DE050000 		.4byte	.LVL189
 11678 0cd6 0600     		.2byte	0x6
 11679 0cd8 03       		.byte	0x3
 11680 0cd9 64020000 		.4byte	.LC39
 11681 0cdd 9F       		.byte	0x9f
 11682 0cde 5A060000 		.4byte	.LVL207
 11683 0ce2 30070000 		.4byte	.LVL239
 11684 0ce6 0600     		.2byte	0x6
 11685 0ce8 03       		.byte	0x3
 11686 0ce9 64020000 		.4byte	.LC39
 11687 0ced 9F       		.byte	0x9f
 11688 0cee 44070000 		.4byte	.LVL245
 11689 0cf2 BC070000 		.4byte	.LVL260
 11690 0cf6 0600     		.2byte	0x6
 11691 0cf8 03       		.byte	0x3
 11692 0cf9 64020000 		.4byte	.LC39
 11693 0cfd 9F       		.byte	0x9f
 11694 0cfe 00000000 		.4byte	0
 11695 0d02 00000000 		.4byte	0
 11696              	.LLST74:
 11697 0d06 D8040000 		.4byte	.LVL157
 11698 0d0a DE050000 		.4byte	.LVL189
 11699 0d0e 0200     		.2byte	0x2
 11700 0d10 3F       		.byte	0x3f
 11701 0d11 9F       		.byte	0x9f
 11702 0d12 5A060000 		.4byte	.LVL207
 11703 0d16 26070000 		.4byte	.LVL236
 11704 0d1a 0200     		.2byte	0x2
 11705 0d1c 3F       		.byte	0x3f
 11706 0d1d 9F       		.byte	0x9f
 11707 0d1e 44070000 		.4byte	.LVL245
 11708 0d22 BC070000 		.4byte	.LVL260
 11709 0d26 0200     		.2byte	0x2
 11710 0d28 3F       		.byte	0x3f
 11711 0d29 9F       		.byte	0x9f
ARM GAS  C:\Users\honet\AppData\Local\Temp\cc6gsi1c.s 			page 222


 11712 0d2a 00000000 		.4byte	0
 11713 0d2e 00000000 		.4byte	0
 11714              	.LLST75:
 11715 0d32 02050000 		.4byte	.LVL162
 11716 0d36 08050000 		.4byte	.LVL163
 11717 0d3a 0100     		.2byte	0x1
 11718 0d3c 50       		.byte	0x50
 11719 0d3d 1C070000 		.4byte	.LVL233
 11720 0d41 20070000 		.4byte	.LVL234
 11721 0d45 0100     		.2byte	0x1
 11722 0d47 50       		.byte	0x50
 11723 0d48 00000000 		.4byte	0
 11724 0d4c 00000000 		.4byte	0
 11725              	.LLST77:
 11726 0d50 02050000 		.4byte	.LVL162
 11727 0d54 DE050000 		.4byte	.LVL189
 11728 0d58 0600     		.2byte	0x6
 11729 0d5a 03       		.byte	0x3
 11730 0d5b 64020000 		.4byte	.LC39
 11731 0d5f 9F       		.byte	0x9f
 11732 0d60 5A060000 		.4byte	.LVL207
 11733 0d64 26070000 		.4byte	.LVL236
 11734 0d68 0600     		.2byte	0x6
 11735 0d6a 03       		.byte	0x3
 11736 0d6b 64020000 		.4byte	.LC39
 11737 0d6f 9F       		.byte	0x9f
 11738 0d70 44070000 		.4byte	.LVL245
 11739 0d74 BC070000 		.4byte	.LVL260
 11740 0d78 0600     		.2byte	0x6
 11741 0d7a 03       		.byte	0x3
 11742 0d7b 64020000 		.4byte	.LC39
 11743 0d7f 9F       		.byte	0x9f
 11744 0d80 00000000 		.4byte	0
 11745 0d84 00000000 		.4byte	0
 11746              	.LLST78:
 11747 0d88 08050000 		.4byte	.LVL163
 11748 0d8c DE050000 		.4byte	.LVL189
 11749 0d90 0300     		.2byte	0x3
 11750 0d92 08       		.byte	0x8
 11751 0d93 20       		.byte	0x20
 11752 0d94 9F       		.byte	0x9f
 11753 0d95 5A060000 		.4byte	.LVL207
 11754 0d99 1C070000 		.4byte	.LVL233
 11755 0d9d 0300     		.2byte	0x3
 11756 0d9f 08       		.byte	0x8
 11757 0da0 20       		.byte	0x20
 11758 0da1 9F       		.byte	0x9f
 11759 0da2 44070000 		.4byte	.LVL245
 11760 0da6 BC070000 		.4byte	.LVL260
 11761 0daa 0300     		.2byte	0x3
 11762 0dac 08       		.byte	0x8
 11763 0dad 20       		.byte	0x20
 11764 0dae 9F       		.byte	0x9f
 11765 0daf 00000000 		.4byte	0
 11766 0db3 00000000 		.4byte	0
 11767              	.LLST79:
 11768 0db7 2E050000 		.4byte	.LVL167
ARM GAS  C:\Users\honet\AppData\Local\Temp\cc6gsi1c.s 			page 223


 11769 0dbb 34050000 		.4byte	.LVL168
 11770 0dbf 0100     		.2byte	0x1
 11771 0dc1 50       		.byte	0x50
 11772 0dc2 9E070000 		.4byte	.LVL251
 11773 0dc6 A2070000 		.4byte	.LVL252
 11774 0dca 0100     		.2byte	0x1
 11775 0dcc 50       		.byte	0x50
 11776 0dcd 00000000 		.4byte	0
 11777 0dd1 00000000 		.4byte	0
 11778              	.LLST81:
 11779 0dd5 2E050000 		.4byte	.LVL167
 11780 0dd9 DE050000 		.4byte	.LVL189
 11781 0ddd 0600     		.2byte	0x6
 11782 0ddf 03       		.byte	0x3
 11783 0de0 64020000 		.4byte	.LC39
 11784 0de4 9F       		.byte	0x9f
 11785 0de5 5A060000 		.4byte	.LVL207
 11786 0de9 1C070000 		.4byte	.LVL233
 11787 0ded 0600     		.2byte	0x6
 11788 0def 03       		.byte	0x3
 11789 0df0 64020000 		.4byte	.LC39
 11790 0df4 9F       		.byte	0x9f
 11791 0df5 44070000 		.4byte	.LVL245
 11792 0df9 BC070000 		.4byte	.LVL260
 11793 0dfd 0600     		.2byte	0x6
 11794 0dff 03       		.byte	0x3
 11795 0e00 64020000 		.4byte	.LC39
 11796 0e04 9F       		.byte	0x9f
 11797 0e05 00000000 		.4byte	0
 11798 0e09 00000000 		.4byte	0
 11799              	.LLST82:
 11800 0e0d 4E050000 		.4byte	.LVL171
 11801 0e11 56050000 		.4byte	.LVL172
 11802 0e15 0100     		.2byte	0x1
 11803 0e17 50       		.byte	0x50
 11804 0e18 94070000 		.4byte	.LVL248
 11805 0e1c 98070000 		.4byte	.LVL249
 11806 0e20 0100     		.2byte	0x1
 11807 0e22 50       		.byte	0x50
 11808 0e23 00000000 		.4byte	0
 11809 0e27 00000000 		.4byte	0
 11810              	.LLST83:
 11811 0e2b 4E050000 		.4byte	.LVL171
 11812 0e2f DE050000 		.4byte	.LVL189
 11813 0e33 0600     		.2byte	0x6
 11814 0e35 03       		.byte	0x3
 11815 0e36 4C020000 		.4byte	.LC37
 11816 0e3a 9F       		.byte	0x9f
 11817 0e3b 5A060000 		.4byte	.LVL207
 11818 0e3f 1C070000 		.4byte	.LVL233
 11819 0e43 0600     		.2byte	0x6
 11820 0e45 03       		.byte	0x3
 11821 0e46 4C020000 		.4byte	.LC37
 11822 0e4a 9F       		.byte	0x9f
 11823 0e4b 44070000 		.4byte	.LVL245
 11824 0e4f 9E070000 		.4byte	.LVL251
 11825 0e53 0600     		.2byte	0x6
ARM GAS  C:\Users\honet\AppData\Local\Temp\cc6gsi1c.s 			page 224


 11826 0e55 03       		.byte	0x3
 11827 0e56 4C020000 		.4byte	.LC37
 11828 0e5a 9F       		.byte	0x9f
 11829 0e5b A8070000 		.4byte	.LVL254
 11830 0e5f BC070000 		.4byte	.LVL260
 11831 0e63 0600     		.2byte	0x6
 11832 0e65 03       		.byte	0x3
 11833 0e66 4C020000 		.4byte	.LC37
 11834 0e6a 9F       		.byte	0x9f
 11835 0e6b 00000000 		.4byte	0
 11836 0e6f 00000000 		.4byte	0
 11837              	.LLST84:
 11838 0e73 62050000 		.4byte	.LVL173
 11839 0e77 68050000 		.4byte	.LVL174
 11840 0e7b 0100     		.2byte	0x1
 11841 0e7d 50       		.byte	0x50
 11842 0e7e B2070000 		.4byte	.LVL257
 11843 0e82 B6070000 		.4byte	.LVL258
 11844 0e86 0100     		.2byte	0x1
 11845 0e88 50       		.byte	0x50
 11846 0e89 00000000 		.4byte	0
 11847 0e8d 00000000 		.4byte	0
 11848              	.LLST85:
 11849 0e91 62050000 		.4byte	.LVL173
 11850 0e95 74050000 		.4byte	.LVL176
 11851 0e99 0600     		.2byte	0x6
 11852 0e9b 03       		.byte	0x3
 11853 0e9c F0020000 		.4byte	.LC46
 11854 0ea0 9F       		.byte	0x9f
 11855 0ea1 A8070000 		.4byte	.LVL254
 11856 0ea5 BC070000 		.4byte	.LVL260
 11857 0ea9 0600     		.2byte	0x6
 11858 0eab 03       		.byte	0x3
 11859 0eac F0020000 		.4byte	.LC46
 11860 0eb0 9F       		.byte	0x9f
 11861 0eb1 00000000 		.4byte	0
 11862 0eb5 00000000 		.4byte	0
 11863              	.LLST86:
 11864 0eb9 6E050000 		.4byte	.LVL175
 11865 0ebd 74050000 		.4byte	.LVL176
 11866 0ec1 0100     		.2byte	0x1
 11867 0ec3 50       		.byte	0x50
 11868 0ec4 A8070000 		.4byte	.LVL254
 11869 0ec8 AC070000 		.4byte	.LVL255
 11870 0ecc 0100     		.2byte	0x1
 11871 0ece 50       		.byte	0x50
 11872 0ecf 00000000 		.4byte	0
 11873 0ed3 00000000 		.4byte	0
 11874              	.LLST87:
 11875 0ed7 6E050000 		.4byte	.LVL175
 11876 0edb 74050000 		.4byte	.LVL176
 11877 0edf 0600     		.2byte	0x6
 11878 0ee1 03       		.byte	0x3
 11879 0ee2 A0020000 		.4byte	.LC42
 11880 0ee6 9F       		.byte	0x9f
 11881 0ee7 A8070000 		.4byte	.LVL254
 11882 0eeb B2070000 		.4byte	.LVL257
ARM GAS  C:\Users\honet\AppData\Local\Temp\cc6gsi1c.s 			page 225


 11883 0eef 0600     		.2byte	0x6
 11884 0ef1 03       		.byte	0x3
 11885 0ef2 A0020000 		.4byte	.LC42
 11886 0ef6 9F       		.byte	0x9f
 11887 0ef7 00000000 		.4byte	0
 11888 0efb 00000000 		.4byte	0
 11889              	.LLST88:
 11890 0eff 7E050000 		.4byte	.LVL177
 11891 0f03 DE050000 		.4byte	.LVL189
 11892 0f07 0200     		.2byte	0x2
 11893 0f09 48       		.byte	0x48
 11894 0f0a 9F       		.byte	0x9f
 11895 0f0b 5A060000 		.4byte	.LVL207
 11896 0f0f 1C070000 		.4byte	.LVL233
 11897 0f13 0200     		.2byte	0x2
 11898 0f15 48       		.byte	0x48
 11899 0f16 9F       		.byte	0x9f
 11900 0f17 44070000 		.4byte	.LVL245
 11901 0f1b 94070000 		.4byte	.LVL248
 11902 0f1f 0200     		.2byte	0x2
 11903 0f21 48       		.byte	0x48
 11904 0f22 9F       		.byte	0x9f
 11905 0f23 00000000 		.4byte	0
 11906 0f27 00000000 		.4byte	0
 11907              	.LLST89:
 11908 0f2b A0050000 		.4byte	.LVL181
 11909 0f2f A6050000 		.4byte	.LVL182
 11910 0f33 0100     		.2byte	0x1
 11911 0f35 50       		.byte	0x50
 11912 0f36 44070000 		.4byte	.LVL245
 11913 0f3a 48070000 		.4byte	.LVL246
 11914 0f3e 0100     		.2byte	0x1
 11915 0f40 50       		.byte	0x50
 11916 0f41 00000000 		.4byte	0
 11917 0f45 00000000 		.4byte	0
 11918              	.LLST91:
 11919 0f49 A0050000 		.4byte	.LVL181
 11920 0f4d DE050000 		.4byte	.LVL189
 11921 0f51 0600     		.2byte	0x6
 11922 0f53 03       		.byte	0x3
 11923 0f54 64020000 		.4byte	.LC39
 11924 0f58 9F       		.byte	0x9f
 11925 0f59 5A060000 		.4byte	.LVL207
 11926 0f5d 1C070000 		.4byte	.LVL233
 11927 0f61 0600     		.2byte	0x6
 11928 0f63 03       		.byte	0x3
 11929 0f64 64020000 		.4byte	.LC39
 11930 0f68 9F       		.byte	0x9f
 11931 0f69 44070000 		.4byte	.LVL245
 11932 0f6d 94070000 		.4byte	.LVL248
 11933 0f71 0600     		.2byte	0x6
 11934 0f73 03       		.byte	0x3
 11935 0f74 64020000 		.4byte	.LC39
 11936 0f78 9F       		.byte	0x9f
 11937 0f79 00000000 		.4byte	0
 11938 0f7d 00000000 		.4byte	0
 11939              	.LLST92:
ARM GAS  C:\Users\honet\AppData\Local\Temp\cc6gsi1c.s 			page 226


 11940 0f81 A6050000 		.4byte	.LVL182
 11941 0f85 AE050000 		.4byte	.LVL184
 11942 0f89 0200     		.2byte	0x2
 11943 0f8b 30       		.byte	0x30
 11944 0f8c 9F       		.byte	0x9f
 11945 0f8d BC050000 		.4byte	.LVL185
 11946 0f91 C2050000 		.4byte	.LVL186
 11947 0f95 0100     		.2byte	0x1
 11948 0f97 54       		.byte	0x54
 11949 0f98 5A060000 		.4byte	.LVL207
 11950 0f9c 88060000 		.4byte	.LVL212
 11951 0fa0 0100     		.2byte	0x1
 11952 0fa2 54       		.byte	0x54
 11953 0fa3 DA060000 		.4byte	.LVL223
 11954 0fa7 DC060000 		.4byte	.LVL224
 11955 0fab 0100     		.2byte	0x1
 11956 0fad 54       		.byte	0x54
 11957 0fae 00000000 		.4byte	0
 11958 0fb2 00000000 		.4byte	0
 11959              	.LLST93:
 11960 0fb6 60060000 		.4byte	.LVL208
 11961 0fba 88060000 		.4byte	.LVL212
 11962 0fbe 0200     		.2byte	0x2
 11963 0fc0 38       		.byte	0x38
 11964 0fc1 9F       		.byte	0x9f
 11965 0fc2 00000000 		.4byte	0
 11966 0fc6 00000000 		.4byte	0
 11967              	.LLST94:
 11968 0fca 84060000 		.4byte	.LVL211
 11969 0fce 88060000 		.4byte	.LVL212
 11970 0fd2 0100     		.2byte	0x1
 11971 0fd4 50       		.byte	0x50
 11972 0fd5 00000000 		.4byte	0
 11973 0fd9 00000000 		.4byte	0
 11974              	.LLST96:
 11975 0fdd 84060000 		.4byte	.LVL211
 11976 0fe1 88060000 		.4byte	.LVL212
 11977 0fe5 0600     		.2byte	0x6
 11978 0fe7 03       		.byte	0x3
 11979 0fe8 64020000 		.4byte	.LC39
 11980 0fec 9F       		.byte	0x9f
 11981 0fed 00000000 		.4byte	0
 11982 0ff1 00000000 		.4byte	0
 11983              	.LLST97:
 11984 0ff5 88060000 		.4byte	.LVL212
 11985 0ff9 DA060000 		.4byte	.LVL223
 11986 0ffd 0200     		.2byte	0x2
 11987 0fff 3F       		.byte	0x3f
 11988 1000 9F       		.byte	0x9f
 11989 1001 12070000 		.4byte	.LVL230
 11990 1005 1C070000 		.4byte	.LVL233
 11991 1009 0200     		.2byte	0x2
 11992 100b 3F       		.byte	0x3f
 11993 100c 9F       		.byte	0x9f
 11994 100d 00000000 		.4byte	0
 11995 1011 00000000 		.4byte	0
 11996              	.LLST98:
ARM GAS  C:\Users\honet\AppData\Local\Temp\cc6gsi1c.s 			page 227


 11997 1015 B2060000 		.4byte	.LVL217
 11998 1019 B4060000 		.4byte	.LVL218
 11999 101d 0100     		.2byte	0x1
 12000 101f 50       		.byte	0x50
 12001 1020 12070000 		.4byte	.LVL230
 12002 1024 16070000 		.4byte	.LVL231
 12003 1028 0100     		.2byte	0x1
 12004 102a 50       		.byte	0x50
 12005 102b 00000000 		.4byte	0
 12006 102f 00000000 		.4byte	0
 12007              	.LLST100:
 12008 1033 B2060000 		.4byte	.LVL217
 12009 1037 DA060000 		.4byte	.LVL223
 12010 103b 0600     		.2byte	0x6
 12011 103d 03       		.byte	0x3
 12012 103e 64020000 		.4byte	.LC39
 12013 1042 9F       		.byte	0x9f
 12014 1043 12070000 		.4byte	.LVL230
 12015 1047 1C070000 		.4byte	.LVL233
 12016 104b 0600     		.2byte	0x6
 12017 104d 03       		.byte	0x3
 12018 104e 64020000 		.4byte	.LC39
 12019 1052 9F       		.byte	0x9f
 12020 1053 00000000 		.4byte	0
 12021 1057 00000000 		.4byte	0
 12022              	.LLST101:
 12023 105b DA060000 		.4byte	.LVL223
 12024 105f 08070000 		.4byte	.LVL228
 12025 1063 0200     		.2byte	0x2
 12026 1065 3E       		.byte	0x3e
 12027 1066 9F       		.byte	0x9f
 12028 1067 00000000 		.4byte	0
 12029 106b 00000000 		.4byte	0
 12030              	.LLST102:
 12031 106f 04070000 		.4byte	.LVL227
 12032 1073 08070000 		.4byte	.LVL228
 12033 1077 0100     		.2byte	0x1
 12034 1079 50       		.byte	0x50
 12035 107a 00000000 		.4byte	0
 12036 107e 00000000 		.4byte	0
 12037              	.LLST104:
 12038 1082 04070000 		.4byte	.LVL227
 12039 1086 08070000 		.4byte	.LVL228
 12040 108a 0600     		.2byte	0x6
 12041 108c 03       		.byte	0x3
 12042 108d 64020000 		.4byte	.LC39
 12043 1091 9F       		.byte	0x9f
 12044 1092 00000000 		.4byte	0
 12045 1096 00000000 		.4byte	0
 12046              	.LLST105:
 12047 109a CA060000 		.4byte	.LVL220
 12048 109e D4060000 		.4byte	.LVL221
 12049 10a2 0100     		.2byte	0x1
 12050 10a4 50       		.byte	0x50
 12051 10a5 00000000 		.4byte	0
 12052 10a9 00000000 		.4byte	0
 12053              	.LLST106:
ARM GAS  C:\Users\honet\AppData\Local\Temp\cc6gsi1c.s 			page 228


 12054 10ad CA060000 		.4byte	.LVL220
 12055 10b1 DA060000 		.4byte	.LVL223
 12056 10b5 0600     		.2byte	0x6
 12057 10b7 03       		.byte	0x3
 12058 10b8 A0020000 		.4byte	.LC42
 12059 10bc 9F       		.byte	0x9f
 12060 10bd 00000000 		.4byte	0
 12061 10c1 00000000 		.4byte	0
 12062              	.LLST107:
 12063 10c5 24080000 		.4byte	.LVL270
 12064 10c9 56080000 		.4byte	.LVL275
 12065 10cd 0200     		.2byte	0x2
 12066 10cf 3E       		.byte	0x3e
 12067 10d0 9F       		.byte	0x9f
 12068 10d1 00000000 		.4byte	0
 12069 10d5 00000000 		.4byte	0
 12070              	.LLST108:
 12071 10d9 4E080000 		.4byte	.LVL274
 12072 10dd 56080000 		.4byte	.LVL275
 12073 10e1 0100     		.2byte	0x1
 12074 10e3 50       		.byte	0x50
 12075 10e4 00000000 		.4byte	0
 12076 10e8 00000000 		.4byte	0
 12077              	.LLST110:
 12078 10ec 4E080000 		.4byte	.LVL274
 12079 10f0 56080000 		.4byte	.LVL275
 12080 10f4 0600     		.2byte	0x6
 12081 10f6 03       		.byte	0x3
 12082 10f7 64020000 		.4byte	.LC39
 12083 10fb 9F       		.byte	0x9f
 12084 10fc 00000000 		.4byte	0
 12085 1100 00000000 		.4byte	0
 12086              	.LLST111:
 12087 1104 C0010000 		.4byte	.LVL346
 12088 1108 C8010000 		.4byte	.LVL347
 12089 110c 0100     		.2byte	0x1
 12090 110e 50       		.byte	0x50
 12091 110f 2A020000 		.4byte	.LVL359
 12092 1113 32020000 		.4byte	.LVL360
 12093 1117 0100     		.2byte	0x1
 12094 1119 50       		.byte	0x50
 12095 111a 00000000 		.4byte	0
 12096 111e 00000000 		.4byte	0
 12097              	.LLST112:
 12098 1122 00000000 		.4byte	.LVL307
 12099 1126 64000000 		.4byte	.LVL320
 12100 112a 0300     		.2byte	0x3
 12101 112c 08       		.byte	0x8
 12102 112d 64       		.byte	0x64
 12103 112e 9F       		.byte	0x9f
 12104 112f 88000000 		.4byte	.LVL324
 12105 1133 92010000 		.4byte	.LVL341
 12106 1137 0300     		.2byte	0x3
 12107 1139 08       		.byte	0x8
 12108 113a 64       		.byte	0x64
 12109 113b 9F       		.byte	0x9f
 12110 113c BC010000 		.4byte	.LVL345
ARM GAS  C:\Users\honet\AppData\Local\Temp\cc6gsi1c.s 			page 229


 12111 1140 AC020000 		.4byte	.LVL375
 12112 1144 0100     		.2byte	0x1
 12113 1146 57       		.byte	0x57
 12114 1147 AC020000 		.4byte	.LVL375
 12115 114b B0030000 		.4byte	.LFE69
 12116 114f 0300     		.2byte	0x3
 12117 1151 08       		.byte	0x8
 12118 1152 64       		.byte	0x64
 12119 1153 9F       		.byte	0x9f
 12120 1154 00000000 		.4byte	0
 12121 1158 00000000 		.4byte	0
 12122              	.LLST113:
 12123 115c 00000000 		.4byte	.LVL307
 12124 1160 64000000 		.4byte	.LVL320
 12125 1164 0200     		.2byte	0x2
 12126 1166 31       		.byte	0x31
 12127 1167 9F       		.byte	0x9f
 12128 1168 88000000 		.4byte	.LVL324
 12129 116c 92010000 		.4byte	.LVL341
 12130 1170 0200     		.2byte	0x2
 12131 1172 31       		.byte	0x31
 12132 1173 9F       		.byte	0x9f
 12133 1174 92010000 		.4byte	.LVL341
 12134 1178 AC020000 		.4byte	.LVL375
 12135 117c 0100     		.2byte	0x1
 12136 117e 56       		.byte	0x56
 12137 117f AC020000 		.4byte	.LVL375
 12138 1183 B0030000 		.4byte	.LFE69
 12139 1187 0200     		.2byte	0x2
 12140 1189 31       		.byte	0x31
 12141 118a 9F       		.byte	0x9f
 12142 118b 00000000 		.4byte	0
 12143 118f 00000000 		.4byte	0
 12144              	.LLST114:
 12145 1193 48000000 		.4byte	.LVL316
 12146 1197 64000000 		.4byte	.LVL320
 12147 119b 0100     		.2byte	0x1
 12148 119d 54       		.byte	0x54
 12149 119e 88000000 		.4byte	.LVL324
 12150 11a2 94000000 		.4byte	.LVL326
 12151 11a6 0100     		.2byte	0x1
 12152 11a8 54       		.byte	0x54
 12153 11a9 00000000 		.4byte	0
 12154 11ad 00000000 		.4byte	0
 12155              	.LLST115:
 12156 11b1 92000000 		.4byte	.LVL325
 12157 11b5 9E000000 		.4byte	.LVL327
 12158 11b9 0100     		.2byte	0x1
 12159 11bb 50       		.byte	0x50
 12160 11bc F8000000 		.4byte	.LVL330
 12161 11c0 FC000000 		.4byte	.LVL331
 12162 11c4 0100     		.2byte	0x1
 12163 11c6 50       		.byte	0x50
 12164 11c7 00000000 		.4byte	0
 12165 11cb 00000000 		.4byte	0
 12166              	.LLST116:
 12167 11cf 00000000 		.4byte	.LVL307
ARM GAS  C:\Users\honet\AppData\Local\Temp\cc6gsi1c.s 			page 230


 12168 11d3 0C000000 		.4byte	.LVL308
 12169 11d7 0200     		.2byte	0x2
 12170 11d9 30       		.byte	0x30
 12171 11da 9F       		.byte	0x9f
 12172 11db 0C000000 		.4byte	.LVL308
 12173 11df 2A000000 		.4byte	.LVL312
 12174 11e3 0100     		.2byte	0x1
 12175 11e5 54       		.byte	0x54
 12176 11e6 00000000 		.4byte	0
 12177 11ea 00000000 		.4byte	0
 12178              	.LLST117:
 12179 11ee C8010000 		.4byte	.LVL347
 12180 11f2 20020000 		.4byte	.LVL358
 12181 11f6 0100     		.2byte	0x1
 12182 11f8 5A       		.byte	0x5a
 12183 11f9 32020000 		.4byte	.LVL360
 12184 11fd 8A020000 		.4byte	.LVL371
 12185 1201 0100     		.2byte	0x1
 12186 1203 5A       		.byte	0x5a
 12187 1204 00000000 		.4byte	0
 12188 1208 00000000 		.4byte	0
 12189              	.LLST118:
 12190 120c E4010000 		.4byte	.LVL350
 12191 1210 20020000 		.4byte	.LVL358
 12192 1214 0100     		.2byte	0x1
 12193 1216 55       		.byte	0x55
 12194 1217 00000000 		.4byte	0
 12195 121b 00000000 		.4byte	0
 12196              	.LLST119:
 12197 121f 00020000 		.4byte	.LVL354
 12198 1223 0C020000 		.4byte	.LVL355
 12199 1227 1100     		.2byte	0x11
 12200 1229 76       		.byte	0x76
 12201 122a 00       		.sleb128 0
 12202 122b 33       		.byte	0x33
 12203 122c 24       		.byte	0x24
 12204 122d 77       		.byte	0x77
 12205 122e 00       		.sleb128 0
 12206 122f 1E       		.byte	0x1e
 12207 1230 F7       		.byte	0xf7
 12208 1231 25       		.uleb128 0x25
 12209 1232 75       		.byte	0x75
 12210 1233 00       		.sleb128 0
 12211 1234 F7       		.byte	0xf7
 12212 1235 25       		.uleb128 0x25
 12213 1236 1B       		.byte	0x1b
 12214 1237 F7       		.byte	0xf7
 12215 1238 00       		.uleb128 0
 12216 1239 9F       		.byte	0x9f
 12217 123a 0C020000 		.4byte	.LVL355
 12218 123e 11020000 		.4byte	.LVL356-1
 12219 1242 0100     		.2byte	0x1
 12220 1244 52       		.byte	0x52
 12221 1245 11020000 		.4byte	.LVL356-1
 12222 1249 20020000 		.4byte	.LVL358
 12223 124d 1100     		.2byte	0x11
 12224 124f 76       		.byte	0x76
ARM GAS  C:\Users\honet\AppData\Local\Temp\cc6gsi1c.s 			page 231


 12225 1250 00       		.sleb128 0
 12226 1251 33       		.byte	0x33
 12227 1252 24       		.byte	0x24
 12228 1253 77       		.byte	0x77
 12229 1254 00       		.sleb128 0
 12230 1255 1E       		.byte	0x1e
 12231 1256 F7       		.byte	0xf7
 12232 1257 25       		.uleb128 0x25
 12233 1258 75       		.byte	0x75
 12234 1259 00       		.sleb128 0
 12235 125a F7       		.byte	0xf7
 12236 125b 25       		.uleb128 0x25
 12237 125c 1B       		.byte	0x1b
 12238 125d F7       		.byte	0xf7
 12239 125e 00       		.uleb128 0
 12240 125f 9F       		.byte	0x9f
 12241 1260 00000000 		.4byte	0
 12242 1264 00000000 		.4byte	0
 12243              	.LLST120:
 12244 1268 C8010000 		.4byte	.LVL347
 12245 126c CA010000 		.4byte	.LVL348
 12246 1270 0100     		.2byte	0x1
 12247 1272 55       		.byte	0x55
 12248 1273 CA010000 		.4byte	.LVL348
 12249 1277 D6010000 		.4byte	.LVL349
 12250 127b 0300     		.2byte	0x3
 12251 127d 75       		.byte	0x75
 12252 127e 7F       		.sleb128 -1
 12253 127f 9F       		.byte	0x9f
 12254 1280 D6010000 		.4byte	.LVL349
 12255 1284 E4010000 		.4byte	.LVL350
 12256 1288 0100     		.2byte	0x1
 12257 128a 55       		.byte	0x55
 12258 128b 00000000 		.4byte	0
 12259 128f 00000000 		.4byte	0
 12260              	.LLST121:
 12261 1293 4E020000 		.4byte	.LVL363
 12262 1297 8A020000 		.4byte	.LVL371
 12263 129b 0100     		.2byte	0x1
 12264 129d 55       		.byte	0x55
 12265 129e 00000000 		.4byte	0
 12266 12a2 00000000 		.4byte	0
 12267              	.LLST122:
 12268 12a6 6A020000 		.4byte	.LVL367
 12269 12aa 76020000 		.4byte	.LVL368
 12270 12ae 1100     		.2byte	0x11
 12271 12b0 76       		.byte	0x76
 12272 12b1 00       		.sleb128 0
 12273 12b2 33       		.byte	0x33
 12274 12b3 24       		.byte	0x24
 12275 12b4 77       		.byte	0x77
 12276 12b5 00       		.sleb128 0
 12277 12b6 1E       		.byte	0x1e
 12278 12b7 F7       		.byte	0xf7
 12279 12b8 25       		.uleb128 0x25
 12280 12b9 75       		.byte	0x75
 12281 12ba 00       		.sleb128 0
ARM GAS  C:\Users\honet\AppData\Local\Temp\cc6gsi1c.s 			page 232


 12282 12bb F7       		.byte	0xf7
 12283 12bc 25       		.uleb128 0x25
 12284 12bd 1B       		.byte	0x1b
 12285 12be F7       		.byte	0xf7
 12286 12bf 00       		.uleb128 0
 12287 12c0 9F       		.byte	0x9f
 12288 12c1 76020000 		.4byte	.LVL368
 12289 12c5 7B020000 		.4byte	.LVL369-1
 12290 12c9 0100     		.2byte	0x1
 12291 12cb 52       		.byte	0x52
 12292 12cc 7B020000 		.4byte	.LVL369-1
 12293 12d0 8A020000 		.4byte	.LVL371
 12294 12d4 1100     		.2byte	0x11
 12295 12d6 76       		.byte	0x76
 12296 12d7 00       		.sleb128 0
 12297 12d8 33       		.byte	0x33
 12298 12d9 24       		.byte	0x24
 12299 12da 77       		.byte	0x77
 12300 12db 00       		.sleb128 0
 12301 12dc 1E       		.byte	0x1e
 12302 12dd F7       		.byte	0xf7
 12303 12de 25       		.uleb128 0x25
 12304 12df 75       		.byte	0x75
 12305 12e0 00       		.sleb128 0
 12306 12e1 F7       		.byte	0xf7
 12307 12e2 25       		.uleb128 0x25
 12308 12e3 1B       		.byte	0x1b
 12309 12e4 F7       		.byte	0xf7
 12310 12e5 00       		.uleb128 0
 12311 12e6 9F       		.byte	0x9f
 12312 12e7 00000000 		.4byte	0
 12313 12eb 00000000 		.4byte	0
 12314              	.LLST123:
 12315 12ef 32020000 		.4byte	.LVL360
 12316 12f3 34020000 		.4byte	.LVL361
 12317 12f7 0100     		.2byte	0x1
 12318 12f9 55       		.byte	0x55
 12319 12fa 34020000 		.4byte	.LVL361
 12320 12fe 40020000 		.4byte	.LVL362
 12321 1302 0300     		.2byte	0x3
 12322 1304 75       		.byte	0x75
 12323 1305 7F       		.sleb128 -1
 12324 1306 9F       		.byte	0x9f
 12325 1307 40020000 		.4byte	.LVL362
 12326 130b 4E020000 		.4byte	.LVL363
 12327 130f 0100     		.2byte	0x1
 12328 1311 55       		.byte	0x55
 12329 1312 00000000 		.4byte	0
 12330 1316 00000000 		.4byte	0
 12331              	.LLST124:
 12332 131a 3A000000 		.4byte	.LVL391
 12333 131e 3C000000 		.4byte	.LVL392
 12334 1322 0200     		.2byte	0x2
 12335 1324 35       		.byte	0x35
 12336 1325 9F       		.byte	0x9f
 12337 1326 3C000000 		.4byte	.LVL392
 12338 132a 5C000000 		.4byte	.LVL396
ARM GAS  C:\Users\honet\AppData\Local\Temp\cc6gsi1c.s 			page 233


 12339 132e 0100     		.2byte	0x1
 12340 1330 54       		.byte	0x54
 12341 1331 5C000000 		.4byte	.LVL396
 12342 1335 5E000000 		.4byte	.LVL397
 12343 1339 0300     		.2byte	0x3
 12344 133b 74       		.byte	0x74
 12345 133c 7F       		.sleb128 -1
 12346 133d 9F       		.byte	0x9f
 12347 133e 5E000000 		.4byte	.LVL397
 12348 1342 9C000000 		.4byte	.LFE70
 12349 1346 0100     		.2byte	0x1
 12350 1348 54       		.byte	0x54
 12351 1349 00000000 		.4byte	0
 12352 134d 00000000 		.4byte	0
 12353              		.section	.debug_aranges,"",%progbits
 12354 0000 5C000000 		.4byte	0x5c
 12355 0004 0200     		.2byte	0x2
 12356 0006 00000000 		.4byte	.Ldebug_info0
 12357 000a 04       		.byte	0x4
 12358 000b 00       		.byte	0
 12359 000c 0000     		.2byte	0
 12360 000e 0000     		.2byte	0
 12361 0010 00000000 		.4byte	.LFB66
 12362 0014 02000000 		.4byte	.LFE66-.LFB66
 12363 0018 00000000 		.4byte	.LFB63
 12364 001c 10000000 		.4byte	.LFE63-.LFB63
 12365 0020 00000000 		.4byte	.LFB64
 12366 0024 08000000 		.4byte	.LFE64-.LFB64
 12367 0028 00000000 		.4byte	.LFB65
 12368 002c 08000000 		.4byte	.LFE65-.LFB65
 12369 0030 00000000 		.4byte	.LFB71
 12370 0034 B4020000 		.4byte	.LFE71-.LFB71
 12371 0038 00000000 		.4byte	.LFB67
 12372 003c 08000000 		.4byte	.LFE67-.LFB67
 12373 0040 00000000 		.4byte	.LFB68
 12374 0044 D4080000 		.4byte	.LFE68-.LFB68
 12375 0048 00000000 		.4byte	.LFB69
 12376 004c B0030000 		.4byte	.LFE69-.LFB69
 12377 0050 00000000 		.4byte	.LFB70
 12378 0054 9C000000 		.4byte	.LFE70-.LFB70
 12379 0058 00000000 		.4byte	0
 12380 005c 00000000 		.4byte	0
 12381              		.section	.debug_ranges,"",%progbits
 12382              	.Ldebug_ranges0:
 12383 0000 6C000000 		.4byte	.LBB142
 12384 0004 72000000 		.4byte	.LBE142
 12385 0008 46020000 		.4byte	.LBB163
 12386 000c B4020000 		.4byte	.LBE163
 12387 0010 00000000 		.4byte	0
 12388 0014 00000000 		.4byte	0
 12389 0018 04000000 		.4byte	.LBB164
 12390 001c 06000000 		.4byte	.LBE164
 12391 0020 0A000000 		.4byte	.LBB165
 12392 0024 22000000 		.4byte	.LBE165
 12393 0028 00000000 		.4byte	0
 12394 002c 00000000 		.4byte	0
 12395 0030 74000000 		.4byte	.LBB168
ARM GAS  C:\Users\honet\AppData\Local\Temp\cc6gsi1c.s 			page 234


 12396 0034 76000000 		.4byte	.LBE168
 12397 0038 7C000000 		.4byte	.LBB169
 12398 003c 96000000 		.4byte	.LBE169
 12399 0040 98000000 		.4byte	.LBB170
 12400 0044 9C000000 		.4byte	.LBE170
 12401 0048 00000000 		.4byte	0
 12402 004c 00000000 		.4byte	0
 12403 0050 24010000 		.4byte	.LBB172
 12404 0054 36010000 		.4byte	.LBE172
 12405 0058 3A010000 		.4byte	.LBB174
 12406 005c 40010000 		.4byte	.LBE174
 12407 0060 00000000 		.4byte	0
 12408 0064 00000000 		.4byte	0
 12409 0068 36010000 		.4byte	.LBB173
 12410 006c 3A010000 		.4byte	.LBE173
 12411 0070 40010000 		.4byte	.LBB175
 12412 0074 5A010000 		.4byte	.LBE175
 12413 0078 00000000 		.4byte	0
 12414 007c 00000000 		.4byte	0
 12415 0080 72010000 		.4byte	.LBB176
 12416 0084 7A010000 		.4byte	.LBE176
 12417 0088 DE050000 		.4byte	.LBB334
 12418 008c E6050000 		.4byte	.LBE334
 12419 0090 00000000 		.4byte	0
 12420 0094 00000000 		.4byte	0
 12421 0098 7A010000 		.4byte	.LBB179
 12422 009c B0010000 		.4byte	.LBE179
 12423 00a0 42060000 		.4byte	.LBB339
 12424 00a4 4A060000 		.4byte	.LBE339
 12425 00a8 00000000 		.4byte	0
 12426 00ac 00000000 		.4byte	0
 12427 00b0 A4010000 		.4byte	.LBB181
 12428 00b4 AC010000 		.4byte	.LBE181
 12429 00b8 42060000 		.4byte	.LBB184
 12430 00bc 4A060000 		.4byte	.LBE184
 12431 00c0 00000000 		.4byte	0
 12432 00c4 00000000 		.4byte	0
 12433 00c8 CA010000 		.4byte	.LBB186
 12434 00cc F8010000 		.4byte	.LBE186
 12435 00d0 52060000 		.4byte	.LBB341
 12436 00d4 5A060000 		.4byte	.LBE341
 12437 00d8 00000000 		.4byte	0
 12438 00dc 00000000 		.4byte	0
 12439 00e0 F0010000 		.4byte	.LBB188
 12440 00e4 F8010000 		.4byte	.LBE188
 12441 00e8 52060000 		.4byte	.LBB191
 12442 00ec 5A060000 		.4byte	.LBE191
 12443 00f0 00000000 		.4byte	0
 12444 00f4 00000000 		.4byte	0
 12445 00f8 0A020000 		.4byte	.LBB192
 12446 00fc 12020000 		.4byte	.LBE192
 12447 0100 4A060000 		.4byte	.LBB340
 12448 0104 52060000 		.4byte	.LBE340
 12449 0108 00000000 		.4byte	0
 12450 010c 00000000 		.4byte	0
 12451 0110 20020000 		.4byte	.LBB195
 12452 0114 28020000 		.4byte	.LBE195
ARM GAS  C:\Users\honet\AppData\Local\Temp\cc6gsi1c.s 			page 235


 12453 0118 96080000 		.4byte	.LBB360
 12454 011c 9E080000 		.4byte	.LBE360
 12455 0120 00000000 		.4byte	0
 12456 0124 00000000 		.4byte	0
 12457 0128 2E020000 		.4byte	.LBB198
 12458 012c 36020000 		.4byte	.LBE198
 12459 0130 8E080000 		.4byte	.LBB359
 12460 0134 96080000 		.4byte	.LBE359
 12461 0138 00000000 		.4byte	0
 12462 013c 00000000 		.4byte	0
 12463 0140 3A020000 		.4byte	.LBB201
 12464 0144 3C020000 		.4byte	.LBE201
 12465 0148 3E020000 		.4byte	.LBB208
 12466 014c 6A020000 		.4byte	.LBE208
 12467 0150 86080000 		.4byte	.LBB358
 12468 0154 8E080000 		.4byte	.LBE358
 12469 0158 00000000 		.4byte	0
 12470 015c 00000000 		.4byte	0
 12471 0160 3A020000 		.4byte	.LBB202
 12472 0164 3C020000 		.4byte	.LBE202
 12473 0168 3E020000 		.4byte	.LBB203
 12474 016c 56020000 		.4byte	.LBE203
 12475 0170 00000000 		.4byte	0
 12476 0174 00000000 		.4byte	0
 12477 0178 62020000 		.4byte	.LBB204
 12478 017c 6A020000 		.4byte	.LBE204
 12479 0180 86080000 		.4byte	.LBB207
 12480 0184 8E080000 		.4byte	.LBE207
 12481 0188 00000000 		.4byte	0
 12482 018c 00000000 		.4byte	0
 12483 0190 6E020000 		.4byte	.LBB209
 12484 0194 9C020000 		.4byte	.LBE209
 12485 0198 7E080000 		.4byte	.LBB357
 12486 019c 86080000 		.4byte	.LBE357
 12487 01a0 00000000 		.4byte	0
 12488 01a4 00000000 		.4byte	0
 12489 01a8 94020000 		.4byte	.LBB211
 12490 01ac 9C020000 		.4byte	.LBE211
 12491 01b0 7E080000 		.4byte	.LBB214
 12492 01b4 86080000 		.4byte	.LBE214
 12493 01b8 00000000 		.4byte	0
 12494 01bc 00000000 		.4byte	0
 12495 01c0 9C020000 		.4byte	.LBB215
 12496 01c4 CA020000 		.4byte	.LBE215
 12497 01c8 76080000 		.4byte	.LBB356
 12498 01cc 7E080000 		.4byte	.LBE356
 12499 01d0 00000000 		.4byte	0
 12500 01d4 00000000 		.4byte	0
 12501 01d8 C2020000 		.4byte	.LBB217
 12502 01dc CA020000 		.4byte	.LBE217
 12503 01e0 76080000 		.4byte	.LBB220
 12504 01e4 7E080000 		.4byte	.LBE220
 12505 01e8 00000000 		.4byte	0
 12506 01ec 00000000 		.4byte	0
 12507 01f0 E4020000 		.4byte	.LBB221
 12508 01f4 EC020000 		.4byte	.LBE221
 12509 01f8 6E080000 		.4byte	.LBB355
ARM GAS  C:\Users\honet\AppData\Local\Temp\cc6gsi1c.s 			page 236


 12510 01fc 76080000 		.4byte	.LBE355
 12511 0200 00000000 		.4byte	0
 12512 0204 00000000 		.4byte	0
 12513 0208 FA020000 		.4byte	.LBB224
 12514 020c 02030000 		.4byte	.LBE224
 12515 0210 A6080000 		.4byte	.LBB362
 12516 0214 D4080000 		.4byte	.LBE362
 12517 0218 00000000 		.4byte	0
 12518 021c 00000000 		.4byte	0
 12519 0220 08030000 		.4byte	.LBB227
 12520 0224 10030000 		.4byte	.LBE227
 12521 0228 9E080000 		.4byte	.LBB361
 12522 022c A6080000 		.4byte	.LBE361
 12523 0230 00000000 		.4byte	0
 12524 0234 00000000 		.4byte	0
 12525 0238 14030000 		.4byte	.LBB230
 12526 023c 16030000 		.4byte	.LBE230
 12527 0240 1A030000 		.4byte	.LBB237
 12528 0244 44030000 		.4byte	.LBE237
 12529 0248 48030000 		.4byte	.LBB239
 12530 024c 4C030000 		.4byte	.LBE239
 12531 0250 5E080000 		.4byte	.LBB353
 12532 0254 66080000 		.4byte	.LBE353
 12533 0258 00000000 		.4byte	0
 12534 025c 00000000 		.4byte	0
 12535 0260 14030000 		.4byte	.LBB231
 12536 0264 16030000 		.4byte	.LBE231
 12537 0268 1A030000 		.4byte	.LBB232
 12538 026c 30030000 		.4byte	.LBE232
 12539 0270 00000000 		.4byte	0
 12540 0274 00000000 		.4byte	0
 12541 0278 3C030000 		.4byte	.LBB233
 12542 027c 44030000 		.4byte	.LBE233
 12543 0280 5E080000 		.4byte	.LBB236
 12544 0284 66080000 		.4byte	.LBE236
 12545 0288 00000000 		.4byte	0
 12546 028c 00000000 		.4byte	0
 12547 0290 44030000 		.4byte	.LBB238
 12548 0294 46030000 		.4byte	.LBE238
 12549 0298 4C030000 		.4byte	.LBB240
 12550 029c 74030000 		.4byte	.LBE240
 12551 02a0 00000000 		.4byte	0
 12552 02a4 00000000 		.4byte	0
 12553 02a8 AA030000 		.4byte	.LBB245
 12554 02ac D8030000 		.4byte	.LBE245
 12555 02b0 66080000 		.4byte	.LBB354
 12556 02b4 6E080000 		.4byte	.LBE354
 12557 02b8 00000000 		.4byte	0
 12558 02bc 00000000 		.4byte	0
 12559 02c0 D0030000 		.4byte	.LBB247
 12560 02c4 D8030000 		.4byte	.LBE247
 12561 02c8 66080000 		.4byte	.LBB250
 12562 02cc 6E080000 		.4byte	.LBE250
 12563 02d0 00000000 		.4byte	0
 12564 02d4 00000000 		.4byte	0
 12565 02d8 00040000 		.4byte	.LBB252
 12566 02dc DE050000 		.4byte	.LBE252
ARM GAS  C:\Users\honet\AppData\Local\Temp\cc6gsi1c.s 			page 237


 12567 02e0 5A060000 		.4byte	.LBB342
 12568 02e4 C4060000 		.4byte	.LBE342
 12569 02e8 DA060000 		.4byte	.LBB345
 12570 02ec D0070000 		.4byte	.LBE345
 12571 02f0 00000000 		.4byte	0
 12572 02f4 00000000 		.4byte	0
 12573 02f8 00040000 		.4byte	.LBB253
 12574 02fc 74040000 		.4byte	.LBE253
 12575 0300 3A070000 		.4byte	.LBB326
 12576 0304 44070000 		.4byte	.LBE326
 12577 0308 00000000 		.4byte	0
 12578 030c 00000000 		.4byte	0
 12579 0310 6E040000 		.4byte	.LBB255
 12580 0314 74040000 		.4byte	.LBE255
 12581 0318 3A070000 		.4byte	.LBB258
 12582 031c 44070000 		.4byte	.LBE258
 12583 0320 00000000 		.4byte	0
 12584 0324 00000000 		.4byte	0
 12585 0328 82040000 		.4byte	.LBB259
 12586 032c 88040000 		.4byte	.LBE259
 12587 0330 30070000 		.4byte	.LBB325
 12588 0334 3A070000 		.4byte	.LBE325
 12589 0338 00000000 		.4byte	0
 12590 033c 00000000 		.4byte	0
 12591 0340 96040000 		.4byte	.LBB262
 12592 0344 9C040000 		.4byte	.LBE262
 12593 0348 C6070000 		.4byte	.LBB333
 12594 034c D0070000 		.4byte	.LBE333
 12595 0350 00000000 		.4byte	0
 12596 0354 00000000 		.4byte	0
 12597 0358 A2040000 		.4byte	.LBB265
 12598 035c A8040000 		.4byte	.LBE265
 12599 0360 BC070000 		.4byte	.LBB332
 12600 0364 C6070000 		.4byte	.LBE332
 12601 0368 00000000 		.4byte	0
 12602 036c 00000000 		.4byte	0
 12603 0370 AC040000 		.4byte	.LBB268
 12604 0374 AE040000 		.4byte	.LBE268
 12605 0378 B0040000 		.4byte	.LBB275
 12606 037c D8040000 		.4byte	.LBE275
 12607 0380 26070000 		.4byte	.LBB324
 12608 0384 30070000 		.4byte	.LBE324
 12609 0388 00000000 		.4byte	0
 12610 038c 00000000 		.4byte	0
 12611 0390 AC040000 		.4byte	.LBB269
 12612 0394 AE040000 		.4byte	.LBE269
 12613 0398 B0040000 		.4byte	.LBB270
 12614 039c C6040000 		.4byte	.LBE270
 12615 03a0 00000000 		.4byte	0
 12616 03a4 00000000 		.4byte	0
 12617 03a8 D2040000 		.4byte	.LBB271
 12618 03ac D8040000 		.4byte	.LBE271
 12619 03b0 26070000 		.4byte	.LBB274
 12620 03b4 30070000 		.4byte	.LBE274
 12621 03b8 00000000 		.4byte	0
 12622 03bc 00000000 		.4byte	0
 12623 03c0 DC040000 		.4byte	.LBB276
ARM GAS  C:\Users\honet\AppData\Local\Temp\cc6gsi1c.s 			page 238


 12624 03c4 08050000 		.4byte	.LBE276
 12625 03c8 1C070000 		.4byte	.LBB323
 12626 03cc 26070000 		.4byte	.LBE323
 12627 03d0 00000000 		.4byte	0
 12628 03d4 00000000 		.4byte	0
 12629 03d8 02050000 		.4byte	.LBB278
 12630 03dc 08050000 		.4byte	.LBE278
 12631 03e0 1C070000 		.4byte	.LBB281
 12632 03e4 26070000 		.4byte	.LBE281
 12633 03e8 00000000 		.4byte	0
 12634 03ec 00000000 		.4byte	0
 12635 03f0 08050000 		.4byte	.LBB282
 12636 03f4 34050000 		.4byte	.LBE282
 12637 03f8 9E070000 		.4byte	.LBB329
 12638 03fc A8070000 		.4byte	.LBE329
 12639 0400 00000000 		.4byte	0
 12640 0404 00000000 		.4byte	0
 12641 0408 2E050000 		.4byte	.LBB284
 12642 040c 34050000 		.4byte	.LBE284
 12643 0410 9E070000 		.4byte	.LBB287
 12644 0414 A8070000 		.4byte	.LBE287
 12645 0418 00000000 		.4byte	0
 12646 041c 00000000 		.4byte	0
 12647 0420 4E050000 		.4byte	.LBB288
 12648 0424 54050000 		.4byte	.LBE288
 12649 0428 94070000 		.4byte	.LBB328
 12650 042c 9E070000 		.4byte	.LBE328
 12651 0430 00000000 		.4byte	0
 12652 0434 00000000 		.4byte	0
 12653 0438 62050000 		.4byte	.LBB291
 12654 043c 68050000 		.4byte	.LBE291
 12655 0440 B2070000 		.4byte	.LBB331
 12656 0444 BC070000 		.4byte	.LBE331
 12657 0448 00000000 		.4byte	0
 12658 044c 00000000 		.4byte	0
 12659 0450 6E050000 		.4byte	.LBB294
 12660 0454 74050000 		.4byte	.LBE294
 12661 0458 A8070000 		.4byte	.LBB330
 12662 045c B2070000 		.4byte	.LBE330
 12663 0460 00000000 		.4byte	0
 12664 0464 00000000 		.4byte	0
 12665 0468 78050000 		.4byte	.LBB297
 12666 046c 7A050000 		.4byte	.LBE297
 12667 0470 7E050000 		.4byte	.LBB304
 12668 0474 A6050000 		.4byte	.LBE304
 12669 0478 AA050000 		.4byte	.LBB306
 12670 047c B2050000 		.4byte	.LBE306
 12671 0480 44070000 		.4byte	.LBB327
 12672 0484 94070000 		.4byte	.LBE327
 12673 0488 00000000 		.4byte	0
 12674 048c 00000000 		.4byte	0
 12675 0490 78050000 		.4byte	.LBB298
 12676 0494 7A050000 		.4byte	.LBE298
 12677 0498 7E050000 		.4byte	.LBB299
 12678 049c 94050000 		.4byte	.LBE299
 12679 04a0 00000000 		.4byte	0
 12680 04a4 00000000 		.4byte	0
ARM GAS  C:\Users\honet\AppData\Local\Temp\cc6gsi1c.s 			page 239


 12681 04a8 A0050000 		.4byte	.LBB300
 12682 04ac A6050000 		.4byte	.LBE300
 12683 04b0 44070000 		.4byte	.LBB303
 12684 04b4 94070000 		.4byte	.LBE303
 12685 04b8 00000000 		.4byte	0
 12686 04bc 00000000 		.4byte	0
 12687 04c0 A6050000 		.4byte	.LBB305
 12688 04c4 A8050000 		.4byte	.LBE305
 12689 04c8 B2050000 		.4byte	.LBB307
 12690 04cc DE050000 		.4byte	.LBE307
 12691 04d0 00000000 		.4byte	0
 12692 04d4 00000000 		.4byte	0
 12693 04d8 8C060000 		.4byte	.LBB312
 12694 04dc B4060000 		.4byte	.LBE312
 12695 04e0 12070000 		.4byte	.LBB322
 12696 04e4 1C070000 		.4byte	.LBE322
 12697 04e8 00000000 		.4byte	0
 12698 04ec 00000000 		.4byte	0
 12699 04f0 B2060000 		.4byte	.LBB314
 12700 04f4 B4060000 		.4byte	.LBE314
 12701 04f8 12070000 		.4byte	.LBB317
 12702 04fc 1C070000 		.4byte	.LBE317
 12703 0500 00000000 		.4byte	0
 12704 0504 00000000 		.4byte	0
 12705 0508 92000000 		.4byte	.LBB367
 12706 050c 94000000 		.4byte	.LBE367
 12707 0510 96000000 		.4byte	.LBB368
 12708 0514 98000000 		.4byte	.LBE368
 12709 0518 9A000000 		.4byte	.LBB369
 12710 051c B2000000 		.4byte	.LBE369
 12711 0520 B4000000 		.4byte	.LBB370
 12712 0524 B8000000 		.4byte	.LBE370
 12713 0528 00000000 		.4byte	0
 12714 052c 00000000 		.4byte	0
 12715 0530 2A010000 		.4byte	.LBB372
 12716 0534 3C010000 		.4byte	.LBE372
 12717 0538 3E010000 		.4byte	.LBB374
 12718 053c 40010000 		.4byte	.LBE374
 12719 0540 42010000 		.4byte	.LBB376
 12720 0544 46010000 		.4byte	.LBE376
 12721 0548 00000000 		.4byte	0
 12722 054c 00000000 		.4byte	0
 12723 0550 3C010000 		.4byte	.LBB373
 12724 0554 3E010000 		.4byte	.LBE373
 12725 0558 40010000 		.4byte	.LBB375
 12726 055c 42010000 		.4byte	.LBE375
 12727 0560 4C010000 		.4byte	.LBB377
 12728 0564 60010000 		.4byte	.LBE377
 12729 0568 64010000 		.4byte	.LBB379
 12730 056c 6A010000 		.4byte	.LBE379
 12731 0570 00000000 		.4byte	0
 12732 0574 00000000 		.4byte	0
 12733 0578 60010000 		.4byte	.LBB378
 12734 057c 64010000 		.4byte	.LBE378
 12735 0580 6A010000 		.4byte	.LBB380
 12736 0584 88010000 		.4byte	.LBE380
 12737 0588 8C010000 		.4byte	.LBB395
ARM GAS  C:\Users\honet\AppData\Local\Temp\cc6gsi1c.s 			page 240


 12738 058c 90010000 		.4byte	.LBE395
 12739 0590 00000000 		.4byte	0
 12740 0594 00000000 		.4byte	0
 12741 0598 88010000 		.4byte	.LBB381
 12742 059c 8C010000 		.4byte	.LBE381
 12743 05a0 92010000 		.4byte	.LBB396
 12744 05a4 9E020000 		.4byte	.LBE396
 12745 05a8 00000000 		.4byte	0
 12746 05ac 00000000 		.4byte	0
 12747 05b0 88010000 		.4byte	.LBB382
 12748 05b4 8C010000 		.4byte	.LBE382
 12749 05b8 C2010000 		.4byte	.LBB388
 12750 05bc 20020000 		.4byte	.LBE388
 12751 05c0 00000000 		.4byte	0
 12752 05c4 00000000 		.4byte	0
 12753 05c8 C2010000 		.4byte	.LBB383
 12754 05cc C4010000 		.4byte	.LBE383
 12755 05d0 C8010000 		.4byte	.LBB384
 12756 05d4 DA010000 		.4byte	.LBE384
 12757 05d8 00000000 		.4byte	0
 12758 05dc 00000000 		.4byte	0
 12759 05e0 2C020000 		.4byte	.LBB390
 12760 05e4 2E020000 		.4byte	.LBE390
 12761 05e8 32020000 		.4byte	.LBB391
 12762 05ec 44020000 		.4byte	.LBE391
 12763 05f0 00000000 		.4byte	0
 12764 05f4 00000000 		.4byte	0
 12765 05f8 00000000 		.4byte	.LFB66
 12766 05fc 02000000 		.4byte	.LFE66
 12767 0600 00000000 		.4byte	.LFB63
 12768 0604 10000000 		.4byte	.LFE63
 12769 0608 00000000 		.4byte	.LFB64
 12770 060c 08000000 		.4byte	.LFE64
 12771 0610 00000000 		.4byte	.LFB65
 12772 0614 08000000 		.4byte	.LFE65
 12773 0618 00000000 		.4byte	.LFB71
 12774 061c B4020000 		.4byte	.LFE71
 12775 0620 00000000 		.4byte	.LFB67
 12776 0624 08000000 		.4byte	.LFE67
 12777 0628 00000000 		.4byte	.LFB68
 12778 062c D4080000 		.4byte	.LFE68
 12779 0630 00000000 		.4byte	.LFB69
 12780 0634 B0030000 		.4byte	.LFE69
 12781 0638 00000000 		.4byte	.LFB70
 12782 063c 9C000000 		.4byte	.LFE70
 12783 0640 00000000 		.4byte	0
 12784 0644 00000000 		.4byte	0
 12785              		.section	.debug_line,"",%progbits
 12786              	.Ldebug_line0:
 12787 0000 F2080000 		.section	.debug_str,"MS",%progbits,1
 12787      02005002 
 12787      00000201 
 12787      FB0E0D00 
 12787      01010101 
 12788              	.LASF34:
 12789 0000 4653495A 		.ascii	"FSIZE_t\000"
 12789      455F7400 
ARM GAS  C:\Users\honet\AppData\Local\Temp\cc6gsi1c.s 			page 241


 12790              	.LASF61:
 12791 0008 6469725F 		.ascii	"dir_ptr\000"
 12791      70747200 
 12792              	.LASF65:
 12793 0010 46525F4E 		.ascii	"FR_NOT_READY\000"
 12793      4F545F52 
 12793      45414459 
 12793      00
 12794              	.LASF50:
 12795 001d 46415446 		.ascii	"FATFS\000"
 12795      5300
 12796              	.LASF55:
 12797 0023 5F464449 		.ascii	"_FDID\000"
 12797      4400
 12798              	.LASF109:
 12799 0029 62756666 		.ascii	"buffer\000"
 12799      657200
 12800              	.LASF41:
 12801 0030 6C617374 		.ascii	"last_clst\000"
 12801      5F636C73 
 12801      7400
 12802              	.LASF0:
 12803 003a 756E7369 		.ascii	"unsigned int\000"
 12803      676E6564 
 12803      20696E74 
 12803      00
 12804              	.LASF73:
 12805 0047 46525F49 		.ascii	"FR_INVALID_DRIVE\000"
 12805      4E56414C 
 12805      49445F44 
 12805      52495645 
 12805      00
 12806              	.LASF36:
 12807 0058 6E5F6661 		.ascii	"n_fats\000"
 12807      747300
 12808              	.LASF117:
 12809 005f 665F636C 		.ascii	"f_close\000"
 12809      6F736500 
 12810              	.LASF88:
 12811 0067 73646368 		.ascii	"sdcheck\000"
 12811      65636B00 
 12812              	.LASF8:
 12813 006f 5F5F696E 		.ascii	"__int32_t\000"
 12813      7433325F 
 12813      7400
 12814              	.LASF76:
 12815 0079 46525F4D 		.ascii	"FR_MKFS_ABORTED\000"
 12815      4B46535F 
 12815      41424F52 
 12815      54454400 
 12816              	.LASF49:
 12817 0089 77696E73 		.ascii	"winsect\000"
 12817      65637400 
 12818              	.LASF84:
 12819 0091 66756E63 		.ascii	"func\000"
 12819      00
 12820              	.LASF80:
ARM GAS  C:\Users\honet\AppData\Local\Temp\cc6gsi1c.s 			page 242


 12821 0096 46525F54 		.ascii	"FR_TOO_MANY_OPEN_FILES\000"
 12821      4F4F5F4D 
 12821      414E595F 
 12821      4F50454E 
 12821      5F46494C 
 12822              	.LASF108:
 12823 00ad 6E6D696C 		.ascii	"nmillis\000"
 12823      6C697300 
 12824              	.LASF19:
 12825 00b5 75696E74 		.ascii	"uint32_t\000"
 12825      33325F74 
 12825      00
 12826              	.LASF38:
 12827 00be 6673695F 		.ascii	"fsi_flag\000"
 12827      666C6167 
 12827      00
 12828              	.LASF90:
 12829 00c7 76616C73 		.ascii	"vals\000"
 12829      00
 12830              	.LASF60:
 12831 00cc 6469725F 		.ascii	"dir_sect\000"
 12831      73656374 
 12831      00
 12832              	.LASF23:
 12833 00d5 666C6F61 		.ascii	"float\000"
 12833      7400
 12834              	.LASF94:
 12835 00db 64726574 		.ascii	"dret\000"
 12835      00
 12836              	.LASF91:
 12837 00e0 42797465 		.ascii	"BytesWritten\000"
 12837      73577269 
 12837      7474656E 
 12837      00
 12838              	.LASF32:
 12839 00ed 44574F52 		.ascii	"DWORD\000"
 12839      4400
 12840              	.LASF33:
 12841 00f3 54434841 		.ascii	"TCHAR\000"
 12841      5200
 12842              	.LASF13:
 12843 00f9 6C6F6E67 		.ascii	"long long unsigned int\000"
 12843      206C6F6E 
 12843      6720756E 
 12843      7369676E 
 12843      65642069 
 12844              	.LASF64:
 12845 0110 46525F49 		.ascii	"FR_INT_ERR\000"
 12845      4E545F45 
 12845      525200
 12846              	.LASF128:
 12847 011b 55534255 		.ascii	"USBUART_1_CDC_Init\000"
 12847      4152545F 
 12847      315F4344 
 12847      435F496E 
 12847      697400
 12848              	.LASF121:
ARM GAS  C:\Users\honet\AppData\Local\Temp\cc6gsi1c.s 			page 243


 12849 012e 6469736B 		.ascii	"disk_initialize\000"
 12849      5F696E69 
 12849      7469616C 
 12849      697A6500 
 12850              	.LASF51:
 12851 013e 61747472 		.ascii	"attr\000"
 12851      00
 12852              	.LASF6:
 12853 0143 5F5F7569 		.ascii	"__uint16_t\000"
 12853      6E743136 
 12853      5F7400
 12854              	.LASF126:
 12855 014e 55534255 		.ascii	"USBUART_1_CDCIsReady\000"
 12855      4152545F 
 12855      315F4344 
 12855      43497352 
 12855      65616479 
 12856              	.LASF100:
 12857 0163 62566572 		.ascii	"bVerifyFail\000"
 12857      69667946 
 12857      61696C00 
 12858              	.LASF35:
 12859 016f 66735F74 		.ascii	"fs_type\000"
 12859      79706500 
 12860              	.LASF46:
 12861 0177 66617462 		.ascii	"fatbase\000"
 12861      61736500 
 12862              	.LASF98:
 12863 017f 6E54696D 		.ascii	"nTime\000"
 12863      6500
 12864              	.LASF95:
 12865 0185 6E526573 		.ascii	"nRes\000"
 12865      00
 12866              	.LASF52:
 12867 018a 73746174 		.ascii	"stat\000"
 12867      00
 12868              	.LASF70:
 12869 018f 46525F45 		.ascii	"FR_EXIST\000"
 12869      58495354 
 12869      00
 12870              	.LASF2:
 12871 0198 73697A65 		.ascii	"size_t\000"
 12871      5F7400
 12872              	.LASF127:
 12873 019f 55534255 		.ascii	"USBUART_1_GetConfiguration\000"
 12873      4152545F 
 12873      315F4765 
 12873      74436F6E 
 12873      66696775 
 12874              	.LASF132:
 12875 01ba 443A5C64 		.ascii	"D:\\develop\\projects\\SoundChipLogger\\firmware\\D"
 12875      6576656C 
 12875      6F705C70 
 12875      726F6A65 
 12875      6374735C 
 12876 01e8 4D415344 		.ascii	"MASDSPITest\\DMASDSPITest.cydsn\000"
 12876      53504954 
ARM GAS  C:\Users\honet\AppData\Local\Temp\cc6gsi1c.s 			page 244


 12876      6573745C 
 12876      444D4153 
 12876      44535049 
 12877              	.LASF116:
 12878 0207 665F6F70 		.ascii	"f_open\000"
 12878      656E00
 12879              	.LASF71:
 12880 020e 46525F49 		.ascii	"FR_INVALID_OBJECT\000"
 12880      4E56414C 
 12880      49445F4F 
 12880      424A4543 
 12880      5400
 12881              	.LASF78:
 12882 0220 46525F4C 		.ascii	"FR_LOCKED\000"
 12882      4F434B45 
 12882      4400
 12883              	.LASF89:
 12884 022a 6E76616C 		.ascii	"nvals\000"
 12884      7300
 12885              	.LASF15:
 12886 0230 63686172 		.ascii	"char\000"
 12886      00
 12887              	.LASF119:
 12888 0235 665F7265 		.ascii	"f_read\000"
 12888      616400
 12889              	.LASF120:
 12890 023c 43794465 		.ascii	"CyDelay\000"
 12890      6C617900 
 12891              	.LASF21:
 12892 0244 75696E74 		.ascii	"uint16\000"
 12892      313600
 12893              	.LASF16:
 12894 024b 75696E74 		.ascii	"uint8_t\000"
 12894      385F7400 
 12895              	.LASF92:
 12896 0253 42797465 		.ascii	"BytesRead\000"
 12896      73526561 
 12896      6400
 12897              	.LASF25:
 12898 025d 63686172 		.ascii	"char8\000"
 12898      3800
 12899              	.LASF59:
 12900 0263 73656374 		.ascii	"sect\000"
 12900      00
 12901              	.LASF133:
 12902 0268 70537472 		.ascii	"pString\000"
 12902      696E6700 
 12903              	.LASF113:
 12904 0270 55534255 		.ascii	"USBUART_1_PutString\000"
 12904      4152545F 
 12904      315F5075 
 12904      74537472 
 12904      696E6700 
 12905              	.LASF75:
 12906 0284 46525F4E 		.ascii	"FR_NO_FILESYSTEM\000"
 12906      4F5F4649 
 12906      4C455359 
ARM GAS  C:\Users\honet\AppData\Local\Temp\cc6gsi1c.s 			page 245


 12906      5354454D 
 12906      00
 12907              	.LASF12:
 12908 0295 6C6F6E67 		.ascii	"long long int\000"
 12908      206C6F6E 
 12908      6720696E 
 12908      7400
 12909              	.LASF44:
 12910 02a3 6673697A 		.ascii	"fsize\000"
 12910      6500
 12911              	.LASF45:
 12912 02a9 766F6C62 		.ascii	"volbase\000"
 12912      61736500 
 12913              	.LASF81:
 12914 02b1 46525F49 		.ascii	"FR_INVALID_PARAMETER\000"
 12914      4E56414C 
 12914      49445F50 
 12914      4152414D 
 12914      45544552 
 12915              	.LASF37:
 12916 02c6 77666C61 		.ascii	"wflag\000"
 12916      6700
 12917              	.LASF104:
 12918 02cc 6572725F 		.ascii	"err_exit\000"
 12918      65786974 
 12918      00
 12919              	.LASF66:
 12920 02d5 46525F4E 		.ascii	"FR_NO_FILE\000"
 12920      4F5F4649 
 12920      4C4500
 12921              	.LASF30:
 12922 02e0 42595445 		.ascii	"BYTE\000"
 12922      00
 12923              	.LASF115:
 12924 02e5 665F7772 		.ascii	"f_write\000"
 12924      69746500 
 12925              	.LASF27:
 12926 02ed 53445350 		.ascii	"SDSPI_VOIDFXN\000"
 12926      495F564F 
 12926      49444658 
 12926      4E00
 12927              	.LASF31:
 12928 02fb 574F5244 		.ascii	"WORD\000"
 12928      00
 12929              	.LASF118:
 12930 0300 6D656D73 		.ascii	"memset\000"
 12930      657400
 12931              	.LASF85:
 12932 0307 4D696C6C 		.ascii	"MillisISR\000"
 12932      69734953 
 12932      5200
 12933              	.LASF101:
 12934 0311 73646265 		.ascii	"sdbench\000"
 12934      6E636800 
 12935              	.LASF40:
 12936 0319 6373697A 		.ascii	"csize\000"
 12936      6500
ARM GAS  C:\Users\honet\AppData\Local\Temp\cc6gsi1c.s 			page 246


 12937              	.LASF26:
 12938 031f 63796973 		.ascii	"cyisraddress\000"
 12938      72616464 
 12938      72657373 
 12938      00
 12939              	.LASF28:
 12940 032c 53445350 		.ascii	"SDSPI_PRNTFXN\000"
 12940      495F5052 
 12940      4E544658 
 12940      4E00
 12941              	.LASF103:
 12942 033a 73697A65 		.ascii	"size\000"
 12942      00
 12943              	.LASF134:
 12944 033f 6469736B 		.ascii	"disk_timerproc\000"
 12944      5F74696D 
 12944      65727072 
 12944      6F6300
 12945              	.LASF57:
 12946 034e 66707472 		.ascii	"fptr\000"
 12946      00
 12947              	.LASF22:
 12948 0353 75696E74 		.ascii	"uint32\000"
 12948      333200
 12949              	.LASF93:
 12950 035a 46696C65 		.ascii	"FileSys\000"
 12950      53797300 
 12951              	.LASF87:
 12952 0362 53444341 		.ascii	"SDCARD_SLOW\000"
 12952      52445F53 
 12952      4C4F5700 
 12953              	.LASF43:
 12954 036e 6E5F6661 		.ascii	"n_fatent\000"
 12954      74656E74 
 12954      00
 12955              	.LASF47:
 12956 0377 64697262 		.ascii	"dirbase\000"
 12956      61736500 
 12957              	.LASF69:
 12958 037f 46525F44 		.ascii	"FR_DENIED\000"
 12958      454E4945 
 12958      4400
 12959              	.LASF124:
 12960 0389 53445350 		.ascii	"SDSPI_SetDMAMode\000"
 12960      495F5365 
 12960      74444D41 
 12960      4D6F6465 
 12960      00
 12961              	.LASF114:
 12962 039a 73707269 		.ascii	"sprintf\000"
 12962      6E746600 
 12963              	.LASF17:
 12964 03a2 75696E74 		.ascii	"uint16_t\000"
 12964      31365F74 
 12964      00
 12965              	.LASF99:
 12966 03ab 6B627073 		.ascii	"kbps\000"
ARM GAS  C:\Users\honet\AppData\Local\Temp\cc6gsi1c.s 			page 247


 12966      00
 12967              	.LASF96:
 12968 03b0 6E437572 		.ascii	"nCurrentMillis\000"
 12968      72656E74 
 12968      4D696C6C 
 12968      697300
 12969              	.LASF130:
 12970 03bf 474E5520 		.ascii	"GNU C 4.9.3 20150303 (release) [ARM/embedded-4_9-br"
 12970      4320342E 
 12970      392E3320 
 12970      32303135 
 12970      30333033 
 12971 03f2 616E6368 		.ascii	"anch revision 221220] -mcpu=cortex-m3 -mthumb -g -O"
 12971      20726576 
 12971      6973696F 
 12971      6E203232 
 12971      31323230 
 12972 0425 33202D73 		.ascii	"3 -std=gnu99 -ffunction-sections -ffat-lto-objects\000"
 12972      74643D67 
 12972      6E753939 
 12972      202D6666 
 12972      756E6374 
 12973              	.LASF67:
 12974 0458 46525F4E 		.ascii	"FR_NO_PATH\000"
 12974      4F5F5041 
 12974      544800
 12975              	.LASF125:
 12976 0463 55534255 		.ascii	"USBUART_1_Start\000"
 12976      4152545F 
 12976      315F5374 
 12976      61727400 
 12977              	.LASF74:
 12978 0473 46525F4E 		.ascii	"FR_NOT_ENABLED\000"
 12978      4F545F45 
 12978      4E41424C 
 12978      454400
 12979              	.LASF42:
 12980 0482 66726565 		.ascii	"free_clst\000"
 12980      5F636C73 
 12980      7400
 12981              	.LASF63:
 12982 048c 46525F44 		.ascii	"FR_DISK_ERR\000"
 12982      49534B5F 
 12982      45525200 
 12983              	.LASF5:
 12984 0498 73686F72 		.ascii	"short int\000"
 12984      7420696E 
 12984      7400
 12985              	.LASF123:
 12986 04a2 665F6D6F 		.ascii	"f_mount\000"
 12986      756E7400 
 12987              	.LASF79:
 12988 04aa 46525F4E 		.ascii	"FR_NOT_ENOUGH_CORE\000"
 12988      4F545F45 
 12988      4E4F5547 
 12988      485F434F 
 12988      524500
ARM GAS  C:\Users\honet\AppData\Local\Temp\cc6gsi1c.s 			page 248


 12989              	.LASF9:
 12990 04bd 6C6F6E67 		.ascii	"long int\000"
 12990      20696E74 
 12990      00
 12991              	.LASF107:
 12992 04c6 49544D5F 		.ascii	"ITM_RxBuffer\000"
 12992      52784275 
 12992      66666572 
 12992      00
 12993              	.LASF122:
 12994 04d3 4C454443 		.ascii	"LEDControl_Write\000"
 12994      6F6E7472 
 12994      6F6C5F57 
 12994      72697465 
 12994      00
 12995              	.LASF68:
 12996 04e4 46525F49 		.ascii	"FR_INVALID_NAME\000"
 12996      4E56414C 
 12996      49445F4E 
 12996      414D4500 
 12997              	.LASF56:
 12998 04f4 666C6167 		.ascii	"flag\000"
 12998      00
 12999              	.LASF97:
 13000 04f9 42696E46 		.ascii	"BinFile\000"
 13000      696C6500 
 13001              	.LASF102:
 13002 0501 6E726570 		.ascii	"nrepeat\000"
 13002      65617400 
 13003              	.LASF3:
 13004 0509 5F5F7569 		.ascii	"__uint8_t\000"
 13004      6E74385F 
 13004      7400
 13005              	.LASF39:
 13006 0513 6E5F726F 		.ascii	"n_rootdir\000"
 13006      6F746469 
 13006      7200
 13007              	.LASF29:
 13008 051d 55494E54 		.ascii	"UINT\000"
 13008      00
 13009              	.LASF129:
 13010 0522 53445350 		.ascii	"SDSPI_Start\000"
 13010      495F5374 
 13010      61727400 
 13011              	.LASF14:
 13012 052e 73697A65 		.ascii	"sizetype\000"
 13012      74797065 
 13012      00
 13013              	.LASF110:
 13014 0537 46696C65 		.ascii	"File\000"
 13014      00
 13015              	.LASF11:
 13016 053c 6C6F6E67 		.ascii	"long unsigned int\000"
 13016      20756E73 
 13016      69676E65 
 13016      6420696E 
 13016      7400
ARM GAS  C:\Users\honet\AppData\Local\Temp\cc6gsi1c.s 			page 249


 13017              	.LASF82:
 13018 054e 46524553 		.ascii	"FRESULT\000"
 13018      554C5400 
 13019              	.LASF18:
 13020 0556 696E7433 		.ascii	"int32_t\000"
 13020      325F7400 
 13021              	.LASF62:
 13022 055e 46525F4F 		.ascii	"FR_OK\000"
 13022      4B00
 13023              	.LASF54:
 13024 0564 6F626A73 		.ascii	"objsize\000"
 13024      697A6500 
 13025              	.LASF58:
 13026 056c 636C7573 		.ascii	"clust\000"
 13026      7400
 13027              	.LASF4:
 13028 0572 756E7369 		.ascii	"unsigned char\000"
 13028      676E6564 
 13028      20636861 
 13028      7200
 13029              	.LASF10:
 13030 0580 5F5F7569 		.ascii	"__uint32_t\000"
 13030      6E743332 
 13030      5F7400
 13031              	.LASF77:
 13032 058b 46525F54 		.ascii	"FR_TIMEOUT\000"
 13032      494D454F 
 13032      555400
 13033              	.LASF111:
 13034 0596 63686B72 		.ascii	"chkres\000"
 13034      657300
 13035              	.LASF83:
 13036 059d 44535441 		.ascii	"DSTATUS\000"
 13036      54555300 
 13037              	.LASF135:
 13038 05a5 4D696C6C 		.ascii	"MillisecISR_StartEx\000"
 13038      69736563 
 13038      4953525F 
 13038      53746172 
 13038      74457800 
 13039              	.LASF1:
 13040 05b9 7369676E 		.ascii	"signed char\000"
 13040      65642063 
 13040      68617200 
 13041              	.LASF7:
 13042 05c5 73686F72 		.ascii	"short unsigned int\000"
 13042      7420756E 
 13042      7369676E 
 13042      65642069 
 13042      6E7400
 13043              	.LASF48:
 13044 05d8 64617461 		.ascii	"database\000"
 13044      62617365 
 13044      00
 13045              	.LASF106:
 13046 05e1 6D61696E 		.ascii	"main\000"
 13046      00
ARM GAS  C:\Users\honet\AppData\Local\Temp\cc6gsi1c.s 			page 250


 13047              	.LASF20:
 13048 05e6 75696E74 		.ascii	"uint8\000"
 13048      3800
 13049              	.LASF24:
 13050 05ec 646F7562 		.ascii	"double\000"
 13050      6C6500
 13051              	.LASF86:
 13052 05f3 53444341 		.ascii	"SDCARD_FAST\000"
 13052      52445F46 
 13052      41535400 
 13053              	.LASF112:
 13054 05ff 53445F43 		.ascii	"SD_CLK_SetDividerRegister\000"
 13054      4C4B5F53 
 13054      65744469 
 13054      76696465 
 13054      72526567 
 13055              	.LASF72:
 13056 0619 46525F57 		.ascii	"FR_WRITE_PROTECTED\000"
 13056      52495445 
 13056      5F50524F 
 13056      54454354 
 13056      454400
 13057              	.LASF131:
 13058 062c 2E5C6D61 		.ascii	".\\main.c\000"
 13058      696E2E63 
 13058      00
 13059              	.LASF105:
 13060 0635 5072696E 		.ascii	"PrintFxn\000"
 13060      7446786E 
 13060      00
 13061              	.LASF53:
 13062 063e 73636C75 		.ascii	"sclust\000"
 13062      737400
 13063              		.ident	"GCC: (GNU Tools for ARM Embedded Processors) 4.9.3 20150303 (release) [ARM/embedded-4_9-br
