ARM GAS  C:\Users\honet\AppData\Local\Temp\cc6gsi1c.s 			page 1


   1              		.syntax unified
   2              		.cpu cortex-m3
   3              		.fpu softvfp
   4              		.eabi_attribute 20, 1
   5              		.eabi_attribute 21, 1
   6              		.eabi_attribute 23, 3
   7              		.eabi_attribute 24, 1
   8              		.eabi_attribute 25, 1
   9              		.eabi_attribute 26, 1
  10              		.eabi_attribute 30, 2
  11              		.eabi_attribute 34, 1
  12              		.eabi_attribute 18, 4
  13              		.thumb
  14              		.file	"main.c"
  15              		.text
  16              	.Ltext0:
  17              		.cfi_sections	.debug_frame
  18              		.section	.text.PrintFxn,"ax",%progbits
  19              		.align	2
  20              		.global	PrintFxn
  21              		.thumb
  22              		.thumb_func
  23              		.type	PrintFxn, %function
  24              	PrintFxn:
  25              	.LFB66:
  26              		.file 1 ".\\main.c"
   1:.\main.c      **** /* ========================================
   2:.\main.c      ****  *
   3:.\main.c      ****  * Copyright YOUR COMPANY, THE YEAR
   4:.\main.c      ****  * All Rights Reserved
   5:.\main.c      ****  * UNPUBLISHED, LICENSED SOFTWARE.
   6:.\main.c      ****  *
   7:.\main.c      ****  * CONFIDENTIAL AND PROPRIETARY INFORMATION
   8:.\main.c      ****  * WHICH IS THE PROPERTY OF your company.
   9:.\main.c      ****  *
  10:.\main.c      ****  * ========================================
  11:.\main.c      **** */
  12:.\main.c      **** #include <string.h>
  13:.\main.c      **** #include <stdio.h>
  14:.\main.c      **** #include "project.h"
  15:.\main.c      **** #include "SDSPI_api.h"
  16:.\main.c      **** #include "SDSPI_fatfs.h"
  17:.\main.c      **** 
  18:.\main.c      **** volatile unsigned long nmillis = 0; //used for time measurement
  19:.\main.c      **** 
  20:.\main.c      **** #define BUFFER_SIZE 32768
  21:.\main.c      **** uint8_t buffer[BUFFER_SIZE];
  22:.\main.c      **** 
  23:.\main.c      **** FIL File; // result message txt-file
  24:.\main.c      **** 
  25:.\main.c      **** 
  26:.\main.c      **** #define dbgprint(fmt, ...) \
  27:.\main.c      **** do{ \
  28:.\main.c      ****     char str[128]; \
  29:.\main.c      ****     sprintf(str, fmt, ## __VA_ARGS__); \
  30:.\main.c      ****     while(!USBUART_1_CDCIsReady()); \
  31:.\main.c      ****     USBUART_1_PutString(str); \
ARM GAS  C:\Users\honet\AppData\Local\Temp\cc6gsi1c.s 			page 2


  32:.\main.c      **** }while(0)
  33:.\main.c      **** 
  34:.\main.c      **** #define dumpmsg(msg, ...) \
  35:.\main.c      **** do{ \
  36:.\main.c      **** 	UINT BytesWritten; \
  37:.\main.c      **** 	size_t sz=strlen(msg); \
  38:.\main.c      **** 	dbgprint(msg, ## __VA_ARGS__); \
  39:.\main.c      **** 	FRESULT res = f_write(&File, msg, sz, &BytesWritten); \
  40:.\main.c      **** 	chkres("f_write", res); \
  41:.\main.c      **** }while(0)
  42:.\main.c      **** 
  43:.\main.c      **** 
  44:.\main.c      **** void MillisISR()
  45:.\main.c      **** {
  46:.\main.c      ****     nmillis++;          //used for time measurements
  47:.\main.c      ****     disk_timerproc();   //MUST attach this to 1kHz interrupt for file system timeouts to work
  48:.\main.c      **** }
  49:.\main.c      **** 
  50:.\main.c      **** void SDCARD_FAST()
  51:.\main.c      **** {
  52:.\main.c      ****     SD_CLK_SetDivider(1); // 0: 24MHz, 1; 12MHz, 2:8MHz, 3: 6Mhz (@BusClk=48MHz)
  53:.\main.c      **** }
  54:.\main.c      **** 
  55:.\main.c      **** void SDCARD_SLOW()
  56:.\main.c      **** {
  57:.\main.c      ****     SD_CLK_SetDivider(200);   //SD card must be initialised at max. 400 kHz
  58:.\main.c      **** }
  59:.\main.c      **** 
  60:.\main.c      **** void PrintFxn(char* pString)
  61:.\main.c      **** {
  27              		.loc 1 61 0
  28              		.cfi_startproc
  29              		@ args = 0, pretend = 0, frame = 0
  30              		@ frame_needed = 0, uses_anonymous_args = 0
  31              		@ link register save eliminated.
  32              	.LVL0:
  33 0000 7047     		bx	lr
  34              		.cfi_endproc
  35              	.LFE66:
  36              		.size	PrintFxn, .-PrintFxn
  37 0002 00BF     		.section	.text.MillisISR,"ax",%progbits
  38              		.align	2
  39              		.global	MillisISR
  40              		.thumb
  41              		.thumb_func
  42              		.type	MillisISR, %function
  43              	MillisISR:
  44              	.LFB63:
  45:.\main.c      ****     nmillis++;          //used for time measurements
  45              		.loc 1 45 0
  46              		.cfi_startproc
  47              		@ args = 0, pretend = 0, frame = 0
  48              		@ frame_needed = 0, uses_anonymous_args = 0
  49              		@ link register save eliminated.
  46:.\main.c      ****     disk_timerproc();   //MUST attach this to 1kHz interrupt for file system timeouts to work
  50              		.loc 1 46 0
  51 0000 024A     		ldr	r2, .L3
ARM GAS  C:\Users\honet\AppData\Local\Temp\cc6gsi1c.s 			page 3


  52 0002 1368     		ldr	r3, [r2]
  53 0004 0133     		adds	r3, r3, #1
  54 0006 1360     		str	r3, [r2]
  47:.\main.c      **** }
  55              		.loc 1 47 0
  56 0008 FFF7FEBF 		b	disk_timerproc
  57              	.LVL1:
  58              	.L4:
  59              		.align	2
  60              	.L3:
  61 000c 00000000 		.word	.LANCHOR0
  62              		.cfi_endproc
  63              	.LFE63:
  64              		.size	MillisISR, .-MillisISR
  65              		.section	.text.SDCARD_FAST,"ax",%progbits
  66              		.align	2
  67              		.global	SDCARD_FAST
  68              		.thumb
  69              		.thumb_func
  70              		.type	SDCARD_FAST, %function
  71              	SDCARD_FAST:
  72              	.LFB64:
  51:.\main.c      ****     SD_CLK_SetDivider(1); // 0: 24MHz, 1; 12MHz, 2:8MHz, 3: 6Mhz (@BusClk=48MHz)
  73              		.loc 1 51 0
  74              		.cfi_startproc
  75              		@ args = 0, pretend = 0, frame = 0
  76              		@ frame_needed = 0, uses_anonymous_args = 0
  77              		@ link register save eliminated.
  52:.\main.c      **** }
  78              		.loc 1 52 0
  79 0000 0120     		movs	r0, #1
  80 0002 0146     		mov	r1, r0
  81 0004 FFF7FEBF 		b	SD_CLK_SetDividerRegister
  82              	.LVL2:
  83              		.cfi_endproc
  84              	.LFE64:
  85              		.size	SDCARD_FAST, .-SDCARD_FAST
  86              		.section	.text.SDCARD_SLOW,"ax",%progbits
  87              		.align	2
  88              		.global	SDCARD_SLOW
  89              		.thumb
  90              		.thumb_func
  91              		.type	SDCARD_SLOW, %function
  92              	SDCARD_SLOW:
  93              	.LFB65:
  56:.\main.c      ****     SD_CLK_SetDivider(200);   //SD card must be initialised at max. 400 kHz
  94              		.loc 1 56 0
  95              		.cfi_startproc
  96              		@ args = 0, pretend = 0, frame = 0
  97              		@ frame_needed = 0, uses_anonymous_args = 0
  98              		@ link register save eliminated.
  57:.\main.c      **** }
  99              		.loc 1 57 0
 100 0000 C820     		movs	r0, #200
 101 0002 0121     		movs	r1, #1
 102 0004 FFF7FEBF 		b	SD_CLK_SetDividerRegister
 103              	.LVL3:
ARM GAS  C:\Users\honet\AppData\Local\Temp\cc6gsi1c.s 			page 4


 104              		.cfi_endproc
 105              	.LFE65:
 106              		.size	SDCARD_SLOW, .-SDCARD_SLOW
 107              		.section	.text.chkres.part.0,"ax",%progbits
 108              		.align	2
 109              		.thumb
 110              		.thumb_func
 111              		.type	chkres.part.0, %function
 112              	chkres.part.0:
 113              	.LFB71:
  62:.\main.c      **** }
  63:.\main.c      **** 
  64:.\main.c      **** void chkres(char *func, FRESULT exp){
 114              		.loc 1 64 0
 115              		.cfi_startproc
 116              		@ args = 0, pretend = 0, frame = 128
 117              		@ frame_needed = 0, uses_anonymous_args = 0
 118              	.LVL4:
 119 0000 70B5     		push	{r4, r5, r6, lr}
 120              		.cfi_def_cfa_offset 16
 121              		.cfi_offset 4, -16
 122              		.cfi_offset 5, -12
 123              		.cfi_offset 6, -8
 124              		.cfi_offset 14, -4
 125 0002 A0B0     		sub	sp, sp, #128
 126              		.cfi_def_cfa_offset 144
 127              		.loc 1 64 0
 128 0004 0246     		mov	r2, r0
 129 0006 0D46     		mov	r5, r1
 130              	.LBB140:
  65:.\main.c      **** 	if (exp!=FR_OK){
  66:.\main.c      **** 		dbgprint("%s ERR! res=", func);
 131              		.loc 1 66 0
 132 0008 6846     		mov	r0, sp
 133              	.LVL5:
 134 000a 9449     		ldr	r1, .L103
 135              	.LVL6:
 136 000c 6C46     		mov	r4, sp
 137 000e FFF7FEFF 		bl	sprintf
 138              	.LVL7:
 139              	.L8:
 140 0012 FFF7FEFF 		bl	USBUART_1_CDCIsReady
 141              	.LVL8:
 142 0016 0028     		cmp	r0, #0
 143 0018 FBD0     		beq	.L8
 144 001a 2046     		mov	r0, r4
 145 001c FFF7FEFF 		bl	USBUART_1_PutString
 146              	.LVL9:
 147              	.LBE140:
  67:.\main.c      **** 		switch(exp){
 148              		.loc 1 67 0
 149 0020 132D     		cmp	r5, #19
 150 0022 00F21081 		bhi	.L9
 151 0026 DFE815F0 		tbh	[pc, r5, lsl #1]
 152              	.L11:
 153 002a 0301     		.2byte	(.L10-.L11)/2
 154 002c F900     		.2byte	(.L12-.L11)/2
ARM GAS  C:\Users\honet\AppData\Local\Temp\cc6gsi1c.s 			page 5


 155 002e EC00     		.2byte	(.L13-.L11)/2
 156 0030 E200     		.2byte	(.L14-.L11)/2
 157 0032 D500     		.2byte	(.L15-.L11)/2
 158 0034 C800     		.2byte	(.L16-.L11)/2
 159 0036 BF00     		.2byte	(.L17-.L11)/2
 160 0038 B500     		.2byte	(.L18-.L11)/2
 161 003a AB00     		.2byte	(.L19-.L11)/2
 162 003c A000     		.2byte	(.L20-.L11)/2
 163 003e 9200     		.2byte	(.L21-.L11)/2
 164 0040 8700     		.2byte	(.L22-.L11)/2
 165 0042 7A00     		.2byte	(.L23-.L11)/2
 166 0044 6F00     		.2byte	(.L24-.L11)/2
 167 0046 6600     		.2byte	(.L25-.L11)/2
 168 0048 5900     		.2byte	(.L26-.L11)/2
 169 004a 4F00     		.2byte	(.L27-.L11)/2
 170 004c 4100     		.2byte	(.L28-.L11)/2
 171 004e 3000     		.2byte	(.L29-.L11)/2
 172 0050 1400     		.2byte	(.L30-.L11)/2
 173              		.p2align 1
 174              	.L30:
 175              	.LBB141:
  68:.\main.c      **** 		case FR_OK: dbgprint("FR_OK"); break;
  69:.\main.c      **** 		case FR_DISK_ERR: dbgprint("FR_DISK_ERR"); break;
  70:.\main.c      **** 		case FR_INT_ERR: dbgprint("FR_INT_ERR"); break;
  71:.\main.c      **** 		case FR_NOT_READY: dbgprint("FR_NOT_READY"); break;
  72:.\main.c      **** 		case FR_NO_FILE: dbgprint("FR_NO_FILE"); break;
  73:.\main.c      **** 		case FR_NO_PATH: dbgprint("FR_NO_PATH"); break;
  74:.\main.c      **** 		case FR_INVALID_NAME: dbgprint("FR_INVALID_NAME"); break;
  75:.\main.c      **** 		case FR_DENIED: dbgprint("FR_DENIED"); break;
  76:.\main.c      **** 		case FR_EXIST: dbgprint("FR_EXIST"); break;
  77:.\main.c      **** 		case FR_INVALID_OBJECT: dbgprint("FR_INVALID_OBJECT"); break;
  78:.\main.c      **** 		case FR_WRITE_PROTECTED: dbgprint("FR_WRITE_PROTECTED"); break;
  79:.\main.c      **** 		case FR_INVALID_DRIVE: dbgprint("FR_INVALID_DRIVE"); break;
  80:.\main.c      **** 		case FR_NOT_ENABLED: dbgprint("FR_NOT_ENABLED"); break;
  81:.\main.c      **** 		case FR_NO_FILESYSTEM: dbgprint("FR_NO_FILESYSTEM"); break;
  82:.\main.c      **** 		case FR_MKFS_ABORTED: dbgprint("FR_MKFS_ABORTED"); break;
  83:.\main.c      **** 		case FR_TIMEOUT: dbgprint("FR_TIMEOUT"); break;
  84:.\main.c      **** 		case FR_LOCKED: dbgprint("FR_LOCKED"); break;
  85:.\main.c      **** 		case FR_NOT_ENOUGH_CORE: dbgprint("FR_NOT_ENOUGH_CORE"); break;
  86:.\main.c      **** 		case FR_TOO_MANY_OPEN_FILES: dbgprint("FR_TOO_MANY_OPEN_FILES"); break;
  87:.\main.c      **** 		case FR_INVALID_PARAMETER: dbgprint("FR_INVALID_PARAMETER"); break;
 176              		.loc 1 87 0
 177 0052 2546     		mov	r5, r4
 178 0054 824E     		ldr	r6, .L103+4
 179 0056 0FCE     		ldmia	r6!, {r0, r1, r2, r3}
 180 0058 0FC5     		stmia	r5!, {r0, r1, r2, r3}
 181 005a 96E80300 		ldmia	r6, {r0, r1}
 182 005e 45F8040B 		str	r0, [r5], #4
 183 0062 2970     		strb	r1, [r5]
 184              	.L51:
 185 0064 FFF7FEFF 		bl	USBUART_1_CDCIsReady
 186              	.LVL10:
 187 0068 0028     		cmp	r0, #0
 188 006a FBD0     		beq	.L51
 189              	.L101:
 190              	.LBE141:
 191              	.LBB142:
ARM GAS  C:\Users\honet\AppData\Local\Temp\cc6gsi1c.s 			page 6


  88:.\main.c      **** 		default: dbgprint("%d", exp);
 192              		.loc 1 88 0
 193 006c 2046     		mov	r0, r4
 194 006e FFF7FEFF 		bl	USBUART_1_PutString
 195              	.LVL11:
 196              	.LBE142:
 197              	.LBB143:
  89:.\main.c      **** 		}
  90:.\main.c      **** 		dbgprint("\n");
 198              		.loc 1 90 0
 199 0072 0A23     		movs	r3, #10
 200 0074 ADF80030 		strh	r3, [sp]	@ movhi
 201              	.L53:
 202 0078 FFF7FEFF 		bl	USBUART_1_CDCIsReady
 203              	.LVL12:
 204 007c 0028     		cmp	r0, #0
 205 007e FBD0     		beq	.L53
 206 0080 2046     		mov	r0, r4
 207 0082 FFF7FEFF 		bl	USBUART_1_PutString
 208              	.LVL13:
 209              	.LBE143:
  91:.\main.c      **** 	}
  92:.\main.c      **** }
 210              		.loc 1 92 0
 211 0086 20B0     		add	sp, sp, #128
 212              		.cfi_remember_state
 213              		.cfi_def_cfa_offset 16
 214              		@ sp needed
 215 0088 70BD     		pop	{r4, r5, r6, pc}
 216              	.L29:
 217              		.cfi_restore_state
 218              	.LBB144:
  86:.\main.c      **** 		case FR_INVALID_PARAMETER: dbgprint("FR_INVALID_PARAMETER"); break;
 219              		.loc 1 86 0
 220 008a 2546     		mov	r5, r4
 221 008c 754E     		ldr	r6, .L103+8
 222 008e 0FCE     		ldmia	r6!, {r0, r1, r2, r3}
 223 0090 0FC5     		stmia	r5!, {r0, r1, r2, r3}
 224 0092 96E80300 		ldmia	r6, {r0, r1}
 225 0096 45F8040B 		str	r0, [r5], #4
 226 009a 25F8021B 		strh	r1, [r5], #2	@ movhi
 227 009e 090C     		lsrs	r1, r1, #16
 228 00a0 2970     		strb	r1, [r5]
 229              	.L50:
 230 00a2 FFF7FEFF 		bl	USBUART_1_CDCIsReady
 231              	.LVL14:
 232 00a6 0028     		cmp	r0, #0
 233 00a8 FBD0     		beq	.L50
 234 00aa DFE7     		b	.L101
 235              	.L28:
 236              	.LBE144:
 237              	.LBB145:
  85:.\main.c      **** 		case FR_TOO_MANY_OPEN_FILES: dbgprint("FR_TOO_MANY_OPEN_FILES"); break;
 238              		.loc 1 85 0
 239 00ac 2546     		mov	r5, r4
 240 00ae 6E4E     		ldr	r6, .L103+12
 241 00b0 0FCE     		ldmia	r6!, {r0, r1, r2, r3}
ARM GAS  C:\Users\honet\AppData\Local\Temp\cc6gsi1c.s 			page 7


 242 00b2 0FC5     		stmia	r5!, {r0, r1, r2, r3}
 243 00b4 3368     		ldr	r3, [r6]
 244 00b6 25F8023B 		strh	r3, [r5], #2	@ movhi
 245 00ba 1B0C     		lsrs	r3, r3, #16
 246 00bc 2B70     		strb	r3, [r5]
 247              	.L49:
 248 00be FFF7FEFF 		bl	USBUART_1_CDCIsReady
 249              	.LVL15:
 250 00c2 0028     		cmp	r0, #0
 251 00c4 FBD0     		beq	.L49
 252 00c6 D1E7     		b	.L101
 253              	.L27:
 254              	.LBE145:
 255              	.LBB146:
  84:.\main.c      **** 		case FR_NOT_ENOUGH_CORE: dbgprint("FR_NOT_ENOUGH_CORE"); break;
 256              		.loc 1 84 0
 257 00c8 2346     		mov	r3, r4
 258 00ca 684A     		ldr	r2, .L103+16
 259 00cc 07CA     		ldmia	r2, {r0, r1, r2}
 260 00ce 03C3     		stmia	r3!, {r0, r1}
 261 00d0 1A80     		strh	r2, [r3]	@ movhi
 262              	.L48:
 263 00d2 FFF7FEFF 		bl	USBUART_1_CDCIsReady
 264              	.LVL16:
 265 00d6 0028     		cmp	r0, #0
 266 00d8 FBD0     		beq	.L48
 267 00da C7E7     		b	.L101
 268              	.L26:
 269              	.LBE146:
 270              	.LBB147:
  83:.\main.c      **** 		case FR_LOCKED: dbgprint("FR_LOCKED"); break;
 271              		.loc 1 83 0
 272 00dc 2346     		mov	r3, r4
 273 00de 644A     		ldr	r2, .L103+20
 274 00e0 07CA     		ldmia	r2, {r0, r1, r2}
 275 00e2 03C3     		stmia	r3!, {r0, r1}
 276 00e4 110C     		lsrs	r1, r2, #16
 277 00e6 23F8022B 		strh	r2, [r3], #2	@ movhi
 278 00ea 1970     		strb	r1, [r3]
 279              	.L47:
 280 00ec FFF7FEFF 		bl	USBUART_1_CDCIsReady
 281              	.LVL17:
 282 00f0 0028     		cmp	r0, #0
 283 00f2 FBD0     		beq	.L47
 284 00f4 BAE7     		b	.L101
 285              	.L25:
 286              	.LBE147:
 287              	.LBB148:
  82:.\main.c      **** 		case FR_TIMEOUT: dbgprint("FR_TIMEOUT"); break;
 288              		.loc 1 82 0
 289 00f6 5F4B     		ldr	r3, .L103+24
 290 00f8 0FCB     		ldmia	r3, {r0, r1, r2, r3}
 291 00fa 84E80F00 		stmia	r4, {r0, r1, r2, r3}
 292              	.L46:
 293 00fe FFF7FEFF 		bl	USBUART_1_CDCIsReady
 294              	.LVL18:
 295 0102 0028     		cmp	r0, #0
ARM GAS  C:\Users\honet\AppData\Local\Temp\cc6gsi1c.s 			page 8


 296 0104 FBD0     		beq	.L46
 297 0106 B1E7     		b	.L101
 298              	.L24:
 299              	.LBE148:
 300              	.LBB149:
  81:.\main.c      **** 		case FR_MKFS_ABORTED: dbgprint("FR_MKFS_ABORTED"); break;
 301              		.loc 1 81 0
 302 0108 2546     		mov	r5, r4
 303 010a 5B4E     		ldr	r6, .L103+28
 304 010c 0FCE     		ldmia	r6!, {r0, r1, r2, r3}
 305 010e 0FC5     		stmia	r5!, {r0, r1, r2, r3}
 306 0110 3368     		ldr	r3, [r6]
 307 0112 2B70     		strb	r3, [r5]
 308              	.L45:
 309 0114 FFF7FEFF 		bl	USBUART_1_CDCIsReady
 310              	.LVL19:
 311 0118 0028     		cmp	r0, #0
 312 011a FBD0     		beq	.L45
 313 011c A6E7     		b	.L101
 314              	.L23:
 315              	.LBE149:
 316              	.LBB150:
  80:.\main.c      **** 		case FR_NO_FILESYSTEM: dbgprint("FR_NO_FILESYSTEM"); break;
 317              		.loc 1 80 0
 318 011e 2546     		mov	r5, r4
 319 0120 564B     		ldr	r3, .L103+32
 320 0122 0FCB     		ldmia	r3, {r0, r1, r2, r3}
 321 0124 07C5     		stmia	r5!, {r0, r1, r2}
 322 0126 1A0C     		lsrs	r2, r3, #16
 323 0128 25F8023B 		strh	r3, [r5], #2	@ movhi
 324 012c 2A70     		strb	r2, [r5]
 325              	.L44:
 326 012e FFF7FEFF 		bl	USBUART_1_CDCIsReady
 327              	.LVL20:
 328 0132 0028     		cmp	r0, #0
 329 0134 FBD0     		beq	.L44
 330 0136 99E7     		b	.L101
 331              	.L22:
 332              	.LBE150:
 333              	.LBB151:
  79:.\main.c      **** 		case FR_NOT_ENABLED: dbgprint("FR_NOT_ENABLED"); break;
 334              		.loc 1 79 0
 335 0138 2546     		mov	r5, r4
 336 013a 514E     		ldr	r6, .L103+36
 337 013c 0FCE     		ldmia	r6!, {r0, r1, r2, r3}
 338 013e 0FC5     		stmia	r5!, {r0, r1, r2, r3}
 339 0140 3368     		ldr	r3, [r6]
 340 0142 2B70     		strb	r3, [r5]
 341              	.L43:
 342 0144 FFF7FEFF 		bl	USBUART_1_CDCIsReady
 343              	.LVL21:
 344 0148 0028     		cmp	r0, #0
 345 014a FBD0     		beq	.L43
 346 014c 8EE7     		b	.L101
 347              	.L21:
 348              	.LBE151:
 349              	.LBB152:
ARM GAS  C:\Users\honet\AppData\Local\Temp\cc6gsi1c.s 			page 9


  78:.\main.c      **** 		case FR_INVALID_DRIVE: dbgprint("FR_INVALID_DRIVE"); break;
 350              		.loc 1 78 0
 351 014e 2546     		mov	r5, r4
 352 0150 4C4E     		ldr	r6, .L103+40
 353 0152 0FCE     		ldmia	r6!, {r0, r1, r2, r3}
 354 0154 0FC5     		stmia	r5!, {r0, r1, r2, r3}
 355 0156 3368     		ldr	r3, [r6]
 356 0158 25F8023B 		strh	r3, [r5], #2	@ movhi
 357 015c 1B0C     		lsrs	r3, r3, #16
 358 015e 2B70     		strb	r3, [r5]
 359              	.L42:
 360 0160 FFF7FEFF 		bl	USBUART_1_CDCIsReady
 361              	.LVL22:
 362 0164 0028     		cmp	r0, #0
 363 0166 FBD0     		beq	.L42
 364 0168 80E7     		b	.L101
 365              	.L20:
 366              	.LBE152:
 367              	.LBB153:
  77:.\main.c      **** 		case FR_WRITE_PROTECTED: dbgprint("FR_WRITE_PROTECTED"); break;
 368              		.loc 1 77 0
 369 016a 2546     		mov	r5, r4
 370 016c 464E     		ldr	r6, .L103+44
 371 016e 0FCE     		ldmia	r6!, {r0, r1, r2, r3}
 372 0170 0FC5     		stmia	r5!, {r0, r1, r2, r3}
 373 0172 3368     		ldr	r3, [r6]
 374 0174 2B80     		strh	r3, [r5]	@ movhi
 375              	.L41:
 376 0176 FFF7FEFF 		bl	USBUART_1_CDCIsReady
 377              	.LVL23:
 378 017a 0028     		cmp	r0, #0
 379 017c FBD0     		beq	.L41
 380 017e 75E7     		b	.L101
 381              	.L19:
 382              	.LBE153:
 383              	.LBB154:
  76:.\main.c      **** 		case FR_INVALID_OBJECT: dbgprint("FR_INVALID_OBJECT"); break;
 384              		.loc 1 76 0
 385 0180 2346     		mov	r3, r4
 386 0182 424A     		ldr	r2, .L103+48
 387 0184 07CA     		ldmia	r2, {r0, r1, r2}
 388 0186 03C3     		stmia	r3!, {r0, r1}
 389 0188 1A70     		strb	r2, [r3]
 390              	.L40:
 391 018a FFF7FEFF 		bl	USBUART_1_CDCIsReady
 392              	.LVL24:
 393 018e 0028     		cmp	r0, #0
 394 0190 FBD0     		beq	.L40
 395 0192 6BE7     		b	.L101
 396              	.L18:
 397              	.LBE154:
 398              	.LBB155:
  75:.\main.c      **** 		case FR_EXIST: dbgprint("FR_EXIST"); break;
 399              		.loc 1 75 0
 400 0194 2346     		mov	r3, r4
 401 0196 3E4A     		ldr	r2, .L103+52
 402 0198 07CA     		ldmia	r2, {r0, r1, r2}
ARM GAS  C:\Users\honet\AppData\Local\Temp\cc6gsi1c.s 			page 10


 403 019a 03C3     		stmia	r3!, {r0, r1}
 404 019c 1A80     		strh	r2, [r3]	@ movhi
 405              	.L39:
 406 019e FFF7FEFF 		bl	USBUART_1_CDCIsReady
 407              	.LVL25:
 408 01a2 0028     		cmp	r0, #0
 409 01a4 FBD0     		beq	.L39
 410 01a6 61E7     		b	.L101
 411              	.L17:
 412              	.LBE155:
 413              	.LBB156:
  74:.\main.c      **** 		case FR_DENIED: dbgprint("FR_DENIED"); break;
 414              		.loc 1 74 0
 415 01a8 3A4B     		ldr	r3, .L103+56
 416 01aa 0FCB     		ldmia	r3, {r0, r1, r2, r3}
 417 01ac 84E80F00 		stmia	r4, {r0, r1, r2, r3}
 418              	.L38:
 419 01b0 FFF7FEFF 		bl	USBUART_1_CDCIsReady
 420              	.LVL26:
 421 01b4 0028     		cmp	r0, #0
 422 01b6 FBD0     		beq	.L38
 423 01b8 58E7     		b	.L101
 424              	.L16:
 425              	.LBE156:
 426              	.LBB157:
  73:.\main.c      **** 		case FR_INVALID_NAME: dbgprint("FR_INVALID_NAME"); break;
 427              		.loc 1 73 0
 428 01ba 2346     		mov	r3, r4
 429 01bc 364A     		ldr	r2, .L103+60
 430 01be 07CA     		ldmia	r2, {r0, r1, r2}
 431 01c0 03C3     		stmia	r3!, {r0, r1}
 432 01c2 110C     		lsrs	r1, r2, #16
 433 01c4 23F8022B 		strh	r2, [r3], #2	@ movhi
 434 01c8 1970     		strb	r1, [r3]
 435              	.L37:
 436 01ca FFF7FEFF 		bl	USBUART_1_CDCIsReady
 437              	.LVL27:
 438 01ce 0028     		cmp	r0, #0
 439 01d0 FBD0     		beq	.L37
 440 01d2 4BE7     		b	.L101
 441              	.L15:
 442              	.LBE157:
 443              	.LBB158:
  72:.\main.c      **** 		case FR_NO_PATH: dbgprint("FR_NO_PATH"); break;
 444              		.loc 1 72 0
 445 01d4 2346     		mov	r3, r4
 446 01d6 314A     		ldr	r2, .L103+64
 447 01d8 07CA     		ldmia	r2, {r0, r1, r2}
 448 01da 03C3     		stmia	r3!, {r0, r1}
 449 01dc 110C     		lsrs	r1, r2, #16
 450 01de 23F8022B 		strh	r2, [r3], #2	@ movhi
 451 01e2 1970     		strb	r1, [r3]
 452              	.L36:
 453 01e4 FFF7FEFF 		bl	USBUART_1_CDCIsReady
 454              	.LVL28:
 455 01e8 0028     		cmp	r0, #0
 456 01ea FBD0     		beq	.L36
ARM GAS  C:\Users\honet\AppData\Local\Temp\cc6gsi1c.s 			page 11


 457 01ec 3EE7     		b	.L101
 458              	.L14:
 459              	.LBE158:
 460              	.LBB159:
  71:.\main.c      **** 		case FR_NO_FILE: dbgprint("FR_NO_FILE"); break;
 461              		.loc 1 71 0
 462 01ee 2546     		mov	r5, r4
 463 01f0 2B4B     		ldr	r3, .L103+68
 464 01f2 0FCB     		ldmia	r3, {r0, r1, r2, r3}
 465 01f4 07C5     		stmia	r5!, {r0, r1, r2}
 466 01f6 2B70     		strb	r3, [r5]
 467              	.L35:
 468 01f8 FFF7FEFF 		bl	USBUART_1_CDCIsReady
 469              	.LVL29:
 470 01fc 0028     		cmp	r0, #0
 471 01fe FBD0     		beq	.L35
 472 0200 34E7     		b	.L101
 473              	.L13:
 474              	.LBE159:
 475              	.LBB160:
  70:.\main.c      **** 		case FR_NOT_READY: dbgprint("FR_NOT_READY"); break;
 476              		.loc 1 70 0
 477 0202 2346     		mov	r3, r4
 478 0204 274A     		ldr	r2, .L103+72
 479 0206 07CA     		ldmia	r2, {r0, r1, r2}
 480 0208 03C3     		stmia	r3!, {r0, r1}
 481 020a 110C     		lsrs	r1, r2, #16
 482 020c 23F8022B 		strh	r2, [r3], #2	@ movhi
 483 0210 1970     		strb	r1, [r3]
 484              	.L34:
 485 0212 FFF7FEFF 		bl	USBUART_1_CDCIsReady
 486              	.LVL30:
 487 0216 0028     		cmp	r0, #0
 488 0218 FBD0     		beq	.L34
 489 021a 27E7     		b	.L101
 490              	.L12:
 491              	.LBE160:
 492              	.LBB161:
  69:.\main.c      **** 		case FR_INT_ERR: dbgprint("FR_INT_ERR"); break;
 493              		.loc 1 69 0
 494 021c 224B     		ldr	r3, .L103+76
 495 021e 93E80700 		ldmia	r3, {r0, r1, r2}
 496 0222 84E80700 		stmia	r4, {r0, r1, r2}
 497              	.L33:
 498 0226 FFF7FEFF 		bl	USBUART_1_CDCIsReady
 499              	.LVL31:
 500 022a 0028     		cmp	r0, #0
 501 022c FBD0     		beq	.L33
 502 022e 1DE7     		b	.L101
 503              	.L10:
 504              	.LBE161:
 505              	.LBB162:
  68:.\main.c      **** 		case FR_DISK_ERR: dbgprint("FR_DISK_ERR"); break;
 506              		.loc 1 68 0
 507 0230 1E4B     		ldr	r3, .L103+80
 508 0232 93E80300 		ldmia	r3, {r0, r1}
 509 0236 0090     		str	r0, [sp]
ARM GAS  C:\Users\honet\AppData\Local\Temp\cc6gsi1c.s 			page 12


 510 0238 ADF80410 		strh	r1, [sp, #4]	@ movhi
 511              	.L31:
 512 023c FFF7FEFF 		bl	USBUART_1_CDCIsReady
 513              	.LVL32:
 514 0240 0028     		cmp	r0, #0
 515 0242 FBD0     		beq	.L31
 516 0244 12E7     		b	.L101
 517              	.L9:
 518              	.LBE162:
 519              	.LBB163:
  88:.\main.c      **** 		}
 520              		.loc 1 88 0
 521 0246 2A46     		mov	r2, r5
 522 0248 2046     		mov	r0, r4
 523 024a 1949     		ldr	r1, .L103+84
 524 024c FFF7FEFF 		bl	sprintf
 525              	.LVL33:
 526              	.L52:
 527 0250 FFF7FEFF 		bl	USBUART_1_CDCIsReady
 528              	.LVL34:
 529 0254 0028     		cmp	r0, #0
 530 0256 FBD0     		beq	.L52
 531 0258 08E7     		b	.L101
 532              	.L104:
 533 025a 00BF     		.align	2
 534              	.L103:
 535 025c 00000000 		.word	.LC0
 536 0260 34010000 		.word	.LC20
 537 0264 1C010000 		.word	.LC19
 538 0268 08010000 		.word	.LC18
 539 026c FC000000 		.word	.LC17
 540 0270 F0000000 		.word	.LC16
 541 0274 E0000000 		.word	.LC15
 542 0278 CC000000 		.word	.LC14
 543 027c BC000000 		.word	.LC13
 544 0280 A8000000 		.word	.LC12
 545 0284 94000000 		.word	.LC11
 546 0288 80000000 		.word	.LC10
 547 028c 74000000 		.word	.LC9
 548 0290 68000000 		.word	.LC8
 549 0294 58000000 		.word	.LC7
 550 0298 4C000000 		.word	.LC6
 551 029c 40000000 		.word	.LC5
 552 02a0 30000000 		.word	.LC4
 553 02a4 24000000 		.word	.LC3
 554 02a8 18000000 		.word	.LC2
 555 02ac 10000000 		.word	.LC1
 556 02b0 4C010000 		.word	.LC21
 557              	.LBE163:
 558              		.cfi_endproc
 559              	.LFE71:
 560              		.size	chkres.part.0, .-chkres.part.0
 561              		.section	.text.chkres,"ax",%progbits
 562              		.align	2
 563              		.global	chkres
 564              		.thumb
 565              		.thumb_func
ARM GAS  C:\Users\honet\AppData\Local\Temp\cc6gsi1c.s 			page 13


 566              		.type	chkres, %function
 567              	chkres:
 568              	.LFB67:
  64:.\main.c      **** 	if (exp!=FR_OK){
 569              		.loc 1 64 0
 570              		.cfi_startproc
 571              		@ args = 0, pretend = 0, frame = 0
 572              		@ frame_needed = 0, uses_anonymous_args = 0
 573              		@ link register save eliminated.
 574              	.LVL35:
  65:.\main.c      **** 		dbgprint("%s ERR! res=", func);
 575              		.loc 1 65 0
 576 0000 01B9     		cbnz	r1, .L107
 577 0002 7047     		bx	lr
 578              	.L107:
 579 0004 FFF7FEBF 		b	chkres.part.0
 580              	.LVL36:
 581              		.cfi_endproc
 582              	.LFE67:
 583              		.size	chkres, .-chkres
 584              		.global	__aeabi_i2d
 585              		.global	__aeabi_dmul
 586              		.global	__aeabi_dcmpeq
 587              		.section	.text.sdcheck,"ax",%progbits
 588              		.align	2
 589              		.global	sdcheck
 590              		.thumb
 591              		.thumb_func
 592              		.type	sdcheck, %function
 593              	sdcheck:
 594              	.LFB68:
  93:.\main.c      **** 
  94:.\main.c      **** 
  95:.\main.c      **** 
  96:.\main.c      **** void sdcheck()
  97:.\main.c      **** {
 595              		.loc 1 97 0
 596              		.cfi_startproc
 597              		@ args = 0, pretend = 0, frame = 1248
 598              		@ frame_needed = 0, uses_anonymous_args = 0
 599              	.LVL37:
 600 0000 2DE9F04F 		push	{r4, r5, r6, r7, r8, r9, r10, fp, lr}
 601              		.cfi_def_cfa_offset 36
 602              		.cfi_offset 4, -36
 603              		.cfi_offset 5, -32
 604              		.cfi_offset 6, -28
 605              		.cfi_offset 7, -24
 606              		.cfi_offset 8, -20
 607              		.cfi_offset 9, -16
 608              		.cfi_offset 10, -12
 609              		.cfi_offset 11, -8
 610              		.cfi_offset 14, -4
 611              	.LBB164:
  98:.\main.c      **** 	uint32_t nvals = BUFFER_SIZE/sizeof(double);
  99:.\main.c      **** 	double *vals = (double*)&buffer[0];
 100:.\main.c      ****     
 101:.\main.c      **** 	FRESULT res;
ARM GAS  C:\Users\honet\AppData\Local\Temp\cc6gsi1c.s 			page 14


 102:.\main.c      **** 	UINT BytesWritten, BytesRead;
 103:.\main.c      **** 	
 104:.\main.c      **** 	FATFS FileSys;          //this will be our mounted file system
 105:.\main.c      **** 
 106:.\main.c      **** 	dbgprint("Try to mount...\n");
 612              		.loc 1 106 0
 613 0004 354D     		ldr	r5, .L382
 614              	.LBE164:
  97:.\main.c      **** 	uint32_t nvals = BUFFER_SIZE/sizeof(double);
 615              		.loc 1 97 0
 616 0006 ADF2E44D 		subw	sp, sp, #1252
 617              		.cfi_def_cfa_offset 1288
 618              	.LBB165:
 619              		.loc 1 106 0
 620 000a ACAC     		add	r4, sp, #688
 621 000c 0FCD     		ldmia	r5!, {r0, r1, r2, r3}
 622 000e 0FC4     		stmia	r4!, {r0, r1, r2, r3}
 623 0010 2B68     		ldr	r3, [r5]
 624 0012 2370     		strb	r3, [r4]
 625              	.L109:
 626              		.loc 1 106 0 is_stmt 0 discriminator 2
 627 0014 FFF7FEFF 		bl	USBUART_1_CDCIsReady
 628              	.LVL38:
 629 0018 0028     		cmp	r0, #0
 630 001a FBD0     		beq	.L109
 631              		.loc 1 106 0 discriminator 3
 632 001c ACA8     		add	r0, sp, #688
 633 001e FFF7FEFF 		bl	USBUART_1_PutString
 634              	.LVL39:
 635              	.LBE165:
 107:.\main.c      **** 	DSTATUS dret = disk_initialize(0);     //initialise FatFS
 636              		.loc 1 107 0 is_stmt 1 discriminator 3
 637 0022 0020     		movs	r0, #0
 638 0024 FFF7FEFF 		bl	disk_initialize
 639              	.LVL40:
 640 0028 0446     		mov	r4, r0
 641              	.LVL41:
 642              	.LBB166:
 108:.\main.c      **** 	dbgprint("disk_initialize ret=%d\n", dret);
 643              		.loc 1 108 0 discriminator 3
 644 002a 2D49     		ldr	r1, .L382+4
 645 002c ACA8     		add	r0, sp, #688
 646 002e 2246     		mov	r2, r4
 647 0030 FFF7FEFF 		bl	sprintf
 648              	.LVL42:
 649              	.L110:
 650              		.loc 1 108 0 is_stmt 0 discriminator 2
 651 0034 FFF7FEFF 		bl	USBUART_1_CDCIsReady
 652              	.LVL43:
 653 0038 0028     		cmp	r0, #0
 654 003a FBD0     		beq	.L110
 655              		.loc 1 108 0 discriminator 3
 656 003c ACA8     		add	r0, sp, #688
 657 003e FFF7FEFF 		bl	USBUART_1_PutString
 658              	.LVL44:
 659              	.LBE166:
 109:.\main.c      **** 	if(dret) goto err_exit;
ARM GAS  C:\Users\honet\AppData\Local\Temp\cc6gsi1c.s 			page 15


 660              		.loc 1 109 0 is_stmt 1 discriminator 3
 661 0042 94B1     		cbz	r4, .L352
 662              	.LVL45:
 663              	.L347:
 664 0044 02AE     		add	r6, sp, #8
 665              	.L112:
 110:.\main.c      **** 
 111:.\main.c      **** 	//and mount. Note: if/else and case statements below allow identification of status.
 112:.\main.c      **** 	//in this example, I just assume everything went ok, and have left the below for reference.
 113:.\main.c      **** 	FRESULT nRes;
 114:.\main.c      **** 	if ((nRes = f_mount(&FileSys, "/", 1)) != FR_OK) { //Fail to mount...
 115:.\main.c      **** 		dbgprint("SD-CARD mount ERROR!! nRes=");
 116:.\main.c      **** 		switch(nRes) {    //reasons...
 117:.\main.c      **** 		case FR_INVALID_DRIVE:	dbgprint("FR_INVALID_DRIVE\n"); break;
 118:.\main.c      **** 		case FR_DISK_ERR:		dbgprint("FR_DISK_ERR\n"); break;
 119:.\main.c      **** 		case FR_NOT_READY:		dbgprint("FR_NOT_READY\n"); break;
 120:.\main.c      **** 		case FR_NO_FILESYSTEM:	dbgprint("FR_NO_FILESYSTEM\n"); break;
 121:.\main.c      **** 		default: break;
 122:.\main.c      **** 		}
 123:.\main.c      **** 		goto err_exit;
 124:.\main.c      **** 	} else {
 125:.\main.c      **** 		//Mounted
 126:.\main.c      **** 		dbgprint("SD-CARD mounted. FSTYPE=");
 127:.\main.c      **** 		switch(FileSys.fs_type) { //In case filesys type is of interest
 128:.\main.c      **** 		case FS_FAT12:	dbgprint("FAT12\n"); break;
 129:.\main.c      **** 		case FS_FAT16:	dbgprint("FAT16\n"); break;
 130:.\main.c      **** 		case FS_FAT32:	dbgprint("FAT32\n"); break;
 131:.\main.c      **** 		default:		dbgprint("UNKNOWN\n"); break;
 132:.\main.c      **** 		}
 133:.\main.c      **** 	}
 134:.\main.c      **** 	
 135:.\main.c      **** 	/// --------------------------------------------------------------------------
 136:.\main.c      **** 	//Now for the benchmarking step...
 137:.\main.c      **** 	dbgprint(">>>>Testing PIO mode...\n");
 138:.\main.c      ****     CyDelay(500);
 139:.\main.c      **** 	SDSPI_SetDMAMode(0);
 140:.\main.c      **** 
 141:.\main.c      **** 	//Open a file and write "Testing Output" to it
 142:.\main.c      **** 	res = f_open(&File, "//test.txt", FA_CREATE_ALWAYS | FA_WRITE);
 143:.\main.c      **** 	chkres("f_open", res);
 144:.\main.c      **** 	if (res!=FR_OK) goto err_exit;
 145:.\main.c      **** 
 146:.\main.c      **** 	dumpmsg("Testing Speed\n");
 147:.\main.c      **** 
 148:.\main.c      **** 	//generate dataset...
 149:.\main.c      **** 	for(int i = 0; i < nvals; i++) {
 150:.\main.c      **** 		vals[i] = (double)i*i;
 151:.\main.c      **** 	}
 152:.\main.c      **** 
 153:.\main.c      **** 
 154:.\main.c      **** 	//First, we'll write the dataset to a file in the root direcory, time the operation, then
 155:.\main.c      **** 	//output results to test.txt in the SD card root.
 156:.\main.c      **** 
 157:.\main.c      **** 	//Indicate in test.txt what we're doing
 158:.\main.c      **** 	dumpmsg("Writing %d bytes to file, non-DMA\n", BUFFER_SIZE);
 159:.\main.c      **** 
 160:.\main.c      **** 	//perform operation
ARM GAS  C:\Users\honet\AppData\Local\Temp\cc6gsi1c.s 			page 16


 161:.\main.c      **** 	unsigned long nCurrentMillis = nmillis; //get current millisecond count
 162:.\main.c      **** 	FIL BinFile;
 163:.\main.c      **** 	res = f_open(&BinFile, "//TESTPIO.bin", FA_CREATE_ALWAYS | FA_WRITE);
 164:.\main.c      **** 	chkres("f_open", res);
 165:.\main.c      **** 	if (res==FR_OK) {
 166:.\main.c      **** 		res = f_write(&BinFile, vals, BUFFER_SIZE, &BytesWritten);
 167:.\main.c      **** 		chkres("f_write", res);
 168:.\main.c      **** 		res = f_close(&BinFile);
 169:.\main.c      **** 		chkres("f_close", res);
 170:.\main.c      **** 	}
 171:.\main.c      **** 
 172:.\main.c      **** 	//indicate in test.txt how long it took
 173:.\main.c      **** 	unsigned long nTime = nmillis-nCurrentMillis;
 174:.\main.c      **** 	dumpmsg("Took %lu ms\n", nTime);
 175:.\main.c      **** 
 176:.\main.c      **** 	unsigned long kbps = BUFFER_SIZE*8 / nTime;
 177:.\main.c      **** 	dumpmsg( "Rate %lu kbps\n\n", kbps);
 178:.\main.c      **** 
 179:.\main.c      **** 	//Next, read file in
 180:.\main.c      **** 
 181:.\main.c      **** 	//Indicate in test.txt what we're doing
 182:.\main.c      **** 	dumpmsg("Reading %d bytes from file, non-DMA\n", BUFFER_SIZE);
 183:.\main.c      **** 
 184:.\main.c      **** 	memset(vals, 0x00, BUFFER_SIZE);
 185:.\main.c      **** 
 186:.\main.c      **** 	//perform operation
 187:.\main.c      **** 	nCurrentMillis = nmillis; //get current millisecond count
 188:.\main.c      **** 
 189:.\main.c      **** 	res = f_open(&BinFile, "//TESTPIO.bin", FA_OPEN_EXISTING | FA_READ);
 190:.\main.c      **** 	chkres("f_open", res);
 191:.\main.c      **** 	if (res==FR_OK){
 192:.\main.c      **** 		res = f_read(&BinFile, vals, BUFFER_SIZE, &BytesRead);
 193:.\main.c      **** 		chkres("f_read", res);
 194:.\main.c      **** 		res = f_close(&BinFile);
 195:.\main.c      **** 		chkres("f_close", res);
 196:.\main.c      **** 	}
 197:.\main.c      **** 
 198:.\main.c      **** 	//indicate in test.txt how long it took
 199:.\main.c      **** 	nTime = nmillis-nCurrentMillis;
 200:.\main.c      **** 	dumpmsg("Took %lu ms\nVerifying...", nTime);
 201:.\main.c      **** 
 202:.\main.c      **** 	unsigned char bVerifyFail = 0;
 203:.\main.c      **** 	for(int i = 0; i < 500; i++) {
 204:.\main.c      **** 		if(vals[(int)i] != i*i) bVerifyFail = 1;
 205:.\main.c      **** 	}
 206:.\main.c      **** 	
 207:.\main.c      **** 	if(bVerifyFail)
 208:.\main.c      **** 		dumpmsg("FAIL :O\n");
 209:.\main.c      **** 	else
 210:.\main.c      **** 		dumpmsg(" All Good! :D\n");
 211:.\main.c      **** 
 212:.\main.c      **** 	kbps = BUFFER_SIZE*8 / nTime;
 213:.\main.c      **** 	dumpmsg("Rate %lu kbps\n\n", kbps);
 214:.\main.c      **** 
 215:.\main.c      **** 	// ----------------------------------------------------------------------------
 216:.\main.c      **** 	dbgprint(">>>>Testing DMA mode...\n");
 217:.\main.c      **** 	//Now, enable DMA...
ARM GAS  C:\Users\honet\AppData\Local\Temp\cc6gsi1c.s 			page 17


 218:.\main.c      **** 	SDSPI_SetDMAMode(1);
 219:.\main.c      ****     
 220:.\main.c      **** for(int k=0; k<20; k++){
 221:.\main.c      **** 	//and repeat tests
 222:.\main.c      **** 	//Indicate in test.txt what we're doing
 223:.\main.c      **** 	dumpmsg( "Writing %d bytes to file, DMA\n", BUFFER_SIZE);
 224:.\main.c      **** 
 225:.\main.c      **** 	//perform operation
 226:.\main.c      **** 	nCurrentMillis = nmillis; //get current millisecond count
 227:.\main.c      **** 	res = f_open(&BinFile, "//TESTDMA.bin", FA_CREATE_ALWAYS | FA_WRITE);
 228:.\main.c      **** 	chkres("f_open", res);
 229:.\main.c      **** 	if (res==FR_OK){
 230:.\main.c      **** 		res = f_write(&BinFile, vals, BUFFER_SIZE, &BytesWritten);
 231:.\main.c      **** 		chkres("f_write", res);
 232:.\main.c      **** 		res = f_close(&BinFile);
 233:.\main.c      **** 		chkres("f_close", res);
 234:.\main.c      **** 	}
 235:.\main.c      **** 
 236:.\main.c      **** 	//indicate in test.txt how long it took
 237:.\main.c      **** 	nTime = nmillis-nCurrentMillis;
 238:.\main.c      **** 	dumpmsg("Took %lu ms\n", nTime);
 239:.\main.c      **** 
 240:.\main.c      **** 	kbps = BUFFER_SIZE*8 / nTime;
 241:.\main.c      **** 	dumpmsg("Rate %lu kbps\n\n", kbps);
 242:.\main.c      **** 
 243:.\main.c      **** 	//Next, read file in
 244:.\main.c      **** 
 245:.\main.c      **** 	//Indicate in test.txt what we're doing
 246:.\main.c      **** 	dumpmsg("Reading %d bytes from file, DMA\n", BUFFER_SIZE);
 247:.\main.c      **** 
 248:.\main.c      **** 	memset(vals, 0x00, BUFFER_SIZE);
 249:.\main.c      **** 
 250:.\main.c      **** 	//perform operation
 251:.\main.c      **** 	nCurrentMillis = nmillis; //get current millisecond count
 252:.\main.c      **** 
 253:.\main.c      **** 	res = f_open(&BinFile, "//TESTDMA.bin", FA_OPEN_EXISTING | FA_READ);
 254:.\main.c      **** 	chkres("f_open", res);
 255:.\main.c      **** 	if(res==FR_OK){
 256:.\main.c      **** 		res = f_read(&BinFile, vals, BUFFER_SIZE, &BytesRead);
 257:.\main.c      **** 		chkres("f_read", res);
 258:.\main.c      **** 		res = f_close(&BinFile);
 259:.\main.c      **** 		chkres("f_close", res);
 260:.\main.c      **** 	}
 261:.\main.c      **** 
 262:.\main.c      **** 	//indicate in test.txt how long it took
 263:.\main.c      **** 	nTime = nmillis-nCurrentMillis;
 264:.\main.c      **** 	dumpmsg("Took %lu ms\nVerifying...", nTime);
 265:.\main.c      **** 
 266:.\main.c      **** 	bVerifyFail = 0;
 267:.\main.c      **** 	for(int i = 0; i < 500; i++) {
 268:.\main.c      **** 		if(vals[i] != i*i) bVerifyFail = 1;
 269:.\main.c      **** 	}
 270:.\main.c      **** 	
 271:.\main.c      **** 	if(bVerifyFail)
 272:.\main.c      **** 		dumpmsg("FAIL :O\n");
 273:.\main.c      **** 	else
 274:.\main.c      **** 		dumpmsg(" All Good! :D\n");
ARM GAS  C:\Users\honet\AppData\Local\Temp\cc6gsi1c.s 			page 18


 275:.\main.c      **** 
 276:.\main.c      **** 	kbps = BUFFER_SIZE*8 / nTime;
 277:.\main.c      **** 	dumpmsg("Rate %lu kbps\n\n", kbps);
 278:.\main.c      **** 
 279:.\main.c      ****     CyDelay(1000);
 280:.\main.c      **** }
 281:.\main.c      **** 
 282:.\main.c      **** 	res = f_close(&File);
 283:.\main.c      **** 	chkres("f_close", res);
 284:.\main.c      **** 
 285:.\main.c      **** 
 286:.\main.c      **** err_exit:
 287:.\main.c      **** 	LEDControl_Write(0);
 666              		.loc 1 287 0
 667 0046 0020     		movs	r0, #0
 668 0048 FFF7FEFF 		bl	LEDControl_Write
 669              	.LVL46:
 670              	.LBB167:
 288:.\main.c      **** 	dbgprint("TEST FINISHED!\n");
 671              		.loc 1 288 0
 672 004c 254B     		ldr	r3, .L382+8
 673 004e 0FCB     		ldmia	r3, {r0, r1, r2, r3}
 674 0050 86E80F00 		stmia	r6, {r0, r1, r2, r3}
 675              	.L194:
 676              		.loc 1 288 0 is_stmt 0 discriminator 2
 677 0054 FFF7FEFF 		bl	USBUART_1_CDCIsReady
 678              	.LVL47:
 679 0058 0028     		cmp	r0, #0
 680 005a FBD0     		beq	.L194
 681              		.loc 1 288 0 discriminator 3
 682 005c 3046     		mov	r0, r6
 683 005e FFF7FEFF 		bl	USBUART_1_PutString
 684              	.LVL48:
 685              	.LBE167:
 289:.\main.c      **** }
 686              		.loc 1 289 0 is_stmt 1 discriminator 3
 687 0062 0DF2E44D 		addw	sp, sp, #1252
 688              		.cfi_remember_state
 689              		.cfi_def_cfa_offset 36
 690              		@ sp needed
 691 0066 BDE8F08F 		pop	{r4, r5, r6, r7, r8, r9, r10, fp, pc}
 692              	.LVL49:
 693              	.L352:
 694              		.cfi_restore_state
 114:.\main.c      **** 		dbgprint("SD-CARD mount ERROR!! nRes=");
 695              		.loc 1 114 0
 696 006a ACA8     		add	r0, sp, #688
 697 006c 1E49     		ldr	r1, .L382+12
 698 006e 0122     		movs	r2, #1
 699 0070 FFF7FEFF 		bl	f_mount
 700              	.LVL50:
 701              	.LBB168:
 115:.\main.c      **** 		switch(nRes) {    //reasons...
 702              		.loc 1 115 0
 703 0074 22AF     		add	r7, sp, #136
 704              	.LBE168:
 114:.\main.c      **** 		dbgprint("SD-CARD mount ERROR!! nRes=");
ARM GAS  C:\Users\honet\AppData\Local\Temp\cc6gsi1c.s 			page 19


 705              		.loc 1 114 0
 706 0076 0446     		mov	r4, r0
 707              	.LVL51:
 708 0078 0028     		cmp	r0, #0
 709 007a 39D0     		beq	.L113
 710              	.LBB169:
 115:.\main.c      **** 		switch(nRes) {    //reasons...
 711              		.loc 1 115 0
 712 007c 3D46     		mov	r5, r7
 713 007e 1B4E     		ldr	r6, .L382+16
 714 0080 0FCE     		ldmia	r6!, {r0, r1, r2, r3}
 715              	.LVL52:
 716 0082 0FC5     		stmia	r5!, {r0, r1, r2, r3}
 717 0084 96E80700 		ldmia	r6, {r0, r1, r2}
 718 0088 85E80700 		stmia	r5, {r0, r1, r2}
 719              	.L114:
 115:.\main.c      **** 		switch(nRes) {    //reasons...
 720              		.loc 1 115 0 is_stmt 0 discriminator 2
 721 008c FFF7FEFF 		bl	USBUART_1_CDCIsReady
 722              	.LVL53:
 723 0090 0028     		cmp	r0, #0
 724 0092 FBD0     		beq	.L114
 115:.\main.c      **** 		switch(nRes) {    //reasons...
 725              		.loc 1 115 0 discriminator 3
 726 0094 3846     		mov	r0, r7
 727              	.LBE169:
 116:.\main.c      **** 		case FR_INVALID_DRIVE:	dbgprint("FR_INVALID_DRIVE\n"); break;
 728              		.loc 1 116 0 is_stmt 1 discriminator 3
 729 0096 013C     		subs	r4, r4, #1
 730              	.LBB170:
 115:.\main.c      **** 		switch(nRes) {    //reasons...
 731              		.loc 1 115 0 discriminator 3
 732 0098 FFF7FEFF 		bl	USBUART_1_PutString
 733              	.LVL54:
 734              	.LBE170:
 116:.\main.c      **** 		case FR_INVALID_DRIVE:	dbgprint("FR_INVALID_DRIVE\n"); break;
 735              		.loc 1 116 0 discriminator 3
 736 009c 0C2C     		cmp	r4, #12
 737 009e D1D8     		bhi	.L347
 738 00a0 01A3     		adr	r3, .L116
 739 00a2 53F824F0 		ldr	pc, [r3, r4, lsl #2]
 740 00a6 00BF     		.p2align 2
 741              	.L116:
 742 00a8 05060000 		.word	.L115+1
 743 00ac 45000000 		.word	.L347+1
 744 00b0 2F060000 		.word	.L117+1
 745 00b4 45000000 		.word	.L347+1
 746 00b8 45000000 		.word	.L347+1
 747 00bc 45000000 		.word	.L347+1
 748 00c0 45000000 		.word	.L347+1
 749 00c4 45000000 		.word	.L347+1
 750 00c8 45000000 		.word	.L347+1
 751 00cc 45000000 		.word	.L347+1
 752 00d0 19060000 		.word	.L118+1
 753 00d4 45000000 		.word	.L347+1
 754 00d8 E7050000 		.word	.L119+1
 755              		.p2align 1
ARM GAS  C:\Users\honet\AppData\Local\Temp\cc6gsi1c.s 			page 20


 756              	.L383:
 757              		.align	2
 758              	.L382:
 759 00dc 50010000 		.word	.LC22
 760 00e0 64010000 		.word	.LC23
 761 00e4 A0030000 		.word	.LC54
 762 00e8 7C010000 		.word	.LC24
 763 00ec 80010000 		.word	.LC25
 764              	.LVL55:
 765              	.L113:
 766              	.LBB171:
 126:.\main.c      **** 		switch(FileSys.fs_type) { //In case filesys type is of interest
 767              		.loc 1 126 0
 768 00f0 3C46     		mov	r4, r7
 769 00f2 C74D     		ldr	r5, .L384
 770 00f4 0FCD     		ldmia	r5!, {r0, r1, r2, r3}
 771              	.LVL56:
 772 00f6 0FC4     		stmia	r4!, {r0, r1, r2, r3}
 773 00f8 95E80700 		ldmia	r5, {r0, r1, r2}
 774 00fc 03C4     		stmia	r4!, {r0, r1}
 775 00fe 2270     		strb	r2, [r4]
 776              	.L124:
 126:.\main.c      **** 		switch(FileSys.fs_type) { //In case filesys type is of interest
 777              		.loc 1 126 0 is_stmt 0 discriminator 2
 778 0100 FFF7FEFF 		bl	USBUART_1_CDCIsReady
 779              	.LVL57:
 780 0104 0028     		cmp	r0, #0
 781 0106 FBD0     		beq	.L124
 126:.\main.c      **** 		switch(FileSys.fs_type) { //In case filesys type is of interest
 782              		.loc 1 126 0 discriminator 3
 783 0108 3846     		mov	r0, r7
 784 010a FFF7FEFF 		bl	USBUART_1_PutString
 785              	.LVL58:
 786              	.LBE171:
 127:.\main.c      **** 		case FS_FAT12:	dbgprint("FAT12\n"); break;
 787              		.loc 1 127 0 is_stmt 1 discriminator 3
 788 010e 9DF8B032 		ldrb	r3, [sp, #688]	@ zero_extendqisi2
 789 0112 022B     		cmp	r3, #2
 790 0114 00F07883 		beq	.L126
 791 0118 032B     		cmp	r3, #3
 792 011a 00F06783 		beq	.L127
 793 011e 012B     		cmp	r3, #1
 794 0120 00F05683 		beq	.L353
 795              	.LBB172:
 131:.\main.c      **** 		}
 796              		.loc 1 131 0
 797 0124 3B46     		mov	r3, r7
 798 0126 BB4A     		ldr	r2, .L384+4
 799 0128 07CA     		ldmia	r2, {r0, r1, r2}
 800 012a 03C3     		stmia	r3!, {r0, r1}
 801 012c 1A70     		strb	r2, [r3]
 802              	.L133:
 131:.\main.c      **** 		}
 803              		.loc 1 131 0 is_stmt 0 discriminator 2
 804 012e FFF7FEFF 		bl	USBUART_1_CDCIsReady
 805              	.LVL59:
 806 0132 0028     		cmp	r0, #0
ARM GAS  C:\Users\honet\AppData\Local\Temp\cc6gsi1c.s 			page 21


 807 0134 FBD0     		beq	.L133
 808              	.L343:
 809              	.LBE172:
 810              	.LBB173:
 137:.\main.c      ****     CyDelay(500);
 811              		.loc 1 137 0 is_stmt 1 discriminator 3
 812 0136 3C46     		mov	r4, r7
 813 0138 B74D     		ldr	r5, .L384+8
 814              	.LBE173:
 815              	.LBB174:
 131:.\main.c      **** 		}
 816              		.loc 1 131 0 discriminator 3
 817 013a 3846     		mov	r0, r7
 818 013c FFF7FEFF 		bl	USBUART_1_PutString
 819              	.LVL60:
 820              	.LBE174:
 821              	.LBB175:
 137:.\main.c      ****     CyDelay(500);
 822              		.loc 1 137 0 discriminator 3
 823 0140 0FCD     		ldmia	r5!, {r0, r1, r2, r3}
 824 0142 0FC4     		stmia	r4!, {r0, r1, r2, r3}
 825 0144 95E80700 		ldmia	r5, {r0, r1, r2}
 826 0148 03C4     		stmia	r4!, {r0, r1}
 827 014a 2270     		strb	r2, [r4]
 828              	.L134:
 137:.\main.c      ****     CyDelay(500);
 829              		.loc 1 137 0 is_stmt 0 discriminator 2
 830 014c FFF7FEFF 		bl	USBUART_1_CDCIsReady
 831              	.LVL61:
 832 0150 0028     		cmp	r0, #0
 833 0152 FBD0     		beq	.L134
 137:.\main.c      ****     CyDelay(500);
 834              		.loc 1 137 0 discriminator 3
 835 0154 3846     		mov	r0, r7
 836 0156 FFF7FEFF 		bl	USBUART_1_PutString
 837              	.LVL62:
 838              	.LBE175:
 138:.\main.c      **** 	SDSPI_SetDMAMode(0);
 839              		.loc 1 138 0 is_stmt 1 discriminator 3
 840 015a 4FF4FA70 		mov	r0, #500
 841 015e FFF7FEFF 		bl	CyDelay
 842              	.LVL63:
 139:.\main.c      **** 
 843              		.loc 1 139 0 discriminator 3
 844 0162 0020     		movs	r0, #0
 845 0164 FFF7FEFF 		bl	SDSPI_SetDMAMode
 846              	.LVL64:
 142:.\main.c      **** 	chkres("f_open", res);
 847              		.loc 1 142 0 discriminator 3
 848 0168 AC49     		ldr	r1, .L384+12
 849 016a AD48     		ldr	r0, .L384+16
 850 016c 0A22     		movs	r2, #10
 851 016e FFF7FEFF 		bl	f_open
 852              	.LVL65:
 853              	.LBB176:
 854              	.LBB177:
  65:.\main.c      **** 		dbgprint("%s ERR! res=", func);
ARM GAS  C:\Users\honet\AppData\Local\Temp\cc6gsi1c.s 			page 22


 855              		.loc 1 65 0 discriminator 3
 856 0172 0146     		mov	r1, r0
 857 0174 0028     		cmp	r0, #0
 858 0176 40F03282 		bne	.L354
 859              	.LVL66:
 860              	.LBE177:
 861              	.LBE176:
 862              	.LBB179:
 863              	.LBB180:
 146:.\main.c      **** 
 864              		.loc 1 146 0
 865 017a 3C46     		mov	r4, r7
 866 017c A94B     		ldr	r3, .L384+20
 867 017e 0FCB     		ldmia	r3, {r0, r1, r2, r3}
 868              	.LVL67:
 869 0180 07C4     		stmia	r4!, {r0, r1, r2}
 870 0182 1A0C     		lsrs	r2, r3, #16
 871 0184 24F8023B 		strh	r3, [r4], #2	@ movhi
 872 0188 2270     		strb	r2, [r4]
 873              	.L136:
 146:.\main.c      **** 
 874              		.loc 1 146 0 is_stmt 0 discriminator 2
 875 018a FFF7FEFF 		bl	USBUART_1_CDCIsReady
 876              	.LVL68:
 877 018e 0028     		cmp	r0, #0
 878 0190 FBD0     		beq	.L136
 146:.\main.c      **** 
 879              		.loc 1 146 0 discriminator 3
 880 0192 3846     		mov	r0, r7
 881 0194 FFF7FEFF 		bl	USBUART_1_PutString
 882              	.LVL69:
 883              	.LBE180:
 884 0198 A249     		ldr	r1, .L384+20
 885 019a A148     		ldr	r0, .L384+16
 886 019c 0E22     		movs	r2, #14
 887 019e 3B46     		mov	r3, r7
 888 01a0 FFF7FEFF 		bl	f_write
 889              	.LVL70:
 890              	.LBB181:
 891              	.LBB182:
  65:.\main.c      **** 		dbgprint("%s ERR! res=", func);
 892              		.loc 1 65 0 is_stmt 1 discriminator 3
 893 01a4 0146     		mov	r1, r0
 894 01a6 0028     		cmp	r0, #0
 895 01a8 40F04B82 		bne	.L355
 896              	.LVL71:
 897              	.L137:
 898              	.LBE182:
 899              	.LBE181:
 900 01ac 9E4D     		ldr	r5, .L384+24
 901 01ae 0024     		movs	r4, #0
 902              	.LVL72:
 903              	.L138:
 904              	.LBE179:
 905              	.LBB185:
 150:.\main.c      **** 	}
 906              		.loc 1 150 0 discriminator 3
ARM GAS  C:\Users\honet\AppData\Local\Temp\cc6gsi1c.s 			page 23


 907 01b0 2046     		mov	r0, r4
 908 01b2 FFF7FEFF 		bl	__aeabi_i2d
 909              	.LVL73:
 910 01b6 0246     		mov	r2, r0
 911 01b8 0B46     		mov	r3, r1
 912 01ba FFF7FEFF 		bl	__aeabi_dmul
 913              	.LVL74:
 149:.\main.c      **** 		vals[i] = (double)i*i;
 914              		.loc 1 149 0 discriminator 3
 915 01be 0134     		adds	r4, r4, #1
 916              	.LVL75:
 917 01c0 B4F5805F 		cmp	r4, #4096
 150:.\main.c      **** 	}
 918              		.loc 1 150 0 discriminator 3
 919 01c4 E5E80201 		strd	r0, [r5], #8
 149:.\main.c      **** 		vals[i] = (double)i*i;
 920              		.loc 1 149 0 discriminator 3
 921 01c8 F2D1     		bne	.L138
 922              	.LVL76:
 923              	.LBE185:
 924              	.LBB186:
 925              	.LBB187:
 158:.\main.c      **** 
 926              		.loc 1 158 0
 927 01ca 3846     		mov	r0, r7
 928 01cc 9749     		ldr	r1, .L384+28
 929 01ce 4FF40042 		mov	r2, #32768
 930 01d2 FFF7FEFF 		bl	sprintf
 931              	.LVL77:
 932              	.L139:
 158:.\main.c      **** 
 933              		.loc 1 158 0 is_stmt 0 discriminator 2
 934 01d6 FFF7FEFF 		bl	USBUART_1_CDCIsReady
 935              	.LVL78:
 936 01da 0028     		cmp	r0, #0
 937 01dc FBD0     		beq	.L139
 158:.\main.c      **** 
 938              		.loc 1 158 0 discriminator 3
 939 01de 3846     		mov	r0, r7
 940 01e0 FFF7FEFF 		bl	USBUART_1_PutString
 941              	.LVL79:
 942              	.LBE187:
 943 01e4 9149     		ldr	r1, .L384+28
 944 01e6 8E48     		ldr	r0, .L384+16
 945 01e8 2222     		movs	r2, #34
 946 01ea 3B46     		mov	r3, r7
 947 01ec FFF7FEFF 		bl	f_write
 948              	.LVL80:
 949              	.LBB188:
 950              	.LBB189:
  65:.\main.c      **** 		dbgprint("%s ERR! res=", func);
 951              		.loc 1 65 0 is_stmt 1 discriminator 3
 952 01f0 0146     		mov	r1, r0
 953 01f2 0028     		cmp	r0, #0
 954 01f4 40F02D82 		bne	.L356
 955              	.LVL81:
 956              	.L140:
ARM GAS  C:\Users\honet\AppData\Local\Temp\cc6gsi1c.s 			page 24


 957              	.LBE189:
 958              	.LBE188:
 959              	.LBE186:
 161:.\main.c      **** 	FIL BinFile;
 960              		.loc 1 161 0 discriminator 3
 961 01f8 DFF85492 		ldr	r9, .L384+64
 163:.\main.c      **** 	chkres("f_open", res);
 962              		.loc 1 163 0 discriminator 3
 963 01fc 8C49     		ldr	r1, .L384+32
 964 01fe 3846     		mov	r0, r7
 965 0200 0A22     		movs	r2, #10
 161:.\main.c      **** 	FIL BinFile;
 966              		.loc 1 161 0 discriminator 3
 967 0202 D9F80040 		ldr	r4, [r9]
 968              	.LVL82:
 163:.\main.c      **** 	chkres("f_open", res);
 969              		.loc 1 163 0 discriminator 3
 970 0206 FFF7FEFF 		bl	f_open
 971              	.LVL83:
 972              	.LBB192:
 973              	.LBB193:
  65:.\main.c      **** 		dbgprint("%s ERR! res=", func);
 974              		.loc 1 65 0 discriminator 3
 975 020a 0146     		mov	r1, r0
 976 020c 0028     		cmp	r0, #0
 977 020e 40F01C82 		bne	.L357
 978              	.LBE193:
 979              	.LBE192:
 166:.\main.c      **** 		chkres("f_write", res);
 980              		.loc 1 166 0
 981 0212 8549     		ldr	r1, .L384+24
 982 0214 3846     		mov	r0, r7
 983              	.LVL84:
 984 0216 4FF40042 		mov	r2, #32768
 985 021a 6B46     		mov	r3, sp
 986 021c FFF7FEFF 		bl	f_write
 987              	.LVL85:
 988              	.LBB195:
 989              	.LBB196:
  65:.\main.c      **** 		dbgprint("%s ERR! res=", func);
 990              		.loc 1 65 0
 991 0220 0146     		mov	r1, r0
 992 0222 0028     		cmp	r0, #0
 993 0224 40F03783 		bne	.L358
 994              	.LVL86:
 995              	.L196:
 996              	.LBE196:
 997              	.LBE195:
 168:.\main.c      **** 		chkres("f_close", res);
 998              		.loc 1 168 0
 999 0228 3846     		mov	r0, r7
 1000 022a FFF7FEFF 		bl	f_close
 1001              	.LVL87:
 1002              	.LBB198:
 1003              	.LBB199:
  65:.\main.c      **** 		dbgprint("%s ERR! res=", func);
 1004              		.loc 1 65 0
ARM GAS  C:\Users\honet\AppData\Local\Temp\cc6gsi1c.s 			page 25


 1005 022e 0146     		mov	r1, r0
 1006 0230 0028     		cmp	r0, #0
 1007 0232 40F02C83 		bne	.L359
 1008              	.LVL88:
 1009              	.L142:
 1010              	.LBE199:
 1011              	.LBE198:
 173:.\main.c      **** 	dumpmsg("Took %lu ms\n", nTime);
 1012              		.loc 1 173 0
 1013 0236 D9F80030 		ldr	r3, [r9]
 1014              	.LBB201:
 1015              	.LBB202:
 174:.\main.c      **** 
 1016              		.loc 1 174 0
 1017 023a 02AE     		add	r6, sp, #8
 1018              	.LBE202:
 1019              	.LBE201:
 173:.\main.c      **** 	dumpmsg("Took %lu ms\n", nTime);
 1020              		.loc 1 173 0
 1021 023c 1C1B     		subs	r4, r3, r4
 1022              	.LVL89:
 1023              	.LBB208:
 1024              	.LBB203:
 174:.\main.c      **** 
 1025              		.loc 1 174 0
 1026 023e 2246     		mov	r2, r4
 1027 0240 3046     		mov	r0, r6
 1028 0242 7C49     		ldr	r1, .L384+36
 1029 0244 FFF7FEFF 		bl	sprintf
 1030              	.LVL90:
 1031              	.L143:
 174:.\main.c      **** 
 1032              		.loc 1 174 0 is_stmt 0 discriminator 2
 1033 0248 FFF7FEFF 		bl	USBUART_1_CDCIsReady
 1034              	.LVL91:
 1035 024c 0028     		cmp	r0, #0
 1036 024e FBD0     		beq	.L143
 174:.\main.c      **** 
 1037              		.loc 1 174 0 discriminator 3
 1038 0250 3046     		mov	r0, r6
 1039 0252 FFF7FEFF 		bl	USBUART_1_PutString
 1040              	.LVL92:
 1041              	.LBE203:
 1042 0256 7749     		ldr	r1, .L384+36
 1043 0258 7148     		ldr	r0, .L384+16
 1044 025a 0C22     		movs	r2, #12
 1045 025c 3346     		mov	r3, r6
 1046 025e FFF7FEFF 		bl	f_write
 1047              	.LVL93:
 1048              	.LBB204:
 1049              	.LBB205:
  65:.\main.c      **** 		dbgprint("%s ERR! res=", func);
 1050              		.loc 1 65 0 is_stmt 1 discriminator 3
 1051 0262 0146     		mov	r1, r0
 1052 0264 0028     		cmp	r0, #0
 1053 0266 40F00E83 		bne	.L360
 1054              	.LVL94:
ARM GAS  C:\Users\honet\AppData\Local\Temp\cc6gsi1c.s 			page 26


 1055              	.L144:
 1056              	.LBE205:
 1057              	.LBE204:
 1058              	.LBE208:
 176:.\main.c      **** 	dumpmsg( "Rate %lu kbps\n\n", kbps);
 1059              		.loc 1 176 0 discriminator 3
 1060 026a 4FF48022 		mov	r2, #262144
 1061              	.LBB209:
 1062              	.LBB210:
 177:.\main.c      **** 
 1063              		.loc 1 177 0 discriminator 3
 1064 026e B2FBF4F2 		udiv	r2, r2, r4
 1065              	.LVL95:
 1066 0272 3046     		mov	r0, r6
 1067 0274 7049     		ldr	r1, .L384+40
 1068 0276 FFF7FEFF 		bl	sprintf
 1069              	.LVL96:
 1070              	.L145:
 177:.\main.c      **** 
 1071              		.loc 1 177 0 is_stmt 0 discriminator 2
 1072 027a FFF7FEFF 		bl	USBUART_1_CDCIsReady
 1073              	.LVL97:
 1074 027e 0028     		cmp	r0, #0
 1075 0280 FBD0     		beq	.L145
 177:.\main.c      **** 
 1076              		.loc 1 177 0 discriminator 3
 1077 0282 3046     		mov	r0, r6
 1078 0284 FFF7FEFF 		bl	USBUART_1_PutString
 1079              	.LVL98:
 1080              	.LBE210:
 1081 0288 6B49     		ldr	r1, .L384+40
 1082 028a 6548     		ldr	r0, .L384+16
 1083 028c 0F22     		movs	r2, #15
 1084 028e 3346     		mov	r3, r6
 1085 0290 FFF7FEFF 		bl	f_write
 1086              	.LVL99:
 1087              	.LBB211:
 1088              	.LBB212:
  65:.\main.c      **** 		dbgprint("%s ERR! res=", func);
 1089              		.loc 1 65 0 is_stmt 1 discriminator 3
 1090 0294 0146     		mov	r1, r0
 1091 0296 0028     		cmp	r0, #0
 1092 0298 40F0F182 		bne	.L361
 1093              	.LVL100:
 1094              	.L146:
 1095              	.LBE212:
 1096              	.LBE211:
 1097              	.LBE209:
 1098              	.LBB215:
 1099              	.LBB216:
 182:.\main.c      **** 
 1100              		.loc 1 182 0 discriminator 3
 1101 029c 3046     		mov	r0, r6
 1102 029e 6749     		ldr	r1, .L384+44
 1103 02a0 4FF40042 		mov	r2, #32768
 1104 02a4 FFF7FEFF 		bl	sprintf
 1105              	.LVL101:
ARM GAS  C:\Users\honet\AppData\Local\Temp\cc6gsi1c.s 			page 27


 1106              	.L147:
 182:.\main.c      **** 
 1107              		.loc 1 182 0 is_stmt 0 discriminator 2
 1108 02a8 FFF7FEFF 		bl	USBUART_1_CDCIsReady
 1109              	.LVL102:
 1110 02ac 0028     		cmp	r0, #0
 1111 02ae FBD0     		beq	.L147
 182:.\main.c      **** 
 1112              		.loc 1 182 0 discriminator 3
 1113 02b0 3046     		mov	r0, r6
 1114 02b2 FFF7FEFF 		bl	USBUART_1_PutString
 1115              	.LVL103:
 1116              	.LBE216:
 1117 02b6 6149     		ldr	r1, .L384+44
 1118 02b8 5948     		ldr	r0, .L384+16
 1119 02ba 2422     		movs	r2, #36
 1120 02bc 3346     		mov	r3, r6
 1121 02be FFF7FEFF 		bl	f_write
 1122              	.LVL104:
 1123              	.LBB217:
 1124              	.LBB218:
  65:.\main.c      **** 		dbgprint("%s ERR! res=", func);
 1125              		.loc 1 65 0 is_stmt 1 discriminator 3
 1126 02c2 0146     		mov	r1, r0
 1127 02c4 0028     		cmp	r0, #0
 1128 02c6 40F0D682 		bne	.L362
 1129              	.LVL105:
 1130              	.L148:
 1131              	.LBE218:
 1132              	.LBE217:
 1133              	.LBE215:
 184:.\main.c      **** 
 1134              		.loc 1 184 0 discriminator 3
 1135 02ca 0021     		movs	r1, #0
 1136 02cc 4FF40042 		mov	r2, #32768
 1137 02d0 5548     		ldr	r0, .L384+24
 1138 02d2 FFF7FEFF 		bl	memset
 1139              	.LVL106:
 189:.\main.c      **** 	chkres("f_open", res);
 1140              		.loc 1 189 0 discriminator 3
 1141 02d6 5649     		ldr	r1, .L384+32
 1142 02d8 3846     		mov	r0, r7
 1143 02da 0122     		movs	r2, #1
 187:.\main.c      **** 
 1144              		.loc 1 187 0 discriminator 3
 1145 02dc D9F80040 		ldr	r4, [r9]
 1146              	.LVL107:
 189:.\main.c      **** 	chkres("f_open", res);
 1147              		.loc 1 189 0 discriminator 3
 1148 02e0 FFF7FEFF 		bl	f_open
 1149              	.LVL108:
 1150              	.LBB221:
 1151              	.LBB222:
  65:.\main.c      **** 		dbgprint("%s ERR! res=", func);
 1152              		.loc 1 65 0 discriminator 3
 1153 02e4 0146     		mov	r1, r0
 1154 02e6 0028     		cmp	r0, #0
ARM GAS  C:\Users\honet\AppData\Local\Temp\cc6gsi1c.s 			page 28


 1155 02e8 40F0C182 		bne	.L363
 1156              	.LBE222:
 1157              	.LBE221:
 192:.\main.c      **** 		chkres("f_read", res);
 1158              		.loc 1 192 0
 1159 02ec 4E49     		ldr	r1, .L384+24
 1160 02ee 3846     		mov	r0, r7
 1161              	.LVL109:
 1162 02f0 4FF40042 		mov	r2, #32768
 1163 02f4 01AB     		add	r3, sp, #4
 1164 02f6 FFF7FEFF 		bl	f_read
 1165              	.LVL110:
 1166              	.LBB224:
 1167              	.LBB225:
  65:.\main.c      **** 		dbgprint("%s ERR! res=", func);
 1168              		.loc 1 65 0
 1169 02fa 0146     		mov	r1, r0
 1170 02fc 0028     		cmp	r0, #0
 1171 02fe 40F0D282 		bne	.L364
 1172              	.LVL111:
 1173              	.L198:
 1174              	.LBE225:
 1175              	.LBE224:
 194:.\main.c      **** 		chkres("f_close", res);
 1176              		.loc 1 194 0
 1177 0302 3846     		mov	r0, r7
 1178 0304 FFF7FEFF 		bl	f_close
 1179              	.LVL112:
 1180              	.LBB227:
 1181              	.LBB228:
  65:.\main.c      **** 		dbgprint("%s ERR! res=", func);
 1182              		.loc 1 65 0
 1183 0308 0146     		mov	r1, r0
 1184 030a 0028     		cmp	r0, #0
 1185 030c 40F0C782 		bne	.L365
 1186              	.LVL113:
 1187              	.L150:
 1188              	.LBE228:
 1189              	.LBE227:
 199:.\main.c      **** 	dumpmsg("Took %lu ms\nVerifying...", nTime);
 1190              		.loc 1 199 0
 1191 0310 D9F80030 		ldr	r3, [r9]
 1192              	.LBB230:
 1193              	.LBB231:
 200:.\main.c      **** 
 1194              		.loc 1 200 0
 1195 0314 3046     		mov	r0, r6
 1196              	.LBE231:
 1197              	.LBE230:
 199:.\main.c      **** 	dumpmsg("Took %lu ms\nVerifying...", nTime);
 1198              		.loc 1 199 0
 1199 0316 C4EB030A 		rsb	r10, r4, r3
 1200              	.LVL114:
 1201              	.LBB237:
 1202              	.LBB232:
 200:.\main.c      **** 
 1203              		.loc 1 200 0
ARM GAS  C:\Users\honet\AppData\Local\Temp\cc6gsi1c.s 			page 29


 1204 031a 5246     		mov	r2, r10
 1205 031c 4849     		ldr	r1, .L384+48
 1206 031e FFF7FEFF 		bl	sprintf
 1207              	.LVL115:
 1208              	.L151:
 200:.\main.c      **** 
 1209              		.loc 1 200 0 is_stmt 0 discriminator 2
 1210 0322 FFF7FEFF 		bl	USBUART_1_CDCIsReady
 1211              	.LVL116:
 1212 0326 0028     		cmp	r0, #0
 1213 0328 FBD0     		beq	.L151
 200:.\main.c      **** 
 1214              		.loc 1 200 0 discriminator 3
 1215 032a 3046     		mov	r0, r6
 1216 032c FFF7FEFF 		bl	USBUART_1_PutString
 1217              	.LVL117:
 1218              	.LBE232:
 1219 0330 4349     		ldr	r1, .L384+48
 1220 0332 3B48     		ldr	r0, .L384+16
 1221 0334 1822     		movs	r2, #24
 1222 0336 3346     		mov	r3, r6
 1223 0338 FFF7FEFF 		bl	f_write
 1224              	.LVL118:
 1225              	.LBB233:
 1226              	.LBB234:
  65:.\main.c      **** 		dbgprint("%s ERR! res=", func);
 1227              		.loc 1 65 0 is_stmt 1 discriminator 3
 1228 033c 0146     		mov	r1, r0
 1229 033e 0028     		cmp	r0, #0
 1230 0340 40F08D82 		bne	.L366
 1231              	.LVL119:
 1232              	.L152:
 1233              	.LBE234:
 1234              	.LBE233:
 1235              	.LBE237:
 1236              	.LBB238:
 203:.\main.c      **** 		if(vals[(int)i] != i*i) bVerifyFail = 1;
 1237              		.loc 1 203 0 discriminator 3
 1238 0344 0024     		movs	r4, #0
 1239              	.LVL120:
 1240              	.LBE238:
 202:.\main.c      **** 	for(int i = 0; i < 500; i++) {
 1241              		.loc 1 202 0 discriminator 3
 1242 0346 2546     		mov	r5, r4
 1243              	.LBB239:
 1244 0348 DFF8DC80 		ldr	r8, .L384+24
 1245              	.LVL121:
 1246              	.L156:
 1247              	.LBE239:
 1248              	.LBB240:
 204:.\main.c      **** 	}
 1249              		.loc 1 204 0
 1250 034c 04FB04F0 		mul	r0, r4, r4
 1251 0350 FFF7FEFF 		bl	__aeabi_i2d
 1252              	.LVL122:
 1253 0354 0246     		mov	r2, r0
 1254 0356 0B46     		mov	r3, r1
ARM GAS  C:\Users\honet\AppData\Local\Temp\cc6gsi1c.s 			page 30


 1255 0358 D8E90001 		ldrd	r0, [r8]
 1256 035c FFF7FEFF 		bl	__aeabi_dcmpeq
 1257              	.LVL123:
 1258 0360 08B9     		cbnz	r0, .L154
 1259 0362 4FF00105 		mov	r5, #1
 1260              	.L154:
 203:.\main.c      **** 		if(vals[(int)i] != i*i) bVerifyFail = 1;
 1261              		.loc 1 203 0
 1262 0366 0134     		adds	r4, r4, #1
 1263 0368 B4F5FA7F 		cmp	r4, #500
 1264 036c EDB2     		uxtb	r5, r5
 1265              	.LVL124:
 1266 036e 08F10808 		add	r8, r8, #8
 1267 0372 EBD1     		bne	.L156
 1268              	.LBE240:
 207:.\main.c      **** 		dumpmsg("FAIL :O\n");
 1269              		.loc 1 207 0
 1270 0374 002D     		cmp	r5, #0
 1271 0376 00F05582 		beq	.L157
 1272              	.LVL125:
 1273              	.LBB241:
 1274              	.LBB242:
 208:.\main.c      **** 	else
 1275              		.loc 1 208 0
 1276 037a 3346     		mov	r3, r6
 1277 037c 314A     		ldr	r2, .L384+52
 1278 037e 07CA     		ldmia	r2, {r0, r1, r2}
 1279 0380 03C3     		stmia	r3!, {r0, r1}
 1280 0382 1A70     		strb	r2, [r3]
 1281              	.L158:
 208:.\main.c      **** 	else
 1282              		.loc 1 208 0 is_stmt 0 discriminator 2
 1283 0384 FFF7FEFF 		bl	USBUART_1_CDCIsReady
 1284              	.LVL126:
 1285 0388 0028     		cmp	r0, #0
 1286 038a FBD0     		beq	.L158
 208:.\main.c      **** 	else
 1287              		.loc 1 208 0 discriminator 3
 1288 038c 3046     		mov	r0, r6
 1289 038e FFF7FEFF 		bl	USBUART_1_PutString
 1290              	.LVL127:
 1291              	.LBE242:
 1292 0392 2C49     		ldr	r1, .L384+52
 1293 0394 2248     		ldr	r0, .L384+16
 1294 0396 0822     		movs	r2, #8
 1295 0398 3346     		mov	r3, r6
 1296 039a FFF7FEFF 		bl	f_write
 1297              	.LVL128:
 1298              	.LBB243:
 1299              	.LBB244:
  65:.\main.c      **** 		dbgprint("%s ERR! res=", func);
 1300              		.loc 1 65 0 is_stmt 1 discriminator 3
 1301 039e 0146     		mov	r1, r0
 1302 03a0 0028     		cmp	r0, #0
 1303 03a2 40F05882 		bne	.L344
 1304              	.LVL129:
 1305              	.L160:
ARM GAS  C:\Users\honet\AppData\Local\Temp\cc6gsi1c.s 			page 31


 1306              	.LBE244:
 1307              	.LBE243:
 1308              	.LBE241:
 212:.\main.c      **** 	dumpmsg("Rate %lu kbps\n\n", kbps);
 1309              		.loc 1 212 0
 1310 03a6 4FF48022 		mov	r2, #262144
 1311              	.LBB245:
 1312              	.LBB246:
 213:.\main.c      **** 
 1313              		.loc 1 213 0
 1314 03aa B2FBFAF2 		udiv	r2, r2, r10
 1315              	.LVL130:
 1316 03ae 3046     		mov	r0, r6
 1317 03b0 2149     		ldr	r1, .L384+40
 1318 03b2 FFF7FEFF 		bl	sprintf
 1319              	.LVL131:
 1320              	.L163:
 213:.\main.c      **** 
 1321              		.loc 1 213 0 is_stmt 0 discriminator 2
 1322 03b6 FFF7FEFF 		bl	USBUART_1_CDCIsReady
 1323              	.LVL132:
 1324 03ba 0028     		cmp	r0, #0
 1325 03bc FBD0     		beq	.L163
 213:.\main.c      **** 
 1326              		.loc 1 213 0 discriminator 3
 1327 03be 3046     		mov	r0, r6
 1328 03c0 FFF7FEFF 		bl	USBUART_1_PutString
 1329              	.LVL133:
 1330              	.LBE246:
 1331 03c4 1C49     		ldr	r1, .L384+40
 1332 03c6 1648     		ldr	r0, .L384+16
 1333 03c8 0F22     		movs	r2, #15
 1334 03ca 3346     		mov	r3, r6
 1335 03cc FFF7FEFF 		bl	f_write
 1336              	.LVL134:
 1337              	.LBB247:
 1338              	.LBB248:
  65:.\main.c      **** 		dbgprint("%s ERR! res=", func);
 1339              		.loc 1 65 0 is_stmt 1 discriminator 3
 1340 03d0 0146     		mov	r1, r0
 1341 03d2 0028     		cmp	r0, #0
 1342 03d4 40F04782 		bne	.L367
 1343              	.LVL135:
 1344              	.L164:
 1345              	.LBE248:
 1346              	.LBE247:
 1347              	.LBE245:
 1348              	.LBB251:
 216:.\main.c      **** 	//Now, enable DMA...
 1349              		.loc 1 216 0 discriminator 3
 1350 03d8 3446     		mov	r4, r6
 1351 03da 1B4D     		ldr	r5, .L384+56
 1352 03dc 0FCD     		ldmia	r5!, {r0, r1, r2, r3}
 1353 03de 0FC4     		stmia	r4!, {r0, r1, r2, r3}
 1354 03e0 95E80700 		ldmia	r5, {r0, r1, r2}
 1355 03e4 03C4     		stmia	r4!, {r0, r1}
 1356 03e6 2270     		strb	r2, [r4]
ARM GAS  C:\Users\honet\AppData\Local\Temp\cc6gsi1c.s 			page 32


 1357              	.L165:
 216:.\main.c      **** 	//Now, enable DMA...
 1358              		.loc 1 216 0 is_stmt 0 discriminator 2
 1359 03e8 FFF7FEFF 		bl	USBUART_1_CDCIsReady
 1360              	.LVL136:
 1361 03ec 0028     		cmp	r0, #0
 1362 03ee FBD0     		beq	.L165
 216:.\main.c      **** 	//Now, enable DMA...
 1363              		.loc 1 216 0 discriminator 3
 1364 03f0 3046     		mov	r0, r6
 1365 03f2 FFF7FEFF 		bl	USBUART_1_PutString
 1366              	.LVL137:
 1367              	.LBE251:
 218:.\main.c      ****     
 1368              		.loc 1 218 0 is_stmt 1 discriminator 3
 1369 03f6 0120     		movs	r0, #1
 1370 03f8 FFF7FEFF 		bl	SDSPI_SetDMAMode
 1371              	.LVL138:
 1372 03fc 4FF0140A 		mov	r10, #20
 1373              	.LVL139:
 1374              	.L192:
 1375              	.LBB252:
 1376              	.LBB253:
 1377              	.LBB254:
 223:.\main.c      **** 
 1378              		.loc 1 223 0
 1379 0400 3046     		mov	r0, r6
 1380 0402 1249     		ldr	r1, .L384+60
 1381 0404 4FF40042 		mov	r2, #32768
 1382 0408 FFF7FEFF 		bl	sprintf
 1383              	.LVL140:
 1384 040c 22E0     		b	.L385
 1385              	.L386:
 1386 040e 00BF     		.align	2
 1387              	.L384:
 1388 0410 E4010000 		.word	.LC30
 1389 0414 18020000 		.word	.LC34
 1390 0418 24020000 		.word	.LC35
 1391 041c 40020000 		.word	.LC36
 1392 0420 00000000 		.word	File
 1393 0424 54020000 		.word	.LC38
 1394 0428 00000000 		.word	buffer
 1395 042c 6C020000 		.word	.LC40
 1396 0430 90020000 		.word	.LC41
 1397 0434 A8020000 		.word	.LC43
 1398 0438 B8020000 		.word	.LC44
 1399 043c C8020000 		.word	.LC45
 1400 0440 F8020000 		.word	.LC47
 1401 0444 14030000 		.word	.LC48
 1402 0448 30030000 		.word	.LC50
 1403 044c 4C030000 		.word	.LC51
 1404 0450 00000000 		.word	.LANCHOR0
 1405              	.L385:
 1406              	.L166:
 223:.\main.c      **** 
 1407              		.loc 1 223 0 is_stmt 0 discriminator 2
 1408 0454 FFF7FEFF 		bl	USBUART_1_CDCIsReady
ARM GAS  C:\Users\honet\AppData\Local\Temp\cc6gsi1c.s 			page 33


 1409              	.LVL141:
 1410 0458 0028     		cmp	r0, #0
 1411 045a FBD0     		beq	.L166
 223:.\main.c      **** 
 1412              		.loc 1 223 0 discriminator 3
 1413 045c 3046     		mov	r0, r6
 1414 045e FFF7FEFF 		bl	USBUART_1_PutString
 1415              	.LVL142:
 1416              	.LBE254:
 1417 0462 BB48     		ldr	r0, .L387
 1418 0464 BB49     		ldr	r1, .L387+4
 1419 0466 1E22     		movs	r2, #30
 1420 0468 3346     		mov	r3, r6
 1421 046a FFF7FEFF 		bl	f_write
 1422              	.LVL143:
 1423              	.LBB255:
 1424              	.LBB256:
  65:.\main.c      **** 		dbgprint("%s ERR! res=", func);
 1425              		.loc 1 65 0 is_stmt 1 discriminator 3
 1426 046e 0028     		cmp	r0, #0
 1427 0470 40F06381 		bne	.L368
 1428              	.LVL144:
 1429              	.L167:
 1430              	.LBE256:
 1431              	.LBE255:
 1432              	.LBE253:
 227:.\main.c      **** 	chkres("f_open", res);
 1433              		.loc 1 227 0 discriminator 3
 1434 0474 3846     		mov	r0, r7
 1435 0476 B849     		ldr	r1, .L387+8
 1436 0478 0A22     		movs	r2, #10
 226:.\main.c      **** 	res = f_open(&BinFile, "//TESTDMA.bin", FA_CREATE_ALWAYS | FA_WRITE);
 1437              		.loc 1 226 0 discriminator 3
 1438 047a D9F80040 		ldr	r4, [r9]
 1439              	.LVL145:
 227:.\main.c      **** 	chkres("f_open", res);
 1440              		.loc 1 227 0 discriminator 3
 1441 047e FFF7FEFF 		bl	f_open
 1442              	.LVL146:
 1443              	.LBB259:
 1444              	.LBB260:
  65:.\main.c      **** 		dbgprint("%s ERR! res=", func);
 1445              		.loc 1 65 0 discriminator 3
 1446 0482 0028     		cmp	r0, #0
 1447 0484 40F05481 		bne	.L369
 1448              	.LBE260:
 1449              	.LBE259:
 230:.\main.c      **** 		chkres("f_write", res);
 1450              		.loc 1 230 0
 1451 0488 3846     		mov	r0, r7
 1452              	.LVL147:
 1453 048a B449     		ldr	r1, .L387+12
 1454 048c 4FF40042 		mov	r2, #32768
 1455 0490 6B46     		mov	r3, sp
 1456 0492 FFF7FEFF 		bl	f_write
 1457              	.LVL148:
 1458              	.LBB262:
ARM GAS  C:\Users\honet\AppData\Local\Temp\cc6gsi1c.s 			page 34


 1459              	.LBB263:
  65:.\main.c      **** 		dbgprint("%s ERR! res=", func);
 1460              		.loc 1 65 0
 1461 0496 0028     		cmp	r0, #0
 1462 0498 40F09581 		bne	.L370
 1463              	.LVL149:
 1464              	.L200:
 1465              	.LBE263:
 1466              	.LBE262:
 232:.\main.c      **** 		chkres("f_close", res);
 1467              		.loc 1 232 0
 1468 049c 3846     		mov	r0, r7
 1469 049e FFF7FEFF 		bl	f_close
 1470              	.LVL150:
 1471              	.LBB265:
 1472              	.LBB266:
  65:.\main.c      **** 		dbgprint("%s ERR! res=", func);
 1473              		.loc 1 65 0
 1474 04a2 0028     		cmp	r0, #0
 1475 04a4 40F08A81 		bne	.L371
 1476              	.LVL151:
 1477              	.L169:
 1478              	.LBE266:
 1479              	.LBE265:
 237:.\main.c      **** 	dumpmsg("Took %lu ms\n", nTime);
 1480              		.loc 1 237 0
 1481 04a8 D9F80030 		ldr	r3, [r9]
 1482              	.LBB268:
 1483              	.LBB269:
 238:.\main.c      **** 
 1484              		.loc 1 238 0
 1485 04ac 3046     		mov	r0, r6
 1486              	.LBE269:
 1487              	.LBE268:
 237:.\main.c      **** 	dumpmsg("Took %lu ms\n", nTime);
 1488              		.loc 1 237 0
 1489 04ae 1C1B     		subs	r4, r3, r4
 1490              	.LVL152:
 1491              	.LBB275:
 1492              	.LBB270:
 238:.\main.c      **** 
 1493              		.loc 1 238 0
 1494 04b0 2246     		mov	r2, r4
 1495 04b2 AB49     		ldr	r1, .L387+16
 1496 04b4 FFF7FEFF 		bl	sprintf
 1497              	.LVL153:
 1498              	.L170:
 238:.\main.c      **** 
 1499              		.loc 1 238 0 is_stmt 0 discriminator 2
 1500 04b8 FFF7FEFF 		bl	USBUART_1_CDCIsReady
 1501              	.LVL154:
 1502 04bc 0028     		cmp	r0, #0
 1503 04be FBD0     		beq	.L170
 238:.\main.c      **** 
 1504              		.loc 1 238 0 discriminator 3
 1505 04c0 3046     		mov	r0, r6
 1506 04c2 FFF7FEFF 		bl	USBUART_1_PutString
ARM GAS  C:\Users\honet\AppData\Local\Temp\cc6gsi1c.s 			page 35


 1507              	.LVL155:
 1508              	.LBE270:
 1509 04c6 A248     		ldr	r0, .L387
 1510 04c8 A549     		ldr	r1, .L387+16
 1511 04ca 0C22     		movs	r2, #12
 1512 04cc 3346     		mov	r3, r6
 1513 04ce FFF7FEFF 		bl	f_write
 1514              	.LVL156:
 1515              	.LBB271:
 1516              	.LBB272:
  65:.\main.c      **** 		dbgprint("%s ERR! res=", func);
 1517              		.loc 1 65 0 is_stmt 1 discriminator 3
 1518 04d2 0028     		cmp	r0, #0
 1519 04d4 40F02781 		bne	.L372
 1520              	.LVL157:
 1521              	.L171:
 1522              	.LBE272:
 1523              	.LBE271:
 1524              	.LBE275:
 240:.\main.c      **** 	dumpmsg("Rate %lu kbps\n\n", kbps);
 1525              		.loc 1 240 0 discriminator 3
 1526 04d8 4FF48022 		mov	r2, #262144
 1527              	.LBB276:
 1528              	.LBB277:
 241:.\main.c      **** 
 1529              		.loc 1 241 0 discriminator 3
 1530 04dc B2FBF4F2 		udiv	r2, r2, r4
 1531              	.LVL158:
 1532 04e0 3046     		mov	r0, r6
 1533 04e2 A049     		ldr	r1, .L387+20
 1534 04e4 FFF7FEFF 		bl	sprintf
 1535              	.LVL159:
 1536              	.L172:
 241:.\main.c      **** 
 1537              		.loc 1 241 0 is_stmt 0 discriminator 2
 1538 04e8 FFF7FEFF 		bl	USBUART_1_CDCIsReady
 1539              	.LVL160:
 1540 04ec 0028     		cmp	r0, #0
 1541 04ee FBD0     		beq	.L172
 241:.\main.c      **** 
 1542              		.loc 1 241 0 discriminator 3
 1543 04f0 3046     		mov	r0, r6
 1544 04f2 FFF7FEFF 		bl	USBUART_1_PutString
 1545              	.LVL161:
 1546              	.LBE277:
 1547 04f6 9648     		ldr	r0, .L387
 1548 04f8 9A49     		ldr	r1, .L387+20
 1549 04fa 0F22     		movs	r2, #15
 1550 04fc 3346     		mov	r3, r6
 1551 04fe FFF7FEFF 		bl	f_write
 1552              	.LVL162:
 1553              	.LBB278:
 1554              	.LBB279:
  65:.\main.c      **** 		dbgprint("%s ERR! res=", func);
 1555              		.loc 1 65 0 is_stmt 1 discriminator 3
 1556 0502 0028     		cmp	r0, #0
 1557 0504 40F00A81 		bne	.L373
ARM GAS  C:\Users\honet\AppData\Local\Temp\cc6gsi1c.s 			page 36


 1558              	.LVL163:
 1559              	.L173:
 1560              	.LBE279:
 1561              	.LBE278:
 1562              	.LBE276:
 1563              	.LBB282:
 1564              	.LBB283:
 246:.\main.c      **** 
 1565              		.loc 1 246 0 discriminator 3
 1566 0508 3046     		mov	r0, r6
 1567 050a 9749     		ldr	r1, .L387+24
 1568 050c 4FF40042 		mov	r2, #32768
 1569 0510 FFF7FEFF 		bl	sprintf
 1570              	.LVL164:
 1571              	.L174:
 246:.\main.c      **** 
 1572              		.loc 1 246 0 is_stmt 0 discriminator 2
 1573 0514 FFF7FEFF 		bl	USBUART_1_CDCIsReady
 1574              	.LVL165:
 1575 0518 0028     		cmp	r0, #0
 1576 051a FBD0     		beq	.L174
 246:.\main.c      **** 
 1577              		.loc 1 246 0 discriminator 3
 1578 051c 3046     		mov	r0, r6
 1579 051e FFF7FEFF 		bl	USBUART_1_PutString
 1580              	.LVL166:
 1581              	.LBE283:
 1582 0522 8B48     		ldr	r0, .L387
 1583 0524 9049     		ldr	r1, .L387+24
 1584 0526 2022     		movs	r2, #32
 1585 0528 3346     		mov	r3, r6
 1586 052a FFF7FEFF 		bl	f_write
 1587              	.LVL167:
 1588              	.LBB284:
 1589              	.LBB285:
  65:.\main.c      **** 		dbgprint("%s ERR! res=", func);
 1590              		.loc 1 65 0 is_stmt 1 discriminator 3
 1591 052e 0028     		cmp	r0, #0
 1592 0530 40F03581 		bne	.L374
 1593              	.LVL168:
 1594              	.L175:
 1595              	.LBE285:
 1596              	.LBE284:
 1597              	.LBE282:
 248:.\main.c      **** 
 1598              		.loc 1 248 0 discriminator 3
 1599 0534 0021     		movs	r1, #0
 1600 0536 4FF40042 		mov	r2, #32768
 1601 053a 8848     		ldr	r0, .L387+12
 1602 053c FFF7FEFF 		bl	memset
 1603              	.LVL169:
 253:.\main.c      **** 	chkres("f_open", res);
 1604              		.loc 1 253 0 discriminator 3
 1605 0540 3846     		mov	r0, r7
 1606 0542 8549     		ldr	r1, .L387+8
 1607 0544 0122     		movs	r2, #1
 251:.\main.c      **** 
ARM GAS  C:\Users\honet\AppData\Local\Temp\cc6gsi1c.s 			page 37


 1608              		.loc 1 251 0 discriminator 3
 1609 0546 D9F80040 		ldr	r4, [r9]
 1610              	.LVL170:
 253:.\main.c      **** 	chkres("f_open", res);
 1611              		.loc 1 253 0 discriminator 3
 1612 054a FFF7FEFF 		bl	f_open
 1613              	.LVL171:
 1614              	.LBB288:
 1615              	.LBB289:
  65:.\main.c      **** 		dbgprint("%s ERR! res=", func);
 1616              		.loc 1 65 0 discriminator 3
 1617 054e 0028     		cmp	r0, #0
 1618 0550 40F02081 		bne	.L375
 1619              	.LBE289:
 1620              	.LBE288:
 256:.\main.c      **** 		chkres("f_read", res);
 1621              		.loc 1 256 0
 1622 0554 3846     		mov	r0, r7
 1623              	.LVL172:
 1624 0556 8149     		ldr	r1, .L387+12
 1625 0558 4FF40042 		mov	r2, #32768
 1626 055c 01AB     		add	r3, sp, #4
 1627 055e FFF7FEFF 		bl	f_read
 1628              	.LVL173:
 1629              	.LBB291:
 1630              	.LBB292:
  65:.\main.c      **** 		dbgprint("%s ERR! res=", func);
 1631              		.loc 1 65 0
 1632 0562 0028     		cmp	r0, #0
 1633 0564 40F02581 		bne	.L376
 1634              	.LVL174:
 1635              	.L202:
 1636              	.LBE292:
 1637              	.LBE291:
 258:.\main.c      **** 		chkres("f_close", res);
 1638              		.loc 1 258 0
 1639 0568 3846     		mov	r0, r7
 1640 056a FFF7FEFF 		bl	f_close
 1641              	.LVL175:
 1642              	.LBB294:
 1643              	.LBB295:
  65:.\main.c      **** 		dbgprint("%s ERR! res=", func);
 1644              		.loc 1 65 0
 1645 056e 0028     		cmp	r0, #0
 1646 0570 40F01A81 		bne	.L377
 1647              	.LVL176:
 1648              	.L177:
 1649              	.LBE295:
 1650              	.LBE294:
 263:.\main.c      **** 	dumpmsg("Took %lu ms\nVerifying...", nTime);
 1651              		.loc 1 263 0
 1652 0574 D9F80030 		ldr	r3, [r9]
 1653              	.LBB297:
 1654              	.LBB298:
 264:.\main.c      **** 
 1655              		.loc 1 264 0
 1656 0578 3046     		mov	r0, r6
ARM GAS  C:\Users\honet\AppData\Local\Temp\cc6gsi1c.s 			page 38


 1657              	.LBE298:
 1658              	.LBE297:
 263:.\main.c      **** 	dumpmsg("Took %lu ms\nVerifying...", nTime);
 1659              		.loc 1 263 0
 1660 057a C4EB0308 		rsb	r8, r4, r3
 1661              	.LVL177:
 1662              	.LBB304:
 1663              	.LBB299:
 264:.\main.c      **** 
 1664              		.loc 1 264 0
 1665 057e 4246     		mov	r2, r8
 1666 0580 7A49     		ldr	r1, .L387+28
 1667 0582 FFF7FEFF 		bl	sprintf
 1668              	.LVL178:
 1669              	.L178:
 264:.\main.c      **** 
 1670              		.loc 1 264 0 is_stmt 0 discriminator 2
 1671 0586 FFF7FEFF 		bl	USBUART_1_CDCIsReady
 1672              	.LVL179:
 1673 058a 0028     		cmp	r0, #0
 1674 058c FBD0     		beq	.L178
 264:.\main.c      **** 
 1675              		.loc 1 264 0 discriminator 3
 1676 058e 3046     		mov	r0, r6
 1677 0590 FFF7FEFF 		bl	USBUART_1_PutString
 1678              	.LVL180:
 1679              	.LBE299:
 1680 0594 6E48     		ldr	r0, .L387
 1681 0596 7549     		ldr	r1, .L387+28
 1682 0598 1822     		movs	r2, #24
 1683 059a 3346     		mov	r3, r6
 1684 059c FFF7FEFF 		bl	f_write
 1685              	.LVL181:
 1686              	.LBB300:
 1687              	.LBB301:
  65:.\main.c      **** 		dbgprint("%s ERR! res=", func);
 1688              		.loc 1 65 0 is_stmt 1 discriminator 3
 1689 05a0 0028     		cmp	r0, #0
 1690 05a2 40F0CF80 		bne	.L378
 1691              	.LVL182:
 1692              	.L179:
 1693              	.LBE301:
 1694              	.LBE300:
 1695              	.LBE304:
 1696              	.LBB305:
 267:.\main.c      **** 		if(vals[i] != i*i) bVerifyFail = 1;
 1697              		.loc 1 267 0 discriminator 3
 1698 05a6 0024     		movs	r4, #0
 1699              	.LVL183:
 1700              	.LBE305:
 266:.\main.c      **** 	for(int i = 0; i < 500; i++) {
 1701              		.loc 1 266 0 discriminator 3
 1702 05a8 A346     		mov	fp, r4
 1703              	.LBB306:
 1704 05aa 6C4D     		ldr	r5, .L387+12
 1705 05ac 09E0     		b	.L183
 1706              	.LVL184:
ARM GAS  C:\Users\honet\AppData\Local\Temp\cc6gsi1c.s 			page 39


 1707              	.L380:
 1708 05ae 4FF00103 		mov	r3, #1
 1709              	.L181:
 1710              	.LBE306:
 1711              	.LBB307:
 267:.\main.c      **** 		if(vals[i] != i*i) bVerifyFail = 1;
 1712              		.loc 1 267 0
 1713 05b2 0134     		adds	r4, r4, #1
 1714 05b4 B4F5FA7F 		cmp	r4, #500
 1715 05b8 5FFA83FB 		uxtb	fp, r3
 1716              	.LVL185:
 1717 05bc 05F10805 		add	r5, r5, #8
 1718 05c0 4BD0     		beq	.L379
 1719              	.LVL186:
 1720              	.L183:
 268:.\main.c      **** 	}
 1721              		.loc 1 268 0
 1722 05c2 04FB04F0 		mul	r0, r4, r4
 1723 05c6 FFF7FEFF 		bl	__aeabi_i2d
 1724              	.LVL187:
 1725 05ca 0246     		mov	r2, r0
 1726 05cc 0B46     		mov	r3, r1
 1727 05ce D5E90001 		ldrd	r0, [r5]
 1728 05d2 FFF7FEFF 		bl	__aeabi_dcmpeq
 1729              	.LVL188:
 1730 05d6 0028     		cmp	r0, #0
 1731 05d8 E9D0     		beq	.L380
 1732 05da 5B46     		mov	r3, fp
 1733 05dc E9E7     		b	.L181
 1734              	.LVL189:
 1735              	.L354:
 1736              	.LBE307:
 1737              	.LBE252:
 1738              	.LBB334:
 1739              	.LBB178:
 1740 05de 6448     		ldr	r0, .L387+32
 1741              	.LVL190:
 1742 05e0 FFF7FEFF 		bl	chkres.part.0
 1743              	.LVL191:
 1744 05e4 2EE5     		b	.L347
 1745              	.LVL192:
 1746              	.L119:
 1747              	.LBE178:
 1748              	.LBE334:
 1749              	.LBB335:
 120:.\main.c      **** 		default: break;
 1750              		.loc 1 120 0
 1751 05e6 3C46     		mov	r4, r7
 1752 05e8 624D     		ldr	r5, .L387+36
 1753 05ea 0FCD     		ldmia	r5!, {r0, r1, r2, r3}
 1754 05ec 0FC4     		stmia	r4!, {r0, r1, r2, r3}
 1755 05ee 2B68     		ldr	r3, [r5]
 1756 05f0 2380     		strh	r3, [r4]	@ movhi
 1757              	.L123:
 120:.\main.c      **** 		default: break;
 1758              		.loc 1 120 0 is_stmt 0 discriminator 2
 1759 05f2 FFF7FEFF 		bl	USBUART_1_CDCIsReady
ARM GAS  C:\Users\honet\AppData\Local\Temp\cc6gsi1c.s 			page 40


 1760              	.LVL193:
 1761 05f6 0028     		cmp	r0, #0
 1762 05f8 FBD0     		beq	.L123
 1763              	.L346:
 120:.\main.c      **** 		default: break;
 1764              		.loc 1 120 0 discriminator 3
 1765 05fa 3846     		mov	r0, r7
 1766 05fc FFF7FEFF 		bl	USBUART_1_PutString
 1767              	.LVL194:
 1768 0600 02AE     		add	r6, sp, #8
 1769              	.LBE335:
 1770 0602 20E5     		b	.L112
 1771              	.L115:
 1772              	.LBB336:
 118:.\main.c      **** 		case FR_NOT_READY:		dbgprint("FR_NOT_READY\n"); break;
 1773              		.loc 1 118 0 is_stmt 1
 1774 0604 3C46     		mov	r4, r7
 1775 0606 5C4B     		ldr	r3, .L387+40
 1776 0608 0FCB     		ldmia	r3, {r0, r1, r2, r3}
 1777 060a 07C4     		stmia	r4!, {r0, r1, r2}
 1778 060c 2370     		strb	r3, [r4]
 1779              	.L121:
 118:.\main.c      **** 		case FR_NOT_READY:		dbgprint("FR_NOT_READY\n"); break;
 1780              		.loc 1 118 0 is_stmt 0 discriminator 2
 1781 060e FFF7FEFF 		bl	USBUART_1_CDCIsReady
 1782              	.LVL195:
 1783 0612 0028     		cmp	r0, #0
 1784 0614 FBD0     		beq	.L121
 1785 0616 F0E7     		b	.L346
 1786              	.L118:
 1787              	.LBE336:
 1788              	.LBB337:
 117:.\main.c      **** 		case FR_DISK_ERR:		dbgprint("FR_DISK_ERR\n"); break;
 1789              		.loc 1 117 0 is_stmt 1
 1790 0618 3C46     		mov	r4, r7
 1791 061a 584D     		ldr	r5, .L387+44
 1792 061c 0FCD     		ldmia	r5!, {r0, r1, r2, r3}
 1793 061e 0FC4     		stmia	r4!, {r0, r1, r2, r3}
 1794 0620 2B68     		ldr	r3, [r5]
 1795 0622 2380     		strh	r3, [r4]	@ movhi
 1796              	.L120:
 117:.\main.c      **** 		case FR_DISK_ERR:		dbgprint("FR_DISK_ERR\n"); break;
 1797              		.loc 1 117 0 is_stmt 0 discriminator 2
 1798 0624 FFF7FEFF 		bl	USBUART_1_CDCIsReady
 1799              	.LVL196:
 1800 0628 0028     		cmp	r0, #0
 1801 062a FBD0     		beq	.L120
 1802 062c E5E7     		b	.L346
 1803              	.L117:
 1804              	.LBE337:
 1805              	.LBB338:
 119:.\main.c      **** 		case FR_NO_FILESYSTEM:	dbgprint("FR_NO_FILESYSTEM\n"); break;
 1806              		.loc 1 119 0 is_stmt 1
 1807 062e 3C46     		mov	r4, r7
 1808 0630 534B     		ldr	r3, .L387+48
 1809 0632 0FCB     		ldmia	r3, {r0, r1, r2, r3}
 1810 0634 07C4     		stmia	r4!, {r0, r1, r2}
ARM GAS  C:\Users\honet\AppData\Local\Temp\cc6gsi1c.s 			page 41


 1811 0636 2380     		strh	r3, [r4]	@ movhi
 1812              	.L122:
 119:.\main.c      **** 		case FR_NO_FILESYSTEM:	dbgprint("FR_NO_FILESYSTEM\n"); break;
 1813              		.loc 1 119 0 is_stmt 0 discriminator 2
 1814 0638 FFF7FEFF 		bl	USBUART_1_CDCIsReady
 1815              	.LVL197:
 1816 063c 0028     		cmp	r0, #0
 1817 063e FBD0     		beq	.L122
 1818 0640 DBE7     		b	.L346
 1819              	.LVL198:
 1820              	.L355:
 1821              	.LBE338:
 1822              	.LBB339:
 1823              	.LBB184:
 1824              	.LBB183:
 1825 0642 5048     		ldr	r0, .L387+52
 1826              	.LVL199:
 1827 0644 FFF7FEFF 		bl	chkres.part.0
 1828              	.LVL200:
 1829 0648 B0E5     		b	.L137
 1830              	.LVL201:
 1831              	.L357:
 1832              	.LBE183:
 1833              	.LBE184:
 1834              	.LBE339:
 1835              	.LBB340:
 1836              	.LBB194:
 1837 064a 4948     		ldr	r0, .L387+32
 1838              	.LVL202:
 1839 064c FFF7FEFF 		bl	chkres.part.0
 1840              	.LVL203:
 1841 0650 F1E5     		b	.L142
 1842              	.LVL204:
 1843              	.L356:
 1844              	.LBE194:
 1845              	.LBE340:
 1846              	.LBB341:
 1847              	.LBB191:
 1848              	.LBB190:
 1849 0652 4C48     		ldr	r0, .L387+52
 1850              	.LVL205:
 1851 0654 FFF7FEFF 		bl	chkres.part.0
 1852              	.LVL206:
 1853 0658 CEE5     		b	.L140
 1854              	.LVL207:
 1855              	.L379:
 1856              	.LBE190:
 1857              	.LBE191:
 1858              	.LBE341:
 1859              	.LBB342:
 271:.\main.c      **** 		dumpmsg("FAIL :O\n");
 1860              		.loc 1 271 0 is_stmt 1
 1861 065a BBF1000F 		cmp	fp, #0
 1862 065e 3CD0     		beq	.L184
 1863              	.LVL208:
 1864              	.LBB308:
 1865              	.LBB309:
ARM GAS  C:\Users\honet\AppData\Local\Temp\cc6gsi1c.s 			page 42


 272:.\main.c      **** 	else
 1866              		.loc 1 272 0
 1867 0660 3346     		mov	r3, r6
 1868 0662 494A     		ldr	r2, .L387+56
 1869 0664 07CA     		ldmia	r2, {r0, r1, r2}
 1870 0666 03C3     		stmia	r3!, {r0, r1}
 1871 0668 1A70     		strb	r2, [r3]
 1872              	.L185:
 272:.\main.c      **** 	else
 1873              		.loc 1 272 0 is_stmt 0 discriminator 2
 1874 066a FFF7FEFF 		bl	USBUART_1_CDCIsReady
 1875              	.LVL209:
 1876 066e 0028     		cmp	r0, #0
 1877 0670 FBD0     		beq	.L185
 272:.\main.c      **** 	else
 1878              		.loc 1 272 0 discriminator 3
 1879 0672 3046     		mov	r0, r6
 1880 0674 FFF7FEFF 		bl	USBUART_1_PutString
 1881              	.LVL210:
 1882              	.LBE309:
 1883 0678 3548     		ldr	r0, .L387
 1884 067a 4349     		ldr	r1, .L387+56
 1885 067c 0822     		movs	r2, #8
 1886 067e 3346     		mov	r3, r6
 1887 0680 FFF7FEFF 		bl	f_write
 1888              	.LVL211:
 1889              	.LBB310:
 1890              	.LBB311:
  65:.\main.c      **** 		dbgprint("%s ERR! res=", func);
 1891              		.loc 1 65 0 is_stmt 1 discriminator 3
 1892 0684 0028     		cmp	r0, #0
 1893 0686 3FD1     		bne	.L345
 1894              	.LVL212:
 1895              	.L187:
 1896              	.LBE311:
 1897              	.LBE310:
 1898              	.LBE308:
 276:.\main.c      **** 	dumpmsg("Rate %lu kbps\n\n", kbps);
 1899              		.loc 1 276 0
 1900 0688 4FF48022 		mov	r2, #262144
 1901              	.LBB312:
 1902              	.LBB313:
 277:.\main.c      **** 
 1903              		.loc 1 277 0
 1904 068c B2FBF8F2 		udiv	r2, r2, r8
 1905              	.LVL213:
 1906 0690 3046     		mov	r0, r6
 1907 0692 3449     		ldr	r1, .L387+20
 1908 0694 FFF7FEFF 		bl	sprintf
 1909              	.LVL214:
 1910              	.L190:
 277:.\main.c      **** 
 1911              		.loc 1 277 0 is_stmt 0 discriminator 2
 1912 0698 FFF7FEFF 		bl	USBUART_1_CDCIsReady
 1913              	.LVL215:
 1914 069c 0028     		cmp	r0, #0
 1915 069e FBD0     		beq	.L190
ARM GAS  C:\Users\honet\AppData\Local\Temp\cc6gsi1c.s 			page 43


 277:.\main.c      **** 
 1916              		.loc 1 277 0 discriminator 3
 1917 06a0 3046     		mov	r0, r6
 1918 06a2 FFF7FEFF 		bl	USBUART_1_PutString
 1919              	.LVL216:
 1920              	.LBE313:
 1921 06a6 2A48     		ldr	r0, .L387
 1922 06a8 2E49     		ldr	r1, .L387+20
 1923 06aa 0F22     		movs	r2, #15
 1924 06ac 3346     		mov	r3, r6
 1925 06ae FFF7FEFF 		bl	f_write
 1926              	.LVL217:
 1927              	.LBB314:
 1928              	.LBB315:
  65:.\main.c      **** 		dbgprint("%s ERR! res=", func);
 1929              		.loc 1 65 0 is_stmt 1 discriminator 3
 1930 06b2 70BB     		cbnz	r0, .L381
 1931              	.LVL218:
 1932              	.L191:
 1933              	.LBE315:
 1934              	.LBE314:
 1935              	.LBE312:
 279:.\main.c      **** }
 1936              		.loc 1 279 0 discriminator 3
 1937 06b4 4FF47A70 		mov	r0, #1000
 1938 06b8 FFF7FEFF 		bl	CyDelay
 1939              	.LVL219:
 220:.\main.c      **** 	//and repeat tests
 1940              		.loc 1 220 0 discriminator 3
 1941 06bc BAF1010A 		subs	r10, r10, #1
 1942 06c0 7FF49EAE 		bne	.L192
 1943              	.LBE342:
 282:.\main.c      **** 	chkres("f_close", res);
 1944              		.loc 1 282 0
 1945 06c4 2248     		ldr	r0, .L387
 1946 06c6 FFF7FEFF 		bl	f_close
 1947              	.LVL220:
 1948              	.LBB343:
 1949              	.LBB344:
  65:.\main.c      **** 		dbgprint("%s ERR! res=", func);
 1950              		.loc 1 65 0
 1951 06ca 0146     		mov	r1, r0
 1952 06cc 0028     		cmp	r0, #0
 1953 06ce 3FF4BAAC 		beq	.L112
 1954 06d2 2E48     		ldr	r0, .L387+60
 1955              	.LVL221:
 1956 06d4 FFF7FEFF 		bl	chkres.part.0
 1957              	.LVL222:
 1958 06d8 B5E4     		b	.L112
 1959              	.LVL223:
 1960              	.L184:
 1961              	.LBE344:
 1962              	.LBE343:
 1963              	.LBB345:
 1964              	.LBB318:
 1965              	.LBB319:
 274:.\main.c      **** 
ARM GAS  C:\Users\honet\AppData\Local\Temp\cc6gsi1c.s 			page 44


 1966              		.loc 1 274 0
 1967 06da 3446     		mov	r4, r6
 1968              	.LVL224:
 1969 06dc 2C4B     		ldr	r3, .L387+64
 1970 06de 0FCB     		ldmia	r3, {r0, r1, r2, r3}
 1971 06e0 07C4     		stmia	r4!, {r0, r1, r2}
 1972 06e2 1A0C     		lsrs	r2, r3, #16
 1973 06e4 24F8023B 		strh	r3, [r4], #2	@ movhi
 1974 06e8 2270     		strb	r2, [r4]
 1975              	.L188:
 274:.\main.c      **** 
 1976              		.loc 1 274 0 is_stmt 0 discriminator 2
 1977 06ea FFF7FEFF 		bl	USBUART_1_CDCIsReady
 1978              	.LVL225:
 1979 06ee 0028     		cmp	r0, #0
 1980 06f0 FBD0     		beq	.L188
 274:.\main.c      **** 
 1981              		.loc 1 274 0 discriminator 3
 1982 06f2 3046     		mov	r0, r6
 1983 06f4 FFF7FEFF 		bl	USBUART_1_PutString
 1984              	.LVL226:
 1985              	.LBE319:
 1986 06f8 1548     		ldr	r0, .L387
 1987 06fa 2549     		ldr	r1, .L387+64
 1988 06fc 0E22     		movs	r2, #14
 1989 06fe 3346     		mov	r3, r6
 1990 0700 FFF7FEFF 		bl	f_write
 1991              	.LVL227:
 1992              	.LBB320:
 1993              	.LBB321:
  65:.\main.c      **** 		dbgprint("%s ERR! res=", func);
 1994              		.loc 1 65 0 is_stmt 1 discriminator 3
 1995 0704 0028     		cmp	r0, #0
 1996 0706 BFD0     		beq	.L187
 1997              	.LVL228:
 1998              	.L345:
 1999 0708 0146     		mov	r1, r0
 2000 070a 1E48     		ldr	r0, .L387+52
 2001 070c FFF7FEFF 		bl	chkres.part.0
 2002              	.LVL229:
 2003 0710 BAE7     		b	.L187
 2004              	.LVL230:
 2005              	.L381:
 2006              	.LBE321:
 2007              	.LBE320:
 2008              	.LBE318:
 2009              	.LBB322:
 2010              	.LBB317:
 2011              	.LBB316:
 2012 0712 0146     		mov	r1, r0
 2013 0714 1B48     		ldr	r0, .L387+52
 2014              	.LVL231:
 2015 0716 FFF7FEFF 		bl	chkres.part.0
 2016              	.LVL232:
 2017 071a CBE7     		b	.L191
 2018              	.LVL233:
 2019              	.L373:
ARM GAS  C:\Users\honet\AppData\Local\Temp\cc6gsi1c.s 			page 45


 2020              	.LBE316:
 2021              	.LBE317:
 2022              	.LBE322:
 2023              	.LBB323:
 2024              	.LBB281:
 2025              	.LBB280:
 2026 071c 0146     		mov	r1, r0
 2027 071e 1948     		ldr	r0, .L387+52
 2028              	.LVL234:
 2029 0720 FFF7FEFF 		bl	chkres.part.0
 2030              	.LVL235:
 2031 0724 F0E6     		b	.L173
 2032              	.LVL236:
 2033              	.L372:
 2034              	.LBE280:
 2035              	.LBE281:
 2036              	.LBE323:
 2037              	.LBB324:
 2038              	.LBB274:
 2039              	.LBB273:
 2040 0726 0146     		mov	r1, r0
 2041 0728 1648     		ldr	r0, .L387+52
 2042              	.LVL237:
 2043 072a FFF7FEFF 		bl	chkres.part.0
 2044              	.LVL238:
 2045 072e D3E6     		b	.L171
 2046              	.LVL239:
 2047              	.L369:
 2048              	.LBE273:
 2049              	.LBE274:
 2050              	.LBE324:
 2051              	.LBB325:
 2052              	.LBB261:
 2053 0730 0146     		mov	r1, r0
 2054 0732 0F48     		ldr	r0, .L387+32
 2055              	.LVL240:
 2056 0734 FFF7FEFF 		bl	chkres.part.0
 2057              	.LVL241:
 2058 0738 B6E6     		b	.L169
 2059              	.LVL242:
 2060              	.L368:
 2061              	.LBE261:
 2062              	.LBE325:
 2063              	.LBB326:
 2064              	.LBB258:
 2065              	.LBB257:
 2066 073a 0146     		mov	r1, r0
 2067 073c 1148     		ldr	r0, .L387+52
 2068              	.LVL243:
 2069 073e FFF7FEFF 		bl	chkres.part.0
 2070              	.LVL244:
 2071 0742 97E6     		b	.L167
 2072              	.LVL245:
 2073              	.L378:
 2074              	.LBE257:
 2075              	.LBE258:
 2076              	.LBE326:
ARM GAS  C:\Users\honet\AppData\Local\Temp\cc6gsi1c.s 			page 46


 2077              	.LBB327:
 2078              	.LBB303:
 2079              	.LBB302:
 2080 0744 0146     		mov	r1, r0
 2081 0746 0F48     		ldr	r0, .L387+52
 2082              	.LVL246:
 2083 0748 FFF7FEFF 		bl	chkres.part.0
 2084              	.LVL247:
 2085 074c 2BE7     		b	.L179
 2086              	.L388:
 2087 074e 00BF     		.align	2
 2088              	.L387:
 2089 0750 00000000 		.word	File
 2090 0754 4C030000 		.word	.LC51
 2091 0758 6C030000 		.word	.LC52
 2092 075c 00000000 		.word	buffer
 2093 0760 A8020000 		.word	.LC43
 2094 0764 B8020000 		.word	.LC44
 2095 0768 7C030000 		.word	.LC53
 2096 076c F8020000 		.word	.LC47
 2097 0770 4C020000 		.word	.LC37
 2098 0774 D0010000 		.word	.LC29
 2099 0778 B0010000 		.word	.LC27
 2100 077c 9C010000 		.word	.LC26
 2101 0780 C0010000 		.word	.LC28
 2102 0784 64020000 		.word	.LC39
 2103 0788 14030000 		.word	.LC48
 2104 078c A0020000 		.word	.LC42
 2105 0790 20030000 		.word	.LC49
 2106              	.LVL248:
 2107              	.L375:
 2108              	.LBE302:
 2109              	.LBE303:
 2110              	.LBE327:
 2111              	.LBB328:
 2112              	.LBB290:
 2113 0794 0146     		mov	r1, r0
 2114 0796 4648     		ldr	r0, .L389
 2115              	.LVL249:
 2116 0798 FFF7FEFF 		bl	chkres.part.0
 2117              	.LVL250:
 2118 079c EAE6     		b	.L177
 2119              	.LVL251:
 2120              	.L374:
 2121              	.LBE290:
 2122              	.LBE328:
 2123              	.LBB329:
 2124              	.LBB287:
 2125              	.LBB286:
 2126 079e 0146     		mov	r1, r0
 2127 07a0 4448     		ldr	r0, .L389+4
 2128              	.LVL252:
 2129 07a2 FFF7FEFF 		bl	chkres.part.0
 2130              	.LVL253:
 2131 07a6 C5E6     		b	.L175
 2132              	.LVL254:
 2133              	.L377:
ARM GAS  C:\Users\honet\AppData\Local\Temp\cc6gsi1c.s 			page 47


 2134              	.LBE286:
 2135              	.LBE287:
 2136              	.LBE329:
 2137              	.LBB330:
 2138              	.LBB296:
 2139 07a8 0146     		mov	r1, r0
 2140 07aa 4348     		ldr	r0, .L389+8
 2141              	.LVL255:
 2142 07ac FFF7FEFF 		bl	chkres.part.0
 2143              	.LVL256:
 2144 07b0 E0E6     		b	.L177
 2145              	.LVL257:
 2146              	.L376:
 2147              	.LBE296:
 2148              	.LBE330:
 2149              	.LBB331:
 2150              	.LBB293:
 2151 07b2 0146     		mov	r1, r0
 2152 07b4 4148     		ldr	r0, .L389+12
 2153              	.LVL258:
 2154 07b6 FFF7FEFF 		bl	chkres.part.0
 2155              	.LVL259:
 2156 07ba D5E6     		b	.L202
 2157              	.LVL260:
 2158              	.L371:
 2159              	.LBE293:
 2160              	.LBE331:
 2161              	.LBB332:
 2162              	.LBB267:
 2163 07bc 0146     		mov	r1, r0
 2164 07be 3E48     		ldr	r0, .L389+8
 2165              	.LVL261:
 2166 07c0 FFF7FEFF 		bl	chkres.part.0
 2167              	.LVL262:
 2168 07c4 70E6     		b	.L169
 2169              	.LVL263:
 2170              	.L370:
 2171              	.LBE267:
 2172              	.LBE332:
 2173              	.LBB333:
 2174              	.LBB264:
 2175 07c6 0146     		mov	r1, r0
 2176 07c8 3A48     		ldr	r0, .L389+4
 2177              	.LVL264:
 2178 07ca FFF7FEFF 		bl	chkres.part.0
 2179              	.LVL265:
 2180 07ce 65E6     		b	.L200
 2181              	.LVL266:
 2182              	.L353:
 2183              	.LBE264:
 2184              	.LBE333:
 2185              	.LBE345:
 2186              	.LBB346:
 128:.\main.c      **** 		case FS_FAT16:	dbgprint("FAT16\n"); break;
 2187              		.loc 1 128 0
 2188 07d0 3B4A     		ldr	r2, .L389+16
 2189 07d2 92E80300 		ldmia	r2, {r0, r1}
ARM GAS  C:\Users\honet\AppData\Local\Temp\cc6gsi1c.s 			page 48


 2190 07d6 0A0C     		lsrs	r2, r1, #16
 2191 07d8 3860     		str	r0, [r7]
 2192 07da ADF88C10 		strh	r1, [sp, #140]	@ movhi
 2193 07de 8DF88E20 		strb	r2, [sp, #142]
 2194              	.L129:
 128:.\main.c      **** 		case FS_FAT16:	dbgprint("FAT16\n"); break;
 2195              		.loc 1 128 0 is_stmt 0 discriminator 2
 2196 07e2 FFF7FEFF 		bl	USBUART_1_CDCIsReady
 2197              	.LVL267:
 2198 07e6 0028     		cmp	r0, #0
 2199 07e8 FBD0     		beq	.L129
 2200 07ea A4E4     		b	.L343
 2201              	.L127:
 2202              	.LBE346:
 2203              	.LBB347:
 130:.\main.c      **** 		default:		dbgprint("UNKNOWN\n"); break;
 2204              		.loc 1 130 0 is_stmt 1
 2205 07ec 354A     		ldr	r2, .L389+20
 2206 07ee 92E80300 		ldmia	r2, {r0, r1}
 2207 07f2 0A0C     		lsrs	r2, r1, #16
 2208 07f4 3860     		str	r0, [r7]
 2209 07f6 ADF88C10 		strh	r1, [sp, #140]	@ movhi
 2210 07fa 8DF88E20 		strb	r2, [sp, #142]
 2211              	.L132:
 130:.\main.c      **** 		default:		dbgprint("UNKNOWN\n"); break;
 2212              		.loc 1 130 0 is_stmt 0 discriminator 2
 2213 07fe FFF7FEFF 		bl	USBUART_1_CDCIsReady
 2214              	.LVL268:
 2215 0802 0028     		cmp	r0, #0
 2216 0804 FBD0     		beq	.L132
 2217 0806 96E4     		b	.L343
 2218              	.L126:
 2219              	.LBE347:
 2220              	.LBB348:
 129:.\main.c      **** 		case FS_FAT32:	dbgprint("FAT32\n"); break;
 2221              		.loc 1 129 0 is_stmt 1
 2222 0808 2F4A     		ldr	r2, .L389+24
 2223 080a 92E80300 		ldmia	r2, {r0, r1}
 2224 080e 0A0C     		lsrs	r2, r1, #16
 2225 0810 3860     		str	r0, [r7]
 2226 0812 ADF88C10 		strh	r1, [sp, #140]	@ movhi
 2227 0816 8DF88E20 		strb	r2, [sp, #142]
 2228              	.L131:
 129:.\main.c      **** 		case FS_FAT32:	dbgprint("FAT32\n"); break;
 2229              		.loc 1 129 0 is_stmt 0 discriminator 2
 2230 081a FFF7FEFF 		bl	USBUART_1_CDCIsReady
 2231              	.LVL269:
 2232 081e 0028     		cmp	r0, #0
 2233 0820 FBD0     		beq	.L131
 2234 0822 88E4     		b	.L343
 2235              	.LVL270:
 2236              	.L157:
 2237              	.LBE348:
 2238              	.LBB349:
 2239              	.LBB350:
 210:.\main.c      **** 
 2240              		.loc 1 210 0 is_stmt 1
ARM GAS  C:\Users\honet\AppData\Local\Temp\cc6gsi1c.s 			page 49


 2241 0824 3446     		mov	r4, r6
 2242              	.LVL271:
 2243 0826 294B     		ldr	r3, .L389+28
 2244 0828 0FCB     		ldmia	r3, {r0, r1, r2, r3}
 2245 082a 07C4     		stmia	r4!, {r0, r1, r2}
 2246 082c 1A0C     		lsrs	r2, r3, #16
 2247 082e 24F8023B 		strh	r3, [r4], #2	@ movhi
 2248 0832 2270     		strb	r2, [r4]
 2249              	.L161:
 210:.\main.c      **** 
 2250              		.loc 1 210 0 is_stmt 0 discriminator 2
 2251 0834 FFF7FEFF 		bl	USBUART_1_CDCIsReady
 2252              	.LVL272:
 2253 0838 0028     		cmp	r0, #0
 2254 083a FBD0     		beq	.L161
 210:.\main.c      **** 
 2255              		.loc 1 210 0 discriminator 3
 2256 083c 3046     		mov	r0, r6
 2257 083e FFF7FEFF 		bl	USBUART_1_PutString
 2258              	.LVL273:
 2259              	.LBE350:
 2260 0842 2249     		ldr	r1, .L389+28
 2261 0844 2248     		ldr	r0, .L389+32
 2262 0846 0E22     		movs	r2, #14
 2263 0848 3346     		mov	r3, r6
 2264 084a FFF7FEFF 		bl	f_write
 2265              	.LVL274:
 2266              	.LBB351:
 2267              	.LBB352:
  65:.\main.c      **** 		dbgprint("%s ERR! res=", func);
 2268              		.loc 1 65 0 is_stmt 1 discriminator 3
 2269 084e 0146     		mov	r1, r0
 2270 0850 0028     		cmp	r0, #0
 2271 0852 3FF4A8AD 		beq	.L160
 2272              	.LVL275:
 2273              	.L344:
 2274 0856 1748     		ldr	r0, .L389+4
 2275 0858 FFF7FEFF 		bl	chkres.part.0
 2276              	.LVL276:
 2277 085c A3E5     		b	.L160
 2278              	.LVL277:
 2279              	.L366:
 2280              	.LBE352:
 2281              	.LBE351:
 2282              	.LBE349:
 2283              	.LBB353:
 2284              	.LBB236:
 2285              	.LBB235:
 2286 085e 1548     		ldr	r0, .L389+4
 2287              	.LVL278:
 2288 0860 FFF7FEFF 		bl	chkres.part.0
 2289              	.LVL279:
 2290 0864 6EE5     		b	.L152
 2291              	.LVL280:
 2292              	.L367:
 2293              	.LBE235:
 2294              	.LBE236:
ARM GAS  C:\Users\honet\AppData\Local\Temp\cc6gsi1c.s 			page 50


 2295              	.LBE353:
 2296              	.LBB354:
 2297              	.LBB250:
 2298              	.LBB249:
 2299 0866 1348     		ldr	r0, .L389+4
 2300              	.LVL281:
 2301 0868 FFF7FEFF 		bl	chkres.part.0
 2302              	.LVL282:
 2303 086c B4E5     		b	.L164
 2304              	.LVL283:
 2305              	.L363:
 2306              	.LBE249:
 2307              	.LBE250:
 2308              	.LBE354:
 2309              	.LBB355:
 2310              	.LBB223:
 2311 086e 1048     		ldr	r0, .L389
 2312              	.LVL284:
 2313 0870 FFF7FEFF 		bl	chkres.part.0
 2314              	.LVL285:
 2315 0874 4CE5     		b	.L150
 2316              	.LVL286:
 2317              	.L362:
 2318              	.LBE223:
 2319              	.LBE355:
 2320              	.LBB356:
 2321              	.LBB220:
 2322              	.LBB219:
 2323 0876 0F48     		ldr	r0, .L389+4
 2324              	.LVL287:
 2325 0878 FFF7FEFF 		bl	chkres.part.0
 2326              	.LVL288:
 2327 087c 25E5     		b	.L148
 2328              	.LVL289:
 2329              	.L361:
 2330              	.LBE219:
 2331              	.LBE220:
 2332              	.LBE356:
 2333              	.LBB357:
 2334              	.LBB214:
 2335              	.LBB213:
 2336 087e 0D48     		ldr	r0, .L389+4
 2337              	.LVL290:
 2338 0880 FFF7FEFF 		bl	chkres.part.0
 2339              	.LVL291:
 2340 0884 0AE5     		b	.L146
 2341              	.LVL292:
 2342              	.L360:
 2343              	.LBE213:
 2344              	.LBE214:
 2345              	.LBE357:
 2346              	.LBB358:
 2347              	.LBB207:
 2348              	.LBB206:
 2349 0886 0B48     		ldr	r0, .L389+4
 2350              	.LVL293:
 2351 0888 FFF7FEFF 		bl	chkres.part.0
ARM GAS  C:\Users\honet\AppData\Local\Temp\cc6gsi1c.s 			page 51


 2352              	.LVL294:
 2353 088c EDE4     		b	.L144
 2354              	.LVL295:
 2355              	.L359:
 2356              	.LBE206:
 2357              	.LBE207:
 2358              	.LBE358:
 2359              	.LBB359:
 2360              	.LBB200:
 2361 088e 0A48     		ldr	r0, .L389+8
 2362              	.LVL296:
 2363 0890 FFF7FEFF 		bl	chkres.part.0
 2364              	.LVL297:
 2365 0894 CFE4     		b	.L142
 2366              	.LVL298:
 2367              	.L358:
 2368              	.LBE200:
 2369              	.LBE359:
 2370              	.LBB360:
 2371              	.LBB197:
 2372 0896 0748     		ldr	r0, .L389+4
 2373              	.LVL299:
 2374 0898 FFF7FEFF 		bl	chkres.part.0
 2375              	.LVL300:
 2376 089c C4E4     		b	.L196
 2377              	.LVL301:
 2378              	.L365:
 2379              	.LBE197:
 2380              	.LBE360:
 2381              	.LBB361:
 2382              	.LBB229:
 2383 089e 0648     		ldr	r0, .L389+8
 2384              	.LVL302:
 2385 08a0 FFF7FEFF 		bl	chkres.part.0
 2386              	.LVL303:
 2387 08a4 34E5     		b	.L150
 2388              	.LVL304:
 2389              	.L364:
 2390              	.LBE229:
 2391              	.LBE361:
 2392              	.LBB362:
 2393              	.LBB226:
 2394 08a6 0548     		ldr	r0, .L389+12
 2395              	.LVL305:
 2396 08a8 FFF7FEFF 		bl	chkres.part.0
 2397              	.LVL306:
 2398 08ac 29E5     		b	.L198
 2399              	.L390:
 2400 08ae 00BF     		.align	2
 2401              	.L389:
 2402 08b0 4C020000 		.word	.LC37
 2403 08b4 64020000 		.word	.LC39
 2404 08b8 A0020000 		.word	.LC42
 2405 08bc F0020000 		.word	.LC46
 2406 08c0 00020000 		.word	.LC31
 2407 08c4 10020000 		.word	.LC33
 2408 08c8 08020000 		.word	.LC32
ARM GAS  C:\Users\honet\AppData\Local\Temp\cc6gsi1c.s 			page 52


 2409 08cc 20030000 		.word	.LC49
 2410 08d0 00000000 		.word	File
 2411              	.LBE226:
 2412              	.LBE362:
 2413              		.cfi_endproc
 2414              	.LFE68:
 2415              		.size	sdcheck, .-sdcheck
 2416              		.section	.text.sdbench,"ax",%progbits
 2417              		.align	2
 2418              		.global	sdbench
 2419              		.thumb
 2420              		.thumb_func
 2421              		.type	sdbench, %function
 2422              	sdbench:
 2423              	.LFB69:
 290:.\main.c      **** 
 291:.\main.c      **** 
 292:.\main.c      **** void sdbench()
 293:.\main.c      **** {
 2424              		.loc 1 293 0
 2425              		.cfi_startproc
 2426              		@ args = 0, pretend = 0, frame = 1248
 2427              		@ frame_needed = 0, uses_anonymous_args = 0
 2428              	.LVL307:
 2429 0000 2DE9F047 		push	{r4, r5, r6, r7, r8, r9, r10, lr}
 2430              		.cfi_def_cfa_offset 32
 2431              		.cfi_offset 4, -32
 2432              		.cfi_offset 5, -28
 2433              		.cfi_offset 6, -24
 2434              		.cfi_offset 7, -20
 2435              		.cfi_offset 8, -16
 2436              		.cfi_offset 9, -12
 2437              		.cfi_offset 10, -8
 2438              		.cfi_offset 14, -4
 2439 0004 BB4D     		ldr	r5, .L487
 2440 0006 ADF59C6D 		sub	sp, sp, #1248
 2441              		.cfi_def_cfa_offset 1280
 2442              		.loc 1 293 0
 2443 000a 0024     		movs	r4, #0
 2444              	.LVL308:
 2445              	.L392:
 2446              	.LBB363:
 294:.\main.c      **** 	uint32_t nvals = BUFFER_SIZE/sizeof(double);
 295:.\main.c      **** 	double *vals = (double*)&buffer[0];
 296:.\main.c      ****     
 297:.\main.c      **** 	FATFS FileSys;
 298:.\main.c      **** 	FRESULT res;
 299:.\main.c      **** 	UINT BytesWritten, BytesRead;
 300:.\main.c      **** 	uint32_t nrepeat = 100;
 301:.\main.c      **** 	uint32_t size = 1;
 302:.\main.c      **** 	
 303:.\main.c      **** 	//generate dataset...
 304:.\main.c      **** 	for(int i = 0; i < nvals; i++) {
 305:.\main.c      **** 		vals[i] = (double)i*i;
 2447              		.loc 1 305 0 discriminator 3
 2448 000c 2046     		mov	r0, r4
 2449 000e FFF7FEFF 		bl	__aeabi_i2d
ARM GAS  C:\Users\honet\AppData\Local\Temp\cc6gsi1c.s 			page 53


 2450              	.LVL309:
 2451 0012 0246     		mov	r2, r0
 2452 0014 0B46     		mov	r3, r1
 2453 0016 FFF7FEFF 		bl	__aeabi_dmul
 2454              	.LVL310:
 304:.\main.c      **** 		vals[i] = (double)i*i;
 2455              		.loc 1 304 0 discriminator 3
 2456 001a 0134     		adds	r4, r4, #1
 2457              	.LVL311:
 2458 001c B4F5805F 		cmp	r4, #4096
 2459              		.loc 1 305 0 discriminator 3
 2460 0020 E5E80201 		strd	r0, [r5], #8
 304:.\main.c      **** 		vals[i] = (double)i*i;
 2461              		.loc 1 304 0 discriminator 3
 2462 0024 F2D1     		bne	.L392
 2463              	.LBE363:
 2464              	.LBB364:
 306:.\main.c      **** 	}
 307:.\main.c      **** 
 308:.\main.c      **** 	dbgprint("Try to mount...\n");
 2465              		.loc 1 308 0
 2466 0026 B44D     		ldr	r5, .L487+4
 2467 0028 ACAC     		add	r4, sp, #688
 2468              	.LVL312:
 2469 002a 0FCD     		ldmia	r5!, {r0, r1, r2, r3}
 2470 002c 0FC4     		stmia	r4!, {r0, r1, r2, r3}
 2471 002e 2B68     		ldr	r3, [r5]
 2472 0030 2370     		strb	r3, [r4]
 2473              	.L393:
 2474              		.loc 1 308 0 is_stmt 0 discriminator 2
 2475 0032 FFF7FEFF 		bl	USBUART_1_CDCIsReady
 2476              	.LVL313:
 2477 0036 0028     		cmp	r0, #0
 2478 0038 FBD0     		beq	.L393
 2479              		.loc 1 308 0 discriminator 3
 2480 003a ACA8     		add	r0, sp, #688
 2481 003c FFF7FEFF 		bl	USBUART_1_PutString
 2482              	.LVL314:
 2483              	.LBE364:
 309:.\main.c      **** 	DSTATUS dret = disk_initialize(0);     //initialise FatFS
 2484              		.loc 1 309 0 is_stmt 1 discriminator 3
 2485 0040 0020     		movs	r0, #0
 2486 0042 FFF7FEFF 		bl	disk_initialize
 2487              	.LVL315:
 2488 0046 0446     		mov	r4, r0
 2489              	.LVL316:
 2490              	.LBB365:
 310:.\main.c      **** 	dbgprint("disk_initialize ret=%d\n", dret);
 2491              		.loc 1 310 0 discriminator 3
 2492 0048 AC49     		ldr	r1, .L487+8
 2493 004a ACA8     		add	r0, sp, #688
 2494 004c 2246     		mov	r2, r4
 2495 004e FFF7FEFF 		bl	sprintf
 2496              	.LVL317:
 2497              	.L394:
 2498              		.loc 1 310 0 is_stmt 0 discriminator 2
 2499 0052 FFF7FEFF 		bl	USBUART_1_CDCIsReady
ARM GAS  C:\Users\honet\AppData\Local\Temp\cc6gsi1c.s 			page 54


 2500              	.LVL318:
 2501 0056 0028     		cmp	r0, #0
 2502 0058 FBD0     		beq	.L394
 2503              		.loc 1 310 0 discriminator 3
 2504 005a ACA8     		add	r0, sp, #688
 2505 005c FFF7FEFF 		bl	USBUART_1_PutString
 2506              	.LVL319:
 2507              	.LBE365:
 311:.\main.c      **** 	if(dret) goto err_exit;
 2508              		.loc 1 311 0 is_stmt 1 discriminator 3
 2509 0060 94B1     		cbz	r4, .L395
 2510 0062 22AC     		add	r4, sp, #136
 2511              	.LVL320:
 2512              	.L396:
 312:.\main.c      **** 
 313:.\main.c      **** 	FRESULT nRes;
 314:.\main.c      **** 	if ((nRes = f_mount(&FileSys, "/", 1)) != FR_OK) { //Fail to mount...
 315:.\main.c      **** 		dbgprint("SD-CARD mount ERROR!! nRes=");
 316:.\main.c      **** 		switch(nRes) {    //reasons...
 317:.\main.c      **** 		case FR_INVALID_DRIVE:	dbgprint("FR_INVALID_DRIVE\n"); break;
 318:.\main.c      **** 		case FR_DISK_ERR:		dbgprint("FR_DISK_ERR\n"); break;
 319:.\main.c      **** 		case FR_NOT_READY:		dbgprint("FR_NOT_READY\n"); break;
 320:.\main.c      **** 		case FR_NO_FILESYSTEM:	dbgprint("FR_NO_FILESYSTEM\n"); break;
 321:.\main.c      **** 		default: break;
 322:.\main.c      **** 		}
 323:.\main.c      **** 		goto err_exit;
 324:.\main.c      **** 	} else {
 325:.\main.c      **** 		//Mounted
 326:.\main.c      **** 		dbgprint("SD-CARD mounted. FSTYPE=");
 327:.\main.c      **** 		switch(FileSys.fs_type) { //In case filesys type is of interest
 328:.\main.c      **** 		case FS_FAT12:	dbgprint("FAT12\n"); break;
 329:.\main.c      **** 		case FS_FAT16:	dbgprint("FAT16\n"); break;
 330:.\main.c      **** 		case FS_FAT32:	dbgprint("FAT32\n"); break;
 331:.\main.c      **** 		default:		dbgprint("UNKNOWN\n"); break;
 332:.\main.c      **** 		}
 333:.\main.c      **** 	}
 334:.\main.c      **** 	
 335:.\main.c      **** 	//Now, enable DMA...
 336:.\main.c      **** 	SDSPI_SetDMAMode(1);
 337:.\main.c      **** 	dbgprint(">>>>> Start Benchmark.....\n");
 338:.\main.c      **** 	dbgprint("size, write(ms), write(kbps), read(ms), read(kbps)\n");
 339:.\main.c      **** 	
 340:.\main.c      **** 	for(size=1; size<0x10000; size*=2){
 341:.\main.c      **** 		dbgprint("%d, ",size);
 342:.\main.c      **** 
 343:.\main.c      **** 		if(size<0x20) nrepeat = 10000;
 344:.\main.c      **** 		else nrepeat = 100;
 345:.\main.c      **** 		
 346:.\main.c      **** 		uint32_t nCurrentMillis;
 347:.\main.c      **** 		FIL BinFile;
 348:.\main.c      **** 		res = f_open(&BinFile, "//TESTDMA.bin", FA_CREATE_ALWAYS | FA_WRITE);
 349:.\main.c      **** 		if (res==FR_OK){
 350:.\main.c      **** 			nCurrentMillis = nmillis; //get current millisecond count
 351:.\main.c      **** 			for(uint32_t k=0; k<nrepeat; k++){
 352:.\main.c      **** 				//res = f_lseek(&BinFile, 0);
 353:.\main.c      **** 				res = f_write(&BinFile, vals, size, &BytesWritten);
 354:.\main.c      **** 			}
ARM GAS  C:\Users\honet\AppData\Local\Temp\cc6gsi1c.s 			page 55


 355:.\main.c      **** 			uint32_t nTime = nmillis-nCurrentMillis;
 356:.\main.c      **** 			res = f_close(&BinFile);
 357:.\main.c      **** 
 358:.\main.c      **** 			dbgprint("%u, ", nTime);
 359:.\main.c      **** 			uint32_t kbps = nrepeat*size*8 / nTime;
 360:.\main.c      **** 			dbgprint("%u, ", kbps);
 361:.\main.c      **** 		}
 362:.\main.c      **** 
 363:.\main.c      **** 		res = f_open(&BinFile, "//TESTDMA.bin", FA_OPEN_EXISTING | FA_READ);
 364:.\main.c      **** 		if(res==FR_OK){
 365:.\main.c      **** 			nCurrentMillis = nmillis; //get current millisecond count
 366:.\main.c      **** 			for(uint32_t k=0; k<nrepeat; k++){
 367:.\main.c      **** 				//res = f_lseek(&BinFile, 0);
 368:.\main.c      **** 				res = f_read(&BinFile, vals, size, &BytesRead);
 369:.\main.c      **** 			}
 370:.\main.c      **** 			uint32_t nTime = nmillis-nCurrentMillis;
 371:.\main.c      **** 			res = f_close(&BinFile);
 372:.\main.c      **** 
 373:.\main.c      **** 			dbgprint("%u, ", nTime);
 374:.\main.c      **** 			uint32_t kbps = nrepeat*size*8 / nTime;
 375:.\main.c      **** 			dbgprint("%u, ", kbps);
 376:.\main.c      **** 		}
 377:.\main.c      **** 		//CyDelay(1000);
 378:.\main.c      **** 		dbgprint("\n");
 379:.\main.c      **** 	}
 380:.\main.c      **** 
 381:.\main.c      **** 
 382:.\main.c      **** err_exit:
 383:.\main.c      **** 	LEDControl_Write(0);
 2513              		.loc 1 383 0
 2514 0064 0020     		movs	r0, #0
 2515 0066 FFF7FEFF 		bl	LEDControl_Write
 2516              	.LVL321:
 2517              	.LBB366:
 384:.\main.c      **** 	dbgprint("TEST FINISHED!\n");
 2518              		.loc 1 384 0
 2519 006a A54B     		ldr	r3, .L487+12
 2520 006c 0FCB     		ldmia	r3, {r0, r1, r2, r3}
 2521 006e 84E80F00 		stmia	r4, {r0, r1, r2, r3}
 2522              	.L433:
 2523              		.loc 1 384 0 is_stmt 0 discriminator 2
 2524 0072 FFF7FEFF 		bl	USBUART_1_CDCIsReady
 2525              	.LVL322:
 2526 0076 0028     		cmp	r0, #0
 2527 0078 FBD0     		beq	.L433
 2528              		.loc 1 384 0 discriminator 3
 2529 007a 2046     		mov	r0, r4
 2530 007c FFF7FEFF 		bl	USBUART_1_PutString
 2531              	.LVL323:
 2532              	.LBE366:
 385:.\main.c      **** }
 2533              		.loc 1 385 0 is_stmt 1 discriminator 3
 2534 0080 0DF59C6D 		add	sp, sp, #1248
 2535              		.cfi_remember_state
 2536              		.cfi_def_cfa_offset 32
 2537              		@ sp needed
 2538 0084 BDE8F087 		pop	{r4, r5, r6, r7, r8, r9, r10, pc}
ARM GAS  C:\Users\honet\AppData\Local\Temp\cc6gsi1c.s 			page 56


 2539              	.LVL324:
 2540              	.L395:
 2541              		.cfi_restore_state
 314:.\main.c      **** 		dbgprint("SD-CARD mount ERROR!! nRes=");
 2542              		.loc 1 314 0
 2543 0088 ACA8     		add	r0, sp, #688
 2544 008a 9E49     		ldr	r1, .L487+16
 2545 008c 0122     		movs	r2, #1
 2546 008e FFF7FEFF 		bl	f_mount
 2547              	.LVL325:
 2548              	.LBB367:
 315:.\main.c      **** 		switch(nRes) {    //reasons...
 2549              		.loc 1 315 0
 2550 0092 22AC     		add	r4, sp, #136
 2551              	.LVL326:
 2552              	.LBE367:
 314:.\main.c      **** 		dbgprint("SD-CARD mount ERROR!! nRes=");
 2553              		.loc 1 314 0
 2554 0094 0746     		mov	r7, r0
 2555              	.LBB368:
 315:.\main.c      **** 		switch(nRes) {    //reasons...
 2556              		.loc 1 315 0
 2557 0096 2546     		mov	r5, r4
 2558              	.LBE368:
 314:.\main.c      **** 		dbgprint("SD-CARD mount ERROR!! nRes=");
 2559              		.loc 1 314 0
 2560 0098 70B3     		cbz	r0, .L397
 2561              	.LBB369:
 315:.\main.c      **** 		switch(nRes) {    //reasons...
 2562              		.loc 1 315 0
 2563 009a 9B4E     		ldr	r6, .L487+20
 2564 009c 0FCE     		ldmia	r6!, {r0, r1, r2, r3}
 2565              	.LVL327:
 2566 009e 0FC5     		stmia	r5!, {r0, r1, r2, r3}
 2567 00a0 96E80700 		ldmia	r6, {r0, r1, r2}
 2568 00a4 85E80700 		stmia	r5, {r0, r1, r2}
 2569              	.L398:
 315:.\main.c      **** 		switch(nRes) {    //reasons...
 2570              		.loc 1 315 0 is_stmt 0 discriminator 2
 2571 00a8 FFF7FEFF 		bl	USBUART_1_CDCIsReady
 2572              	.LVL328:
 2573 00ac 0028     		cmp	r0, #0
 2574 00ae FBD0     		beq	.L398
 315:.\main.c      **** 		switch(nRes) {    //reasons...
 2575              		.loc 1 315 0 discriminator 3
 2576 00b0 2046     		mov	r0, r4
 2577              	.LBE369:
 316:.\main.c      **** 		case FR_INVALID_DRIVE:	dbgprint("FR_INVALID_DRIVE\n"); break;
 2578              		.loc 1 316 0 is_stmt 1 discriminator 3
 2579 00b2 013F     		subs	r7, r7, #1
 2580              	.LBB370:
 315:.\main.c      **** 		switch(nRes) {    //reasons...
 2581              		.loc 1 315 0 discriminator 3
 2582 00b4 FFF7FEFF 		bl	USBUART_1_PutString
 2583              	.LVL329:
 2584              	.LBE370:
 316:.\main.c      **** 		case FR_INVALID_DRIVE:	dbgprint("FR_INVALID_DRIVE\n"); break;
ARM GAS  C:\Users\honet\AppData\Local\Temp\cc6gsi1c.s 			page 57


 2585              		.loc 1 316 0 discriminator 3
 2586 00b8 0C2F     		cmp	r7, #12
 2587 00ba D3D8     		bhi	.L396
 2588 00bc 01A3     		adr	r3, .L400
 2589 00be 53F827F0 		ldr	pc, [r3, r7, lsl #2]
 2590 00c2 00BF     		.p2align 2
 2591              	.L400:
 2592 00c4 39030000 		.word	.L399+1
 2593 00c8 65000000 		.word	.L396+1
 2594 00cc DF020000 		.word	.L401+1
 2595 00d0 65000000 		.word	.L396+1
 2596 00d4 65000000 		.word	.L396+1
 2597 00d8 65000000 		.word	.L396+1
 2598 00dc 65000000 		.word	.L396+1
 2599 00e0 65000000 		.word	.L396+1
 2600 00e4 65000000 		.word	.L396+1
 2601 00e8 65000000 		.word	.L396+1
 2602 00ec C9020000 		.word	.L402+1
 2603 00f0 65000000 		.word	.L396+1
 2604 00f4 AD020000 		.word	.L403+1
 2605              	.LVL330:
 2606              		.p2align 1
 2607              	.L397:
 2608              	.LBB371:
 326:.\main.c      **** 		switch(FileSys.fs_type) { //In case filesys type is of interest
 2609              		.loc 1 326 0
 2610 00f8 844E     		ldr	r6, .L487+24
 2611 00fa 0FCE     		ldmia	r6!, {r0, r1, r2, r3}
 2612              	.LVL331:
 2613 00fc 0FC5     		stmia	r5!, {r0, r1, r2, r3}
 2614 00fe 96E80700 		ldmia	r6, {r0, r1, r2}
 2615 0102 03C5     		stmia	r5!, {r0, r1}
 2616 0104 2A70     		strb	r2, [r5]
 2617              	.L408:
 326:.\main.c      **** 		switch(FileSys.fs_type) { //In case filesys type is of interest
 2618              		.loc 1 326 0 is_stmt 0 discriminator 2
 2619 0106 FFF7FEFF 		bl	USBUART_1_CDCIsReady
 2620              	.LVL332:
 2621 010a 0028     		cmp	r0, #0
 2622 010c FBD0     		beq	.L408
 326:.\main.c      **** 		switch(FileSys.fs_type) { //In case filesys type is of interest
 2623              		.loc 1 326 0 discriminator 3
 2624 010e 2046     		mov	r0, r4
 2625 0110 FFF7FEFF 		bl	USBUART_1_PutString
 2626              	.LVL333:
 2627              	.LBE371:
 327:.\main.c      **** 		case FS_FAT12:	dbgprint("FAT12\n"); break;
 2628              		.loc 1 327 0 is_stmt 1 discriminator 3
 2629 0114 9DF8B032 		ldrb	r3, [sp, #688]	@ zero_extendqisi2
 2630 0118 022B     		cmp	r3, #2
 2631 011a 00F03381 		beq	.L410
 2632 011e 032B     		cmp	r3, #3
 2633 0120 00F02281 		beq	.L411
 2634 0124 012B     		cmp	r3, #1
 2635 0126 00F01181 		beq	.L486
 2636              	.LBB372:
 331:.\main.c      **** 		}
ARM GAS  C:\Users\honet\AppData\Local\Temp\cc6gsi1c.s 			page 58


 2637              		.loc 1 331 0
 2638 012a 2346     		mov	r3, r4
 2639 012c 784A     		ldr	r2, .L487+28
 2640 012e 07CA     		ldmia	r2, {r0, r1, r2}
 2641 0130 03C3     		stmia	r3!, {r0, r1}
 2642 0132 1A70     		strb	r2, [r3]
 2643              	.L417:
 331:.\main.c      **** 		}
 2644              		.loc 1 331 0 is_stmt 0 discriminator 2
 2645 0134 FFF7FEFF 		bl	USBUART_1_CDCIsReady
 2646              	.LVL334:
 2647 0138 0028     		cmp	r0, #0
 2648 013a FBD0     		beq	.L417
 2649              	.L483:
 2650              	.LBE372:
 2651              	.LBB373:
 337:.\main.c      **** 	dbgprint("size, write(ms), write(kbps), read(ms), read(kbps)\n");
 2652              		.loc 1 337 0 is_stmt 1 discriminator 3
 2653 013c 2546     		mov	r5, r4
 2654              	.LBE373:
 2655              	.LBB374:
 331:.\main.c      **** 		}
 2656              		.loc 1 331 0 discriminator 3
 2657 013e 2046     		mov	r0, r4
 2658              	.LBE374:
 2659              	.LBB375:
 337:.\main.c      **** 	dbgprint("size, write(ms), write(kbps), read(ms), read(kbps)\n");
 2660              		.loc 1 337 0 discriminator 3
 2661 0140 744E     		ldr	r6, .L487+32
 2662              	.LBE375:
 2663              	.LBB376:
 331:.\main.c      **** 		}
 2664              		.loc 1 331 0 discriminator 3
 2665 0142 FFF7FEFF 		bl	USBUART_1_PutString
 2666              	.LVL335:
 2667              	.LBE376:
 336:.\main.c      **** 	dbgprint(">>>>> Start Benchmark.....\n");
 2668              		.loc 1 336 0 discriminator 3
 2669 0146 0120     		movs	r0, #1
 2670 0148 FFF7FEFF 		bl	SDSPI_SetDMAMode
 2671              	.LVL336:
 2672              	.LBB377:
 337:.\main.c      **** 	dbgprint("size, write(ms), write(kbps), read(ms), read(kbps)\n");
 2673              		.loc 1 337 0 discriminator 3
 2674 014c 0FCE     		ldmia	r6!, {r0, r1, r2, r3}
 2675 014e 0FC5     		stmia	r5!, {r0, r1, r2, r3}
 2676 0150 96E80700 		ldmia	r6, {r0, r1, r2}
 2677 0154 85E80700 		stmia	r5, {r0, r1, r2}
 2678              	.L418:
 337:.\main.c      **** 	dbgprint("size, write(ms), write(kbps), read(ms), read(kbps)\n");
 2679              		.loc 1 337 0 is_stmt 0 discriminator 2
 2680 0158 FFF7FEFF 		bl	USBUART_1_CDCIsReady
 2681              	.LVL337:
 2682 015c 0028     		cmp	r0, #0
 2683 015e FBD0     		beq	.L418
 2684              	.LBE377:
 2685              	.LBB378:
ARM GAS  C:\Users\honet\AppData\Local\Temp\cc6gsi1c.s 			page 59


 338:.\main.c      **** 	
 2686              		.loc 1 338 0 is_stmt 1 discriminator 3
 2687 0160 2546     		mov	r5, r4
 2688 0162 6D4E     		ldr	r6, .L487+36
 2689              	.LBE378:
 2690              	.LBB379:
 337:.\main.c      **** 	dbgprint("size, write(ms), write(kbps), read(ms), read(kbps)\n");
 2691              		.loc 1 337 0 discriminator 3
 2692 0164 2046     		mov	r0, r4
 2693 0166 FFF7FEFF 		bl	USBUART_1_PutString
 2694              	.LVL338:
 2695              	.LBE379:
 2696              	.LBB380:
 338:.\main.c      **** 	
 2697              		.loc 1 338 0 discriminator 3
 2698 016a 0FCE     		ldmia	r6!, {r0, r1, r2, r3}
 2699 016c 0FC5     		stmia	r5!, {r0, r1, r2, r3}
 2700 016e 0FCE     		ldmia	r6!, {r0, r1, r2, r3}
 2701 0170 0FC5     		stmia	r5!, {r0, r1, r2, r3}
 2702 0172 0FCE     		ldmia	r6!, {r0, r1, r2, r3}
 2703 0174 0FC5     		stmia	r5!, {r0, r1, r2, r3}
 2704 0176 3368     		ldr	r3, [r6]
 2705 0178 2B60     		str	r3, [r5]
 2706              	.L419:
 338:.\main.c      **** 	
 2707              		.loc 1 338 0 is_stmt 0 discriminator 2
 2708 017a FFF7FEFF 		bl	USBUART_1_CDCIsReady
 2709              	.LVL339:
 2710 017e 0028     		cmp	r0, #0
 2711 0180 FBD0     		beq	.L419
 338:.\main.c      **** 	
 2712              		.loc 1 338 0 discriminator 3
 2713 0182 2046     		mov	r0, r4
 2714 0184 FFF7FEFF 		bl	USBUART_1_PutString
 2715              	.LVL340:
 2716              	.LBE380:
 2717              	.LBB381:
 2718              	.LBB382:
 350:.\main.c      **** 			for(uint32_t k=0; k<nrepeat; k++){
 2719              		.loc 1 350 0 is_stmt 1 discriminator 3
 2720 0188 DFF8A891 		ldr	r9, .L487+64
 2721              	.LBE382:
 2722              	.LBE381:
 2723              	.LBB395:
 2724 018c 4FF01008 		mov	r8, #16
 2725              	.LBE395:
 340:.\main.c      **** 		dbgprint("%d, ",size);
 2726              		.loc 1 340 0 discriminator 3
 2727 0190 0126     		movs	r6, #1
 2728              	.LVL341:
 2729              	.L431:
 2730              	.LBB396:
 2731              	.LBB387:
 341:.\main.c      **** 
 2732              		.loc 1 341 0
 2733 0192 2046     		mov	r0, r4
 2734 0194 6149     		ldr	r1, .L487+40
ARM GAS  C:\Users\honet\AppData\Local\Temp\cc6gsi1c.s 			page 60


 2735 0196 3246     		mov	r2, r6
 2736 0198 FFF7FEFF 		bl	sprintf
 2737              	.LVL342:
 2738              	.L420:
 341:.\main.c      **** 
 2739              		.loc 1 341 0 is_stmt 0 discriminator 2
 2740 019c FFF7FEFF 		bl	USBUART_1_CDCIsReady
 2741              	.LVL343:
 2742 01a0 0028     		cmp	r0, #0
 2743 01a2 FBD0     		beq	.L420
 341:.\main.c      **** 
 2744              		.loc 1 341 0 discriminator 3
 2745 01a4 2046     		mov	r0, r4
 2746 01a6 FFF7FEFF 		bl	USBUART_1_PutString
 2747              	.LVL344:
 2748              	.LBE387:
 344:.\main.c      **** 		
 2749              		.loc 1 344 0 is_stmt 1 discriminator 3
 2750 01aa 202E     		cmp	r6, #32
 348:.\main.c      **** 		if (res==FR_OK){
 2751              		.loc 1 348 0 discriminator 3
 2752 01ac 2046     		mov	r0, r4
 2753 01ae 5C49     		ldr	r1, .L487+44
 2754 01b0 4FF00A02 		mov	r2, #10
 344:.\main.c      **** 		
 2755              		.loc 1 344 0 discriminator 3
 2756 01b4 42F21077 		movw	r7, #10000
 2757 01b8 28BF     		it	cs
 2758 01ba 6427     		movcs	r7, #100
 2759              	.LVL345:
 348:.\main.c      **** 		if (res==FR_OK){
 2760              		.loc 1 348 0 discriminator 3
 2761 01bc FFF7FEFF 		bl	f_open
 2762              	.LVL346:
 349:.\main.c      **** 			nCurrentMillis = nmillis; //get current millisecond count
 2763              		.loc 1 349 0 discriminator 3
 2764 01c0 70BB     		cbnz	r0, .L422
 2765              	.LBB388:
 2766              	.LBB383:
 351:.\main.c      **** 				//res = f_lseek(&BinFile, 0);
 2767              		.loc 1 351 0
 2768 01c2 0546     		mov	r5, r0
 2769              	.LBE383:
 350:.\main.c      **** 			for(uint32_t k=0; k<nrepeat; k++){
 2770              		.loc 1 350 0
 2771 01c4 D9F800A0 		ldr	r10, [r9]
 2772              	.LVL347:
 2773              	.L423:
 2774              	.LBB384:
 351:.\main.c      **** 				//res = f_lseek(&BinFile, 0);
 2775              		.loc 1 351 0 discriminator 3
 2776 01c8 0135     		adds	r5, r5, #1
 2777              	.LVL348:
 353:.\main.c      **** 			}
 2778              		.loc 1 353 0 discriminator 3
 2779 01ca 2046     		mov	r0, r4
 2780 01cc 4949     		ldr	r1, .L487
ARM GAS  C:\Users\honet\AppData\Local\Temp\cc6gsi1c.s 			page 61


 2781 01ce 3246     		mov	r2, r6
 2782 01d0 6B46     		mov	r3, sp
 2783 01d2 FFF7FEFF 		bl	f_write
 2784              	.LVL349:
 351:.\main.c      **** 				//res = f_lseek(&BinFile, 0);
 2785              		.loc 1 351 0 discriminator 3
 2786 01d6 BD42     		cmp	r5, r7
 2787 01d8 F6D1     		bne	.L423
 2788              	.LBE384:
 355:.\main.c      **** 			res = f_close(&BinFile);
 2789              		.loc 1 355 0
 2790 01da D9F80030 		ldr	r3, [r9]
 356:.\main.c      **** 
 2791              		.loc 1 356 0
 2792 01de 2046     		mov	r0, r4
 355:.\main.c      **** 			res = f_close(&BinFile);
 2793              		.loc 1 355 0
 2794 01e0 CAEB0305 		rsb	r5, r10, r3
 2795              	.LVL350:
 356:.\main.c      **** 
 2796              		.loc 1 356 0
 2797 01e4 FFF7FEFF 		bl	f_close
 2798              	.LVL351:
 2799              	.LBB385:
 358:.\main.c      **** 			uint32_t kbps = nrepeat*size*8 / nTime;
 2800              		.loc 1 358 0
 2801 01e8 02A8     		add	r0, sp, #8
 2802 01ea 2A46     		mov	r2, r5
 2803 01ec 4D49     		ldr	r1, .L487+48
 2804 01ee FFF7FEFF 		bl	sprintf
 2805              	.LVL352:
 2806              	.L424:
 358:.\main.c      **** 			uint32_t kbps = nrepeat*size*8 / nTime;
 2807              		.loc 1 358 0 is_stmt 0 discriminator 2
 2808 01f2 FFF7FEFF 		bl	USBUART_1_CDCIsReady
 2809              	.LVL353:
 2810 01f6 0028     		cmp	r0, #0
 2811 01f8 FBD0     		beq	.L424
 358:.\main.c      **** 			uint32_t kbps = nrepeat*size*8 / nTime;
 2812              		.loc 1 358 0 discriminator 3
 2813 01fa 02A8     		add	r0, sp, #8
 2814 01fc FFF7FEFF 		bl	USBUART_1_PutString
 2815              	.LVL354:
 2816 0200 F200     		lsls	r2, r6, #3
 2817              	.LBE385:
 359:.\main.c      **** 			dbgprint("%u, ", kbps);
 2818              		.loc 1 359 0 is_stmt 1 discriminator 3
 2819 0202 07FB02F2 		mul	r2, r7, r2
 2820              	.LBB386:
 360:.\main.c      **** 		}
 2821              		.loc 1 360 0 discriminator 3
 2822 0206 02A8     		add	r0, sp, #8
 2823 0208 B2FBF5F2 		udiv	r2, r2, r5
 2824              	.LVL355:
 2825 020c 4549     		ldr	r1, .L487+48
 2826 020e FFF7FEFF 		bl	sprintf
 2827              	.LVL356:
ARM GAS  C:\Users\honet\AppData\Local\Temp\cc6gsi1c.s 			page 62


 2828              	.L425:
 360:.\main.c      **** 		}
 2829              		.loc 1 360 0 is_stmt 0 discriminator 2
 2830 0212 FFF7FEFF 		bl	USBUART_1_CDCIsReady
 2831              	.LVL357:
 2832 0216 0028     		cmp	r0, #0
 2833 0218 FBD0     		beq	.L425
 360:.\main.c      **** 		}
 2834              		.loc 1 360 0 discriminator 3
 2835 021a 02A8     		add	r0, sp, #8
 2836 021c FFF7FEFF 		bl	USBUART_1_PutString
 2837              	.LVL358:
 2838              	.L422:
 2839              	.LBE386:
 2840              	.LBE388:
 363:.\main.c      **** 		if(res==FR_OK){
 2841              		.loc 1 363 0 is_stmt 1
 2842 0220 2046     		mov	r0, r4
 2843 0222 3F49     		ldr	r1, .L487+44
 2844 0224 0122     		movs	r2, #1
 2845 0226 FFF7FEFF 		bl	f_open
 2846              	.LVL359:
 364:.\main.c      **** 			nCurrentMillis = nmillis; //get current millisecond count
 2847              		.loc 1 364 0
 2848 022a 70BB     		cbnz	r0, .L426
 2849              	.LBB389:
 2850              	.LBB390:
 366:.\main.c      **** 				//res = f_lseek(&BinFile, 0);
 2851              		.loc 1 366 0
 2852 022c 0546     		mov	r5, r0
 2853              	.LBE390:
 365:.\main.c      **** 			for(uint32_t k=0; k<nrepeat; k++){
 2854              		.loc 1 365 0
 2855 022e D9F800A0 		ldr	r10, [r9]
 2856              	.LVL360:
 2857              	.L427:
 2858              	.LBB391:
 366:.\main.c      **** 				//res = f_lseek(&BinFile, 0);
 2859              		.loc 1 366 0 discriminator 3
 2860 0232 0135     		adds	r5, r5, #1
 2861              	.LVL361:
 368:.\main.c      **** 			}
 2862              		.loc 1 368 0 discriminator 3
 2863 0234 2046     		mov	r0, r4
 2864 0236 2F49     		ldr	r1, .L487
 2865 0238 3246     		mov	r2, r6
 2866 023a 01AB     		add	r3, sp, #4
 2867 023c FFF7FEFF 		bl	f_read
 2868              	.LVL362:
 366:.\main.c      **** 				//res = f_lseek(&BinFile, 0);
 2869              		.loc 1 366 0 discriminator 3
 2870 0240 BD42     		cmp	r5, r7
 2871 0242 F6D1     		bne	.L427
 2872              	.LBE391:
 370:.\main.c      **** 			res = f_close(&BinFile);
 2873              		.loc 1 370 0
 2874 0244 D9F80030 		ldr	r3, [r9]
ARM GAS  C:\Users\honet\AppData\Local\Temp\cc6gsi1c.s 			page 63


 371:.\main.c      **** 
 2875              		.loc 1 371 0
 2876 0248 2046     		mov	r0, r4
 370:.\main.c      **** 			res = f_close(&BinFile);
 2877              		.loc 1 370 0
 2878 024a CAEB0305 		rsb	r5, r10, r3
 2879              	.LVL363:
 371:.\main.c      **** 
 2880              		.loc 1 371 0
 2881 024e FFF7FEFF 		bl	f_close
 2882              	.LVL364:
 2883              	.LBB392:
 373:.\main.c      **** 			uint32_t kbps = nrepeat*size*8 / nTime;
 2884              		.loc 1 373 0
 2885 0252 02A8     		add	r0, sp, #8
 2886 0254 2A46     		mov	r2, r5
 2887 0256 3349     		ldr	r1, .L487+48
 2888 0258 FFF7FEFF 		bl	sprintf
 2889              	.LVL365:
 2890              	.L428:
 373:.\main.c      **** 			uint32_t kbps = nrepeat*size*8 / nTime;
 2891              		.loc 1 373 0 is_stmt 0 discriminator 2
 2892 025c FFF7FEFF 		bl	USBUART_1_CDCIsReady
 2893              	.LVL366:
 2894 0260 0028     		cmp	r0, #0
 2895 0262 FBD0     		beq	.L428
 373:.\main.c      **** 			uint32_t kbps = nrepeat*size*8 / nTime;
 2896              		.loc 1 373 0 discriminator 3
 2897 0264 02A8     		add	r0, sp, #8
 2898 0266 FFF7FEFF 		bl	USBUART_1_PutString
 2899              	.LVL367:
 2900 026a F200     		lsls	r2, r6, #3
 2901              	.LBE392:
 374:.\main.c      **** 			dbgprint("%u, ", kbps);
 2902              		.loc 1 374 0 is_stmt 1 discriminator 3
 2903 026c 07FB02F2 		mul	r2, r7, r2
 2904              	.LBB393:
 375:.\main.c      **** 		}
 2905              		.loc 1 375 0 discriminator 3
 2906 0270 02A8     		add	r0, sp, #8
 2907 0272 B2FBF5F2 		udiv	r2, r2, r5
 2908              	.LVL368:
 2909 0276 2B49     		ldr	r1, .L487+48
 2910 0278 FFF7FEFF 		bl	sprintf
 2911              	.LVL369:
 2912              	.L429:
 375:.\main.c      **** 		}
 2913              		.loc 1 375 0 is_stmt 0 discriminator 2
 2914 027c FFF7FEFF 		bl	USBUART_1_CDCIsReady
 2915              	.LVL370:
 2916 0280 0028     		cmp	r0, #0
 2917 0282 FBD0     		beq	.L429
 375:.\main.c      **** 		}
 2918              		.loc 1 375 0 discriminator 3
 2919 0284 02A8     		add	r0, sp, #8
 2920 0286 FFF7FEFF 		bl	USBUART_1_PutString
 2921              	.LVL371:
ARM GAS  C:\Users\honet\AppData\Local\Temp\cc6gsi1c.s 			page 64


 2922              	.L426:
 2923              	.LBE393:
 2924              	.LBE389:
 2925              	.LBB394:
 378:.\main.c      **** 	}
 2926              		.loc 1 378 0 is_stmt 1
 2927 028a 0A23     		movs	r3, #10
 2928 028c ADF80830 		strh	r3, [sp, #8]	@ movhi
 2929              	.L430:
 378:.\main.c      **** 	}
 2930              		.loc 1 378 0 is_stmt 0 discriminator 2
 2931 0290 FFF7FEFF 		bl	USBUART_1_CDCIsReady
 2932              	.LVL372:
 2933 0294 0028     		cmp	r0, #0
 2934 0296 FBD0     		beq	.L430
 378:.\main.c      **** 	}
 2935              		.loc 1 378 0 discriminator 3
 2936 0298 02A8     		add	r0, sp, #8
 2937 029a FFF7FEFF 		bl	USBUART_1_PutString
 2938              	.LVL373:
 2939              	.LBE394:
 2940              	.LBE396:
 340:.\main.c      **** 		dbgprint("%d, ",size);
 2941              		.loc 1 340 0 is_stmt 1 discriminator 3
 2942 029e B8F10108 		subs	r8, r8, #1
 2943 02a2 4FEA4606 		lsl	r6, r6, #1
 2944              	.LVL374:
 2945 02a6 7FF474AF 		bne	.L431
 2946 02aa DBE6     		b	.L396
 2947              	.LVL375:
 2948              	.L403:
 2949              	.LBB397:
 320:.\main.c      **** 		default: break;
 2950              		.loc 1 320 0
 2951 02ac 2546     		mov	r5, r4
 2952 02ae 1E4E     		ldr	r6, .L487+52
 2953 02b0 0FCE     		ldmia	r6!, {r0, r1, r2, r3}
 2954 02b2 0FC5     		stmia	r5!, {r0, r1, r2, r3}
 2955 02b4 3368     		ldr	r3, [r6]
 2956 02b6 2B80     		strh	r3, [r5]	@ movhi
 2957              	.L407:
 320:.\main.c      **** 		default: break;
 2958              		.loc 1 320 0 is_stmt 0 discriminator 2
 2959 02b8 FFF7FEFF 		bl	USBUART_1_CDCIsReady
 2960              	.LVL376:
 2961 02bc 0028     		cmp	r0, #0
 2962 02be FBD0     		beq	.L407
 2963              	.L485:
 320:.\main.c      **** 		default: break;
 2964              		.loc 1 320 0 discriminator 3
 2965 02c0 2046     		mov	r0, r4
 2966 02c2 FFF7FEFF 		bl	USBUART_1_PutString
 2967              	.LVL377:
 2968              	.LBE397:
 2969 02c6 CDE6     		b	.L396
 2970              	.L402:
 2971              	.LBB398:
ARM GAS  C:\Users\honet\AppData\Local\Temp\cc6gsi1c.s 			page 65


 317:.\main.c      **** 		case FR_DISK_ERR:		dbgprint("FR_DISK_ERR\n"); break;
 2972              		.loc 1 317 0 is_stmt 1
 2973 02c8 2546     		mov	r5, r4
 2974 02ca 184E     		ldr	r6, .L487+56
 2975 02cc 0FCE     		ldmia	r6!, {r0, r1, r2, r3}
 2976 02ce 0FC5     		stmia	r5!, {r0, r1, r2, r3}
 2977 02d0 3368     		ldr	r3, [r6]
 2978 02d2 2B80     		strh	r3, [r5]	@ movhi
 2979              	.L404:
 317:.\main.c      **** 		case FR_DISK_ERR:		dbgprint("FR_DISK_ERR\n"); break;
 2980              		.loc 1 317 0 is_stmt 0 discriminator 2
 2981 02d4 FFF7FEFF 		bl	USBUART_1_CDCIsReady
 2982              	.LVL378:
 2983 02d8 0028     		cmp	r0, #0
 2984 02da FBD0     		beq	.L404
 2985 02dc F0E7     		b	.L485
 2986              	.L401:
 2987              	.LBE398:
 2988              	.LBB399:
 319:.\main.c      **** 		case FR_NO_FILESYSTEM:	dbgprint("FR_NO_FILESYSTEM\n"); break;
 2989              		.loc 1 319 0 is_stmt 1
 2990 02de 2546     		mov	r5, r4
 2991 02e0 134B     		ldr	r3, .L487+60
 2992 02e2 0FCB     		ldmia	r3, {r0, r1, r2, r3}
 2993 02e4 07C5     		stmia	r5!, {r0, r1, r2}
 2994 02e6 2B80     		strh	r3, [r5]	@ movhi
 2995              	.L406:
 319:.\main.c      **** 		case FR_NO_FILESYSTEM:	dbgprint("FR_NO_FILESYSTEM\n"); break;
 2996              		.loc 1 319 0 is_stmt 0 discriminator 2
 2997 02e8 FFF7FEFF 		bl	USBUART_1_CDCIsReady
 2998              	.LVL379:
 2999 02ec 0028     		cmp	r0, #0
 3000 02ee FBD0     		beq	.L406
 3001 02f0 E6E7     		b	.L485
 3002              	.L488:
 3003 02f2 00BF     		.align	2
 3004              	.L487:
 3005 02f4 00000000 		.word	buffer
 3006 02f8 50010000 		.word	.LC22
 3007 02fc 64010000 		.word	.LC23
 3008 0300 A0030000 		.word	.LC54
 3009 0304 7C010000 		.word	.LC24
 3010 0308 80010000 		.word	.LC25
 3011 030c E4010000 		.word	.LC30
 3012 0310 18020000 		.word	.LC34
 3013 0314 B0030000 		.word	.LC55
 3014 0318 CC030000 		.word	.LC56
 3015 031c 00040000 		.word	.LC57
 3016 0320 6C030000 		.word	.LC52
 3017 0324 08040000 		.word	.LC58
 3018 0328 D0010000 		.word	.LC29
 3019 032c 9C010000 		.word	.LC26
 3020 0330 C0010000 		.word	.LC28
 3021 0334 00000000 		.word	.LANCHOR0
 3022              	.L399:
 3023              	.LBE399:
 3024              	.LBB400:
ARM GAS  C:\Users\honet\AppData\Local\Temp\cc6gsi1c.s 			page 66


 318:.\main.c      **** 		case FR_NOT_READY:		dbgprint("FR_NOT_READY\n"); break;
 3025              		.loc 1 318 0 is_stmt 1
 3026 0338 2546     		mov	r5, r4
 3027 033a 194B     		ldr	r3, .L489
 3028 033c 0FCB     		ldmia	r3, {r0, r1, r2, r3}
 3029 033e 07C5     		stmia	r5!, {r0, r1, r2}
 3030 0340 2B70     		strb	r3, [r5]
 3031              	.L405:
 318:.\main.c      **** 		case FR_NOT_READY:		dbgprint("FR_NOT_READY\n"); break;
 3032              		.loc 1 318 0 is_stmt 0 discriminator 2
 3033 0342 FFF7FEFF 		bl	USBUART_1_CDCIsReady
 3034              	.LVL380:
 3035 0346 0028     		cmp	r0, #0
 3036 0348 FBD0     		beq	.L405
 3037 034a B9E7     		b	.L485
 3038              	.L486:
 3039              	.LBE400:
 3040              	.LBB401:
 328:.\main.c      **** 		case FS_FAT16:	dbgprint("FAT16\n"); break;
 3041              		.loc 1 328 0 is_stmt 1
 3042 034c 154A     		ldr	r2, .L489+4
 3043 034e 92E80300 		ldmia	r2, {r0, r1}
 3044 0352 0A0C     		lsrs	r2, r1, #16
 3045 0354 2060     		str	r0, [r4]
 3046 0356 ADF88C10 		strh	r1, [sp, #140]	@ movhi
 3047 035a 8DF88E20 		strb	r2, [sp, #142]
 3048              	.L413:
 328:.\main.c      **** 		case FS_FAT16:	dbgprint("FAT16\n"); break;
 3049              		.loc 1 328 0 is_stmt 0 discriminator 2
 3050 035e FFF7FEFF 		bl	USBUART_1_CDCIsReady
 3051              	.LVL381:
 3052 0362 0028     		cmp	r0, #0
 3053 0364 FBD0     		beq	.L413
 3054 0366 E9E6     		b	.L483
 3055              	.L411:
 3056              	.LBE401:
 3057              	.LBB402:
 330:.\main.c      **** 		default:		dbgprint("UNKNOWN\n"); break;
 3058              		.loc 1 330 0 is_stmt 1
 3059 0368 0F4A     		ldr	r2, .L489+8
 3060 036a 92E80300 		ldmia	r2, {r0, r1}
 3061 036e 0A0C     		lsrs	r2, r1, #16
 3062 0370 2060     		str	r0, [r4]
 3063 0372 ADF88C10 		strh	r1, [sp, #140]	@ movhi
 3064 0376 8DF88E20 		strb	r2, [sp, #142]
 3065              	.L416:
 330:.\main.c      **** 		default:		dbgprint("UNKNOWN\n"); break;
 3066              		.loc 1 330 0 is_stmt 0 discriminator 2
 3067 037a FFF7FEFF 		bl	USBUART_1_CDCIsReady
 3068              	.LVL382:
 3069 037e 0028     		cmp	r0, #0
 3070 0380 FBD0     		beq	.L416
 3071 0382 DBE6     		b	.L483
 3072              	.L410:
 3073              	.LBE402:
 3074              	.LBB403:
 329:.\main.c      **** 		case FS_FAT32:	dbgprint("FAT32\n"); break;
ARM GAS  C:\Users\honet\AppData\Local\Temp\cc6gsi1c.s 			page 67


 3075              		.loc 1 329 0 is_stmt 1
 3076 0384 094A     		ldr	r2, .L489+12
 3077 0386 92E80300 		ldmia	r2, {r0, r1}
 3078 038a 0A0C     		lsrs	r2, r1, #16
 3079 038c 2060     		str	r0, [r4]
 3080 038e ADF88C10 		strh	r1, [sp, #140]	@ movhi
 3081 0392 8DF88E20 		strb	r2, [sp, #142]
 3082              	.L415:
 329:.\main.c      **** 		case FS_FAT32:	dbgprint("FAT32\n"); break;
 3083              		.loc 1 329 0 is_stmt 0 discriminator 2
 3084 0396 FFF7FEFF 		bl	USBUART_1_CDCIsReady
 3085              	.LVL383:
 3086 039a 0028     		cmp	r0, #0
 3087 039c FBD0     		beq	.L415
 3088 039e CDE6     		b	.L483
 3089              	.L490:
 3090              		.align	2
 3091              	.L489:
 3092 03a0 B0010000 		.word	.LC27
 3093 03a4 00020000 		.word	.LC31
 3094 03a8 10020000 		.word	.LC33
 3095 03ac 08020000 		.word	.LC32
 3096              	.LBE403:
 3097              		.cfi_endproc
 3098              	.LFE69:
 3099              		.size	sdbench, .-sdbench
 3100              		.section	.text.startup.main,"ax",%progbits
 3101              		.align	2
 3102              		.global	main
 3103              		.thumb
 3104              		.thumb_func
 3105              		.type	main, %function
 3106              	main:
 3107              	.LFB70:
 386:.\main.c      **** 
 387:.\main.c      **** 
 388:.\main.c      **** int main()
 389:.\main.c      **** {
 3108              		.loc 1 389 0 is_stmt 1
 3109              		.cfi_startproc
 3110              		@ args = 0, pretend = 0, frame = 128
 3111              		@ frame_needed = 0, uses_anonymous_args = 0
 3112 0000 30B5     		push	{r4, r5, lr}
 3113              		.cfi_def_cfa_offset 12
 3114              		.cfi_offset 4, -12
 3115              		.cfi_offset 5, -8
 3116              		.cfi_offset 14, -4
 390:.\main.c      **** 	//    SysResetReg_Write(1);
 391:.\main.c      **** 	//    CyDelay(1);
 392:.\main.c      **** 	//    SysResetReg_Write(0);
 393:.\main.c      **** 
 394:.\main.c      ****     CyDelay(1000);
 3117              		.loc 1 394 0
 3118 0002 4FF47A70 		mov	r0, #1000
 389:.\main.c      **** 	//    SysResetReg_Write(1);
 3119              		.loc 1 389 0
 3120 0006 A1B0     		sub	sp, sp, #132
ARM GAS  C:\Users\honet\AppData\Local\Temp\cc6gsi1c.s 			page 68


 3121              		.cfi_def_cfa_offset 144
 3122              		.loc 1 394 0
 3123 0008 FFF7FEFF 		bl	CyDelay
 3124              	.LVL384:
 395:.\main.c      **** 	LEDControl_Write(1);
 3125              		.loc 1 395 0
 3126 000c 0120     		movs	r0, #1
 3127 000e FFF7FEFF 		bl	LEDControl_Write
 3128              	.LVL385:
 396:.\main.c      **** 	CyGlobalIntEnable;              //Enable interrupts
 3129              		.loc 1 396 0
 3130              	@ 396 ".\main.c" 1
 3131 0012 62B6     		CPSIE   i
 3132              	@ 0 "" 2
 397:.\main.c      **** 
 398:.\main.c      **** 	USBUART_1_Start(0, USBUART_1_DWR_VDDD_OPERATION);
 3133              		.loc 1 398 0
 3134              		.thumb
 3135 0014 0020     		movs	r0, #0
 3136 0016 0221     		movs	r1, #2
 3137 0018 FFF7FEFF 		bl	USBUART_1_Start
 3138              	.LVL386:
 3139              	.L492:
 399:.\main.c      **** 	while(!USBUART_1_bGetConfiguration());
 3140              		.loc 1 399 0 discriminator 1
 3141 001c FFF7FEFF 		bl	USBUART_1_GetConfiguration
 3142              	.LVL387:
 3143 0020 0028     		cmp	r0, #0
 3144 0022 FBD0     		beq	.L492
 400:.\main.c      **** 	USBUART_1_CDC_Init();
 3145              		.loc 1 400 0
 3146 0024 FFF7FEFF 		bl	USBUART_1_CDC_Init
 3147              	.LVL388:
 401:.\main.c      **** 
 402:.\main.c      **** 	SDSPI_Start(SDCARD_SLOW, SDCARD_FAST, PrintFxn);   //Initialise SD card and file system (note: Pri
 3148              		.loc 1 402 0
 3149 0028 1648     		ldr	r0, .L505
 3150 002a 1749     		ldr	r1, .L505+4
 3151 002c 174A     		ldr	r2, .L505+8
 3152 002e FFF7FEFF 		bl	SDSPI_Start
 3153              	.LVL389:
 403:.\main.c      **** 
 404:.\main.c      **** 	MillisecISR_StartEx(MillisISR); //start millisec ISR
 3154              		.loc 1 404 0
 3155 0032 1748     		ldr	r0, .L505+12
 3156 0034 FFF7FEFF 		bl	MillisecISR_StartEx
 3157              	.LVL390:
 3158 0038 164D     		ldr	r5, .L505+16
 3159              	.L496:
 3160              	.LVL391:
 3161              	.LBB404:
 405:.\main.c      **** 
 406:.\main.c      **** 	for(;;){
 407:.\main.c      **** 		for(int i=5; i>0; i--){
 3162              		.loc 1 407 0
 3163 003a 0524     		movs	r4, #5
 3164              	.LVL392:
ARM GAS  C:\Users\honet\AppData\Local\Temp\cc6gsi1c.s 			page 69


 3165              	.L494:
 3166              	.LBB405:
 408:.\main.c      **** 			dbgprint("%d.\n", i);
 3167              		.loc 1 408 0
 3168 003c 6846     		mov	r0, sp
 3169 003e 1649     		ldr	r1, .L505+20
 3170 0040 2246     		mov	r2, r4
 3171 0042 FFF7FEFF 		bl	sprintf
 3172              	.LVL393:
 3173              	.L493:
 3174              		.loc 1 408 0 is_stmt 0 discriminator 2
 3175 0046 FFF7FEFF 		bl	USBUART_1_CDCIsReady
 3176              	.LVL394:
 3177 004a 0028     		cmp	r0, #0
 3178 004c FBD0     		beq	.L493
 3179              		.loc 1 408 0 discriminator 3
 3180 004e 6846     		mov	r0, sp
 3181 0050 FFF7FEFF 		bl	USBUART_1_PutString
 3182              	.LVL395:
 3183              	.LBE405:
 409:.\main.c      **** 			CyDelay(1000);
 3184              		.loc 1 409 0 is_stmt 1 discriminator 3
 3185 0054 4FF47A70 		mov	r0, #1000
 3186 0058 FFF7FEFF 		bl	CyDelay
 3187              	.LVL396:
 407:.\main.c      **** 			dbgprint("%d.\n", i);
 3188              		.loc 1 407 0 discriminator 3
 3189 005c 013C     		subs	r4, r4, #1
 3190              	.LVL397:
 3191 005e EDD1     		bne	.L494
 3192              	.LBE404:
 3193              	.LBB406:
 410:.\main.c      **** 		}
 411:.\main.c      **** 		dbgprint("Hello SDC\n");
 3194              		.loc 1 411 0
 3195 0060 95E80700 		ldmia	r5, {r0, r1, r2}
 3196 0064 6B46     		mov	r3, sp
 3197 0066 03C3     		stmia	r3!, {r0, r1}
 3198 0068 110C     		lsrs	r1, r2, #16
 3199 006a 23F8022B 		strh	r2, [r3], #2	@ movhi
 3200 006e 1970     		strb	r1, [r3]
 3201              	.L495:
 3202              		.loc 1 411 0 is_stmt 0 discriminator 2
 3203 0070 FFF7FEFF 		bl	USBUART_1_CDCIsReady
 3204              	.LVL398:
 3205 0074 0028     		cmp	r0, #0
 3206 0076 FBD0     		beq	.L495
 3207              		.loc 1 411 0 discriminator 3
 3208 0078 6846     		mov	r0, sp
 3209 007a FFF7FEFF 		bl	USBUART_1_PutString
 3210              	.LVL399:
 3211              	.LBE406:
 412:.\main.c      **** 
 413:.\main.c      **** 		//sdcheck();
 414:.\main.c      **** 		sdbench();
 3212              		.loc 1 414 0 is_stmt 1 discriminator 3
 3213 007e FFF7FEFF 		bl	sdbench
ARM GAS  C:\Users\honet\AppData\Local\Temp\cc6gsi1c.s 			page 70


 3214              	.LVL400:
 415:.\main.c      **** 	}
 3215              		.loc 1 415 0 discriminator 3
 3216 0082 DAE7     		b	.L496
 3217              	.L506:
 3218              		.align	2
 3219              	.L505:
 3220 0084 00000000 		.word	SDCARD_SLOW
 3221 0088 00000000 		.word	SDCARD_FAST
 3222 008c 00000000 		.word	PrintFxn
 3223 0090 00000000 		.word	MillisISR
 3224 0094 18040000 		.word	.LC60
 3225 0098 10040000 		.word	.LC59
 3226              		.cfi_endproc
 3227              	.LFE70:
 3228              		.size	main, .-main
 3229              		.comm	File,552,4
 3230              		.comm	buffer,32768,4
 3231              		.global	nmillis
 3232              		.section	.rodata.str1.4,"aMS",%progbits,1
 3233              		.align	2
 3234              	.LC0:
 3235 0000 25732045 		.ascii	"%s ERR! res=\000"
 3235      52522120 
 3235      7265733D 
 3235      00
 3236 000d 000000   		.space	3
 3237              	.LC1:
 3238 0010 46525F4F 		.ascii	"FR_OK\000"
 3238      4B00
 3239 0016 0000     		.space	2
 3240              	.LC2:
 3241 0018 46525F44 		.ascii	"FR_DISK_ERR\000"
 3241      49534B5F 
 3241      45525200 
 3242              	.LC3:
 3243 0024 46525F49 		.ascii	"FR_INT_ERR\000"
 3243      4E545F45 
 3243      525200
 3244 002f 00       		.space	1
 3245              	.LC4:
 3246 0030 46525F4E 		.ascii	"FR_NOT_READY\000"
 3246      4F545F52 
 3246      45414459 
 3246      00
 3247 003d 000000   		.space	3
 3248              	.LC5:
 3249 0040 46525F4E 		.ascii	"FR_NO_FILE\000"
 3249      4F5F4649 
 3249      4C4500
 3250 004b 00       		.space	1
 3251              	.LC6:
 3252 004c 46525F4E 		.ascii	"FR_NO_PATH\000"
 3252      4F5F5041 
 3252      544800
 3253 0057 00       		.space	1
 3254              	.LC7:
ARM GAS  C:\Users\honet\AppData\Local\Temp\cc6gsi1c.s 			page 71


 3255 0058 46525F49 		.ascii	"FR_INVALID_NAME\000"
 3255      4E56414C 
 3255      49445F4E 
 3255      414D4500 
 3256              	.LC8:
 3257 0068 46525F44 		.ascii	"FR_DENIED\000"
 3257      454E4945 
 3257      4400
 3258 0072 0000     		.space	2
 3259              	.LC9:
 3260 0074 46525F45 		.ascii	"FR_EXIST\000"
 3260      58495354 
 3260      00
 3261 007d 000000   		.space	3
 3262              	.LC10:
 3263 0080 46525F49 		.ascii	"FR_INVALID_OBJECT\000"
 3263      4E56414C 
 3263      49445F4F 
 3263      424A4543 
 3263      5400
 3264 0092 0000     		.space	2
 3265              	.LC11:
 3266 0094 46525F57 		.ascii	"FR_WRITE_PROTECTED\000"
 3266      52495445 
 3266      5F50524F 
 3266      54454354 
 3266      454400
 3267 00a7 00       		.space	1
 3268              	.LC12:
 3269 00a8 46525F49 		.ascii	"FR_INVALID_DRIVE\000"
 3269      4E56414C 
 3269      49445F44 
 3269      52495645 
 3269      00
 3270 00b9 000000   		.space	3
 3271              	.LC13:
 3272 00bc 46525F4E 		.ascii	"FR_NOT_ENABLED\000"
 3272      4F545F45 
 3272      4E41424C 
 3272      454400
 3273 00cb 00       		.space	1
 3274              	.LC14:
 3275 00cc 46525F4E 		.ascii	"FR_NO_FILESYSTEM\000"
 3275      4F5F4649 
 3275      4C455359 
 3275      5354454D 
 3275      00
 3276 00dd 000000   		.space	3
 3277              	.LC15:
 3278 00e0 46525F4D 		.ascii	"FR_MKFS_ABORTED\000"
 3278      4B46535F 
 3278      41424F52 
 3278      54454400 
 3279              	.LC16:
 3280 00f0 46525F54 		.ascii	"FR_TIMEOUT\000"
 3280      494D454F 
 3280      555400
ARM GAS  C:\Users\honet\AppData\Local\Temp\cc6gsi1c.s 			page 72


 3281 00fb 00       		.space	1
 3282              	.LC17:
 3283 00fc 46525F4C 		.ascii	"FR_LOCKED\000"
 3283      4F434B45 
 3283      4400
 3284 0106 0000     		.space	2
 3285              	.LC18:
 3286 0108 46525F4E 		.ascii	"FR_NOT_ENOUGH_CORE\000"
 3286      4F545F45 
 3286      4E4F5547 
 3286      485F434F 
 3286      524500
 3287 011b 00       		.space	1
 3288              	.LC19:
 3289 011c 46525F54 		.ascii	"FR_TOO_MANY_OPEN_FILES\000"
 3289      4F4F5F4D 
 3289      414E595F 
 3289      4F50454E 
 3289      5F46494C 
 3290 0133 00       		.space	1
 3291              	.LC20:
 3292 0134 46525F49 		.ascii	"FR_INVALID_PARAMETER\000"
 3292      4E56414C 
 3292      49445F50 
 3292      4152414D 
 3292      45544552 
 3293 0149 000000   		.space	3
 3294              	.LC21:
 3295 014c 256400   		.ascii	"%d\000"
 3296 014f 00       		.space	1
 3297              	.LC22:
 3298 0150 54727920 		.ascii	"Try to mount...\012\000"
 3298      746F206D 
 3298      6F756E74 
 3298      2E2E2E0A 
 3298      00
 3299 0161 000000   		.space	3
 3300              	.LC23:
 3301 0164 6469736B 		.ascii	"disk_initialize ret=%d\012\000"
 3301      5F696E69 
 3301      7469616C 
 3301      697A6520 
 3301      7265743D 
 3302              	.LC24:
 3303 017c 2F00     		.ascii	"/\000"
 3304 017e 0000     		.space	2
 3305              	.LC25:
 3306 0180 53442D43 		.ascii	"SD-CARD mount ERROR!! nRes=\000"
 3306      41524420 
 3306      6D6F756E 
 3306      74204552 
 3306      524F5221 
 3307              	.LC26:
 3308 019c 46525F49 		.ascii	"FR_INVALID_DRIVE\012\000"
 3308      4E56414C 
 3308      49445F44 
 3308      52495645 
ARM GAS  C:\Users\honet\AppData\Local\Temp\cc6gsi1c.s 			page 73


 3308      0A00
 3309 01ae 0000     		.space	2
 3310              	.LC27:
 3311 01b0 46525F44 		.ascii	"FR_DISK_ERR\012\000"
 3311      49534B5F 
 3311      4552520A 
 3311      00
 3312 01bd 000000   		.space	3
 3313              	.LC28:
 3314 01c0 46525F4E 		.ascii	"FR_NOT_READY\012\000"
 3314      4F545F52 
 3314      45414459 
 3314      0A00
 3315 01ce 0000     		.space	2
 3316              	.LC29:
 3317 01d0 46525F4E 		.ascii	"FR_NO_FILESYSTEM\012\000"
 3317      4F5F4649 
 3317      4C455359 
 3317      5354454D 
 3317      0A00
 3318 01e2 0000     		.space	2
 3319              	.LC30:
 3320 01e4 53442D43 		.ascii	"SD-CARD mounted. FSTYPE=\000"
 3320      41524420 
 3320      6D6F756E 
 3320      7465642E 
 3320      20465354 
 3321 01fd 000000   		.space	3
 3322              	.LC31:
 3323 0200 46415431 		.ascii	"FAT12\012\000"
 3323      320A00
 3324 0207 00       		.space	1
 3325              	.LC32:
 3326 0208 46415431 		.ascii	"FAT16\012\000"
 3326      360A00
 3327 020f 00       		.space	1
 3328              	.LC33:
 3329 0210 46415433 		.ascii	"FAT32\012\000"
 3329      320A00
 3330 0217 00       		.space	1
 3331              	.LC34:
 3332 0218 554E4B4E 		.ascii	"UNKNOWN\012\000"
 3332      4F574E0A 
 3332      00
 3333 0221 000000   		.space	3
 3334              	.LC35:
 3335 0224 3E3E3E3E 		.ascii	">>>>Testing PIO mode...\012\000"
 3335      54657374 
 3335      696E6720 
 3335      50494F20 
 3335      6D6F6465 
 3336 023d 000000   		.space	3
 3337              	.LC36:
 3338 0240 2F2F7465 		.ascii	"//test.txt\000"
 3338      73742E74 
 3338      787400
 3339 024b 00       		.space	1
ARM GAS  C:\Users\honet\AppData\Local\Temp\cc6gsi1c.s 			page 74


 3340              	.LC37:
 3341 024c 665F6F70 		.ascii	"f_open\000"
 3341      656E00
 3342 0253 00       		.space	1
 3343              	.LC38:
 3344 0254 54657374 		.ascii	"Testing Speed\012\000"
 3344      696E6720 
 3344      53706565 
 3344      640A00
 3345 0263 00       		.space	1
 3346              	.LC39:
 3347 0264 665F7772 		.ascii	"f_write\000"
 3347      69746500 
 3348              	.LC40:
 3349 026c 57726974 		.ascii	"Writing %d bytes to file, non-DMA\012\000"
 3349      696E6720 
 3349      25642062 
 3349      79746573 
 3349      20746F20 
 3350 028f 00       		.space	1
 3351              	.LC41:
 3352 0290 2F2F5445 		.ascii	"//TESTPIO.bin\000"
 3352      53545049 
 3352      4F2E6269 
 3352      6E00
 3353 029e 0000     		.space	2
 3354              	.LC42:
 3355 02a0 665F636C 		.ascii	"f_close\000"
 3355      6F736500 
 3356              	.LC43:
 3357 02a8 546F6F6B 		.ascii	"Took %lu ms\012\000"
 3357      20256C75 
 3357      206D730A 
 3357      00
 3358 02b5 000000   		.space	3
 3359              	.LC44:
 3360 02b8 52617465 		.ascii	"Rate %lu kbps\012\012\000"
 3360      20256C75 
 3360      206B6270 
 3360      730A0A00 
 3361              	.LC45:
 3362 02c8 52656164 		.ascii	"Reading %d bytes from file, non-DMA\012\000"
 3362      696E6720 
 3362      25642062 
 3362      79746573 
 3362      2066726F 
 3363 02ed 000000   		.space	3
 3364              	.LC46:
 3365 02f0 665F7265 		.ascii	"f_read\000"
 3365      616400
 3366 02f7 00       		.space	1
 3367              	.LC47:
 3368 02f8 546F6F6B 		.ascii	"Took %lu ms\012Verifying...\000"
 3368      20256C75 
 3368      206D730A 
 3368      56657269 
 3368      6679696E 
ARM GAS  C:\Users\honet\AppData\Local\Temp\cc6gsi1c.s 			page 75


 3369 0311 000000   		.space	3
 3370              	.LC48:
 3371 0314 4641494C 		.ascii	"FAIL :O\012\000"
 3371      203A4F0A 
 3371      00
 3372 031d 000000   		.space	3
 3373              	.LC49:
 3374 0320 20416C6C 		.ascii	" All Good! :D\012\000"
 3374      20476F6F 
 3374      6421203A 
 3374      440A00
 3375 032f 00       		.space	1
 3376              	.LC50:
 3377 0330 3E3E3E3E 		.ascii	">>>>Testing DMA mode...\012\000"
 3377      54657374 
 3377      696E6720 
 3377      444D4120 
 3377      6D6F6465 
 3378 0349 000000   		.space	3
 3379              	.LC51:
 3380 034c 57726974 		.ascii	"Writing %d bytes to file, DMA\012\000"
 3380      696E6720 
 3380      25642062 
 3380      79746573 
 3380      20746F20 
 3381 036b 00       		.space	1
 3382              	.LC52:
 3383 036c 2F2F5445 		.ascii	"//TESTDMA.bin\000"
 3383      5354444D 
 3383      412E6269 
 3383      6E00
 3384 037a 0000     		.space	2
 3385              	.LC53:
 3386 037c 52656164 		.ascii	"Reading %d bytes from file, DMA\012\000"
 3386      696E6720 
 3386      25642062 
 3386      79746573 
 3386      2066726F 
 3387 039d 000000   		.space	3
 3388              	.LC54:
 3389 03a0 54455354 		.ascii	"TEST FINISHED!\012\000"
 3389      2046494E 
 3389      49534845 
 3389      44210A00 
 3390              	.LC55:
 3391 03b0 3E3E3E3E 		.ascii	">>>>> Start Benchmark.....\012\000"
 3391      3E205374 
 3391      61727420 
 3391      42656E63 
 3391      686D6172 
 3392              	.LC56:
 3393 03cc 73697A65 		.ascii	"size, write(ms), write(kbps), read(ms), read(kbps)\012"
 3393      2C207772 
 3393      69746528 
 3393      6D73292C 
 3393      20777269 
 3394 03ff 00       		.ascii	"\000"
ARM GAS  C:\Users\honet\AppData\Local\Temp\cc6gsi1c.s 			page 76


 3395              	.LC57:
 3396 0400 25642C20 		.ascii	"%d, \000"
 3396      00
 3397 0405 000000   		.space	3
 3398              	.LC58:
 3399 0408 25752C20 		.ascii	"%u, \000"
 3399      00
 3400 040d 000000   		.space	3
 3401              	.LC59:
 3402 0410 25642E0A 		.ascii	"%d.\012\000"
 3402      00
 3403 0415 000000   		.space	3
 3404              	.LC60:
 3405 0418 48656C6C 		.ascii	"Hello SDC\012\000"
 3405      6F205344 
 3405      430A00
 3406 0423 00       		.bss
 3407              		.align	2
 3408              		.set	.LANCHOR0,. + 0
 3409              		.type	nmillis, %object
 3410              		.size	nmillis, 4
 3411              	nmillis:
 3412 0000 00000000 		.space	4
 3413              		.text
 3414              	.Letext0:
 3415              		.file 2 "c:\\program files (x86)\\cypress\\psoc creator\\3.3\\psoc creator\\import\\gnu\\arm\\4.9.
 3416              		.file 3 "c:\\program files (x86)\\cypress\\psoc creator\\3.3\\psoc creator\\import\\gnu\\arm\\4.9.
 3417              		.file 4 "c:\\program files (x86)\\cypress\\psoc creator\\3.3\\psoc creator\\import\\gnu\\arm\\4.9.
 3418              		.file 5 "Generated_Source\\PSoC5/cytypes.h"
 3419              		.file 6 "Generated_Source\\PSoC5/SDSPI_api.h"
 3420              		.file 7 "Generated_Source\\PSoC5/SDSPI_fatfs.h"
 3421              		.file 8 "Generated_Source\\PSoC5/core_cm3.h"
 3422              		.file 9 "Generated_Source\\PSoC5/SD_CLK.h"
 3423              		.file 10 "Generated_Source\\PSoC5/USBUART_1_cdc.h"
 3424              		.file 11 "c:\\program files (x86)\\cypress\\psoc creator\\3.3\\psoc creator\\import\\gnu\\arm\\4.9
 3425              		.file 12 "Generated_Source\\PSoC5/CyLib.h"
 3426              		.file 13 "Generated_Source\\PSoC5/LEDControl.h"
 3427              		.file 14 "Generated_Source\\PSoC5/USBUART_1.h"
 3428              		.file 15 "Generated_Source\\PSoC5/MillisecISR.h"