ARM GAS  C:\Users\honet\AppData\Local\Temp\cch1ysjn.s 			page 1


   1              		.syntax unified
   2              		.cpu cortex-m3
   3              		.fpu softvfp
   4              		.eabi_attribute 20, 1
   5              		.eabi_attribute 21, 1
   6              		.eabi_attribute 23, 3
   7              		.eabi_attribute 24, 1
   8              		.eabi_attribute 25, 1
   9              		.eabi_attribute 26, 1
  10              		.eabi_attribute 30, 2
  11              		.eabi_attribute 34, 1
  12              		.eabi_attribute 18, 4
  13              		.thumb
  14              		.file	"SD_MISO.c"
  15              		.text
  16              	.Ltext0:
  17              		.cfi_sections	.debug_frame
  18              		.section	.text.SD_MISO_Write,"ax",%progbits
  19              		.align	2
  20              		.global	SD_MISO_Write
  21              		.thumb
  22              		.thumb_func
  23              		.type	SD_MISO_Write, %function
  24              	SD_MISO_Write:
  25              	.LFB0:
  26              		.file 1 ".\\Generated_Source\\PSoC5\\SD_MISO.c"
   1:.\Generated_Source\PSoC5/SD_MISO.c **** /*******************************************************************************
   2:.\Generated_Source\PSoC5/SD_MISO.c **** * File Name: SD_MISO.c  
   3:.\Generated_Source\PSoC5/SD_MISO.c **** * Version 2.20
   4:.\Generated_Source\PSoC5/SD_MISO.c **** *
   5:.\Generated_Source\PSoC5/SD_MISO.c **** * Description:
   6:.\Generated_Source\PSoC5/SD_MISO.c **** *  This file contains API to enable firmware control of a Pins component.
   7:.\Generated_Source\PSoC5/SD_MISO.c **** *
   8:.\Generated_Source\PSoC5/SD_MISO.c **** * Note:
   9:.\Generated_Source\PSoC5/SD_MISO.c **** *
  10:.\Generated_Source\PSoC5/SD_MISO.c **** ********************************************************************************
  11:.\Generated_Source\PSoC5/SD_MISO.c **** * Copyright 2008-2015, Cypress Semiconductor Corporation.  All rights reserved.
  12:.\Generated_Source\PSoC5/SD_MISO.c **** * You may use this file only in accordance with the license, terms, conditions, 
  13:.\Generated_Source\PSoC5/SD_MISO.c **** * disclaimers, and limitations in the end user license agreement accompanying 
  14:.\Generated_Source\PSoC5/SD_MISO.c **** * the software package with which this file was provided.
  15:.\Generated_Source\PSoC5/SD_MISO.c **** *******************************************************************************/
  16:.\Generated_Source\PSoC5/SD_MISO.c **** 
  17:.\Generated_Source\PSoC5/SD_MISO.c **** #include "cytypes.h"
  18:.\Generated_Source\PSoC5/SD_MISO.c **** #include "SD_MISO.h"
  19:.\Generated_Source\PSoC5/SD_MISO.c **** 
  20:.\Generated_Source\PSoC5/SD_MISO.c **** /* APIs are not generated for P15[7:6] on PSoC 5 */
  21:.\Generated_Source\PSoC5/SD_MISO.c **** #if !(CY_PSOC5A &&\
  22:.\Generated_Source\PSoC5/SD_MISO.c **** 	 SD_MISO__PORT == 15 && ((SD_MISO__MASK & 0xC0) != 0))
  23:.\Generated_Source\PSoC5/SD_MISO.c **** 
  24:.\Generated_Source\PSoC5/SD_MISO.c **** 
  25:.\Generated_Source\PSoC5/SD_MISO.c **** /*******************************************************************************
  26:.\Generated_Source\PSoC5/SD_MISO.c **** * Function Name: SD_MISO_Write
  27:.\Generated_Source\PSoC5/SD_MISO.c **** ****************************************************************************//**
  28:.\Generated_Source\PSoC5/SD_MISO.c **** *
  29:.\Generated_Source\PSoC5/SD_MISO.c **** * \brief Writes the value to the physical port (data output register), masking
  30:.\Generated_Source\PSoC5/SD_MISO.c **** *  and shifting the bits appropriately. 
  31:.\Generated_Source\PSoC5/SD_MISO.c **** *
ARM GAS  C:\Users\honet\AppData\Local\Temp\cch1ysjn.s 			page 2


  32:.\Generated_Source\PSoC5/SD_MISO.c **** * The data output register controls the signal applied to the physical pin in 
  33:.\Generated_Source\PSoC5/SD_MISO.c **** * conjunction with the drive mode parameter. This function avoids changing 
  34:.\Generated_Source\PSoC5/SD_MISO.c **** * other bits in the port by using the appropriate method (read-modify-write or
  35:.\Generated_Source\PSoC5/SD_MISO.c **** * bit banding).
  36:.\Generated_Source\PSoC5/SD_MISO.c **** *
  37:.\Generated_Source\PSoC5/SD_MISO.c **** * <b>Note</b> This function should not be used on a hardware digital output pin 
  38:.\Generated_Source\PSoC5/SD_MISO.c **** * as it is driven by the hardware signal attached to it.
  39:.\Generated_Source\PSoC5/SD_MISO.c **** *
  40:.\Generated_Source\PSoC5/SD_MISO.c **** * \param value
  41:.\Generated_Source\PSoC5/SD_MISO.c **** *  Value to write to the component instance.
  42:.\Generated_Source\PSoC5/SD_MISO.c **** *
  43:.\Generated_Source\PSoC5/SD_MISO.c **** * \return 
  44:.\Generated_Source\PSoC5/SD_MISO.c **** *  None 
  45:.\Generated_Source\PSoC5/SD_MISO.c **** *
  46:.\Generated_Source\PSoC5/SD_MISO.c **** * \sideeffect
  47:.\Generated_Source\PSoC5/SD_MISO.c **** *  If you use read-modify-write operations that are not atomic; the Interrupt 
  48:.\Generated_Source\PSoC5/SD_MISO.c **** *  Service Routines (ISR) can cause corruption of this function. An ISR that 
  49:.\Generated_Source\PSoC5/SD_MISO.c **** *  interrupts this function and performs writes to the Pins component data 
  50:.\Generated_Source\PSoC5/SD_MISO.c **** *  register can cause corrupted port data. To avoid this issue, you should 
  51:.\Generated_Source\PSoC5/SD_MISO.c **** *  either use the Per-Pin APIs (primary method) or disable interrupts around 
  52:.\Generated_Source\PSoC5/SD_MISO.c **** *  this function.
  53:.\Generated_Source\PSoC5/SD_MISO.c **** *
  54:.\Generated_Source\PSoC5/SD_MISO.c **** * \funcusage
  55:.\Generated_Source\PSoC5/SD_MISO.c **** *  \snippet SD_MISO_SUT.c usage_SD_MISO_Write
  56:.\Generated_Source\PSoC5/SD_MISO.c **** *******************************************************************************/
  57:.\Generated_Source\PSoC5/SD_MISO.c **** void SD_MISO_Write(uint8 value)
  58:.\Generated_Source\PSoC5/SD_MISO.c **** {
  27              		.loc 1 58 0
  28              		.cfi_startproc
  29              		@ args = 0, pretend = 0, frame = 0
  30              		@ frame_needed = 0, uses_anonymous_args = 0
  31              		@ link register save eliminated.
  32              	.LVL0:
  59:.\Generated_Source\PSoC5/SD_MISO.c ****     uint8 staticBits = (SD_MISO_DR & (uint8)(~SD_MISO_MASK));
  33              		.loc 1 59 0
  34 0000 044A     		ldr	r2, .L2
  60:.\Generated_Source\PSoC5/SD_MISO.c ****     SD_MISO_DR = staticBits | ((uint8)(value << SD_MISO_SHIFT) & SD_MISO_MASK);
  35              		.loc 1 60 0
  36 0002 0001     		lsls	r0, r0, #4
  37              	.LVL1:
  59:.\Generated_Source\PSoC5/SD_MISO.c ****     uint8 staticBits = (SD_MISO_DR & (uint8)(~SD_MISO_MASK));
  38              		.loc 1 59 0
  39 0004 1378     		ldrb	r3, [r2]	@ zero_extendqisi2
  40              	.LVL2:
  41              		.loc 1 60 0
  42 0006 00F01000 		and	r0, r0, #16
  59:.\Generated_Source\PSoC5/SD_MISO.c ****     uint8 staticBits = (SD_MISO_DR & (uint8)(~SD_MISO_MASK));
  43              		.loc 1 59 0
  44 000a 03F0EF03 		and	r3, r3, #239
  45              	.LVL3:
  46              		.loc 1 60 0
  47 000e 1843     		orrs	r0, r0, r3
  48 0010 1070     		strb	r0, [r2]
  49 0012 7047     		bx	lr
  50              	.L3:
  51              		.align	2
  52              	.L2:
ARM GAS  C:\Users\honet\AppData\Local\Temp\cch1ysjn.s 			page 3


  53 0014 20510040 		.word	1073762592
  54              		.cfi_endproc
  55              	.LFE0:
  56              		.size	SD_MISO_Write, .-SD_MISO_Write
  57              		.section	.text.SD_MISO_SetDriveMode,"ax",%progbits
  58              		.align	2
  59              		.global	SD_MISO_SetDriveMode
  60              		.thumb
  61              		.thumb_func
  62              		.type	SD_MISO_SetDriveMode, %function
  63              	SD_MISO_SetDriveMode:
  64              	.LFB1:
  61:.\Generated_Source\PSoC5/SD_MISO.c **** }
  62:.\Generated_Source\PSoC5/SD_MISO.c **** 
  63:.\Generated_Source\PSoC5/SD_MISO.c **** 
  64:.\Generated_Source\PSoC5/SD_MISO.c **** /*******************************************************************************
  65:.\Generated_Source\PSoC5/SD_MISO.c **** * Function Name: SD_MISO_SetDriveMode
  66:.\Generated_Source\PSoC5/SD_MISO.c **** ****************************************************************************//**
  67:.\Generated_Source\PSoC5/SD_MISO.c **** *
  68:.\Generated_Source\PSoC5/SD_MISO.c **** * \brief Sets the drive mode for each of the Pins component's pins.
  69:.\Generated_Source\PSoC5/SD_MISO.c **** * 
  70:.\Generated_Source\PSoC5/SD_MISO.c **** * <b>Note</b> This affects all pins in the Pins component instance. Use the
  71:.\Generated_Source\PSoC5/SD_MISO.c **** * Per-Pin APIs if you wish to control individual pin's drive modes.
  72:.\Generated_Source\PSoC5/SD_MISO.c **** *
  73:.\Generated_Source\PSoC5/SD_MISO.c **** * \param mode
  74:.\Generated_Source\PSoC5/SD_MISO.c **** *  Mode for the selected signals. Valid options are documented in 
  75:.\Generated_Source\PSoC5/SD_MISO.c **** *  \ref driveMode.
  76:.\Generated_Source\PSoC5/SD_MISO.c **** *
  77:.\Generated_Source\PSoC5/SD_MISO.c **** * \return
  78:.\Generated_Source\PSoC5/SD_MISO.c **** *  None
  79:.\Generated_Source\PSoC5/SD_MISO.c **** *
  80:.\Generated_Source\PSoC5/SD_MISO.c **** * \sideeffect
  81:.\Generated_Source\PSoC5/SD_MISO.c **** *  If you use read-modify-write operations that are not atomic, the ISR can
  82:.\Generated_Source\PSoC5/SD_MISO.c **** *  cause corruption of this function. An ISR that interrupts this function 
  83:.\Generated_Source\PSoC5/SD_MISO.c **** *  and performs writes to the Pins component Drive Mode registers can cause 
  84:.\Generated_Source\PSoC5/SD_MISO.c **** *  corrupted port data. To avoid this issue, you should either use the Per-Pin
  85:.\Generated_Source\PSoC5/SD_MISO.c **** *  APIs (primary method) or disable interrupts around this function.
  86:.\Generated_Source\PSoC5/SD_MISO.c **** *
  87:.\Generated_Source\PSoC5/SD_MISO.c **** * \funcusage
  88:.\Generated_Source\PSoC5/SD_MISO.c **** *  \snippet SD_MISO_SUT.c usage_SD_MISO_SetDriveMode
  89:.\Generated_Source\PSoC5/SD_MISO.c **** *******************************************************************************/
  90:.\Generated_Source\PSoC5/SD_MISO.c **** void SD_MISO_SetDriveMode(uint8 mode)
  91:.\Generated_Source\PSoC5/SD_MISO.c **** {
  65              		.loc 1 91 0
  66              		.cfi_startproc
  67              		@ args = 0, pretend = 0, frame = 0
  68              		@ frame_needed = 0, uses_anonymous_args = 0
  69              		@ link register save eliminated.
  70              	.LVL4:
  92:.\Generated_Source\PSoC5/SD_MISO.c **** 	CyPins_SetPinDriveMode(SD_MISO_0, mode);
  71              		.loc 1 92 0
  72 0000 044A     		ldr	r2, .L5
  73 0002 00F00E00 		and	r0, r0, #14
  74              	.LVL5:
  75 0006 1378     		ldrb	r3, [r2]	@ zero_extendqisi2
  76 0008 03F0F103 		and	r3, r3, #241
  77 000c 1843     		orrs	r0, r0, r3
ARM GAS  C:\Users\honet\AppData\Local\Temp\cch1ysjn.s 			page 4


  78 000e 1070     		strb	r0, [r2]
  79 0010 7047     		bx	lr
  80              	.L6:
  81 0012 00BF     		.align	2
  82              	.L5:
  83 0014 14500040 		.word	1073762324
  84              		.cfi_endproc
  85              	.LFE1:
  86              		.size	SD_MISO_SetDriveMode, .-SD_MISO_SetDriveMode
  87              		.section	.text.SD_MISO_Read,"ax",%progbits
  88              		.align	2
  89              		.global	SD_MISO_Read
  90              		.thumb
  91              		.thumb_func
  92              		.type	SD_MISO_Read, %function
  93              	SD_MISO_Read:
  94              	.LFB2:
  93:.\Generated_Source\PSoC5/SD_MISO.c **** }
  94:.\Generated_Source\PSoC5/SD_MISO.c **** 
  95:.\Generated_Source\PSoC5/SD_MISO.c **** 
  96:.\Generated_Source\PSoC5/SD_MISO.c **** /*******************************************************************************
  97:.\Generated_Source\PSoC5/SD_MISO.c **** * Function Name: SD_MISO_Read
  98:.\Generated_Source\PSoC5/SD_MISO.c **** ****************************************************************************//**
  99:.\Generated_Source\PSoC5/SD_MISO.c **** *
 100:.\Generated_Source\PSoC5/SD_MISO.c **** * \brief Reads the associated physical port (pin status register) and masks 
 101:.\Generated_Source\PSoC5/SD_MISO.c **** *  the required bits according to the width and bit position of the component
 102:.\Generated_Source\PSoC5/SD_MISO.c **** *  instance. 
 103:.\Generated_Source\PSoC5/SD_MISO.c **** *
 104:.\Generated_Source\PSoC5/SD_MISO.c **** * The pin's status register returns the current logic level present on the 
 105:.\Generated_Source\PSoC5/SD_MISO.c **** * physical pin.
 106:.\Generated_Source\PSoC5/SD_MISO.c **** *
 107:.\Generated_Source\PSoC5/SD_MISO.c **** * \return 
 108:.\Generated_Source\PSoC5/SD_MISO.c **** *  The current value for the pins in the component as a right justified number.
 109:.\Generated_Source\PSoC5/SD_MISO.c **** *
 110:.\Generated_Source\PSoC5/SD_MISO.c **** * \funcusage
 111:.\Generated_Source\PSoC5/SD_MISO.c **** *  \snippet SD_MISO_SUT.c usage_SD_MISO_Read  
 112:.\Generated_Source\PSoC5/SD_MISO.c **** *******************************************************************************/
 113:.\Generated_Source\PSoC5/SD_MISO.c **** uint8 SD_MISO_Read(void)
 114:.\Generated_Source\PSoC5/SD_MISO.c **** {
  95              		.loc 1 114 0
  96              		.cfi_startproc
  97              		@ args = 0, pretend = 0, frame = 0
  98              		@ frame_needed = 0, uses_anonymous_args = 0
  99              		@ link register save eliminated.
 115:.\Generated_Source\PSoC5/SD_MISO.c ****     return (SD_MISO_PS & SD_MISO_MASK) >> SD_MISO_SHIFT;
 100              		.loc 1 115 0
 101 0000 024B     		ldr	r3, .L8
 102 0002 1878     		ldrb	r0, [r3]	@ zero_extendqisi2
 116:.\Generated_Source\PSoC5/SD_MISO.c **** }
 103              		.loc 1 116 0
 104 0004 C0F30010 		ubfx	r0, r0, #4, #1
 105 0008 7047     		bx	lr
 106              	.L9:
 107 000a 00BF     		.align	2
 108              	.L8:
 109 000c 21510040 		.word	1073762593
 110              		.cfi_endproc
ARM GAS  C:\Users\honet\AppData\Local\Temp\cch1ysjn.s 			page 5


 111              	.LFE2:
 112              		.size	SD_MISO_Read, .-SD_MISO_Read
 113              		.section	.text.SD_MISO_ReadDataReg,"ax",%progbits
 114              		.align	2
 115              		.global	SD_MISO_ReadDataReg
 116              		.thumb
 117              		.thumb_func
 118              		.type	SD_MISO_ReadDataReg, %function
 119              	SD_MISO_ReadDataReg:
 120              	.LFB3:
 117:.\Generated_Source\PSoC5/SD_MISO.c **** 
 118:.\Generated_Source\PSoC5/SD_MISO.c **** 
 119:.\Generated_Source\PSoC5/SD_MISO.c **** /*******************************************************************************
 120:.\Generated_Source\PSoC5/SD_MISO.c **** * Function Name: SD_MISO_ReadDataReg
 121:.\Generated_Source\PSoC5/SD_MISO.c **** ****************************************************************************//**
 122:.\Generated_Source\PSoC5/SD_MISO.c **** *
 123:.\Generated_Source\PSoC5/SD_MISO.c **** * \brief Reads the associated physical port's data output register and masks 
 124:.\Generated_Source\PSoC5/SD_MISO.c **** *  the correct bits according to the width and bit position of the component 
 125:.\Generated_Source\PSoC5/SD_MISO.c **** *  instance. 
 126:.\Generated_Source\PSoC5/SD_MISO.c **** *
 127:.\Generated_Source\PSoC5/SD_MISO.c **** * The data output register controls the signal applied to the physical pin in 
 128:.\Generated_Source\PSoC5/SD_MISO.c **** * conjunction with the drive mode parameter. This is not the same as the 
 129:.\Generated_Source\PSoC5/SD_MISO.c **** * preferred SD_MISO_Read() API because the 
 130:.\Generated_Source\PSoC5/SD_MISO.c **** * SD_MISO_ReadDataReg() reads the data register instead of the status 
 131:.\Generated_Source\PSoC5/SD_MISO.c **** * register. For output pins this is a useful function to determine the value 
 132:.\Generated_Source\PSoC5/SD_MISO.c **** * just written to the pin.
 133:.\Generated_Source\PSoC5/SD_MISO.c **** *
 134:.\Generated_Source\PSoC5/SD_MISO.c **** * \return 
 135:.\Generated_Source\PSoC5/SD_MISO.c **** *  The current value of the data register masked and shifted into a right 
 136:.\Generated_Source\PSoC5/SD_MISO.c **** *  justified number for the component instance.
 137:.\Generated_Source\PSoC5/SD_MISO.c **** *
 138:.\Generated_Source\PSoC5/SD_MISO.c **** * \funcusage
 139:.\Generated_Source\PSoC5/SD_MISO.c **** *  \snippet SD_MISO_SUT.c usage_SD_MISO_ReadDataReg 
 140:.\Generated_Source\PSoC5/SD_MISO.c **** *******************************************************************************/
 141:.\Generated_Source\PSoC5/SD_MISO.c **** uint8 SD_MISO_ReadDataReg(void)
 142:.\Generated_Source\PSoC5/SD_MISO.c **** {
 121              		.loc 1 142 0
 122              		.cfi_startproc
 123              		@ args = 0, pretend = 0, frame = 0
 124              		@ frame_needed = 0, uses_anonymous_args = 0
 125              		@ link register save eliminated.
 143:.\Generated_Source\PSoC5/SD_MISO.c ****     return (SD_MISO_DR & SD_MISO_MASK) >> SD_MISO_SHIFT;
 126              		.loc 1 143 0
 127 0000 024B     		ldr	r3, .L11
 128 0002 1878     		ldrb	r0, [r3]	@ zero_extendqisi2
 144:.\Generated_Source\PSoC5/SD_MISO.c **** }
 129              		.loc 1 144 0
 130 0004 C0F30010 		ubfx	r0, r0, #4, #1
 131 0008 7047     		bx	lr
 132              	.L12:
 133 000a 00BF     		.align	2
 134              	.L11:
 135 000c 20510040 		.word	1073762592
 136              		.cfi_endproc
 137              	.LFE3:
 138              		.size	SD_MISO_ReadDataReg, .-SD_MISO_ReadDataReg
 139              		.text
ARM GAS  C:\Users\honet\AppData\Local\Temp\cch1ysjn.s 			page 6


 140              	.Letext0:
 141              		.file 2 ".\\Generated_Source\\PSoC5\\cytypes.h"