ARM GAS  C:\Users\honet\AppData\Local\Temp\ccLEqYe5.s 			page 1


   1              		.syntax unified
   2              		.cpu cortex-m3
   3              		.fpu softvfp
   4              		.eabi_attribute 20, 1
   5              		.eabi_attribute 21, 1
   6              		.eabi_attribute 23, 3
   7              		.eabi_attribute 24, 1
   8              		.eabi_attribute 25, 1
   9              		.eabi_attribute 26, 1
  10              		.eabi_attribute 30, 2
  11              		.eabi_attribute 34, 1
  12              		.eabi_attribute 18, 4
  13              		.thumb
  14              		.file	"SDSPI_TX_dma.c"
  15              		.text
  16              	.Ltext0:
  17              		.cfi_sections	.debug_frame
  18              		.section	.text.SDSPI_TX_DmaInitialize,"ax",%progbits
  19              		.align	2
  20              		.global	SDSPI_TX_DmaInitialize
  21              		.thumb
  22              		.thumb_func
  23              		.type	SDSPI_TX_DmaInitialize, %function
  24              	SDSPI_TX_DmaInitialize:
  25              	.LFB0:
  26              		.file 1 ".\\Generated_Source\\PSoC5\\SDSPI_TX_dma.c"
   1:.\Generated_Source\PSoC5/SDSPI_TX_dma.c **** /***************************************************************************
   2:.\Generated_Source\PSoC5/SDSPI_TX_dma.c **** * File Name: SDSPI_TX_dma.c  
   3:.\Generated_Source\PSoC5/SDSPI_TX_dma.c **** * Version 1.70
   4:.\Generated_Source\PSoC5/SDSPI_TX_dma.c **** *
   5:.\Generated_Source\PSoC5/SDSPI_TX_dma.c **** *  Description:
   6:.\Generated_Source\PSoC5/SDSPI_TX_dma.c **** *   Provides an API for the DMAC component. The API includes functions
   7:.\Generated_Source\PSoC5/SDSPI_TX_dma.c **** *   for the DMA controller, DMA channels and Transfer Descriptors.
   8:.\Generated_Source\PSoC5/SDSPI_TX_dma.c **** *
   9:.\Generated_Source\PSoC5/SDSPI_TX_dma.c **** *
  10:.\Generated_Source\PSoC5/SDSPI_TX_dma.c **** *   Note:
  11:.\Generated_Source\PSoC5/SDSPI_TX_dma.c **** *     This module requires the developer to finish or fill in the auto
  12:.\Generated_Source\PSoC5/SDSPI_TX_dma.c **** *     generated funcions and setup the dma channel and TD's.
  13:.\Generated_Source\PSoC5/SDSPI_TX_dma.c **** *
  14:.\Generated_Source\PSoC5/SDSPI_TX_dma.c **** ********************************************************************************
  15:.\Generated_Source\PSoC5/SDSPI_TX_dma.c **** * Copyright 2008-2010, Cypress Semiconductor Corporation.  All rights reserved.
  16:.\Generated_Source\PSoC5/SDSPI_TX_dma.c **** * You may use this file only in accordance with the license, terms, conditions, 
  17:.\Generated_Source\PSoC5/SDSPI_TX_dma.c **** * disclaimers, and limitations in the end user license agreement accompanying 
  18:.\Generated_Source\PSoC5/SDSPI_TX_dma.c **** * the software package with which this file was provided.
  19:.\Generated_Source\PSoC5/SDSPI_TX_dma.c **** ********************************************************************************/
  20:.\Generated_Source\PSoC5/SDSPI_TX_dma.c **** #include <CYLIB.H>
  21:.\Generated_Source\PSoC5/SDSPI_TX_dma.c **** #include <CYDMAC.H>
  22:.\Generated_Source\PSoC5/SDSPI_TX_dma.c **** #include <SDSPI_TX_dma.H>
  23:.\Generated_Source\PSoC5/SDSPI_TX_dma.c **** 
  24:.\Generated_Source\PSoC5/SDSPI_TX_dma.c **** 
  25:.\Generated_Source\PSoC5/SDSPI_TX_dma.c **** 
  26:.\Generated_Source\PSoC5/SDSPI_TX_dma.c **** /****************************************************************************
  27:.\Generated_Source\PSoC5/SDSPI_TX_dma.c **** * 
  28:.\Generated_Source\PSoC5/SDSPI_TX_dma.c **** * The following defines are available in Cyfitter.h
  29:.\Generated_Source\PSoC5/SDSPI_TX_dma.c **** * 
  30:.\Generated_Source\PSoC5/SDSPI_TX_dma.c **** * 
  31:.\Generated_Source\PSoC5/SDSPI_TX_dma.c **** * 
ARM GAS  C:\Users\honet\AppData\Local\Temp\ccLEqYe5.s 			page 2


  32:.\Generated_Source\PSoC5/SDSPI_TX_dma.c **** * SDSPI_TX__DRQ_CTL_REG
  33:.\Generated_Source\PSoC5/SDSPI_TX_dma.c **** * 
  34:.\Generated_Source\PSoC5/SDSPI_TX_dma.c **** * 
  35:.\Generated_Source\PSoC5/SDSPI_TX_dma.c **** * SDSPI_TX__DRQ_NUMBER
  36:.\Generated_Source\PSoC5/SDSPI_TX_dma.c **** * 
  37:.\Generated_Source\PSoC5/SDSPI_TX_dma.c **** * Number of TD's used by this channel.
  38:.\Generated_Source\PSoC5/SDSPI_TX_dma.c **** * SDSPI_TX__NUMBEROF_TDS
  39:.\Generated_Source\PSoC5/SDSPI_TX_dma.c **** * 
  40:.\Generated_Source\PSoC5/SDSPI_TX_dma.c **** * Priority of this channel.
  41:.\Generated_Source\PSoC5/SDSPI_TX_dma.c **** * SDSPI_TX__PRIORITY
  42:.\Generated_Source\PSoC5/SDSPI_TX_dma.c **** * 
  43:.\Generated_Source\PSoC5/SDSPI_TX_dma.c **** * True if SDSPI_TX_TERMIN_SEL is used.
  44:.\Generated_Source\PSoC5/SDSPI_TX_dma.c **** * SDSPI_TX__TERMIN_EN
  45:.\Generated_Source\PSoC5/SDSPI_TX_dma.c **** * 
  46:.\Generated_Source\PSoC5/SDSPI_TX_dma.c **** * TERMIN interrupt line to signal terminate.
  47:.\Generated_Source\PSoC5/SDSPI_TX_dma.c **** * SDSPI_TX__TERMIN_SEL
  48:.\Generated_Source\PSoC5/SDSPI_TX_dma.c **** * 
  49:.\Generated_Source\PSoC5/SDSPI_TX_dma.c **** * 
  50:.\Generated_Source\PSoC5/SDSPI_TX_dma.c **** * True if SDSPI_TX_TERMOUT0_SEL is used.
  51:.\Generated_Source\PSoC5/SDSPI_TX_dma.c **** * SDSPI_TX__TERMOUT0_EN
  52:.\Generated_Source\PSoC5/SDSPI_TX_dma.c **** * 
  53:.\Generated_Source\PSoC5/SDSPI_TX_dma.c **** * 
  54:.\Generated_Source\PSoC5/SDSPI_TX_dma.c **** * TERMOUT0 interrupt line to signal completion.
  55:.\Generated_Source\PSoC5/SDSPI_TX_dma.c **** * SDSPI_TX__TERMOUT0_SEL
  56:.\Generated_Source\PSoC5/SDSPI_TX_dma.c **** * 
  57:.\Generated_Source\PSoC5/SDSPI_TX_dma.c **** * 
  58:.\Generated_Source\PSoC5/SDSPI_TX_dma.c **** * True if SDSPI_TX_TERMOUT1_SEL is used.
  59:.\Generated_Source\PSoC5/SDSPI_TX_dma.c **** * SDSPI_TX__TERMOUT1_EN
  60:.\Generated_Source\PSoC5/SDSPI_TX_dma.c **** * 
  61:.\Generated_Source\PSoC5/SDSPI_TX_dma.c **** * 
  62:.\Generated_Source\PSoC5/SDSPI_TX_dma.c **** * TERMOUT1 interrupt line to signal completion.
  63:.\Generated_Source\PSoC5/SDSPI_TX_dma.c **** * SDSPI_TX__TERMOUT1_SEL
  64:.\Generated_Source\PSoC5/SDSPI_TX_dma.c **** * 
  65:.\Generated_Source\PSoC5/SDSPI_TX_dma.c **** ****************************************************************************/
  66:.\Generated_Source\PSoC5/SDSPI_TX_dma.c **** 
  67:.\Generated_Source\PSoC5/SDSPI_TX_dma.c **** 
  68:.\Generated_Source\PSoC5/SDSPI_TX_dma.c **** /* Zero based index of SDSPI_TX dma channel */
  69:.\Generated_Source\PSoC5/SDSPI_TX_dma.c **** uint8 SDSPI_TX_DmaHandle = DMA_INVALID_CHANNEL;
  70:.\Generated_Source\PSoC5/SDSPI_TX_dma.c **** 
  71:.\Generated_Source\PSoC5/SDSPI_TX_dma.c **** /*********************************************************************
  72:.\Generated_Source\PSoC5/SDSPI_TX_dma.c **** * Function Name: uint8 SDSPI_TX_DmaInitalize
  73:.\Generated_Source\PSoC5/SDSPI_TX_dma.c **** **********************************************************************
  74:.\Generated_Source\PSoC5/SDSPI_TX_dma.c **** * Summary:
  75:.\Generated_Source\PSoC5/SDSPI_TX_dma.c **** *   Allocates and initialises a channel of the DMAC to be used by the
  76:.\Generated_Source\PSoC5/SDSPI_TX_dma.c **** *   caller.
  77:.\Generated_Source\PSoC5/SDSPI_TX_dma.c **** *
  78:.\Generated_Source\PSoC5/SDSPI_TX_dma.c **** * Parameters:
  79:.\Generated_Source\PSoC5/SDSPI_TX_dma.c **** *   BurstCount.
  80:.\Generated_Source\PSoC5/SDSPI_TX_dma.c **** *       
  81:.\Generated_Source\PSoC5/SDSPI_TX_dma.c **** *       
  82:.\Generated_Source\PSoC5/SDSPI_TX_dma.c **** *   ReqestPerBurst.
  83:.\Generated_Source\PSoC5/SDSPI_TX_dma.c **** *       
  84:.\Generated_Source\PSoC5/SDSPI_TX_dma.c **** *       
  85:.\Generated_Source\PSoC5/SDSPI_TX_dma.c **** *   UpperSrcAddress.
  86:.\Generated_Source\PSoC5/SDSPI_TX_dma.c **** *       
  87:.\Generated_Source\PSoC5/SDSPI_TX_dma.c **** *       
  88:.\Generated_Source\PSoC5/SDSPI_TX_dma.c **** *   UpperDestAddress.
ARM GAS  C:\Users\honet\AppData\Local\Temp\ccLEqYe5.s 			page 3


  89:.\Generated_Source\PSoC5/SDSPI_TX_dma.c **** *       
  90:.\Generated_Source\PSoC5/SDSPI_TX_dma.c **** *
  91:.\Generated_Source\PSoC5/SDSPI_TX_dma.c **** * Return:
  92:.\Generated_Source\PSoC5/SDSPI_TX_dma.c **** *   The channel that can be used by the caller for DMA activity.
  93:.\Generated_Source\PSoC5/SDSPI_TX_dma.c **** *   DMA_INVALID_CHANNEL (0xFF) if there are no channels left. 
  94:.\Generated_Source\PSoC5/SDSPI_TX_dma.c **** *
  95:.\Generated_Source\PSoC5/SDSPI_TX_dma.c **** *
  96:.\Generated_Source\PSoC5/SDSPI_TX_dma.c **** *******************************************************************/
  97:.\Generated_Source\PSoC5/SDSPI_TX_dma.c **** uint8 SDSPI_TX_DmaInitialize(uint8 BurstCount, uint8 ReqestPerBurst, uint16 UpperSrcAddress, uint16
  98:.\Generated_Source\PSoC5/SDSPI_TX_dma.c **** {
  27              		.loc 1 98 0
  28              		.cfi_startproc
  29              		@ args = 0, pretend = 0, frame = 0
  30              		@ frame_needed = 0, uses_anonymous_args = 0
  31              	.LVL0:
  32 0000 F0B5     		push	{r4, r5, r6, r7, lr}
  33              		.cfi_def_cfa_offset 20
  34              		.cfi_offset 4, -20
  35              		.cfi_offset 5, -16
  36              		.cfi_offset 6, -12
  37              		.cfi_offset 7, -8
  38              		.cfi_offset 14, -4
  39 0002 8E46     		mov	lr, r1
  40 0004 1746     		mov	r7, r2
  41 0006 1E46     		mov	r6, r3
  42 0008 83B0     		sub	sp, sp, #12
  43              		.cfi_def_cfa_offset 32
  99:.\Generated_Source\PSoC5/SDSPI_TX_dma.c **** 
 100:.\Generated_Source\PSoC5/SDSPI_TX_dma.c ****     /* Allocate a DMA channel. */
 101:.\Generated_Source\PSoC5/SDSPI_TX_dma.c ****     SDSPI_TX_DmaHandle = (uint8)SDSPI_TX__DRQ_NUMBER;
 102:.\Generated_Source\PSoC5/SDSPI_TX_dma.c **** 
 103:.\Generated_Source\PSoC5/SDSPI_TX_dma.c ****     /* Configure the channel. */
 104:.\Generated_Source\PSoC5/SDSPI_TX_dma.c ****     (void)CyDmaChSetConfiguration(SDSPI_TX_DmaHandle,
  44              		.loc 1 104 0
  45 000a 0023     		movs	r3, #0
  46              	.LVL1:
 101:.\Generated_Source\PSoC5/SDSPI_TX_dma.c **** 
  47              		.loc 1 101 0
  48 000c 0A4C     		ldr	r4, .L3
  49 000e 0125     		movs	r5, #1
  50              		.loc 1 104 0
  51 0010 7246     		mov	r2, lr
  52              	.LVL2:
  53 0012 0093     		str	r3, [sp]
  54 0014 0193     		str	r3, [sp, #4]
  55 0016 0146     		mov	r1, r0
  56              	.LVL3:
  57 0018 2846     		mov	r0, r5
  58              	.LVL4:
 101:.\Generated_Source\PSoC5/SDSPI_TX_dma.c **** 
  59              		.loc 1 101 0
  60 001a 2570     		strb	r5, [r4]
  61              		.loc 1 104 0
  62 001c FFF7FEFF 		bl	CyDmaChSetConfiguration
  63              	.LVL5:
 105:.\Generated_Source\PSoC5/SDSPI_TX_dma.c ****                                   BurstCount,
 106:.\Generated_Source\PSoC5/SDSPI_TX_dma.c ****                                   ReqestPerBurst,
ARM GAS  C:\Users\honet\AppData\Local\Temp\ccLEqYe5.s 			page 4


 107:.\Generated_Source\PSoC5/SDSPI_TX_dma.c ****                                   (uint8)SDSPI_TX__TERMOUT0_SEL,
 108:.\Generated_Source\PSoC5/SDSPI_TX_dma.c ****                                   (uint8)SDSPI_TX__TERMOUT1_SEL,
 109:.\Generated_Source\PSoC5/SDSPI_TX_dma.c ****                                   (uint8)SDSPI_TX__TERMIN_SEL);
 110:.\Generated_Source\PSoC5/SDSPI_TX_dma.c **** 
 111:.\Generated_Source\PSoC5/SDSPI_TX_dma.c ****     /* Set the extended address for the transfers */
 112:.\Generated_Source\PSoC5/SDSPI_TX_dma.c ****     (void)CyDmaChSetExtendedAddress(SDSPI_TX_DmaHandle, UpperSrcAddress, UpperDestAddress);
  64              		.loc 1 112 0
  65 0020 3946     		mov	r1, r7
  66 0022 3246     		mov	r2, r6
  67 0024 2078     		ldrb	r0, [r4]	@ zero_extendqisi2
  68 0026 FFF7FEFF 		bl	CyDmaChSetExtendedAddress
  69              	.LVL6:
 113:.\Generated_Source\PSoC5/SDSPI_TX_dma.c **** 
 114:.\Generated_Source\PSoC5/SDSPI_TX_dma.c ****     /* Set the priority for this channel */
 115:.\Generated_Source\PSoC5/SDSPI_TX_dma.c ****     (void)CyDmaChPriority(SDSPI_TX_DmaHandle, (uint8)SDSPI_TX__PRIORITY);
  70              		.loc 1 115 0
  71 002a 2078     		ldrb	r0, [r4]	@ zero_extendqisi2
  72 002c 0221     		movs	r1, #2
  73 002e FFF7FEFF 		bl	CyDmaChPriority
  74              	.LVL7:
 116:.\Generated_Source\PSoC5/SDSPI_TX_dma.c ****     
 117:.\Generated_Source\PSoC5/SDSPI_TX_dma.c ****     return SDSPI_TX_DmaHandle;
 118:.\Generated_Source\PSoC5/SDSPI_TX_dma.c **** }
  75              		.loc 1 118 0
  76 0032 2078     		ldrb	r0, [r4]	@ zero_extendqisi2
  77 0034 03B0     		add	sp, sp, #12
  78              		.cfi_def_cfa_offset 20
  79              		@ sp needed
  80 0036 F0BD     		pop	{r4, r5, r6, r7, pc}
  81              	.L4:
  82              		.align	2
  83              	.L3:
  84 0038 00000000 		.word	.LANCHOR0
  85              		.cfi_endproc
  86              	.LFE0:
  87              		.size	SDSPI_TX_DmaInitialize, .-SDSPI_TX_DmaInitialize
  88              		.section	.text.SDSPI_TX_DmaRelease,"ax",%progbits
  89              		.align	2
  90              		.global	SDSPI_TX_DmaRelease
  91              		.thumb
  92              		.thumb_func
  93              		.type	SDSPI_TX_DmaRelease, %function
  94              	SDSPI_TX_DmaRelease:
  95              	.LFB1:
 119:.\Generated_Source\PSoC5/SDSPI_TX_dma.c **** 
 120:.\Generated_Source\PSoC5/SDSPI_TX_dma.c **** /*********************************************************************
 121:.\Generated_Source\PSoC5/SDSPI_TX_dma.c **** * Function Name: void SDSPI_TX_DmaRelease
 122:.\Generated_Source\PSoC5/SDSPI_TX_dma.c **** **********************************************************************
 123:.\Generated_Source\PSoC5/SDSPI_TX_dma.c **** * Summary:
 124:.\Generated_Source\PSoC5/SDSPI_TX_dma.c **** *   Frees the channel associated with SDSPI_TX.
 125:.\Generated_Source\PSoC5/SDSPI_TX_dma.c **** *
 126:.\Generated_Source\PSoC5/SDSPI_TX_dma.c **** *
 127:.\Generated_Source\PSoC5/SDSPI_TX_dma.c **** * Parameters:
 128:.\Generated_Source\PSoC5/SDSPI_TX_dma.c **** *   void.
 129:.\Generated_Source\PSoC5/SDSPI_TX_dma.c **** *
 130:.\Generated_Source\PSoC5/SDSPI_TX_dma.c **** *
 131:.\Generated_Source\PSoC5/SDSPI_TX_dma.c **** *
ARM GAS  C:\Users\honet\AppData\Local\Temp\ccLEqYe5.s 			page 5


 132:.\Generated_Source\PSoC5/SDSPI_TX_dma.c **** * Return:
 133:.\Generated_Source\PSoC5/SDSPI_TX_dma.c **** *   void.
 134:.\Generated_Source\PSoC5/SDSPI_TX_dma.c **** *
 135:.\Generated_Source\PSoC5/SDSPI_TX_dma.c **** *******************************************************************/
 136:.\Generated_Source\PSoC5/SDSPI_TX_dma.c **** void SDSPI_TX_DmaRelease(void) 
 137:.\Generated_Source\PSoC5/SDSPI_TX_dma.c **** {
  96              		.loc 1 137 0
  97              		.cfi_startproc
  98              		@ args = 0, pretend = 0, frame = 0
  99              		@ frame_needed = 0, uses_anonymous_args = 0
 100              		@ link register save eliminated.
 138:.\Generated_Source\PSoC5/SDSPI_TX_dma.c ****     /* Disable the channel */
 139:.\Generated_Source\PSoC5/SDSPI_TX_dma.c ****     (void)CyDmaChDisable(SDSPI_TX_DmaHandle);
 101              		.loc 1 139 0
 102 0000 014B     		ldr	r3, .L6
 103 0002 1878     		ldrb	r0, [r3]	@ zero_extendqisi2
 104 0004 FFF7FEBF 		b	CyDmaChDisable
 105              	.LVL8:
 106              	.L7:
 107              		.align	2
 108              	.L6:
 109 0008 00000000 		.word	.LANCHOR0
 110              		.cfi_endproc
 111              	.LFE1:
 112              		.size	SDSPI_TX_DmaRelease, .-SDSPI_TX_DmaRelease
 113              		.global	SDSPI_TX_DmaHandle
 114              		.data
 115              		.set	.LANCHOR0,. + 0
 116              		.type	SDSPI_TX_DmaHandle, %object
 117              		.size	SDSPI_TX_DmaHandle, 1
 118              	SDSPI_TX_DmaHandle:
 119 0000 FF       		.byte	-1
 120              		.text
 121              	.Letext0:
 122              		.file 2 "Generated_Source\\PSoC5/cytypes.h"
 123              		.file 3 "Generated_Source\\PSoC5/CYDMAC.H"