ARM GAS  C:\Users\honet\AppData\Local\Temp\ccZUGNgm.s 			page 1


   1              		.syntax unified
   2              		.cpu cortex-m3
   3              		.fpu softvfp
   4              		.eabi_attribute 20, 1
   5              		.eabi_attribute 21, 1
   6              		.eabi_attribute 23, 3
   7              		.eabi_attribute 24, 1
   8              		.eabi_attribute 25, 1
   9              		.eabi_attribute 26, 1
  10              		.eabi_attribute 30, 2
  11              		.eabi_attribute 34, 1
  12              		.eabi_attribute 18, 4
  13              		.thumb
  14              		.file	"SDSPI_CSControl_PM.c"
  15              		.text
  16              	.Ltext0:
  17              		.cfi_sections	.debug_frame
  18              		.section	.text.SDSPI_CSControl_SaveConfig,"ax",%progbits
  19              		.align	2
  20              		.global	SDSPI_CSControl_SaveConfig
  21              		.thumb
  22              		.thumb_func
  23              		.type	SDSPI_CSControl_SaveConfig, %function
  24              	SDSPI_CSControl_SaveConfig:
  25              	.LFB0:
  26              		.file 1 ".\\Generated_Source\\PSoC5\\SDSPI_CSControl_PM.c"
   1:.\Generated_Source\PSoC5/SDSPI_CSControl_PM.c **** /*******************************************************************************
   2:.\Generated_Source\PSoC5/SDSPI_CSControl_PM.c **** * File Name: SDSPI_CSControl_PM.c
   3:.\Generated_Source\PSoC5/SDSPI_CSControl_PM.c **** * Version 1.80
   4:.\Generated_Source\PSoC5/SDSPI_CSControl_PM.c **** *
   5:.\Generated_Source\PSoC5/SDSPI_CSControl_PM.c **** * Description:
   6:.\Generated_Source\PSoC5/SDSPI_CSControl_PM.c **** *  This file contains the setup, control, and status commands to support 
   7:.\Generated_Source\PSoC5/SDSPI_CSControl_PM.c **** *  the component operation in the low power mode. 
   8:.\Generated_Source\PSoC5/SDSPI_CSControl_PM.c **** *
   9:.\Generated_Source\PSoC5/SDSPI_CSControl_PM.c **** * Note:
  10:.\Generated_Source\PSoC5/SDSPI_CSControl_PM.c **** *
  11:.\Generated_Source\PSoC5/SDSPI_CSControl_PM.c **** ********************************************************************************
  12:.\Generated_Source\PSoC5/SDSPI_CSControl_PM.c **** * Copyright 2015, Cypress Semiconductor Corporation.  All rights reserved.
  13:.\Generated_Source\PSoC5/SDSPI_CSControl_PM.c **** * You may use this file only in accordance with the license, terms, conditions, 
  14:.\Generated_Source\PSoC5/SDSPI_CSControl_PM.c **** * disclaimers, and limitations in the end user license agreement accompanying 
  15:.\Generated_Source\PSoC5/SDSPI_CSControl_PM.c **** * the software package with which this file was provided.
  16:.\Generated_Source\PSoC5/SDSPI_CSControl_PM.c **** *******************************************************************************/
  17:.\Generated_Source\PSoC5/SDSPI_CSControl_PM.c **** 
  18:.\Generated_Source\PSoC5/SDSPI_CSControl_PM.c **** #include "SDSPI_CSControl.h"
  19:.\Generated_Source\PSoC5/SDSPI_CSControl_PM.c **** 
  20:.\Generated_Source\PSoC5/SDSPI_CSControl_PM.c **** /* Check for removal by optimization */
  21:.\Generated_Source\PSoC5/SDSPI_CSControl_PM.c **** #if !defined(SDSPI_CSControl_Sync_ctrl_reg__REMOVED)
  22:.\Generated_Source\PSoC5/SDSPI_CSControl_PM.c **** 
  23:.\Generated_Source\PSoC5/SDSPI_CSControl_PM.c **** static SDSPI_CSControl_BACKUP_STRUCT  SDSPI_CSControl_backup = {0u};
  24:.\Generated_Source\PSoC5/SDSPI_CSControl_PM.c **** 
  25:.\Generated_Source\PSoC5/SDSPI_CSControl_PM.c ****     
  26:.\Generated_Source\PSoC5/SDSPI_CSControl_PM.c **** /*******************************************************************************
  27:.\Generated_Source\PSoC5/SDSPI_CSControl_PM.c **** * Function Name: SDSPI_CSControl_SaveConfig
  28:.\Generated_Source\PSoC5/SDSPI_CSControl_PM.c **** ********************************************************************************
  29:.\Generated_Source\PSoC5/SDSPI_CSControl_PM.c **** *
  30:.\Generated_Source\PSoC5/SDSPI_CSControl_PM.c **** * Summary:
  31:.\Generated_Source\PSoC5/SDSPI_CSControl_PM.c **** *  Saves the control register value.
ARM GAS  C:\Users\honet\AppData\Local\Temp\ccZUGNgm.s 			page 2


  32:.\Generated_Source\PSoC5/SDSPI_CSControl_PM.c **** *
  33:.\Generated_Source\PSoC5/SDSPI_CSControl_PM.c **** * Parameters:
  34:.\Generated_Source\PSoC5/SDSPI_CSControl_PM.c **** *  None
  35:.\Generated_Source\PSoC5/SDSPI_CSControl_PM.c **** *
  36:.\Generated_Source\PSoC5/SDSPI_CSControl_PM.c **** * Return:
  37:.\Generated_Source\PSoC5/SDSPI_CSControl_PM.c **** *  None
  38:.\Generated_Source\PSoC5/SDSPI_CSControl_PM.c **** *
  39:.\Generated_Source\PSoC5/SDSPI_CSControl_PM.c **** *******************************************************************************/
  40:.\Generated_Source\PSoC5/SDSPI_CSControl_PM.c **** void SDSPI_CSControl_SaveConfig(void) 
  41:.\Generated_Source\PSoC5/SDSPI_CSControl_PM.c **** {
  27              		.loc 1 41 0
  28              		.cfi_startproc
  29              		@ args = 0, pretend = 0, frame = 0
  30              		@ frame_needed = 0, uses_anonymous_args = 0
  31              		@ link register save eliminated.
  42:.\Generated_Source\PSoC5/SDSPI_CSControl_PM.c ****     SDSPI_CSControl_backup.controlState = SDSPI_CSControl_Control;
  32              		.loc 1 42 0
  33 0000 024A     		ldr	r2, .L2
  34 0002 034B     		ldr	r3, .L2+4
  35 0004 1278     		ldrb	r2, [r2]	@ zero_extendqisi2
  36 0006 1A70     		strb	r2, [r3]
  37 0008 7047     		bx	lr
  38              	.L3:
  39 000a 00BF     		.align	2
  40              	.L2:
  41 000c 7D640040 		.word	1073767549
  42 0010 00000000 		.word	.LANCHOR0
  43              		.cfi_endproc
  44              	.LFE0:
  45              		.size	SDSPI_CSControl_SaveConfig, .-SDSPI_CSControl_SaveConfig
  46              		.section	.text.SDSPI_CSControl_RestoreConfig,"ax",%progbits
  47              		.align	2
  48              		.global	SDSPI_CSControl_RestoreConfig
  49              		.thumb
  50              		.thumb_func
  51              		.type	SDSPI_CSControl_RestoreConfig, %function
  52              	SDSPI_CSControl_RestoreConfig:
  53              	.LFB1:
  43:.\Generated_Source\PSoC5/SDSPI_CSControl_PM.c **** }
  44:.\Generated_Source\PSoC5/SDSPI_CSControl_PM.c **** 
  45:.\Generated_Source\PSoC5/SDSPI_CSControl_PM.c **** 
  46:.\Generated_Source\PSoC5/SDSPI_CSControl_PM.c **** /*******************************************************************************
  47:.\Generated_Source\PSoC5/SDSPI_CSControl_PM.c **** * Function Name: SDSPI_CSControl_RestoreConfig
  48:.\Generated_Source\PSoC5/SDSPI_CSControl_PM.c **** ********************************************************************************
  49:.\Generated_Source\PSoC5/SDSPI_CSControl_PM.c **** *
  50:.\Generated_Source\PSoC5/SDSPI_CSControl_PM.c **** * Summary:
  51:.\Generated_Source\PSoC5/SDSPI_CSControl_PM.c **** *  Restores the control register value.
  52:.\Generated_Source\PSoC5/SDSPI_CSControl_PM.c **** *
  53:.\Generated_Source\PSoC5/SDSPI_CSControl_PM.c **** * Parameters:
  54:.\Generated_Source\PSoC5/SDSPI_CSControl_PM.c **** *  None
  55:.\Generated_Source\PSoC5/SDSPI_CSControl_PM.c **** *
  56:.\Generated_Source\PSoC5/SDSPI_CSControl_PM.c **** * Return:
  57:.\Generated_Source\PSoC5/SDSPI_CSControl_PM.c **** *  None
  58:.\Generated_Source\PSoC5/SDSPI_CSControl_PM.c **** *
  59:.\Generated_Source\PSoC5/SDSPI_CSControl_PM.c **** *
  60:.\Generated_Source\PSoC5/SDSPI_CSControl_PM.c **** *******************************************************************************/
  61:.\Generated_Source\PSoC5/SDSPI_CSControl_PM.c **** void SDSPI_CSControl_RestoreConfig(void) 
ARM GAS  C:\Users\honet\AppData\Local\Temp\ccZUGNgm.s 			page 3


  62:.\Generated_Source\PSoC5/SDSPI_CSControl_PM.c **** {
  54              		.loc 1 62 0
  55              		.cfi_startproc
  56              		@ args = 0, pretend = 0, frame = 0
  57              		@ frame_needed = 0, uses_anonymous_args = 0
  58              		@ link register save eliminated.
  63:.\Generated_Source\PSoC5/SDSPI_CSControl_PM.c ****      SDSPI_CSControl_Control = SDSPI_CSControl_backup.controlState;
  59              		.loc 1 63 0
  60 0000 024A     		ldr	r2, .L5
  61 0002 034B     		ldr	r3, .L5+4
  62 0004 1278     		ldrb	r2, [r2]	@ zero_extendqisi2
  63 0006 1A70     		strb	r2, [r3]
  64 0008 7047     		bx	lr
  65              	.L6:
  66 000a 00BF     		.align	2
  67              	.L5:
  68 000c 00000000 		.word	.LANCHOR0
  69 0010 7D640040 		.word	1073767549
  70              		.cfi_endproc
  71              	.LFE1:
  72              		.size	SDSPI_CSControl_RestoreConfig, .-SDSPI_CSControl_RestoreConfig
  73              		.section	.text.SDSPI_CSControl_Sleep,"ax",%progbits
  74              		.align	2
  75              		.global	SDSPI_CSControl_Sleep
  76              		.thumb
  77              		.thumb_func
  78              		.type	SDSPI_CSControl_Sleep, %function
  79              	SDSPI_CSControl_Sleep:
  80              	.LFB2:
  64:.\Generated_Source\PSoC5/SDSPI_CSControl_PM.c **** }
  65:.\Generated_Source\PSoC5/SDSPI_CSControl_PM.c **** 
  66:.\Generated_Source\PSoC5/SDSPI_CSControl_PM.c **** 
  67:.\Generated_Source\PSoC5/SDSPI_CSControl_PM.c **** /*******************************************************************************
  68:.\Generated_Source\PSoC5/SDSPI_CSControl_PM.c **** * Function Name: SDSPI_CSControl_Sleep
  69:.\Generated_Source\PSoC5/SDSPI_CSControl_PM.c **** ********************************************************************************
  70:.\Generated_Source\PSoC5/SDSPI_CSControl_PM.c **** *
  71:.\Generated_Source\PSoC5/SDSPI_CSControl_PM.c **** * Summary:
  72:.\Generated_Source\PSoC5/SDSPI_CSControl_PM.c **** *  Prepares the component for entering the low power mode.
  73:.\Generated_Source\PSoC5/SDSPI_CSControl_PM.c **** *
  74:.\Generated_Source\PSoC5/SDSPI_CSControl_PM.c **** * Parameters:
  75:.\Generated_Source\PSoC5/SDSPI_CSControl_PM.c **** *  None
  76:.\Generated_Source\PSoC5/SDSPI_CSControl_PM.c **** *
  77:.\Generated_Source\PSoC5/SDSPI_CSControl_PM.c **** * Return:
  78:.\Generated_Source\PSoC5/SDSPI_CSControl_PM.c **** *  None
  79:.\Generated_Source\PSoC5/SDSPI_CSControl_PM.c **** *
  80:.\Generated_Source\PSoC5/SDSPI_CSControl_PM.c **** *******************************************************************************/
  81:.\Generated_Source\PSoC5/SDSPI_CSControl_PM.c **** void SDSPI_CSControl_Sleep(void) 
  82:.\Generated_Source\PSoC5/SDSPI_CSControl_PM.c **** {
  81              		.loc 1 82 0
  82              		.cfi_startproc
  83              		@ args = 0, pretend = 0, frame = 0
  84              		@ frame_needed = 0, uses_anonymous_args = 0
  85              		@ link register save eliminated.
  86              	.LBB6:
  87              	.LBB7:
  42:.\Generated_Source\PSoC5/SDSPI_CSControl_PM.c **** }
  88              		.loc 1 42 0
ARM GAS  C:\Users\honet\AppData\Local\Temp\ccZUGNgm.s 			page 4


  89 0000 024A     		ldr	r2, .L8
  90 0002 034B     		ldr	r3, .L8+4
  91 0004 1278     		ldrb	r2, [r2]	@ zero_extendqisi2
  92 0006 1A70     		strb	r2, [r3]
  93 0008 7047     		bx	lr
  94              	.L9:
  95 000a 00BF     		.align	2
  96              	.L8:
  97 000c 7D640040 		.word	1073767549
  98 0010 00000000 		.word	.LANCHOR0
  99              	.LBE7:
 100              	.LBE6:
 101              		.cfi_endproc
 102              	.LFE2:
 103              		.size	SDSPI_CSControl_Sleep, .-SDSPI_CSControl_Sleep
 104              		.section	.text.SDSPI_CSControl_Wakeup,"ax",%progbits
 105              		.align	2
 106              		.global	SDSPI_CSControl_Wakeup
 107              		.thumb
 108              		.thumb_func
 109              		.type	SDSPI_CSControl_Wakeup, %function
 110              	SDSPI_CSControl_Wakeup:
 111              	.LFB3:
  83:.\Generated_Source\PSoC5/SDSPI_CSControl_PM.c ****     SDSPI_CSControl_SaveConfig();
  84:.\Generated_Source\PSoC5/SDSPI_CSControl_PM.c **** }
  85:.\Generated_Source\PSoC5/SDSPI_CSControl_PM.c **** 
  86:.\Generated_Source\PSoC5/SDSPI_CSControl_PM.c **** 
  87:.\Generated_Source\PSoC5/SDSPI_CSControl_PM.c **** /*******************************************************************************
  88:.\Generated_Source\PSoC5/SDSPI_CSControl_PM.c **** * Function Name: SDSPI_CSControl_Wakeup
  89:.\Generated_Source\PSoC5/SDSPI_CSControl_PM.c **** ********************************************************************************
  90:.\Generated_Source\PSoC5/SDSPI_CSControl_PM.c **** *
  91:.\Generated_Source\PSoC5/SDSPI_CSControl_PM.c **** * Summary:
  92:.\Generated_Source\PSoC5/SDSPI_CSControl_PM.c **** *  Restores the component after waking up from the low power mode.
  93:.\Generated_Source\PSoC5/SDSPI_CSControl_PM.c **** *
  94:.\Generated_Source\PSoC5/SDSPI_CSControl_PM.c **** * Parameters:
  95:.\Generated_Source\PSoC5/SDSPI_CSControl_PM.c **** *  None
  96:.\Generated_Source\PSoC5/SDSPI_CSControl_PM.c **** *
  97:.\Generated_Source\PSoC5/SDSPI_CSControl_PM.c **** * Return:
  98:.\Generated_Source\PSoC5/SDSPI_CSControl_PM.c **** *  None
  99:.\Generated_Source\PSoC5/SDSPI_CSControl_PM.c **** *
 100:.\Generated_Source\PSoC5/SDSPI_CSControl_PM.c **** *******************************************************************************/
 101:.\Generated_Source\PSoC5/SDSPI_CSControl_PM.c **** void SDSPI_CSControl_Wakeup(void)  
 102:.\Generated_Source\PSoC5/SDSPI_CSControl_PM.c **** {
 112              		.loc 1 102 0
 113              		.cfi_startproc
 114              		@ args = 0, pretend = 0, frame = 0
 115              		@ frame_needed = 0, uses_anonymous_args = 0
 116              		@ link register save eliminated.
 117              	.LBB8:
 118              	.LBB9:
  63:.\Generated_Source\PSoC5/SDSPI_CSControl_PM.c **** }
 119              		.loc 1 63 0
 120 0000 024A     		ldr	r2, .L11
 121 0002 034B     		ldr	r3, .L11+4
 122 0004 1278     		ldrb	r2, [r2]	@ zero_extendqisi2
 123 0006 1A70     		strb	r2, [r3]
 124 0008 7047     		bx	lr
ARM GAS  C:\Users\honet\AppData\Local\Temp\ccZUGNgm.s 			page 5


 125              	.L12:
 126 000a 00BF     		.align	2
 127              	.L11:
 128 000c 00000000 		.word	.LANCHOR0
 129 0010 7D640040 		.word	1073767549
 130              	.LBE9:
 131              	.LBE8:
 132              		.cfi_endproc
 133              	.LFE3:
 134              		.size	SDSPI_CSControl_Wakeup, .-SDSPI_CSControl_Wakeup
 135              		.bss
 136              		.align	2
 137              		.set	.LANCHOR0,. + 0
 138              		.type	SDSPI_CSControl_backup, %object
 139              		.size	SDSPI_CSControl_backup, 1
 140              	SDSPI_CSControl_backup:
 141 0000 00       		.space	1
 142 0001 000000   		.text
 143              	.Letext0:
 144              		.file 2 ".\\Generated_Source\\PSoC5\\cytypes.h"
 145              		.file 3 ".\\Generated_Source\\PSoC5\\SDSPI_CSControl.h"