ARM GAS  C:\Users\honet\AppData\Local\Temp\ccwozZGh.s 			page 1


   1              		.syntax unified
   2              		.cpu cortex-m3
   3              		.fpu softvfp
   4              		.eabi_attribute 20, 1
   5              		.eabi_attribute 21, 1
   6              		.eabi_attribute 23, 3
   7              		.eabi_attribute 24, 1
   8              		.eabi_attribute 25, 1
   9              		.eabi_attribute 26, 1
  10              		.eabi_attribute 30, 2
  11              		.eabi_attribute 34, 1
  12              		.eabi_attribute 18, 4
  13              		.thumb
  14              		.file	"SDSPI_SPIMaster.c"
  15              		.text
  16              	.Ltext0:
  17              		.cfi_sections	.debug_frame
  18              		.section	.text.SDSPI_SPIMaster_Init,"ax",%progbits
  19              		.align	2
  20              		.global	SDSPI_SPIMaster_Init
  21              		.thumb
  22              		.thumb_func
  23              		.type	SDSPI_SPIMaster_Init, %function
  24              	SDSPI_SPIMaster_Init:
  25              	.LFB0:
  26              		.file 1 ".\\Generated_Source\\PSoC5\\SDSPI_SPIMaster.c"
   1:.\Generated_Source\PSoC5/SDSPI_SPIMaster.c **** /*******************************************************************************
   2:.\Generated_Source\PSoC5/SDSPI_SPIMaster.c **** * File Name: SDSPI_SPIMaster.c
   3:.\Generated_Source\PSoC5/SDSPI_SPIMaster.c **** * Version 2.50
   4:.\Generated_Source\PSoC5/SDSPI_SPIMaster.c **** *
   5:.\Generated_Source\PSoC5/SDSPI_SPIMaster.c **** * Description:
   6:.\Generated_Source\PSoC5/SDSPI_SPIMaster.c **** *  This file provides all API functionality of the SPI Master component.
   7:.\Generated_Source\PSoC5/SDSPI_SPIMaster.c **** *
   8:.\Generated_Source\PSoC5/SDSPI_SPIMaster.c **** * Note:
   9:.\Generated_Source\PSoC5/SDSPI_SPIMaster.c **** *  None.
  10:.\Generated_Source\PSoC5/SDSPI_SPIMaster.c **** *
  11:.\Generated_Source\PSoC5/SDSPI_SPIMaster.c **** ********************************************************************************
  12:.\Generated_Source\PSoC5/SDSPI_SPIMaster.c **** * Copyright 2008-2015, Cypress Semiconductor Corporation.  All rights reserved.
  13:.\Generated_Source\PSoC5/SDSPI_SPIMaster.c **** * You may use this file only in accordance with the license, terms, conditions,
  14:.\Generated_Source\PSoC5/SDSPI_SPIMaster.c **** * disclaimers, and limitations in the end user license agreement accompanying
  15:.\Generated_Source\PSoC5/SDSPI_SPIMaster.c **** * the software package with which this file was provided.
  16:.\Generated_Source\PSoC5/SDSPI_SPIMaster.c **** *******************************************************************************/
  17:.\Generated_Source\PSoC5/SDSPI_SPIMaster.c **** 
  18:.\Generated_Source\PSoC5/SDSPI_SPIMaster.c **** #include "SDSPI_SPIMaster_PVT.h"
  19:.\Generated_Source\PSoC5/SDSPI_SPIMaster.c **** 
  20:.\Generated_Source\PSoC5/SDSPI_SPIMaster.c **** #if(SDSPI_SPIMaster_TX_SOFTWARE_BUF_ENABLED)
  21:.\Generated_Source\PSoC5/SDSPI_SPIMaster.c ****     volatile uint8 SDSPI_SPIMaster_txBuffer[SDSPI_SPIMaster_TX_BUFFER_SIZE];
  22:.\Generated_Source\PSoC5/SDSPI_SPIMaster.c ****     volatile uint8 SDSPI_SPIMaster_txBufferFull;
  23:.\Generated_Source\PSoC5/SDSPI_SPIMaster.c ****     volatile uint8 SDSPI_SPIMaster_txBufferRead;
  24:.\Generated_Source\PSoC5/SDSPI_SPIMaster.c ****     volatile uint8 SDSPI_SPIMaster_txBufferWrite;
  25:.\Generated_Source\PSoC5/SDSPI_SPIMaster.c **** #endif /* (SDSPI_SPIMaster_TX_SOFTWARE_BUF_ENABLED) */
  26:.\Generated_Source\PSoC5/SDSPI_SPIMaster.c **** 
  27:.\Generated_Source\PSoC5/SDSPI_SPIMaster.c **** #if(SDSPI_SPIMaster_RX_SOFTWARE_BUF_ENABLED)
  28:.\Generated_Source\PSoC5/SDSPI_SPIMaster.c ****     volatile uint8 SDSPI_SPIMaster_rxBuffer[SDSPI_SPIMaster_RX_BUFFER_SIZE];
  29:.\Generated_Source\PSoC5/SDSPI_SPIMaster.c ****     volatile uint8 SDSPI_SPIMaster_rxBufferFull;
  30:.\Generated_Source\PSoC5/SDSPI_SPIMaster.c ****     volatile uint8 SDSPI_SPIMaster_rxBufferRead;
  31:.\Generated_Source\PSoC5/SDSPI_SPIMaster.c ****     volatile uint8 SDSPI_SPIMaster_rxBufferWrite;
ARM GAS  C:\Users\honet\AppData\Local\Temp\ccwozZGh.s 			page 2


  32:.\Generated_Source\PSoC5/SDSPI_SPIMaster.c **** #endif /* (SDSPI_SPIMaster_RX_SOFTWARE_BUF_ENABLED) */
  33:.\Generated_Source\PSoC5/SDSPI_SPIMaster.c **** 
  34:.\Generated_Source\PSoC5/SDSPI_SPIMaster.c **** uint8 SDSPI_SPIMaster_initVar = 0u;
  35:.\Generated_Source\PSoC5/SDSPI_SPIMaster.c **** 
  36:.\Generated_Source\PSoC5/SDSPI_SPIMaster.c **** volatile uint8 SDSPI_SPIMaster_swStatusTx;
  37:.\Generated_Source\PSoC5/SDSPI_SPIMaster.c **** volatile uint8 SDSPI_SPIMaster_swStatusRx;
  38:.\Generated_Source\PSoC5/SDSPI_SPIMaster.c **** 
  39:.\Generated_Source\PSoC5/SDSPI_SPIMaster.c **** 
  40:.\Generated_Source\PSoC5/SDSPI_SPIMaster.c **** /*******************************************************************************
  41:.\Generated_Source\PSoC5/SDSPI_SPIMaster.c **** * Function Name: SDSPI_SPIMaster_Init
  42:.\Generated_Source\PSoC5/SDSPI_SPIMaster.c **** ********************************************************************************
  43:.\Generated_Source\PSoC5/SDSPI_SPIMaster.c **** *
  44:.\Generated_Source\PSoC5/SDSPI_SPIMaster.c **** * Summary:
  45:.\Generated_Source\PSoC5/SDSPI_SPIMaster.c **** *  Inits/Restores default SPIM configuration provided with customizer.
  46:.\Generated_Source\PSoC5/SDSPI_SPIMaster.c **** *
  47:.\Generated_Source\PSoC5/SDSPI_SPIMaster.c **** * Parameters:
  48:.\Generated_Source\PSoC5/SDSPI_SPIMaster.c **** *  None.
  49:.\Generated_Source\PSoC5/SDSPI_SPIMaster.c **** *
  50:.\Generated_Source\PSoC5/SDSPI_SPIMaster.c **** * Return:
  51:.\Generated_Source\PSoC5/SDSPI_SPIMaster.c **** *  None.
  52:.\Generated_Source\PSoC5/SDSPI_SPIMaster.c **** *
  53:.\Generated_Source\PSoC5/SDSPI_SPIMaster.c **** * Side Effects:
  54:.\Generated_Source\PSoC5/SDSPI_SPIMaster.c **** *  When this function is called it initializes all of the necessary parameters
  55:.\Generated_Source\PSoC5/SDSPI_SPIMaster.c **** *  for execution. i.e. setting the initial interrupt mask, configuring the
  56:.\Generated_Source\PSoC5/SDSPI_SPIMaster.c **** *  interrupt service routine, configuring the bit-counter parameters and
  57:.\Generated_Source\PSoC5/SDSPI_SPIMaster.c **** *  clearing the FIFO and Status Register.
  58:.\Generated_Source\PSoC5/SDSPI_SPIMaster.c **** *
  59:.\Generated_Source\PSoC5/SDSPI_SPIMaster.c **** * Reentrant:
  60:.\Generated_Source\PSoC5/SDSPI_SPIMaster.c **** *  No.
  61:.\Generated_Source\PSoC5/SDSPI_SPIMaster.c **** *
  62:.\Generated_Source\PSoC5/SDSPI_SPIMaster.c **** *******************************************************************************/
  63:.\Generated_Source\PSoC5/SDSPI_SPIMaster.c **** void SDSPI_SPIMaster_Init(void) 
  64:.\Generated_Source\PSoC5/SDSPI_SPIMaster.c **** {
  27              		.loc 1 64 0
  28              		.cfi_startproc
  29              		@ args = 0, pretend = 0, frame = 0
  30              		@ frame_needed = 0, uses_anonymous_args = 0
  31 0000 38B5     		push	{r3, r4, r5, lr}
  32              		.cfi_def_cfa_offset 16
  33              		.cfi_offset 3, -16
  34              		.cfi_offset 4, -12
  35              		.cfi_offset 5, -8
  36              		.cfi_offset 14, -4
  65:.\Generated_Source\PSoC5/SDSPI_SPIMaster.c ****     /* Initialize the Bit counter */
  66:.\Generated_Source\PSoC5/SDSPI_SPIMaster.c ****     SDSPI_SPIMaster_COUNTER_PERIOD_REG = SDSPI_SPIMaster_BITCTR_INIT;
  37              		.loc 1 66 0
  38 0002 124B     		ldr	r3, .L11
  39 0004 0F21     		movs	r1, #15
  40              	.LBB36:
  41              	.LBB37:
  67:.\Generated_Source\PSoC5/SDSPI_SPIMaster.c **** 
  68:.\Generated_Source\PSoC5/SDSPI_SPIMaster.c ****     /* Init TX ISR  */
  69:.\Generated_Source\PSoC5/SDSPI_SPIMaster.c ****     #if(0u != SDSPI_SPIMaster_INTERNAL_TX_INT_ENABLED)
  70:.\Generated_Source\PSoC5/SDSPI_SPIMaster.c ****         CyIntDisable         (SDSPI_SPIMaster_TX_ISR_NUMBER);
  71:.\Generated_Source\PSoC5/SDSPI_SPIMaster.c ****         CyIntSetPriority     (SDSPI_SPIMaster_TX_ISR_NUMBER,  SDSPI_SPIMaster_TX_ISR_PRIORITY);
  72:.\Generated_Source\PSoC5/SDSPI_SPIMaster.c ****         (void) CyIntSetVector(SDSPI_SPIMaster_TX_ISR_NUMBER, &SDSPI_SPIMaster_TX_ISR);
  73:.\Generated_Source\PSoC5/SDSPI_SPIMaster.c ****     #endif /* (0u != SDSPI_SPIMaster_INTERNAL_TX_INT_ENABLED) */
ARM GAS  C:\Users\honet\AppData\Local\Temp\ccwozZGh.s 			page 3


  74:.\Generated_Source\PSoC5/SDSPI_SPIMaster.c **** 
  75:.\Generated_Source\PSoC5/SDSPI_SPIMaster.c ****     /* Init RX ISR  */
  76:.\Generated_Source\PSoC5/SDSPI_SPIMaster.c ****     #if(0u != SDSPI_SPIMaster_INTERNAL_RX_INT_ENABLED)
  77:.\Generated_Source\PSoC5/SDSPI_SPIMaster.c ****         CyIntDisable         (SDSPI_SPIMaster_RX_ISR_NUMBER);
  78:.\Generated_Source\PSoC5/SDSPI_SPIMaster.c ****         CyIntSetPriority     (SDSPI_SPIMaster_RX_ISR_NUMBER,  SDSPI_SPIMaster_RX_ISR_PRIORITY);
  79:.\Generated_Source\PSoC5/SDSPI_SPIMaster.c ****         (void) CyIntSetVector(SDSPI_SPIMaster_RX_ISR_NUMBER, &SDSPI_SPIMaster_RX_ISR);
  80:.\Generated_Source\PSoC5/SDSPI_SPIMaster.c ****     #endif /* (0u != SDSPI_SPIMaster_INTERNAL_RX_INT_ENABLED) */
  81:.\Generated_Source\PSoC5/SDSPI_SPIMaster.c **** 
  82:.\Generated_Source\PSoC5/SDSPI_SPIMaster.c ****     /* Clear any stray data from the RX and TX FIFO */
  83:.\Generated_Source\PSoC5/SDSPI_SPIMaster.c ****     SDSPI_SPIMaster_ClearFIFO();
  84:.\Generated_Source\PSoC5/SDSPI_SPIMaster.c **** 
  85:.\Generated_Source\PSoC5/SDSPI_SPIMaster.c ****     #if(SDSPI_SPIMaster_RX_SOFTWARE_BUF_ENABLED)
  86:.\Generated_Source\PSoC5/SDSPI_SPIMaster.c ****         SDSPI_SPIMaster_rxBufferFull  = 0u;
  87:.\Generated_Source\PSoC5/SDSPI_SPIMaster.c ****         SDSPI_SPIMaster_rxBufferRead  = 0u;
  88:.\Generated_Source\PSoC5/SDSPI_SPIMaster.c ****         SDSPI_SPIMaster_rxBufferWrite = 0u;
  89:.\Generated_Source\PSoC5/SDSPI_SPIMaster.c ****     #endif /* (SDSPI_SPIMaster_RX_SOFTWARE_BUF_ENABLED) */
  90:.\Generated_Source\PSoC5/SDSPI_SPIMaster.c **** 
  91:.\Generated_Source\PSoC5/SDSPI_SPIMaster.c ****     #if(SDSPI_SPIMaster_TX_SOFTWARE_BUF_ENABLED)
  92:.\Generated_Source\PSoC5/SDSPI_SPIMaster.c ****         SDSPI_SPIMaster_txBufferFull  = 0u;
  93:.\Generated_Source\PSoC5/SDSPI_SPIMaster.c ****         SDSPI_SPIMaster_txBufferRead  = 0u;
  94:.\Generated_Source\PSoC5/SDSPI_SPIMaster.c ****         SDSPI_SPIMaster_txBufferWrite = 0u;
  95:.\Generated_Source\PSoC5/SDSPI_SPIMaster.c ****     #endif /* (SDSPI_SPIMaster_TX_SOFTWARE_BUF_ENABLED) */
  96:.\Generated_Source\PSoC5/SDSPI_SPIMaster.c **** 
  97:.\Generated_Source\PSoC5/SDSPI_SPIMaster.c ****     (void) SDSPI_SPIMaster_ReadTxStatus(); /* Clear Tx status and swStatusTx */
  98:.\Generated_Source\PSoC5/SDSPI_SPIMaster.c ****     (void) SDSPI_SPIMaster_ReadRxStatus(); /* Clear Rx status and swStatusRx */
  99:.\Generated_Source\PSoC5/SDSPI_SPIMaster.c **** 
 100:.\Generated_Source\PSoC5/SDSPI_SPIMaster.c ****     /* Configure TX and RX interrupt mask */
 101:.\Generated_Source\PSoC5/SDSPI_SPIMaster.c ****     SDSPI_SPIMaster_TX_STATUS_MASK_REG = SDSPI_SPIMaster_TX_INIT_INTERRUPTS_MASK;
 102:.\Generated_Source\PSoC5/SDSPI_SPIMaster.c ****     SDSPI_SPIMaster_RX_STATUS_MASK_REG = SDSPI_SPIMaster_RX_INIT_INTERRUPTS_MASK;
 103:.\Generated_Source\PSoC5/SDSPI_SPIMaster.c **** }
 104:.\Generated_Source\PSoC5/SDSPI_SPIMaster.c **** 
 105:.\Generated_Source\PSoC5/SDSPI_SPIMaster.c **** 
 106:.\Generated_Source\PSoC5/SDSPI_SPIMaster.c **** /*******************************************************************************
 107:.\Generated_Source\PSoC5/SDSPI_SPIMaster.c **** * Function Name: SDSPI_SPIMaster_Enable
 108:.\Generated_Source\PSoC5/SDSPI_SPIMaster.c **** ********************************************************************************
 109:.\Generated_Source\PSoC5/SDSPI_SPIMaster.c **** *
 110:.\Generated_Source\PSoC5/SDSPI_SPIMaster.c **** * Summary:
 111:.\Generated_Source\PSoC5/SDSPI_SPIMaster.c **** *  Enable SPIM component.
 112:.\Generated_Source\PSoC5/SDSPI_SPIMaster.c **** *
 113:.\Generated_Source\PSoC5/SDSPI_SPIMaster.c **** * Parameters:
 114:.\Generated_Source\PSoC5/SDSPI_SPIMaster.c **** *  None.
 115:.\Generated_Source\PSoC5/SDSPI_SPIMaster.c **** *
 116:.\Generated_Source\PSoC5/SDSPI_SPIMaster.c **** * Return:
 117:.\Generated_Source\PSoC5/SDSPI_SPIMaster.c **** *  None.
 118:.\Generated_Source\PSoC5/SDSPI_SPIMaster.c **** *
 119:.\Generated_Source\PSoC5/SDSPI_SPIMaster.c **** *******************************************************************************/
 120:.\Generated_Source\PSoC5/SDSPI_SPIMaster.c **** void SDSPI_SPIMaster_Enable(void) 
 121:.\Generated_Source\PSoC5/SDSPI_SPIMaster.c **** {
 122:.\Generated_Source\PSoC5/SDSPI_SPIMaster.c ****     uint8 enableInterrupts;
 123:.\Generated_Source\PSoC5/SDSPI_SPIMaster.c **** 
 124:.\Generated_Source\PSoC5/SDSPI_SPIMaster.c ****     enableInterrupts = CyEnterCriticalSection();
 125:.\Generated_Source\PSoC5/SDSPI_SPIMaster.c ****     SDSPI_SPIMaster_COUNTER_CONTROL_REG |= SDSPI_SPIMaster_CNTR_ENABLE;
 126:.\Generated_Source\PSoC5/SDSPI_SPIMaster.c ****     SDSPI_SPIMaster_TX_STATUS_ACTL_REG  |= SDSPI_SPIMaster_INT_ENABLE;
 127:.\Generated_Source\PSoC5/SDSPI_SPIMaster.c ****     SDSPI_SPIMaster_RX_STATUS_ACTL_REG  |= SDSPI_SPIMaster_INT_ENABLE;
 128:.\Generated_Source\PSoC5/SDSPI_SPIMaster.c ****     CyExitCriticalSection(enableInterrupts);
 129:.\Generated_Source\PSoC5/SDSPI_SPIMaster.c **** 
 130:.\Generated_Source\PSoC5/SDSPI_SPIMaster.c ****     #if(0u != SDSPI_SPIMaster_INTERNAL_CLOCK)
ARM GAS  C:\Users\honet\AppData\Local\Temp\ccwozZGh.s 			page 4


 131:.\Generated_Source\PSoC5/SDSPI_SPIMaster.c ****         SDSPI_SPIMaster_IntClock_Enable();
 132:.\Generated_Source\PSoC5/SDSPI_SPIMaster.c ****     #endif /* (0u != SDSPI_SPIMaster_INTERNAL_CLOCK) */
 133:.\Generated_Source\PSoC5/SDSPI_SPIMaster.c **** 
 134:.\Generated_Source\PSoC5/SDSPI_SPIMaster.c ****     SDSPI_SPIMaster_EnableTxInt();
 135:.\Generated_Source\PSoC5/SDSPI_SPIMaster.c ****     SDSPI_SPIMaster_EnableRxInt();
 136:.\Generated_Source\PSoC5/SDSPI_SPIMaster.c **** }
 137:.\Generated_Source\PSoC5/SDSPI_SPIMaster.c **** 
 138:.\Generated_Source\PSoC5/SDSPI_SPIMaster.c **** 
 139:.\Generated_Source\PSoC5/SDSPI_SPIMaster.c **** /*******************************************************************************
 140:.\Generated_Source\PSoC5/SDSPI_SPIMaster.c **** * Function Name: SDSPI_SPIMaster_Start
 141:.\Generated_Source\PSoC5/SDSPI_SPIMaster.c **** ********************************************************************************
 142:.\Generated_Source\PSoC5/SDSPI_SPIMaster.c **** *
 143:.\Generated_Source\PSoC5/SDSPI_SPIMaster.c **** * Summary:
 144:.\Generated_Source\PSoC5/SDSPI_SPIMaster.c **** *  Initialize and Enable the SPI Master component.
 145:.\Generated_Source\PSoC5/SDSPI_SPIMaster.c **** *
 146:.\Generated_Source\PSoC5/SDSPI_SPIMaster.c **** * Parameters:
 147:.\Generated_Source\PSoC5/SDSPI_SPIMaster.c **** *  None.
 148:.\Generated_Source\PSoC5/SDSPI_SPIMaster.c **** *
 149:.\Generated_Source\PSoC5/SDSPI_SPIMaster.c **** * Return:
 150:.\Generated_Source\PSoC5/SDSPI_SPIMaster.c **** *  None.
 151:.\Generated_Source\PSoC5/SDSPI_SPIMaster.c **** *
 152:.\Generated_Source\PSoC5/SDSPI_SPIMaster.c **** * Global variables:
 153:.\Generated_Source\PSoC5/SDSPI_SPIMaster.c **** *  SDSPI_SPIMaster_initVar - used to check initial configuration, modified on
 154:.\Generated_Source\PSoC5/SDSPI_SPIMaster.c **** *  first function call.
 155:.\Generated_Source\PSoC5/SDSPI_SPIMaster.c **** *
 156:.\Generated_Source\PSoC5/SDSPI_SPIMaster.c **** * Theory:
 157:.\Generated_Source\PSoC5/SDSPI_SPIMaster.c **** *  Enable the clock input to enable operation.
 158:.\Generated_Source\PSoC5/SDSPI_SPIMaster.c **** *
 159:.\Generated_Source\PSoC5/SDSPI_SPIMaster.c **** * Reentrant:
 160:.\Generated_Source\PSoC5/SDSPI_SPIMaster.c **** *  No.
 161:.\Generated_Source\PSoC5/SDSPI_SPIMaster.c **** *
 162:.\Generated_Source\PSoC5/SDSPI_SPIMaster.c **** *******************************************************************************/
 163:.\Generated_Source\PSoC5/SDSPI_SPIMaster.c **** void SDSPI_SPIMaster_Start(void) 
 164:.\Generated_Source\PSoC5/SDSPI_SPIMaster.c **** {
 165:.\Generated_Source\PSoC5/SDSPI_SPIMaster.c ****     if(0u == SDSPI_SPIMaster_initVar)
 166:.\Generated_Source\PSoC5/SDSPI_SPIMaster.c ****     {
 167:.\Generated_Source\PSoC5/SDSPI_SPIMaster.c ****         SDSPI_SPIMaster_Init();
 168:.\Generated_Source\PSoC5/SDSPI_SPIMaster.c ****         SDSPI_SPIMaster_initVar = 1u;
 169:.\Generated_Source\PSoC5/SDSPI_SPIMaster.c ****     }
 170:.\Generated_Source\PSoC5/SDSPI_SPIMaster.c **** 
 171:.\Generated_Source\PSoC5/SDSPI_SPIMaster.c ****     SDSPI_SPIMaster_Enable();
 172:.\Generated_Source\PSoC5/SDSPI_SPIMaster.c **** }
 173:.\Generated_Source\PSoC5/SDSPI_SPIMaster.c **** 
 174:.\Generated_Source\PSoC5/SDSPI_SPIMaster.c **** 
 175:.\Generated_Source\PSoC5/SDSPI_SPIMaster.c **** /*******************************************************************************
 176:.\Generated_Source\PSoC5/SDSPI_SPIMaster.c **** * Function Name: SDSPI_SPIMaster_Stop
 177:.\Generated_Source\PSoC5/SDSPI_SPIMaster.c **** ********************************************************************************
 178:.\Generated_Source\PSoC5/SDSPI_SPIMaster.c **** *
 179:.\Generated_Source\PSoC5/SDSPI_SPIMaster.c **** * Summary:
 180:.\Generated_Source\PSoC5/SDSPI_SPIMaster.c **** *  Disable the SPI Master component.
 181:.\Generated_Source\PSoC5/SDSPI_SPIMaster.c **** *
 182:.\Generated_Source\PSoC5/SDSPI_SPIMaster.c **** * Parameters:
 183:.\Generated_Source\PSoC5/SDSPI_SPIMaster.c **** *  None.
 184:.\Generated_Source\PSoC5/SDSPI_SPIMaster.c **** *
 185:.\Generated_Source\PSoC5/SDSPI_SPIMaster.c **** * Return:
 186:.\Generated_Source\PSoC5/SDSPI_SPIMaster.c **** *  None.
 187:.\Generated_Source\PSoC5/SDSPI_SPIMaster.c **** *
ARM GAS  C:\Users\honet\AppData\Local\Temp\ccwozZGh.s 			page 5


 188:.\Generated_Source\PSoC5/SDSPI_SPIMaster.c **** * Theory:
 189:.\Generated_Source\PSoC5/SDSPI_SPIMaster.c **** *  Disable the clock input to enable operation.
 190:.\Generated_Source\PSoC5/SDSPI_SPIMaster.c **** *
 191:.\Generated_Source\PSoC5/SDSPI_SPIMaster.c **** *******************************************************************************/
 192:.\Generated_Source\PSoC5/SDSPI_SPIMaster.c **** void SDSPI_SPIMaster_Stop(void) 
 193:.\Generated_Source\PSoC5/SDSPI_SPIMaster.c **** {
 194:.\Generated_Source\PSoC5/SDSPI_SPIMaster.c ****     uint8 enableInterrupts;
 195:.\Generated_Source\PSoC5/SDSPI_SPIMaster.c **** 
 196:.\Generated_Source\PSoC5/SDSPI_SPIMaster.c ****     enableInterrupts = CyEnterCriticalSection();
 197:.\Generated_Source\PSoC5/SDSPI_SPIMaster.c ****     SDSPI_SPIMaster_TX_STATUS_ACTL_REG &= ((uint8) ~SDSPI_SPIMaster_INT_ENABLE);
 198:.\Generated_Source\PSoC5/SDSPI_SPIMaster.c ****     SDSPI_SPIMaster_RX_STATUS_ACTL_REG &= ((uint8) ~SDSPI_SPIMaster_INT_ENABLE);
 199:.\Generated_Source\PSoC5/SDSPI_SPIMaster.c ****     CyExitCriticalSection(enableInterrupts);
 200:.\Generated_Source\PSoC5/SDSPI_SPIMaster.c **** 
 201:.\Generated_Source\PSoC5/SDSPI_SPIMaster.c ****     #if(0u != SDSPI_SPIMaster_INTERNAL_CLOCK)
 202:.\Generated_Source\PSoC5/SDSPI_SPIMaster.c ****         SDSPI_SPIMaster_IntClock_Disable();
 203:.\Generated_Source\PSoC5/SDSPI_SPIMaster.c ****     #endif /* (0u != SDSPI_SPIMaster_INTERNAL_CLOCK) */
 204:.\Generated_Source\PSoC5/SDSPI_SPIMaster.c **** 
 205:.\Generated_Source\PSoC5/SDSPI_SPIMaster.c ****     SDSPI_SPIMaster_DisableTxInt();
 206:.\Generated_Source\PSoC5/SDSPI_SPIMaster.c ****     SDSPI_SPIMaster_DisableRxInt();
 207:.\Generated_Source\PSoC5/SDSPI_SPIMaster.c **** }
 208:.\Generated_Source\PSoC5/SDSPI_SPIMaster.c **** 
 209:.\Generated_Source\PSoC5/SDSPI_SPIMaster.c **** 
 210:.\Generated_Source\PSoC5/SDSPI_SPIMaster.c **** /*******************************************************************************
 211:.\Generated_Source\PSoC5/SDSPI_SPIMaster.c **** * Function Name: SDSPI_SPIMaster_EnableTxInt
 212:.\Generated_Source\PSoC5/SDSPI_SPIMaster.c **** ********************************************************************************
 213:.\Generated_Source\PSoC5/SDSPI_SPIMaster.c **** *
 214:.\Generated_Source\PSoC5/SDSPI_SPIMaster.c **** * Summary:
 215:.\Generated_Source\PSoC5/SDSPI_SPIMaster.c **** *  Enable internal Tx interrupt generation.
 216:.\Generated_Source\PSoC5/SDSPI_SPIMaster.c **** *
 217:.\Generated_Source\PSoC5/SDSPI_SPIMaster.c **** * Parameters:
 218:.\Generated_Source\PSoC5/SDSPI_SPIMaster.c **** *  None.
 219:.\Generated_Source\PSoC5/SDSPI_SPIMaster.c **** *
 220:.\Generated_Source\PSoC5/SDSPI_SPIMaster.c **** * Return:
 221:.\Generated_Source\PSoC5/SDSPI_SPIMaster.c **** *  None.
 222:.\Generated_Source\PSoC5/SDSPI_SPIMaster.c **** *
 223:.\Generated_Source\PSoC5/SDSPI_SPIMaster.c **** * Theory:
 224:.\Generated_Source\PSoC5/SDSPI_SPIMaster.c **** *  Enable the internal Tx interrupt output -or- the interrupt component itself.
 225:.\Generated_Source\PSoC5/SDSPI_SPIMaster.c **** *
 226:.\Generated_Source\PSoC5/SDSPI_SPIMaster.c **** *******************************************************************************/
 227:.\Generated_Source\PSoC5/SDSPI_SPIMaster.c **** void SDSPI_SPIMaster_EnableTxInt(void) 
 228:.\Generated_Source\PSoC5/SDSPI_SPIMaster.c **** {
 229:.\Generated_Source\PSoC5/SDSPI_SPIMaster.c ****     #if(0u != SDSPI_SPIMaster_INTERNAL_TX_INT_ENABLED)
 230:.\Generated_Source\PSoC5/SDSPI_SPIMaster.c ****         CyIntEnable(SDSPI_SPIMaster_TX_ISR_NUMBER);
 231:.\Generated_Source\PSoC5/SDSPI_SPIMaster.c ****     #endif /* (0u != SDSPI_SPIMaster_INTERNAL_TX_INT_ENABLED) */
 232:.\Generated_Source\PSoC5/SDSPI_SPIMaster.c **** }
 233:.\Generated_Source\PSoC5/SDSPI_SPIMaster.c **** 
 234:.\Generated_Source\PSoC5/SDSPI_SPIMaster.c **** 
 235:.\Generated_Source\PSoC5/SDSPI_SPIMaster.c **** /*******************************************************************************
 236:.\Generated_Source\PSoC5/SDSPI_SPIMaster.c **** * Function Name: SDSPI_SPIMaster_EnableRxInt
 237:.\Generated_Source\PSoC5/SDSPI_SPIMaster.c **** ********************************************************************************
 238:.\Generated_Source\PSoC5/SDSPI_SPIMaster.c **** *
 239:.\Generated_Source\PSoC5/SDSPI_SPIMaster.c **** * Summary:
 240:.\Generated_Source\PSoC5/SDSPI_SPIMaster.c **** *  Enable internal Rx interrupt generation.
 241:.\Generated_Source\PSoC5/SDSPI_SPIMaster.c **** *
 242:.\Generated_Source\PSoC5/SDSPI_SPIMaster.c **** * Parameters:
 243:.\Generated_Source\PSoC5/SDSPI_SPIMaster.c **** *  None.
 244:.\Generated_Source\PSoC5/SDSPI_SPIMaster.c **** *
ARM GAS  C:\Users\honet\AppData\Local\Temp\ccwozZGh.s 			page 6


 245:.\Generated_Source\PSoC5/SDSPI_SPIMaster.c **** * Return:
 246:.\Generated_Source\PSoC5/SDSPI_SPIMaster.c **** *  None.
 247:.\Generated_Source\PSoC5/SDSPI_SPIMaster.c **** *
 248:.\Generated_Source\PSoC5/SDSPI_SPIMaster.c **** * Theory:
 249:.\Generated_Source\PSoC5/SDSPI_SPIMaster.c **** *  Enable the internal Rx interrupt output -or- the interrupt component itself.
 250:.\Generated_Source\PSoC5/SDSPI_SPIMaster.c **** *
 251:.\Generated_Source\PSoC5/SDSPI_SPIMaster.c **** *******************************************************************************/
 252:.\Generated_Source\PSoC5/SDSPI_SPIMaster.c **** void SDSPI_SPIMaster_EnableRxInt(void) 
 253:.\Generated_Source\PSoC5/SDSPI_SPIMaster.c **** {
 254:.\Generated_Source\PSoC5/SDSPI_SPIMaster.c ****     #if(0u != SDSPI_SPIMaster_INTERNAL_RX_INT_ENABLED)
 255:.\Generated_Source\PSoC5/SDSPI_SPIMaster.c ****         CyIntEnable(SDSPI_SPIMaster_RX_ISR_NUMBER);
 256:.\Generated_Source\PSoC5/SDSPI_SPIMaster.c ****     #endif /* (0u != SDSPI_SPIMaster_INTERNAL_RX_INT_ENABLED) */
 257:.\Generated_Source\PSoC5/SDSPI_SPIMaster.c **** }
 258:.\Generated_Source\PSoC5/SDSPI_SPIMaster.c **** 
 259:.\Generated_Source\PSoC5/SDSPI_SPIMaster.c **** 
 260:.\Generated_Source\PSoC5/SDSPI_SPIMaster.c **** /*******************************************************************************
 261:.\Generated_Source\PSoC5/SDSPI_SPIMaster.c **** * Function Name: SDSPI_SPIMaster_DisableTxInt
 262:.\Generated_Source\PSoC5/SDSPI_SPIMaster.c **** ********************************************************************************
 263:.\Generated_Source\PSoC5/SDSPI_SPIMaster.c **** *
 264:.\Generated_Source\PSoC5/SDSPI_SPIMaster.c **** * Summary:
 265:.\Generated_Source\PSoC5/SDSPI_SPIMaster.c **** *  Disable internal Tx interrupt generation.
 266:.\Generated_Source\PSoC5/SDSPI_SPIMaster.c **** *
 267:.\Generated_Source\PSoC5/SDSPI_SPIMaster.c **** * Parameters:
 268:.\Generated_Source\PSoC5/SDSPI_SPIMaster.c **** *  None.
 269:.\Generated_Source\PSoC5/SDSPI_SPIMaster.c **** *
 270:.\Generated_Source\PSoC5/SDSPI_SPIMaster.c **** * Return:
 271:.\Generated_Source\PSoC5/SDSPI_SPIMaster.c **** *  None.
 272:.\Generated_Source\PSoC5/SDSPI_SPIMaster.c **** *
 273:.\Generated_Source\PSoC5/SDSPI_SPIMaster.c **** * Theory:
 274:.\Generated_Source\PSoC5/SDSPI_SPIMaster.c **** *  Disable the internal Tx interrupt output -or- the interrupt component itself.
 275:.\Generated_Source\PSoC5/SDSPI_SPIMaster.c **** *
 276:.\Generated_Source\PSoC5/SDSPI_SPIMaster.c **** *******************************************************************************/
 277:.\Generated_Source\PSoC5/SDSPI_SPIMaster.c **** void SDSPI_SPIMaster_DisableTxInt(void) 
 278:.\Generated_Source\PSoC5/SDSPI_SPIMaster.c **** {
 279:.\Generated_Source\PSoC5/SDSPI_SPIMaster.c ****     #if(0u != SDSPI_SPIMaster_INTERNAL_TX_INT_ENABLED)
 280:.\Generated_Source\PSoC5/SDSPI_SPIMaster.c ****         CyIntDisable(SDSPI_SPIMaster_TX_ISR_NUMBER);
 281:.\Generated_Source\PSoC5/SDSPI_SPIMaster.c ****     #endif /* (0u != SDSPI_SPIMaster_INTERNAL_TX_INT_ENABLED) */
 282:.\Generated_Source\PSoC5/SDSPI_SPIMaster.c **** }
 283:.\Generated_Source\PSoC5/SDSPI_SPIMaster.c **** 
 284:.\Generated_Source\PSoC5/SDSPI_SPIMaster.c **** 
 285:.\Generated_Source\PSoC5/SDSPI_SPIMaster.c **** /*******************************************************************************
 286:.\Generated_Source\PSoC5/SDSPI_SPIMaster.c **** * Function Name: SDSPI_SPIMaster_DisableRxInt
 287:.\Generated_Source\PSoC5/SDSPI_SPIMaster.c **** ********************************************************************************
 288:.\Generated_Source\PSoC5/SDSPI_SPIMaster.c **** *
 289:.\Generated_Source\PSoC5/SDSPI_SPIMaster.c **** * Summary:
 290:.\Generated_Source\PSoC5/SDSPI_SPIMaster.c **** *  Disable internal Rx interrupt generation.
 291:.\Generated_Source\PSoC5/SDSPI_SPIMaster.c **** *
 292:.\Generated_Source\PSoC5/SDSPI_SPIMaster.c **** * Parameters:
 293:.\Generated_Source\PSoC5/SDSPI_SPIMaster.c **** *  None.
 294:.\Generated_Source\PSoC5/SDSPI_SPIMaster.c **** *
 295:.\Generated_Source\PSoC5/SDSPI_SPIMaster.c **** * Return:
 296:.\Generated_Source\PSoC5/SDSPI_SPIMaster.c **** *  None.
 297:.\Generated_Source\PSoC5/SDSPI_SPIMaster.c **** *
 298:.\Generated_Source\PSoC5/SDSPI_SPIMaster.c **** * Theory:
 299:.\Generated_Source\PSoC5/SDSPI_SPIMaster.c **** *  Disable the internal Rx interrupt output -or- the interrupt component itself.
 300:.\Generated_Source\PSoC5/SDSPI_SPIMaster.c **** *
 301:.\Generated_Source\PSoC5/SDSPI_SPIMaster.c **** *******************************************************************************/
ARM GAS  C:\Users\honet\AppData\Local\Temp\ccwozZGh.s 			page 7


 302:.\Generated_Source\PSoC5/SDSPI_SPIMaster.c **** void SDSPI_SPIMaster_DisableRxInt(void) 
 303:.\Generated_Source\PSoC5/SDSPI_SPIMaster.c **** {
 304:.\Generated_Source\PSoC5/SDSPI_SPIMaster.c ****     #if(0u != SDSPI_SPIMaster_INTERNAL_RX_INT_ENABLED)
 305:.\Generated_Source\PSoC5/SDSPI_SPIMaster.c ****         CyIntDisable(SDSPI_SPIMaster_RX_ISR_NUMBER);
 306:.\Generated_Source\PSoC5/SDSPI_SPIMaster.c ****     #endif /* (0u != SDSPI_SPIMaster_INTERNAL_RX_INT_ENABLED) */
 307:.\Generated_Source\PSoC5/SDSPI_SPIMaster.c **** }
 308:.\Generated_Source\PSoC5/SDSPI_SPIMaster.c **** 
 309:.\Generated_Source\PSoC5/SDSPI_SPIMaster.c **** 
 310:.\Generated_Source\PSoC5/SDSPI_SPIMaster.c **** /*******************************************************************************
 311:.\Generated_Source\PSoC5/SDSPI_SPIMaster.c **** * Function Name: SDSPI_SPIMaster_SetTxInterruptMode
 312:.\Generated_Source\PSoC5/SDSPI_SPIMaster.c **** ********************************************************************************
 313:.\Generated_Source\PSoC5/SDSPI_SPIMaster.c **** *
 314:.\Generated_Source\PSoC5/SDSPI_SPIMaster.c **** * Summary:
 315:.\Generated_Source\PSoC5/SDSPI_SPIMaster.c **** *  Configure which status bits trigger an interrupt event.
 316:.\Generated_Source\PSoC5/SDSPI_SPIMaster.c **** *
 317:.\Generated_Source\PSoC5/SDSPI_SPIMaster.c **** * Parameters:
 318:.\Generated_Source\PSoC5/SDSPI_SPIMaster.c **** *  intSrc: An or'd combination of the desired status bit masks (defined in the
 319:.\Generated_Source\PSoC5/SDSPI_SPIMaster.c **** *  header file).
 320:.\Generated_Source\PSoC5/SDSPI_SPIMaster.c **** *
 321:.\Generated_Source\PSoC5/SDSPI_SPIMaster.c **** * Return:
 322:.\Generated_Source\PSoC5/SDSPI_SPIMaster.c **** *  None.
 323:.\Generated_Source\PSoC5/SDSPI_SPIMaster.c **** *
 324:.\Generated_Source\PSoC5/SDSPI_SPIMaster.c **** * Theory:
 325:.\Generated_Source\PSoC5/SDSPI_SPIMaster.c **** *  Enables the output of specific status bits to the interrupt controller.
 326:.\Generated_Source\PSoC5/SDSPI_SPIMaster.c **** *
 327:.\Generated_Source\PSoC5/SDSPI_SPIMaster.c **** *******************************************************************************/
 328:.\Generated_Source\PSoC5/SDSPI_SPIMaster.c **** void SDSPI_SPIMaster_SetTxInterruptMode(uint8 intSrc) 
 329:.\Generated_Source\PSoC5/SDSPI_SPIMaster.c **** {
 330:.\Generated_Source\PSoC5/SDSPI_SPIMaster.c ****     SDSPI_SPIMaster_TX_STATUS_MASK_REG = intSrc;
 331:.\Generated_Source\PSoC5/SDSPI_SPIMaster.c **** }
 332:.\Generated_Source\PSoC5/SDSPI_SPIMaster.c **** 
 333:.\Generated_Source\PSoC5/SDSPI_SPIMaster.c **** 
 334:.\Generated_Source\PSoC5/SDSPI_SPIMaster.c **** /*******************************************************************************
 335:.\Generated_Source\PSoC5/SDSPI_SPIMaster.c **** * Function Name: SDSPI_SPIMaster_SetRxInterruptMode
 336:.\Generated_Source\PSoC5/SDSPI_SPIMaster.c **** ********************************************************************************
 337:.\Generated_Source\PSoC5/SDSPI_SPIMaster.c **** *
 338:.\Generated_Source\PSoC5/SDSPI_SPIMaster.c **** * Summary:
 339:.\Generated_Source\PSoC5/SDSPI_SPIMaster.c **** *  Configure which status bits trigger an interrupt event.
 340:.\Generated_Source\PSoC5/SDSPI_SPIMaster.c **** *
 341:.\Generated_Source\PSoC5/SDSPI_SPIMaster.c **** * Parameters:
 342:.\Generated_Source\PSoC5/SDSPI_SPIMaster.c **** *  intSrc: An or'd combination of the desired status bit masks (defined in the
 343:.\Generated_Source\PSoC5/SDSPI_SPIMaster.c **** *  header file).
 344:.\Generated_Source\PSoC5/SDSPI_SPIMaster.c **** *
 345:.\Generated_Source\PSoC5/SDSPI_SPIMaster.c **** * Return:
 346:.\Generated_Source\PSoC5/SDSPI_SPIMaster.c **** *  None.
 347:.\Generated_Source\PSoC5/SDSPI_SPIMaster.c **** *
 348:.\Generated_Source\PSoC5/SDSPI_SPIMaster.c **** * Theory:
 349:.\Generated_Source\PSoC5/SDSPI_SPIMaster.c **** *  Enables the output of specific status bits to the interrupt controller.
 350:.\Generated_Source\PSoC5/SDSPI_SPIMaster.c **** *
 351:.\Generated_Source\PSoC5/SDSPI_SPIMaster.c **** *******************************************************************************/
 352:.\Generated_Source\PSoC5/SDSPI_SPIMaster.c **** void SDSPI_SPIMaster_SetRxInterruptMode(uint8 intSrc) 
 353:.\Generated_Source\PSoC5/SDSPI_SPIMaster.c **** {
 354:.\Generated_Source\PSoC5/SDSPI_SPIMaster.c ****     SDSPI_SPIMaster_RX_STATUS_MASK_REG  = intSrc;
 355:.\Generated_Source\PSoC5/SDSPI_SPIMaster.c **** }
 356:.\Generated_Source\PSoC5/SDSPI_SPIMaster.c **** 
 357:.\Generated_Source\PSoC5/SDSPI_SPIMaster.c **** 
 358:.\Generated_Source\PSoC5/SDSPI_SPIMaster.c **** /*******************************************************************************
ARM GAS  C:\Users\honet\AppData\Local\Temp\ccwozZGh.s 			page 8


 359:.\Generated_Source\PSoC5/SDSPI_SPIMaster.c **** * Function Name: SDSPI_SPIMaster_ReadTxStatus
 360:.\Generated_Source\PSoC5/SDSPI_SPIMaster.c **** ********************************************************************************
 361:.\Generated_Source\PSoC5/SDSPI_SPIMaster.c **** *
 362:.\Generated_Source\PSoC5/SDSPI_SPIMaster.c **** * Summary:
 363:.\Generated_Source\PSoC5/SDSPI_SPIMaster.c **** *  Read the Tx status register for the component.
 364:.\Generated_Source\PSoC5/SDSPI_SPIMaster.c **** *
 365:.\Generated_Source\PSoC5/SDSPI_SPIMaster.c **** * Parameters:
 366:.\Generated_Source\PSoC5/SDSPI_SPIMaster.c **** *  None.
 367:.\Generated_Source\PSoC5/SDSPI_SPIMaster.c **** *
 368:.\Generated_Source\PSoC5/SDSPI_SPIMaster.c **** * Return:
 369:.\Generated_Source\PSoC5/SDSPI_SPIMaster.c **** *  Contents of the Tx status register.
 370:.\Generated_Source\PSoC5/SDSPI_SPIMaster.c **** *
 371:.\Generated_Source\PSoC5/SDSPI_SPIMaster.c **** * Global variables:
 372:.\Generated_Source\PSoC5/SDSPI_SPIMaster.c **** *  SDSPI_SPIMaster_swStatusTx - used to store in software status register,
 373:.\Generated_Source\PSoC5/SDSPI_SPIMaster.c **** *  modified every function call - resets to zero.
 374:.\Generated_Source\PSoC5/SDSPI_SPIMaster.c **** *
 375:.\Generated_Source\PSoC5/SDSPI_SPIMaster.c **** * Theory:
 376:.\Generated_Source\PSoC5/SDSPI_SPIMaster.c **** *  Allows the user and the API to read the Tx status register for error
 377:.\Generated_Source\PSoC5/SDSPI_SPIMaster.c **** *  detection and flow control.
 378:.\Generated_Source\PSoC5/SDSPI_SPIMaster.c **** *
 379:.\Generated_Source\PSoC5/SDSPI_SPIMaster.c **** * Side Effects:
 380:.\Generated_Source\PSoC5/SDSPI_SPIMaster.c **** *  Clear Tx status register of the component.
 381:.\Generated_Source\PSoC5/SDSPI_SPIMaster.c **** *
 382:.\Generated_Source\PSoC5/SDSPI_SPIMaster.c **** * Reentrant:
 383:.\Generated_Source\PSoC5/SDSPI_SPIMaster.c **** *  No.
 384:.\Generated_Source\PSoC5/SDSPI_SPIMaster.c **** *
 385:.\Generated_Source\PSoC5/SDSPI_SPIMaster.c **** *******************************************************************************/
 386:.\Generated_Source\PSoC5/SDSPI_SPIMaster.c **** uint8 SDSPI_SPIMaster_ReadTxStatus(void) 
 387:.\Generated_Source\PSoC5/SDSPI_SPIMaster.c **** {
 388:.\Generated_Source\PSoC5/SDSPI_SPIMaster.c ****     uint8 tmpStatus;
 389:.\Generated_Source\PSoC5/SDSPI_SPIMaster.c **** 
 390:.\Generated_Source\PSoC5/SDSPI_SPIMaster.c ****     #if(SDSPI_SPIMaster_TX_SOFTWARE_BUF_ENABLED)
 391:.\Generated_Source\PSoC5/SDSPI_SPIMaster.c ****         /* Disable TX interrupt to protect global veriables */
 392:.\Generated_Source\PSoC5/SDSPI_SPIMaster.c ****         SDSPI_SPIMaster_DisableTxInt();
 393:.\Generated_Source\PSoC5/SDSPI_SPIMaster.c **** 
 394:.\Generated_Source\PSoC5/SDSPI_SPIMaster.c ****         tmpStatus = SDSPI_SPIMaster_GET_STATUS_TX(SDSPI_SPIMaster_swStatusTx);
 395:.\Generated_Source\PSoC5/SDSPI_SPIMaster.c ****         SDSPI_SPIMaster_swStatusTx = 0u;
 396:.\Generated_Source\PSoC5/SDSPI_SPIMaster.c **** 
 397:.\Generated_Source\PSoC5/SDSPI_SPIMaster.c ****         SDSPI_SPIMaster_EnableTxInt();
 398:.\Generated_Source\PSoC5/SDSPI_SPIMaster.c **** 
 399:.\Generated_Source\PSoC5/SDSPI_SPIMaster.c ****     #else
 400:.\Generated_Source\PSoC5/SDSPI_SPIMaster.c **** 
 401:.\Generated_Source\PSoC5/SDSPI_SPIMaster.c ****         tmpStatus = SDSPI_SPIMaster_TX_STATUS_REG;
 402:.\Generated_Source\PSoC5/SDSPI_SPIMaster.c **** 
 403:.\Generated_Source\PSoC5/SDSPI_SPIMaster.c ****     #endif /* (SDSPI_SPIMaster_TX_SOFTWARE_BUF_ENABLED) */
 404:.\Generated_Source\PSoC5/SDSPI_SPIMaster.c **** 
 405:.\Generated_Source\PSoC5/SDSPI_SPIMaster.c ****     return(tmpStatus);
 406:.\Generated_Source\PSoC5/SDSPI_SPIMaster.c **** }
 407:.\Generated_Source\PSoC5/SDSPI_SPIMaster.c **** 
 408:.\Generated_Source\PSoC5/SDSPI_SPIMaster.c **** 
 409:.\Generated_Source\PSoC5/SDSPI_SPIMaster.c **** /*******************************************************************************
 410:.\Generated_Source\PSoC5/SDSPI_SPIMaster.c **** * Function Name: SDSPI_SPIMaster_ReadRxStatus
 411:.\Generated_Source\PSoC5/SDSPI_SPIMaster.c **** ********************************************************************************
 412:.\Generated_Source\PSoC5/SDSPI_SPIMaster.c **** *
 413:.\Generated_Source\PSoC5/SDSPI_SPIMaster.c **** * Summary:
 414:.\Generated_Source\PSoC5/SDSPI_SPIMaster.c **** *  Read the Rx status register for the component.
 415:.\Generated_Source\PSoC5/SDSPI_SPIMaster.c **** *
ARM GAS  C:\Users\honet\AppData\Local\Temp\ccwozZGh.s 			page 9


 416:.\Generated_Source\PSoC5/SDSPI_SPIMaster.c **** * Parameters:
 417:.\Generated_Source\PSoC5/SDSPI_SPIMaster.c **** *  None.
 418:.\Generated_Source\PSoC5/SDSPI_SPIMaster.c **** *
 419:.\Generated_Source\PSoC5/SDSPI_SPIMaster.c **** * Return:
 420:.\Generated_Source\PSoC5/SDSPI_SPIMaster.c **** *  Contents of the Rx status register.
 421:.\Generated_Source\PSoC5/SDSPI_SPIMaster.c **** *
 422:.\Generated_Source\PSoC5/SDSPI_SPIMaster.c **** * Global variables:
 423:.\Generated_Source\PSoC5/SDSPI_SPIMaster.c **** *  SDSPI_SPIMaster_swStatusRx - used to store in software Rx status register,
 424:.\Generated_Source\PSoC5/SDSPI_SPIMaster.c **** *  modified every function call - resets to zero.
 425:.\Generated_Source\PSoC5/SDSPI_SPIMaster.c **** *
 426:.\Generated_Source\PSoC5/SDSPI_SPIMaster.c **** * Theory:
 427:.\Generated_Source\PSoC5/SDSPI_SPIMaster.c **** *  Allows the user and the API to read the Rx status register for error
 428:.\Generated_Source\PSoC5/SDSPI_SPIMaster.c **** *  detection and flow control.
 429:.\Generated_Source\PSoC5/SDSPI_SPIMaster.c **** *
 430:.\Generated_Source\PSoC5/SDSPI_SPIMaster.c **** * Side Effects:
 431:.\Generated_Source\PSoC5/SDSPI_SPIMaster.c **** *  Clear Rx status register of the component.
 432:.\Generated_Source\PSoC5/SDSPI_SPIMaster.c **** *
 433:.\Generated_Source\PSoC5/SDSPI_SPIMaster.c **** * Reentrant:
 434:.\Generated_Source\PSoC5/SDSPI_SPIMaster.c **** *  No.
 435:.\Generated_Source\PSoC5/SDSPI_SPIMaster.c **** *
 436:.\Generated_Source\PSoC5/SDSPI_SPIMaster.c **** *******************************************************************************/
 437:.\Generated_Source\PSoC5/SDSPI_SPIMaster.c **** uint8 SDSPI_SPIMaster_ReadRxStatus(void) 
 438:.\Generated_Source\PSoC5/SDSPI_SPIMaster.c **** {
 439:.\Generated_Source\PSoC5/SDSPI_SPIMaster.c ****     uint8 tmpStatus;
 440:.\Generated_Source\PSoC5/SDSPI_SPIMaster.c **** 
 441:.\Generated_Source\PSoC5/SDSPI_SPIMaster.c ****     #if(SDSPI_SPIMaster_RX_SOFTWARE_BUF_ENABLED)
 442:.\Generated_Source\PSoC5/SDSPI_SPIMaster.c ****         /* Disable RX interrupt to protect global veriables */
 443:.\Generated_Source\PSoC5/SDSPI_SPIMaster.c ****         SDSPI_SPIMaster_DisableRxInt();
 444:.\Generated_Source\PSoC5/SDSPI_SPIMaster.c **** 
 445:.\Generated_Source\PSoC5/SDSPI_SPIMaster.c ****         tmpStatus = SDSPI_SPIMaster_GET_STATUS_RX(SDSPI_SPIMaster_swStatusRx);
 446:.\Generated_Source\PSoC5/SDSPI_SPIMaster.c ****         SDSPI_SPIMaster_swStatusRx = 0u;
 447:.\Generated_Source\PSoC5/SDSPI_SPIMaster.c **** 
 448:.\Generated_Source\PSoC5/SDSPI_SPIMaster.c ****         SDSPI_SPIMaster_EnableRxInt();
 449:.\Generated_Source\PSoC5/SDSPI_SPIMaster.c **** 
 450:.\Generated_Source\PSoC5/SDSPI_SPIMaster.c ****     #else
 451:.\Generated_Source\PSoC5/SDSPI_SPIMaster.c **** 
 452:.\Generated_Source\PSoC5/SDSPI_SPIMaster.c ****         tmpStatus = SDSPI_SPIMaster_RX_STATUS_REG;
 453:.\Generated_Source\PSoC5/SDSPI_SPIMaster.c **** 
 454:.\Generated_Source\PSoC5/SDSPI_SPIMaster.c ****     #endif /* (SDSPI_SPIMaster_RX_SOFTWARE_BUF_ENABLED) */
 455:.\Generated_Source\PSoC5/SDSPI_SPIMaster.c **** 
 456:.\Generated_Source\PSoC5/SDSPI_SPIMaster.c ****     return(tmpStatus);
 457:.\Generated_Source\PSoC5/SDSPI_SPIMaster.c **** }
 458:.\Generated_Source\PSoC5/SDSPI_SPIMaster.c **** 
 459:.\Generated_Source\PSoC5/SDSPI_SPIMaster.c **** 
 460:.\Generated_Source\PSoC5/SDSPI_SPIMaster.c **** /*******************************************************************************
 461:.\Generated_Source\PSoC5/SDSPI_SPIMaster.c **** * Function Name: SDSPI_SPIMaster_WriteTxData
 462:.\Generated_Source\PSoC5/SDSPI_SPIMaster.c **** ********************************************************************************
 463:.\Generated_Source\PSoC5/SDSPI_SPIMaster.c **** *
 464:.\Generated_Source\PSoC5/SDSPI_SPIMaster.c **** * Summary:
 465:.\Generated_Source\PSoC5/SDSPI_SPIMaster.c **** *  Write a byte of data to be sent across the SPI.
 466:.\Generated_Source\PSoC5/SDSPI_SPIMaster.c **** *
 467:.\Generated_Source\PSoC5/SDSPI_SPIMaster.c **** * Parameters:
 468:.\Generated_Source\PSoC5/SDSPI_SPIMaster.c **** *  txDataByte: The data value to send across the SPI.
 469:.\Generated_Source\PSoC5/SDSPI_SPIMaster.c **** *
 470:.\Generated_Source\PSoC5/SDSPI_SPIMaster.c **** * Return:
 471:.\Generated_Source\PSoC5/SDSPI_SPIMaster.c **** *  None.
 472:.\Generated_Source\PSoC5/SDSPI_SPIMaster.c **** *
ARM GAS  C:\Users\honet\AppData\Local\Temp\ccwozZGh.s 			page 10


 473:.\Generated_Source\PSoC5/SDSPI_SPIMaster.c **** * Global variables:
 474:.\Generated_Source\PSoC5/SDSPI_SPIMaster.c **** *  SDSPI_SPIMaster_txBufferWrite - used for the account of the bytes which
 475:.\Generated_Source\PSoC5/SDSPI_SPIMaster.c **** *  have been written down in the TX software buffer, modified every function
 476:.\Generated_Source\PSoC5/SDSPI_SPIMaster.c **** *  call if TX Software Buffer is used.
 477:.\Generated_Source\PSoC5/SDSPI_SPIMaster.c **** *  SDSPI_SPIMaster_txBufferRead - used for the account of the bytes which
 478:.\Generated_Source\PSoC5/SDSPI_SPIMaster.c **** *  have been read from the TX software buffer.
 479:.\Generated_Source\PSoC5/SDSPI_SPIMaster.c **** *  SDSPI_SPIMaster_txBuffer[SDSPI_SPIMaster_TX_BUFFER_SIZE] - used to store
 480:.\Generated_Source\PSoC5/SDSPI_SPIMaster.c **** *  data to sending, modified every function call if TX Software Buffer is used.
 481:.\Generated_Source\PSoC5/SDSPI_SPIMaster.c **** *
 482:.\Generated_Source\PSoC5/SDSPI_SPIMaster.c **** * Theory:
 483:.\Generated_Source\PSoC5/SDSPI_SPIMaster.c **** *  Allows the user to transmit any byte of data in a single transfer.
 484:.\Generated_Source\PSoC5/SDSPI_SPIMaster.c **** *
 485:.\Generated_Source\PSoC5/SDSPI_SPIMaster.c **** * Side Effects:
 486:.\Generated_Source\PSoC5/SDSPI_SPIMaster.c **** *  If this function is called again before the previous byte is finished then
 487:.\Generated_Source\PSoC5/SDSPI_SPIMaster.c **** *  the next byte will be appended to the transfer with no time between
 488:.\Generated_Source\PSoC5/SDSPI_SPIMaster.c **** *  the byte transfers. Clear Tx status register of the component.
 489:.\Generated_Source\PSoC5/SDSPI_SPIMaster.c **** *
 490:.\Generated_Source\PSoC5/SDSPI_SPIMaster.c **** * Reentrant:
 491:.\Generated_Source\PSoC5/SDSPI_SPIMaster.c **** *  No.
 492:.\Generated_Source\PSoC5/SDSPI_SPIMaster.c **** *
 493:.\Generated_Source\PSoC5/SDSPI_SPIMaster.c **** *******************************************************************************/
 494:.\Generated_Source\PSoC5/SDSPI_SPIMaster.c **** void SDSPI_SPIMaster_WriteTxData(uint8 txData) 
 495:.\Generated_Source\PSoC5/SDSPI_SPIMaster.c **** {
 496:.\Generated_Source\PSoC5/SDSPI_SPIMaster.c ****     #if(SDSPI_SPIMaster_TX_SOFTWARE_BUF_ENABLED)
 497:.\Generated_Source\PSoC5/SDSPI_SPIMaster.c **** 
 498:.\Generated_Source\PSoC5/SDSPI_SPIMaster.c ****         uint8 tempStatus;
 499:.\Generated_Source\PSoC5/SDSPI_SPIMaster.c ****         uint8 tmpTxBufferRead;
 500:.\Generated_Source\PSoC5/SDSPI_SPIMaster.c **** 
 501:.\Generated_Source\PSoC5/SDSPI_SPIMaster.c ****         /* Block if TX buffer is FULL: don't overwrite */
 502:.\Generated_Source\PSoC5/SDSPI_SPIMaster.c ****         do
 503:.\Generated_Source\PSoC5/SDSPI_SPIMaster.c ****         {
 504:.\Generated_Source\PSoC5/SDSPI_SPIMaster.c ****             tmpTxBufferRead = SDSPI_SPIMaster_txBufferRead;
 505:.\Generated_Source\PSoC5/SDSPI_SPIMaster.c ****             if(0u == tmpTxBufferRead)
 506:.\Generated_Source\PSoC5/SDSPI_SPIMaster.c ****             {
 507:.\Generated_Source\PSoC5/SDSPI_SPIMaster.c ****                 tmpTxBufferRead = (SDSPI_SPIMaster_TX_BUFFER_SIZE - 1u);
 508:.\Generated_Source\PSoC5/SDSPI_SPIMaster.c ****             }
 509:.\Generated_Source\PSoC5/SDSPI_SPIMaster.c ****             else
 510:.\Generated_Source\PSoC5/SDSPI_SPIMaster.c ****             {
 511:.\Generated_Source\PSoC5/SDSPI_SPIMaster.c ****                 tmpTxBufferRead--;
 512:.\Generated_Source\PSoC5/SDSPI_SPIMaster.c ****             }
 513:.\Generated_Source\PSoC5/SDSPI_SPIMaster.c **** 
 514:.\Generated_Source\PSoC5/SDSPI_SPIMaster.c ****         }while(tmpTxBufferRead == SDSPI_SPIMaster_txBufferWrite);
 515:.\Generated_Source\PSoC5/SDSPI_SPIMaster.c **** 
 516:.\Generated_Source\PSoC5/SDSPI_SPIMaster.c ****         /* Disable TX interrupt to protect global veriables */
 517:.\Generated_Source\PSoC5/SDSPI_SPIMaster.c ****         SDSPI_SPIMaster_DisableTxInt();
 518:.\Generated_Source\PSoC5/SDSPI_SPIMaster.c **** 
 519:.\Generated_Source\PSoC5/SDSPI_SPIMaster.c ****         tempStatus = SDSPI_SPIMaster_GET_STATUS_TX(SDSPI_SPIMaster_swStatusTx);
 520:.\Generated_Source\PSoC5/SDSPI_SPIMaster.c ****         SDSPI_SPIMaster_swStatusTx = tempStatus;
 521:.\Generated_Source\PSoC5/SDSPI_SPIMaster.c **** 
 522:.\Generated_Source\PSoC5/SDSPI_SPIMaster.c **** 
 523:.\Generated_Source\PSoC5/SDSPI_SPIMaster.c ****         if((SDSPI_SPIMaster_txBufferRead == SDSPI_SPIMaster_txBufferWrite) &&
 524:.\Generated_Source\PSoC5/SDSPI_SPIMaster.c ****            (0u != (SDSPI_SPIMaster_swStatusTx & SDSPI_SPIMaster_STS_TX_FIFO_NOT_FULL)))
 525:.\Generated_Source\PSoC5/SDSPI_SPIMaster.c ****         {
 526:.\Generated_Source\PSoC5/SDSPI_SPIMaster.c ****             /* Put data element into the TX FIFO */
 527:.\Generated_Source\PSoC5/SDSPI_SPIMaster.c ****             CY_SET_REG8(SDSPI_SPIMaster_TXDATA_PTR, txData);
 528:.\Generated_Source\PSoC5/SDSPI_SPIMaster.c ****         }
 529:.\Generated_Source\PSoC5/SDSPI_SPIMaster.c ****         else
ARM GAS  C:\Users\honet\AppData\Local\Temp\ccwozZGh.s 			page 11


 530:.\Generated_Source\PSoC5/SDSPI_SPIMaster.c ****         {
 531:.\Generated_Source\PSoC5/SDSPI_SPIMaster.c ****             /* Add to the TX software buffer */
 532:.\Generated_Source\PSoC5/SDSPI_SPIMaster.c ****             SDSPI_SPIMaster_txBufferWrite++;
 533:.\Generated_Source\PSoC5/SDSPI_SPIMaster.c ****             if(SDSPI_SPIMaster_txBufferWrite >= SDSPI_SPIMaster_TX_BUFFER_SIZE)
 534:.\Generated_Source\PSoC5/SDSPI_SPIMaster.c ****             {
 535:.\Generated_Source\PSoC5/SDSPI_SPIMaster.c ****                 SDSPI_SPIMaster_txBufferWrite = 0u;
 536:.\Generated_Source\PSoC5/SDSPI_SPIMaster.c ****             }
 537:.\Generated_Source\PSoC5/SDSPI_SPIMaster.c **** 
 538:.\Generated_Source\PSoC5/SDSPI_SPIMaster.c ****             if(SDSPI_SPIMaster_txBufferWrite == SDSPI_SPIMaster_txBufferRead)
 539:.\Generated_Source\PSoC5/SDSPI_SPIMaster.c ****             {
 540:.\Generated_Source\PSoC5/SDSPI_SPIMaster.c ****                 SDSPI_SPIMaster_txBufferRead++;
 541:.\Generated_Source\PSoC5/SDSPI_SPIMaster.c ****                 if(SDSPI_SPIMaster_txBufferRead >= SDSPI_SPIMaster_TX_BUFFER_SIZE)
 542:.\Generated_Source\PSoC5/SDSPI_SPIMaster.c ****                 {
 543:.\Generated_Source\PSoC5/SDSPI_SPIMaster.c ****                     SDSPI_SPIMaster_txBufferRead = 0u;
 544:.\Generated_Source\PSoC5/SDSPI_SPIMaster.c ****                 }
 545:.\Generated_Source\PSoC5/SDSPI_SPIMaster.c ****                 SDSPI_SPIMaster_txBufferFull = 1u;
 546:.\Generated_Source\PSoC5/SDSPI_SPIMaster.c ****             }
 547:.\Generated_Source\PSoC5/SDSPI_SPIMaster.c **** 
 548:.\Generated_Source\PSoC5/SDSPI_SPIMaster.c ****             SDSPI_SPIMaster_txBuffer[SDSPI_SPIMaster_txBufferWrite] = txData;
 549:.\Generated_Source\PSoC5/SDSPI_SPIMaster.c **** 
 550:.\Generated_Source\PSoC5/SDSPI_SPIMaster.c ****             SDSPI_SPIMaster_TX_STATUS_MASK_REG |= SDSPI_SPIMaster_STS_TX_FIFO_NOT_FULL;
 551:.\Generated_Source\PSoC5/SDSPI_SPIMaster.c ****         }
 552:.\Generated_Source\PSoC5/SDSPI_SPIMaster.c **** 
 553:.\Generated_Source\PSoC5/SDSPI_SPIMaster.c ****         SDSPI_SPIMaster_EnableTxInt();
 554:.\Generated_Source\PSoC5/SDSPI_SPIMaster.c **** 
 555:.\Generated_Source\PSoC5/SDSPI_SPIMaster.c ****     #else
 556:.\Generated_Source\PSoC5/SDSPI_SPIMaster.c ****         /* Wait until TX FIFO has a place */
 557:.\Generated_Source\PSoC5/SDSPI_SPIMaster.c ****         while(0u == (SDSPI_SPIMaster_TX_STATUS_REG & SDSPI_SPIMaster_STS_TX_FIFO_NOT_FULL))
 558:.\Generated_Source\PSoC5/SDSPI_SPIMaster.c ****         {
 559:.\Generated_Source\PSoC5/SDSPI_SPIMaster.c ****         }
 560:.\Generated_Source\PSoC5/SDSPI_SPIMaster.c **** 
 561:.\Generated_Source\PSoC5/SDSPI_SPIMaster.c ****         /* Put data element into the TX FIFO */
 562:.\Generated_Source\PSoC5/SDSPI_SPIMaster.c ****         CY_SET_REG8(SDSPI_SPIMaster_TXDATA_PTR, txData);
 563:.\Generated_Source\PSoC5/SDSPI_SPIMaster.c **** 
 564:.\Generated_Source\PSoC5/SDSPI_SPIMaster.c ****     #endif /* (SDSPI_SPIMaster_TX_SOFTWARE_BUF_ENABLED) */
 565:.\Generated_Source\PSoC5/SDSPI_SPIMaster.c **** }
 566:.\Generated_Source\PSoC5/SDSPI_SPIMaster.c **** 
 567:.\Generated_Source\PSoC5/SDSPI_SPIMaster.c **** 
 568:.\Generated_Source\PSoC5/SDSPI_SPIMaster.c **** /*******************************************************************************
 569:.\Generated_Source\PSoC5/SDSPI_SPIMaster.c **** * Function Name: SDSPI_SPIMaster_ReadRxData
 570:.\Generated_Source\PSoC5/SDSPI_SPIMaster.c **** ********************************************************************************
 571:.\Generated_Source\PSoC5/SDSPI_SPIMaster.c **** *
 572:.\Generated_Source\PSoC5/SDSPI_SPIMaster.c **** * Summary:
 573:.\Generated_Source\PSoC5/SDSPI_SPIMaster.c **** *  Read the next byte of data received across the SPI.
 574:.\Generated_Source\PSoC5/SDSPI_SPIMaster.c **** *
 575:.\Generated_Source\PSoC5/SDSPI_SPIMaster.c **** * Parameters:
 576:.\Generated_Source\PSoC5/SDSPI_SPIMaster.c **** *  None.
 577:.\Generated_Source\PSoC5/SDSPI_SPIMaster.c **** *
 578:.\Generated_Source\PSoC5/SDSPI_SPIMaster.c **** * Return:
 579:.\Generated_Source\PSoC5/SDSPI_SPIMaster.c **** *  The next byte of data read from the FIFO.
 580:.\Generated_Source\PSoC5/SDSPI_SPIMaster.c **** *
 581:.\Generated_Source\PSoC5/SDSPI_SPIMaster.c **** * Global variables:
 582:.\Generated_Source\PSoC5/SDSPI_SPIMaster.c **** *  SDSPI_SPIMaster_rxBufferWrite - used for the account of the bytes which
 583:.\Generated_Source\PSoC5/SDSPI_SPIMaster.c **** *  have been written down in the RX software buffer.
 584:.\Generated_Source\PSoC5/SDSPI_SPIMaster.c **** *  SDSPI_SPIMaster_rxBufferRead - used for the account of the bytes which
 585:.\Generated_Source\PSoC5/SDSPI_SPIMaster.c **** *  have been read from the RX software buffer, modified every function
 586:.\Generated_Source\PSoC5/SDSPI_SPIMaster.c **** *  call if RX Software Buffer is used.
ARM GAS  C:\Users\honet\AppData\Local\Temp\ccwozZGh.s 			page 12


 587:.\Generated_Source\PSoC5/SDSPI_SPIMaster.c **** *  SDSPI_SPIMaster_rxBuffer[SDSPI_SPIMaster_RX_BUFFER_SIZE] - used to store
 588:.\Generated_Source\PSoC5/SDSPI_SPIMaster.c **** *  received data.
 589:.\Generated_Source\PSoC5/SDSPI_SPIMaster.c **** *
 590:.\Generated_Source\PSoC5/SDSPI_SPIMaster.c **** * Theory:
 591:.\Generated_Source\PSoC5/SDSPI_SPIMaster.c **** *  Allows the user to read a byte of data received.
 592:.\Generated_Source\PSoC5/SDSPI_SPIMaster.c **** *
 593:.\Generated_Source\PSoC5/SDSPI_SPIMaster.c **** * Side Effects:
 594:.\Generated_Source\PSoC5/SDSPI_SPIMaster.c **** *  Will return invalid data if the FIFO is empty. The user should Call
 595:.\Generated_Source\PSoC5/SDSPI_SPIMaster.c **** *  GetRxBufferSize() and if it returns a non-zero value then it is safe to call
 596:.\Generated_Source\PSoC5/SDSPI_SPIMaster.c **** *  ReadByte() function.
 597:.\Generated_Source\PSoC5/SDSPI_SPIMaster.c **** *
 598:.\Generated_Source\PSoC5/SDSPI_SPIMaster.c **** * Reentrant:
 599:.\Generated_Source\PSoC5/SDSPI_SPIMaster.c **** *  No.
 600:.\Generated_Source\PSoC5/SDSPI_SPIMaster.c **** *
 601:.\Generated_Source\PSoC5/SDSPI_SPIMaster.c **** *******************************************************************************/
 602:.\Generated_Source\PSoC5/SDSPI_SPIMaster.c **** uint8 SDSPI_SPIMaster_ReadRxData(void) 
 603:.\Generated_Source\PSoC5/SDSPI_SPIMaster.c **** {
 604:.\Generated_Source\PSoC5/SDSPI_SPIMaster.c ****     uint8 rxData;
 605:.\Generated_Source\PSoC5/SDSPI_SPIMaster.c **** 
 606:.\Generated_Source\PSoC5/SDSPI_SPIMaster.c ****     #if(SDSPI_SPIMaster_RX_SOFTWARE_BUF_ENABLED)
 607:.\Generated_Source\PSoC5/SDSPI_SPIMaster.c **** 
 608:.\Generated_Source\PSoC5/SDSPI_SPIMaster.c ****         /* Disable RX interrupt to protect global veriables */
 609:.\Generated_Source\PSoC5/SDSPI_SPIMaster.c ****         SDSPI_SPIMaster_DisableRxInt();
 610:.\Generated_Source\PSoC5/SDSPI_SPIMaster.c **** 
 611:.\Generated_Source\PSoC5/SDSPI_SPIMaster.c ****         if(SDSPI_SPIMaster_rxBufferRead != SDSPI_SPIMaster_rxBufferWrite)
 612:.\Generated_Source\PSoC5/SDSPI_SPIMaster.c ****         {
 613:.\Generated_Source\PSoC5/SDSPI_SPIMaster.c ****             if(0u == SDSPI_SPIMaster_rxBufferFull)
 614:.\Generated_Source\PSoC5/SDSPI_SPIMaster.c ****             {
 615:.\Generated_Source\PSoC5/SDSPI_SPIMaster.c ****                 SDSPI_SPIMaster_rxBufferRead++;
 616:.\Generated_Source\PSoC5/SDSPI_SPIMaster.c ****                 if(SDSPI_SPIMaster_rxBufferRead >= SDSPI_SPIMaster_RX_BUFFER_SIZE)
 617:.\Generated_Source\PSoC5/SDSPI_SPIMaster.c ****                 {
 618:.\Generated_Source\PSoC5/SDSPI_SPIMaster.c ****                     SDSPI_SPIMaster_rxBufferRead = 0u;
 619:.\Generated_Source\PSoC5/SDSPI_SPIMaster.c ****                 }
 620:.\Generated_Source\PSoC5/SDSPI_SPIMaster.c ****             }
 621:.\Generated_Source\PSoC5/SDSPI_SPIMaster.c ****             else
 622:.\Generated_Source\PSoC5/SDSPI_SPIMaster.c ****             {
 623:.\Generated_Source\PSoC5/SDSPI_SPIMaster.c ****                 SDSPI_SPIMaster_rxBufferFull = 0u;
 624:.\Generated_Source\PSoC5/SDSPI_SPIMaster.c ****             }
 625:.\Generated_Source\PSoC5/SDSPI_SPIMaster.c ****         }
 626:.\Generated_Source\PSoC5/SDSPI_SPIMaster.c **** 
 627:.\Generated_Source\PSoC5/SDSPI_SPIMaster.c ****         rxData = SDSPI_SPIMaster_rxBuffer[SDSPI_SPIMaster_rxBufferRead];
 628:.\Generated_Source\PSoC5/SDSPI_SPIMaster.c **** 
 629:.\Generated_Source\PSoC5/SDSPI_SPIMaster.c ****         SDSPI_SPIMaster_EnableRxInt();
 630:.\Generated_Source\PSoC5/SDSPI_SPIMaster.c **** 
 631:.\Generated_Source\PSoC5/SDSPI_SPIMaster.c ****     #else
 632:.\Generated_Source\PSoC5/SDSPI_SPIMaster.c **** 
 633:.\Generated_Source\PSoC5/SDSPI_SPIMaster.c ****         rxData = CY_GET_REG8(SDSPI_SPIMaster_RXDATA_PTR);
 634:.\Generated_Source\PSoC5/SDSPI_SPIMaster.c **** 
 635:.\Generated_Source\PSoC5/SDSPI_SPIMaster.c ****     #endif /* (SDSPI_SPIMaster_RX_SOFTWARE_BUF_ENABLED) */
 636:.\Generated_Source\PSoC5/SDSPI_SPIMaster.c **** 
 637:.\Generated_Source\PSoC5/SDSPI_SPIMaster.c ****     return(rxData);
 638:.\Generated_Source\PSoC5/SDSPI_SPIMaster.c **** }
 639:.\Generated_Source\PSoC5/SDSPI_SPIMaster.c **** 
 640:.\Generated_Source\PSoC5/SDSPI_SPIMaster.c **** 
 641:.\Generated_Source\PSoC5/SDSPI_SPIMaster.c **** /*******************************************************************************
 642:.\Generated_Source\PSoC5/SDSPI_SPIMaster.c **** * Function Name: SDSPI_SPIMaster_GetRxBufferSize
 643:.\Generated_Source\PSoC5/SDSPI_SPIMaster.c **** ********************************************************************************
ARM GAS  C:\Users\honet\AppData\Local\Temp\ccwozZGh.s 			page 13


 644:.\Generated_Source\PSoC5/SDSPI_SPIMaster.c **** *
 645:.\Generated_Source\PSoC5/SDSPI_SPIMaster.c **** * Summary:
 646:.\Generated_Source\PSoC5/SDSPI_SPIMaster.c **** *  Returns the number of bytes/words of data currently held in the RX buffer.
 647:.\Generated_Source\PSoC5/SDSPI_SPIMaster.c **** *  If RX Software Buffer not used then function return 0 if FIFO empty or 1 if
 648:.\Generated_Source\PSoC5/SDSPI_SPIMaster.c **** *  FIFO not empty. In another case function return size of RX Software Buffer.
 649:.\Generated_Source\PSoC5/SDSPI_SPIMaster.c **** *
 650:.\Generated_Source\PSoC5/SDSPI_SPIMaster.c **** * Parameters:
 651:.\Generated_Source\PSoC5/SDSPI_SPIMaster.c **** *  None.
 652:.\Generated_Source\PSoC5/SDSPI_SPIMaster.c **** *
 653:.\Generated_Source\PSoC5/SDSPI_SPIMaster.c **** * Return:
 654:.\Generated_Source\PSoC5/SDSPI_SPIMaster.c **** *  Integer count of the number of bytes/words in the RX buffer.
 655:.\Generated_Source\PSoC5/SDSPI_SPIMaster.c **** *
 656:.\Generated_Source\PSoC5/SDSPI_SPIMaster.c **** * Global variables:
 657:.\Generated_Source\PSoC5/SDSPI_SPIMaster.c **** *  SDSPI_SPIMaster_rxBufferWrite - used for the account of the bytes which
 658:.\Generated_Source\PSoC5/SDSPI_SPIMaster.c **** *  have been written down in the RX software buffer.
 659:.\Generated_Source\PSoC5/SDSPI_SPIMaster.c **** *  SDSPI_SPIMaster_rxBufferRead - used for the account of the bytes which
 660:.\Generated_Source\PSoC5/SDSPI_SPIMaster.c **** *  have been read from the RX software buffer.
 661:.\Generated_Source\PSoC5/SDSPI_SPIMaster.c **** *
 662:.\Generated_Source\PSoC5/SDSPI_SPIMaster.c **** * Side Effects:
 663:.\Generated_Source\PSoC5/SDSPI_SPIMaster.c **** *  Clear status register of the component.
 664:.\Generated_Source\PSoC5/SDSPI_SPIMaster.c **** *
 665:.\Generated_Source\PSoC5/SDSPI_SPIMaster.c **** *******************************************************************************/
 666:.\Generated_Source\PSoC5/SDSPI_SPIMaster.c **** uint8 SDSPI_SPIMaster_GetRxBufferSize(void) 
 667:.\Generated_Source\PSoC5/SDSPI_SPIMaster.c **** {
 668:.\Generated_Source\PSoC5/SDSPI_SPIMaster.c ****     uint8 size;
 669:.\Generated_Source\PSoC5/SDSPI_SPIMaster.c **** 
 670:.\Generated_Source\PSoC5/SDSPI_SPIMaster.c ****     #if(SDSPI_SPIMaster_RX_SOFTWARE_BUF_ENABLED)
 671:.\Generated_Source\PSoC5/SDSPI_SPIMaster.c **** 
 672:.\Generated_Source\PSoC5/SDSPI_SPIMaster.c ****         /* Disable RX interrupt to protect global veriables */
 673:.\Generated_Source\PSoC5/SDSPI_SPIMaster.c ****         SDSPI_SPIMaster_DisableRxInt();
 674:.\Generated_Source\PSoC5/SDSPI_SPIMaster.c **** 
 675:.\Generated_Source\PSoC5/SDSPI_SPIMaster.c ****         if(SDSPI_SPIMaster_rxBufferRead == SDSPI_SPIMaster_rxBufferWrite)
 676:.\Generated_Source\PSoC5/SDSPI_SPIMaster.c ****         {
 677:.\Generated_Source\PSoC5/SDSPI_SPIMaster.c ****             size = 0u;
 678:.\Generated_Source\PSoC5/SDSPI_SPIMaster.c ****         }
 679:.\Generated_Source\PSoC5/SDSPI_SPIMaster.c ****         else if(SDSPI_SPIMaster_rxBufferRead < SDSPI_SPIMaster_rxBufferWrite)
 680:.\Generated_Source\PSoC5/SDSPI_SPIMaster.c ****         {
 681:.\Generated_Source\PSoC5/SDSPI_SPIMaster.c ****             size = (SDSPI_SPIMaster_rxBufferWrite - SDSPI_SPIMaster_rxBufferRead);
 682:.\Generated_Source\PSoC5/SDSPI_SPIMaster.c ****         }
 683:.\Generated_Source\PSoC5/SDSPI_SPIMaster.c ****         else
 684:.\Generated_Source\PSoC5/SDSPI_SPIMaster.c ****         {
 685:.\Generated_Source\PSoC5/SDSPI_SPIMaster.c ****             size = (SDSPI_SPIMaster_RX_BUFFER_SIZE - SDSPI_SPIMaster_rxBufferRead) + SDSPI_SPIMaste
 686:.\Generated_Source\PSoC5/SDSPI_SPIMaster.c ****         }
 687:.\Generated_Source\PSoC5/SDSPI_SPIMaster.c **** 
 688:.\Generated_Source\PSoC5/SDSPI_SPIMaster.c ****         SDSPI_SPIMaster_EnableRxInt();
 689:.\Generated_Source\PSoC5/SDSPI_SPIMaster.c **** 
 690:.\Generated_Source\PSoC5/SDSPI_SPIMaster.c ****     #else
 691:.\Generated_Source\PSoC5/SDSPI_SPIMaster.c **** 
 692:.\Generated_Source\PSoC5/SDSPI_SPIMaster.c ****         /* We can only know if there is data in the RX FIFO */
 693:.\Generated_Source\PSoC5/SDSPI_SPIMaster.c ****         size = (0u != (SDSPI_SPIMaster_RX_STATUS_REG & SDSPI_SPIMaster_STS_RX_FIFO_NOT_EMPTY)) ? 1u
 694:.\Generated_Source\PSoC5/SDSPI_SPIMaster.c **** 
 695:.\Generated_Source\PSoC5/SDSPI_SPIMaster.c ****     #endif /* (SDSPI_SPIMaster_TX_SOFTWARE_BUF_ENABLED) */
 696:.\Generated_Source\PSoC5/SDSPI_SPIMaster.c **** 
 697:.\Generated_Source\PSoC5/SDSPI_SPIMaster.c ****     return(size);
 698:.\Generated_Source\PSoC5/SDSPI_SPIMaster.c **** }
 699:.\Generated_Source\PSoC5/SDSPI_SPIMaster.c **** 
 700:.\Generated_Source\PSoC5/SDSPI_SPIMaster.c **** 
ARM GAS  C:\Users\honet\AppData\Local\Temp\ccwozZGh.s 			page 14


 701:.\Generated_Source\PSoC5/SDSPI_SPIMaster.c **** /*******************************************************************************
 702:.\Generated_Source\PSoC5/SDSPI_SPIMaster.c **** * Function Name: SDSPI_SPIMaster_GetTxBufferSize
 703:.\Generated_Source\PSoC5/SDSPI_SPIMaster.c **** ********************************************************************************
 704:.\Generated_Source\PSoC5/SDSPI_SPIMaster.c **** *
 705:.\Generated_Source\PSoC5/SDSPI_SPIMaster.c **** * Summary:
 706:.\Generated_Source\PSoC5/SDSPI_SPIMaster.c **** *  Returns the number of bytes/words of data currently held in the TX buffer.
 707:.\Generated_Source\PSoC5/SDSPI_SPIMaster.c **** *  If TX Software Buffer not used then function return 0 - if FIFO empty, 1 - if
 708:.\Generated_Source\PSoC5/SDSPI_SPIMaster.c **** *  FIFO not full, 4 - if FIFO full. In another case function return size of TX
 709:.\Generated_Source\PSoC5/SDSPI_SPIMaster.c **** *  Software Buffer.
 710:.\Generated_Source\PSoC5/SDSPI_SPIMaster.c **** *
 711:.\Generated_Source\PSoC5/SDSPI_SPIMaster.c **** * Parameters:
 712:.\Generated_Source\PSoC5/SDSPI_SPIMaster.c **** *  None.
 713:.\Generated_Source\PSoC5/SDSPI_SPIMaster.c **** *
 714:.\Generated_Source\PSoC5/SDSPI_SPIMaster.c **** * Return:
 715:.\Generated_Source\PSoC5/SDSPI_SPIMaster.c **** *  Integer count of the number of bytes/words in the TX buffer.
 716:.\Generated_Source\PSoC5/SDSPI_SPIMaster.c **** *
 717:.\Generated_Source\PSoC5/SDSPI_SPIMaster.c **** * Global variables:
 718:.\Generated_Source\PSoC5/SDSPI_SPIMaster.c **** *  SDSPI_SPIMaster_txBufferWrite - used for the account of the bytes which
 719:.\Generated_Source\PSoC5/SDSPI_SPIMaster.c **** *  have been written down in the TX software buffer.
 720:.\Generated_Source\PSoC5/SDSPI_SPIMaster.c **** *  SDSPI_SPIMaster_txBufferRead - used for the account of the bytes which
 721:.\Generated_Source\PSoC5/SDSPI_SPIMaster.c **** *  have been read from the TX software buffer.
 722:.\Generated_Source\PSoC5/SDSPI_SPIMaster.c **** *
 723:.\Generated_Source\PSoC5/SDSPI_SPIMaster.c **** * Side Effects:
 724:.\Generated_Source\PSoC5/SDSPI_SPIMaster.c **** *  Clear status register of the component.
 725:.\Generated_Source\PSoC5/SDSPI_SPIMaster.c **** *
 726:.\Generated_Source\PSoC5/SDSPI_SPIMaster.c **** *******************************************************************************/
 727:.\Generated_Source\PSoC5/SDSPI_SPIMaster.c **** uint8  SDSPI_SPIMaster_GetTxBufferSize(void) 
 728:.\Generated_Source\PSoC5/SDSPI_SPIMaster.c **** {
 729:.\Generated_Source\PSoC5/SDSPI_SPIMaster.c ****     uint8 size;
 730:.\Generated_Source\PSoC5/SDSPI_SPIMaster.c **** 
 731:.\Generated_Source\PSoC5/SDSPI_SPIMaster.c ****     #if(SDSPI_SPIMaster_TX_SOFTWARE_BUF_ENABLED)
 732:.\Generated_Source\PSoC5/SDSPI_SPIMaster.c ****         /* Disable TX interrupt to protect global veriables */
 733:.\Generated_Source\PSoC5/SDSPI_SPIMaster.c ****         SDSPI_SPIMaster_DisableTxInt();
 734:.\Generated_Source\PSoC5/SDSPI_SPIMaster.c **** 
 735:.\Generated_Source\PSoC5/SDSPI_SPIMaster.c ****         if(SDSPI_SPIMaster_txBufferRead == SDSPI_SPIMaster_txBufferWrite)
 736:.\Generated_Source\PSoC5/SDSPI_SPIMaster.c ****         {
 737:.\Generated_Source\PSoC5/SDSPI_SPIMaster.c ****             size = 0u;
 738:.\Generated_Source\PSoC5/SDSPI_SPIMaster.c ****         }
 739:.\Generated_Source\PSoC5/SDSPI_SPIMaster.c ****         else if(SDSPI_SPIMaster_txBufferRead < SDSPI_SPIMaster_txBufferWrite)
 740:.\Generated_Source\PSoC5/SDSPI_SPIMaster.c ****         {
 741:.\Generated_Source\PSoC5/SDSPI_SPIMaster.c ****             size = (SDSPI_SPIMaster_txBufferWrite - SDSPI_SPIMaster_txBufferRead);
 742:.\Generated_Source\PSoC5/SDSPI_SPIMaster.c ****         }
 743:.\Generated_Source\PSoC5/SDSPI_SPIMaster.c ****         else
 744:.\Generated_Source\PSoC5/SDSPI_SPIMaster.c ****         {
 745:.\Generated_Source\PSoC5/SDSPI_SPIMaster.c ****             size = (SDSPI_SPIMaster_TX_BUFFER_SIZE - SDSPI_SPIMaster_txBufferRead) + SDSPI_SPIMaste
 746:.\Generated_Source\PSoC5/SDSPI_SPIMaster.c ****         }
 747:.\Generated_Source\PSoC5/SDSPI_SPIMaster.c **** 
 748:.\Generated_Source\PSoC5/SDSPI_SPIMaster.c ****         SDSPI_SPIMaster_EnableTxInt();
 749:.\Generated_Source\PSoC5/SDSPI_SPIMaster.c **** 
 750:.\Generated_Source\PSoC5/SDSPI_SPIMaster.c ****     #else
 751:.\Generated_Source\PSoC5/SDSPI_SPIMaster.c **** 
 752:.\Generated_Source\PSoC5/SDSPI_SPIMaster.c ****         size = SDSPI_SPIMaster_TX_STATUS_REG;
 753:.\Generated_Source\PSoC5/SDSPI_SPIMaster.c **** 
 754:.\Generated_Source\PSoC5/SDSPI_SPIMaster.c ****         if(0u != (size & SDSPI_SPIMaster_STS_TX_FIFO_EMPTY))
 755:.\Generated_Source\PSoC5/SDSPI_SPIMaster.c ****         {
 756:.\Generated_Source\PSoC5/SDSPI_SPIMaster.c ****             size = 0u;
 757:.\Generated_Source\PSoC5/SDSPI_SPIMaster.c ****         }
ARM GAS  C:\Users\honet\AppData\Local\Temp\ccwozZGh.s 			page 15


 758:.\Generated_Source\PSoC5/SDSPI_SPIMaster.c ****         else if(0u != (size & SDSPI_SPIMaster_STS_TX_FIFO_NOT_FULL))
 759:.\Generated_Source\PSoC5/SDSPI_SPIMaster.c ****         {
 760:.\Generated_Source\PSoC5/SDSPI_SPIMaster.c ****             size = 1u;
 761:.\Generated_Source\PSoC5/SDSPI_SPIMaster.c ****         }
 762:.\Generated_Source\PSoC5/SDSPI_SPIMaster.c ****         else
 763:.\Generated_Source\PSoC5/SDSPI_SPIMaster.c ****         {
 764:.\Generated_Source\PSoC5/SDSPI_SPIMaster.c ****             size = SDSPI_SPIMaster_FIFO_SIZE;
 765:.\Generated_Source\PSoC5/SDSPI_SPIMaster.c ****         }
 766:.\Generated_Source\PSoC5/SDSPI_SPIMaster.c **** 
 767:.\Generated_Source\PSoC5/SDSPI_SPIMaster.c ****     #endif /* (SDSPI_SPIMaster_TX_SOFTWARE_BUF_ENABLED) */
 768:.\Generated_Source\PSoC5/SDSPI_SPIMaster.c **** 
 769:.\Generated_Source\PSoC5/SDSPI_SPIMaster.c ****     return(size);
 770:.\Generated_Source\PSoC5/SDSPI_SPIMaster.c **** }
 771:.\Generated_Source\PSoC5/SDSPI_SPIMaster.c **** 
 772:.\Generated_Source\PSoC5/SDSPI_SPIMaster.c **** 
 773:.\Generated_Source\PSoC5/SDSPI_SPIMaster.c **** /*******************************************************************************
 774:.\Generated_Source\PSoC5/SDSPI_SPIMaster.c **** * Function Name: SDSPI_SPIMaster_ClearRxBuffer
 775:.\Generated_Source\PSoC5/SDSPI_SPIMaster.c **** ********************************************************************************
 776:.\Generated_Source\PSoC5/SDSPI_SPIMaster.c **** *
 777:.\Generated_Source\PSoC5/SDSPI_SPIMaster.c **** * Summary:
 778:.\Generated_Source\PSoC5/SDSPI_SPIMaster.c **** *  Clear the RX RAM buffer by setting the read and write pointers both to zero.
 779:.\Generated_Source\PSoC5/SDSPI_SPIMaster.c **** *
 780:.\Generated_Source\PSoC5/SDSPI_SPIMaster.c **** * Parameters:
 781:.\Generated_Source\PSoC5/SDSPI_SPIMaster.c **** *  None.
 782:.\Generated_Source\PSoC5/SDSPI_SPIMaster.c **** *
 783:.\Generated_Source\PSoC5/SDSPI_SPIMaster.c **** * Return:
 784:.\Generated_Source\PSoC5/SDSPI_SPIMaster.c **** *  None.
 785:.\Generated_Source\PSoC5/SDSPI_SPIMaster.c **** *
 786:.\Generated_Source\PSoC5/SDSPI_SPIMaster.c **** * Global variables:
 787:.\Generated_Source\PSoC5/SDSPI_SPIMaster.c **** *  SDSPI_SPIMaster_rxBufferWrite - used for the account of the bytes which
 788:.\Generated_Source\PSoC5/SDSPI_SPIMaster.c **** *  have been written down in the RX software buffer, modified every function
 789:.\Generated_Source\PSoC5/SDSPI_SPIMaster.c **** *  call - resets to zero.
 790:.\Generated_Source\PSoC5/SDSPI_SPIMaster.c **** *  SDSPI_SPIMaster_rxBufferRead - used for the account of the bytes which
 791:.\Generated_Source\PSoC5/SDSPI_SPIMaster.c **** *  have been read from the RX software buffer, modified every function call -
 792:.\Generated_Source\PSoC5/SDSPI_SPIMaster.c **** *  resets to zero.
 793:.\Generated_Source\PSoC5/SDSPI_SPIMaster.c **** *
 794:.\Generated_Source\PSoC5/SDSPI_SPIMaster.c **** * Theory:
 795:.\Generated_Source\PSoC5/SDSPI_SPIMaster.c **** *  Setting the pointers to zero makes the system believe there is no data to
 796:.\Generated_Source\PSoC5/SDSPI_SPIMaster.c **** *  read and writing will resume at address 0 overwriting any data that may have
 797:.\Generated_Source\PSoC5/SDSPI_SPIMaster.c **** *  remained in the RAM.
 798:.\Generated_Source\PSoC5/SDSPI_SPIMaster.c **** *
 799:.\Generated_Source\PSoC5/SDSPI_SPIMaster.c **** * Side Effects:
 800:.\Generated_Source\PSoC5/SDSPI_SPIMaster.c **** *  Any received data not read from the RAM buffer will be lost when overwritten.
 801:.\Generated_Source\PSoC5/SDSPI_SPIMaster.c **** *
 802:.\Generated_Source\PSoC5/SDSPI_SPIMaster.c **** * Reentrant:
 803:.\Generated_Source\PSoC5/SDSPI_SPIMaster.c **** *  No.
 804:.\Generated_Source\PSoC5/SDSPI_SPIMaster.c **** *
 805:.\Generated_Source\PSoC5/SDSPI_SPIMaster.c **** *******************************************************************************/
 806:.\Generated_Source\PSoC5/SDSPI_SPIMaster.c **** void SDSPI_SPIMaster_ClearRxBuffer(void) 
 807:.\Generated_Source\PSoC5/SDSPI_SPIMaster.c **** {
 808:.\Generated_Source\PSoC5/SDSPI_SPIMaster.c ****     /* Clear Hardware RX FIFO */
 809:.\Generated_Source\PSoC5/SDSPI_SPIMaster.c ****     while(0u !=(SDSPI_SPIMaster_RX_STATUS_REG & SDSPI_SPIMaster_STS_RX_FIFO_NOT_EMPTY))
 810:.\Generated_Source\PSoC5/SDSPI_SPIMaster.c ****     {
 811:.\Generated_Source\PSoC5/SDSPI_SPIMaster.c ****         (void) CY_GET_REG8(SDSPI_SPIMaster_RXDATA_PTR);
 812:.\Generated_Source\PSoC5/SDSPI_SPIMaster.c ****     }
 813:.\Generated_Source\PSoC5/SDSPI_SPIMaster.c **** 
 814:.\Generated_Source\PSoC5/SDSPI_SPIMaster.c ****     #if(SDSPI_SPIMaster_RX_SOFTWARE_BUF_ENABLED)
ARM GAS  C:\Users\honet\AppData\Local\Temp\ccwozZGh.s 			page 16


 815:.\Generated_Source\PSoC5/SDSPI_SPIMaster.c ****         /* Disable RX interrupt to protect global veriables */
 816:.\Generated_Source\PSoC5/SDSPI_SPIMaster.c ****         SDSPI_SPIMaster_DisableRxInt();
 817:.\Generated_Source\PSoC5/SDSPI_SPIMaster.c **** 
 818:.\Generated_Source\PSoC5/SDSPI_SPIMaster.c ****         SDSPI_SPIMaster_rxBufferFull  = 0u;
 819:.\Generated_Source\PSoC5/SDSPI_SPIMaster.c ****         SDSPI_SPIMaster_rxBufferRead  = 0u;
 820:.\Generated_Source\PSoC5/SDSPI_SPIMaster.c ****         SDSPI_SPIMaster_rxBufferWrite = 0u;
 821:.\Generated_Source\PSoC5/SDSPI_SPIMaster.c **** 
 822:.\Generated_Source\PSoC5/SDSPI_SPIMaster.c ****         SDSPI_SPIMaster_EnableRxInt();
 823:.\Generated_Source\PSoC5/SDSPI_SPIMaster.c ****     #endif /* (SDSPI_SPIMaster_RX_SOFTWARE_BUF_ENABLED) */
 824:.\Generated_Source\PSoC5/SDSPI_SPIMaster.c **** }
 825:.\Generated_Source\PSoC5/SDSPI_SPIMaster.c **** 
 826:.\Generated_Source\PSoC5/SDSPI_SPIMaster.c **** 
 827:.\Generated_Source\PSoC5/SDSPI_SPIMaster.c **** /*******************************************************************************
 828:.\Generated_Source\PSoC5/SDSPI_SPIMaster.c **** * Function Name: SDSPI_SPIMaster_ClearTxBuffer
 829:.\Generated_Source\PSoC5/SDSPI_SPIMaster.c **** ********************************************************************************
 830:.\Generated_Source\PSoC5/SDSPI_SPIMaster.c **** *
 831:.\Generated_Source\PSoC5/SDSPI_SPIMaster.c **** * Summary:
 832:.\Generated_Source\PSoC5/SDSPI_SPIMaster.c **** *  Clear the TX RAM buffer by setting the read and write pointers both to zero.
 833:.\Generated_Source\PSoC5/SDSPI_SPIMaster.c **** *
 834:.\Generated_Source\PSoC5/SDSPI_SPIMaster.c **** * Parameters:
 835:.\Generated_Source\PSoC5/SDSPI_SPIMaster.c **** *  None.
 836:.\Generated_Source\PSoC5/SDSPI_SPIMaster.c **** *
 837:.\Generated_Source\PSoC5/SDSPI_SPIMaster.c **** * Return:
 838:.\Generated_Source\PSoC5/SDSPI_SPIMaster.c **** *  None.
 839:.\Generated_Source\PSoC5/SDSPI_SPIMaster.c **** *
 840:.\Generated_Source\PSoC5/SDSPI_SPIMaster.c **** * Global variables:
 841:.\Generated_Source\PSoC5/SDSPI_SPIMaster.c **** *  SDSPI_SPIMaster_txBufferWrite - used for the account of the bytes which
 842:.\Generated_Source\PSoC5/SDSPI_SPIMaster.c **** *  have been written down in the TX software buffer, modified every function
 843:.\Generated_Source\PSoC5/SDSPI_SPIMaster.c **** *  call - resets to zero.
 844:.\Generated_Source\PSoC5/SDSPI_SPIMaster.c **** *  SDSPI_SPIMaster_txBufferRead - used for the account of the bytes which
 845:.\Generated_Source\PSoC5/SDSPI_SPIMaster.c **** *  have been read from the TX software buffer, modified every function call -
 846:.\Generated_Source\PSoC5/SDSPI_SPIMaster.c **** *  resets to zero.
 847:.\Generated_Source\PSoC5/SDSPI_SPIMaster.c **** *
 848:.\Generated_Source\PSoC5/SDSPI_SPIMaster.c **** * Theory:
 849:.\Generated_Source\PSoC5/SDSPI_SPIMaster.c **** *  Setting the pointers to zero makes the system believe there is no data to
 850:.\Generated_Source\PSoC5/SDSPI_SPIMaster.c **** *  read and writing will resume at address 0 overwriting any data that may have
 851:.\Generated_Source\PSoC5/SDSPI_SPIMaster.c **** *  remained in the RAM.
 852:.\Generated_Source\PSoC5/SDSPI_SPIMaster.c **** *
 853:.\Generated_Source\PSoC5/SDSPI_SPIMaster.c **** * Side Effects:
 854:.\Generated_Source\PSoC5/SDSPI_SPIMaster.c **** *  Any data not yet transmitted from the RAM buffer will be lost when
 855:.\Generated_Source\PSoC5/SDSPI_SPIMaster.c **** *  overwritten.
 856:.\Generated_Source\PSoC5/SDSPI_SPIMaster.c **** *
 857:.\Generated_Source\PSoC5/SDSPI_SPIMaster.c **** * Reentrant:
 858:.\Generated_Source\PSoC5/SDSPI_SPIMaster.c **** *  No.
 859:.\Generated_Source\PSoC5/SDSPI_SPIMaster.c **** *
 860:.\Generated_Source\PSoC5/SDSPI_SPIMaster.c **** *******************************************************************************/
 861:.\Generated_Source\PSoC5/SDSPI_SPIMaster.c **** void SDSPI_SPIMaster_ClearTxBuffer(void) 
 862:.\Generated_Source\PSoC5/SDSPI_SPIMaster.c **** {
 863:.\Generated_Source\PSoC5/SDSPI_SPIMaster.c ****     uint8 enableInterrupts;
 864:.\Generated_Source\PSoC5/SDSPI_SPIMaster.c **** 
 865:.\Generated_Source\PSoC5/SDSPI_SPIMaster.c ****     enableInterrupts = CyEnterCriticalSection();
 866:.\Generated_Source\PSoC5/SDSPI_SPIMaster.c ****     /* Clear TX FIFO */
 867:.\Generated_Source\PSoC5/SDSPI_SPIMaster.c ****     SDSPI_SPIMaster_AUX_CONTROL_DP0_REG |= ((uint8)  SDSPI_SPIMaster_TX_FIFO_CLR);
 868:.\Generated_Source\PSoC5/SDSPI_SPIMaster.c ****     SDSPI_SPIMaster_AUX_CONTROL_DP0_REG &= ((uint8) ~SDSPI_SPIMaster_TX_FIFO_CLR);
 869:.\Generated_Source\PSoC5/SDSPI_SPIMaster.c **** 
 870:.\Generated_Source\PSoC5/SDSPI_SPIMaster.c ****     #if(SDSPI_SPIMaster_USE_SECOND_DATAPATH)
 871:.\Generated_Source\PSoC5/SDSPI_SPIMaster.c ****         /* Clear TX FIFO for 2nd Datapath */
ARM GAS  C:\Users\honet\AppData\Local\Temp\ccwozZGh.s 			page 17


 872:.\Generated_Source\PSoC5/SDSPI_SPIMaster.c ****         SDSPI_SPIMaster_AUX_CONTROL_DP1_REG |= ((uint8)  SDSPI_SPIMaster_TX_FIFO_CLR);
 873:.\Generated_Source\PSoC5/SDSPI_SPIMaster.c ****         SDSPI_SPIMaster_AUX_CONTROL_DP1_REG &= ((uint8) ~SDSPI_SPIMaster_TX_FIFO_CLR);
 874:.\Generated_Source\PSoC5/SDSPI_SPIMaster.c ****     #endif /* (SDSPI_SPIMaster_USE_SECOND_DATAPATH) */
 875:.\Generated_Source\PSoC5/SDSPI_SPIMaster.c ****     CyExitCriticalSection(enableInterrupts);
 876:.\Generated_Source\PSoC5/SDSPI_SPIMaster.c **** 
 877:.\Generated_Source\PSoC5/SDSPI_SPIMaster.c ****     #if(SDSPI_SPIMaster_TX_SOFTWARE_BUF_ENABLED)
 878:.\Generated_Source\PSoC5/SDSPI_SPIMaster.c ****         /* Disable TX interrupt to protect global veriables */
 879:.\Generated_Source\PSoC5/SDSPI_SPIMaster.c ****         SDSPI_SPIMaster_DisableTxInt();
 880:.\Generated_Source\PSoC5/SDSPI_SPIMaster.c **** 
 881:.\Generated_Source\PSoC5/SDSPI_SPIMaster.c ****         SDSPI_SPIMaster_txBufferFull  = 0u;
 882:.\Generated_Source\PSoC5/SDSPI_SPIMaster.c ****         SDSPI_SPIMaster_txBufferRead  = 0u;
 883:.\Generated_Source\PSoC5/SDSPI_SPIMaster.c ****         SDSPI_SPIMaster_txBufferWrite = 0u;
 884:.\Generated_Source\PSoC5/SDSPI_SPIMaster.c **** 
 885:.\Generated_Source\PSoC5/SDSPI_SPIMaster.c ****         /* Buffer is EMPTY: disable TX FIFO NOT FULL interrupt */
 886:.\Generated_Source\PSoC5/SDSPI_SPIMaster.c ****         SDSPI_SPIMaster_TX_STATUS_MASK_REG &= ((uint8) ~SDSPI_SPIMaster_STS_TX_FIFO_NOT_FULL);
 887:.\Generated_Source\PSoC5/SDSPI_SPIMaster.c **** 
 888:.\Generated_Source\PSoC5/SDSPI_SPIMaster.c ****         SDSPI_SPIMaster_EnableTxInt();
 889:.\Generated_Source\PSoC5/SDSPI_SPIMaster.c ****     #endif /* (SDSPI_SPIMaster_TX_SOFTWARE_BUF_ENABLED) */
 890:.\Generated_Source\PSoC5/SDSPI_SPIMaster.c **** }
 891:.\Generated_Source\PSoC5/SDSPI_SPIMaster.c **** 
 892:.\Generated_Source\PSoC5/SDSPI_SPIMaster.c **** 
 893:.\Generated_Source\PSoC5/SDSPI_SPIMaster.c **** #if(0u != SDSPI_SPIMaster_BIDIRECTIONAL_MODE)
 894:.\Generated_Source\PSoC5/SDSPI_SPIMaster.c ****     /*******************************************************************************
 895:.\Generated_Source\PSoC5/SDSPI_SPIMaster.c ****     * Function Name: SDSPI_SPIMaster_TxEnable
 896:.\Generated_Source\PSoC5/SDSPI_SPIMaster.c ****     ********************************************************************************
 897:.\Generated_Source\PSoC5/SDSPI_SPIMaster.c ****     *
 898:.\Generated_Source\PSoC5/SDSPI_SPIMaster.c ****     * Summary:
 899:.\Generated_Source\PSoC5/SDSPI_SPIMaster.c ****     *  If the SPI master is configured to use a single bi-directional pin then this
 900:.\Generated_Source\PSoC5/SDSPI_SPIMaster.c ****     *  will set the bi-directional pin to transmit.
 901:.\Generated_Source\PSoC5/SDSPI_SPIMaster.c ****     *
 902:.\Generated_Source\PSoC5/SDSPI_SPIMaster.c ****     * Parameters:
 903:.\Generated_Source\PSoC5/SDSPI_SPIMaster.c ****     *  None.
 904:.\Generated_Source\PSoC5/SDSPI_SPIMaster.c ****     *
 905:.\Generated_Source\PSoC5/SDSPI_SPIMaster.c ****     * Return:
 906:.\Generated_Source\PSoC5/SDSPI_SPIMaster.c ****     *  None.
 907:.\Generated_Source\PSoC5/SDSPI_SPIMaster.c ****     *
 908:.\Generated_Source\PSoC5/SDSPI_SPIMaster.c ****     *******************************************************************************/
 909:.\Generated_Source\PSoC5/SDSPI_SPIMaster.c ****     void SDSPI_SPIMaster_TxEnable(void) 
 910:.\Generated_Source\PSoC5/SDSPI_SPIMaster.c ****     {
 911:.\Generated_Source\PSoC5/SDSPI_SPIMaster.c ****         SDSPI_SPIMaster_CONTROL_REG |= SDSPI_SPIMaster_CTRL_TX_SIGNAL_EN;
 912:.\Generated_Source\PSoC5/SDSPI_SPIMaster.c ****     }
 913:.\Generated_Source\PSoC5/SDSPI_SPIMaster.c **** 
 914:.\Generated_Source\PSoC5/SDSPI_SPIMaster.c **** 
 915:.\Generated_Source\PSoC5/SDSPI_SPIMaster.c ****     /*******************************************************************************
 916:.\Generated_Source\PSoC5/SDSPI_SPIMaster.c ****     * Function Name: SDSPI_SPIMaster_TxDisable
 917:.\Generated_Source\PSoC5/SDSPI_SPIMaster.c ****     ********************************************************************************
 918:.\Generated_Source\PSoC5/SDSPI_SPIMaster.c ****     *
 919:.\Generated_Source\PSoC5/SDSPI_SPIMaster.c ****     * Summary:
 920:.\Generated_Source\PSoC5/SDSPI_SPIMaster.c ****     *  If the SPI master is configured to use a single bi-directional pin then this
 921:.\Generated_Source\PSoC5/SDSPI_SPIMaster.c ****     *  will set the bi-directional pin to receive.
 922:.\Generated_Source\PSoC5/SDSPI_SPIMaster.c ****     *
 923:.\Generated_Source\PSoC5/SDSPI_SPIMaster.c ****     * Parameters:
 924:.\Generated_Source\PSoC5/SDSPI_SPIMaster.c ****     *  None.
 925:.\Generated_Source\PSoC5/SDSPI_SPIMaster.c ****     *
 926:.\Generated_Source\PSoC5/SDSPI_SPIMaster.c ****     * Return:
 927:.\Generated_Source\PSoC5/SDSPI_SPIMaster.c ****     *  None.
 928:.\Generated_Source\PSoC5/SDSPI_SPIMaster.c ****     *
ARM GAS  C:\Users\honet\AppData\Local\Temp\ccwozZGh.s 			page 18


 929:.\Generated_Source\PSoC5/SDSPI_SPIMaster.c ****     *******************************************************************************/
 930:.\Generated_Source\PSoC5/SDSPI_SPIMaster.c ****     void SDSPI_SPIMaster_TxDisable(void) 
 931:.\Generated_Source\PSoC5/SDSPI_SPIMaster.c ****     {
 932:.\Generated_Source\PSoC5/SDSPI_SPIMaster.c ****         SDSPI_SPIMaster_CONTROL_REG &= ((uint8) ~SDSPI_SPIMaster_CTRL_TX_SIGNAL_EN);
 933:.\Generated_Source\PSoC5/SDSPI_SPIMaster.c ****     }
 934:.\Generated_Source\PSoC5/SDSPI_SPIMaster.c **** 
 935:.\Generated_Source\PSoC5/SDSPI_SPIMaster.c **** #endif /* (0u != SDSPI_SPIMaster_BIDIRECTIONAL_MODE) */
 936:.\Generated_Source\PSoC5/SDSPI_SPIMaster.c **** 
 937:.\Generated_Source\PSoC5/SDSPI_SPIMaster.c **** 
 938:.\Generated_Source\PSoC5/SDSPI_SPIMaster.c **** /*******************************************************************************
 939:.\Generated_Source\PSoC5/SDSPI_SPIMaster.c **** * Function Name: SDSPI_SPIMaster_PutArray
 940:.\Generated_Source\PSoC5/SDSPI_SPIMaster.c **** ********************************************************************************
 941:.\Generated_Source\PSoC5/SDSPI_SPIMaster.c **** *
 942:.\Generated_Source\PSoC5/SDSPI_SPIMaster.c **** * Summary:
 943:.\Generated_Source\PSoC5/SDSPI_SPIMaster.c **** *  Write available data from ROM/RAM to the TX buffer while space is available
 944:.\Generated_Source\PSoC5/SDSPI_SPIMaster.c **** *  in the TX buffer. Keep trying until all data is passed to the TX buffer.
 945:.\Generated_Source\PSoC5/SDSPI_SPIMaster.c **** *
 946:.\Generated_Source\PSoC5/SDSPI_SPIMaster.c **** * Parameters:
 947:.\Generated_Source\PSoC5/SDSPI_SPIMaster.c **** *  *buffer: Pointer to the location in RAM containing the data to send
 948:.\Generated_Source\PSoC5/SDSPI_SPIMaster.c **** *  byteCount: The number of bytes to move to the transmit buffer.
 949:.\Generated_Source\PSoC5/SDSPI_SPIMaster.c **** *
 950:.\Generated_Source\PSoC5/SDSPI_SPIMaster.c **** * Return:
 951:.\Generated_Source\PSoC5/SDSPI_SPIMaster.c **** *  None.
 952:.\Generated_Source\PSoC5/SDSPI_SPIMaster.c **** *
 953:.\Generated_Source\PSoC5/SDSPI_SPIMaster.c **** * Side Effects:
 954:.\Generated_Source\PSoC5/SDSPI_SPIMaster.c **** *  Will stay in this routine until all data has been sent.  May get locked in
 955:.\Generated_Source\PSoC5/SDSPI_SPIMaster.c **** *  this loop if data is not being initiated by the master if there is not
 956:.\Generated_Source\PSoC5/SDSPI_SPIMaster.c **** *  enough room in the TX FIFO.
 957:.\Generated_Source\PSoC5/SDSPI_SPIMaster.c **** *
 958:.\Generated_Source\PSoC5/SDSPI_SPIMaster.c **** * Reentrant:
 959:.\Generated_Source\PSoC5/SDSPI_SPIMaster.c **** *  No.
 960:.\Generated_Source\PSoC5/SDSPI_SPIMaster.c **** *
 961:.\Generated_Source\PSoC5/SDSPI_SPIMaster.c **** *******************************************************************************/
 962:.\Generated_Source\PSoC5/SDSPI_SPIMaster.c **** void SDSPI_SPIMaster_PutArray(const uint8 buffer[], uint8 byteCount)
 963:.\Generated_Source\PSoC5/SDSPI_SPIMaster.c ****                                                                           
 964:.\Generated_Source\PSoC5/SDSPI_SPIMaster.c **** {
 965:.\Generated_Source\PSoC5/SDSPI_SPIMaster.c ****     uint8 bufIndex;
 966:.\Generated_Source\PSoC5/SDSPI_SPIMaster.c **** 
 967:.\Generated_Source\PSoC5/SDSPI_SPIMaster.c ****     bufIndex = 0u;
 968:.\Generated_Source\PSoC5/SDSPI_SPIMaster.c **** 
 969:.\Generated_Source\PSoC5/SDSPI_SPIMaster.c ****     while(byteCount > 0u)
 970:.\Generated_Source\PSoC5/SDSPI_SPIMaster.c ****     {
 971:.\Generated_Source\PSoC5/SDSPI_SPIMaster.c ****         SDSPI_SPIMaster_WriteTxData(buffer[bufIndex]);
 972:.\Generated_Source\PSoC5/SDSPI_SPIMaster.c ****         bufIndex++;
 973:.\Generated_Source\PSoC5/SDSPI_SPIMaster.c ****         byteCount--;
 974:.\Generated_Source\PSoC5/SDSPI_SPIMaster.c ****     }
 975:.\Generated_Source\PSoC5/SDSPI_SPIMaster.c **** }
 976:.\Generated_Source\PSoC5/SDSPI_SPIMaster.c **** 
 977:.\Generated_Source\PSoC5/SDSPI_SPIMaster.c **** 
 978:.\Generated_Source\PSoC5/SDSPI_SPIMaster.c **** /*******************************************************************************
 979:.\Generated_Source\PSoC5/SDSPI_SPIMaster.c **** * Function Name: SDSPI_SPIMaster_ClearFIFO
 980:.\Generated_Source\PSoC5/SDSPI_SPIMaster.c **** ********************************************************************************
 981:.\Generated_Source\PSoC5/SDSPI_SPIMaster.c **** *
 982:.\Generated_Source\PSoC5/SDSPI_SPIMaster.c **** * Summary:
 983:.\Generated_Source\PSoC5/SDSPI_SPIMaster.c **** *  Clear the RX and TX FIFO's of all data for a fresh start.
 984:.\Generated_Source\PSoC5/SDSPI_SPIMaster.c **** *
 985:.\Generated_Source\PSoC5/SDSPI_SPIMaster.c **** * Parameters:
ARM GAS  C:\Users\honet\AppData\Local\Temp\ccwozZGh.s 			page 19


 986:.\Generated_Source\PSoC5/SDSPI_SPIMaster.c **** *  None.
 987:.\Generated_Source\PSoC5/SDSPI_SPIMaster.c **** *
 988:.\Generated_Source\PSoC5/SDSPI_SPIMaster.c **** * Return:
 989:.\Generated_Source\PSoC5/SDSPI_SPIMaster.c **** *  None.
 990:.\Generated_Source\PSoC5/SDSPI_SPIMaster.c **** *
 991:.\Generated_Source\PSoC5/SDSPI_SPIMaster.c **** * Side Effects:
 992:.\Generated_Source\PSoC5/SDSPI_SPIMaster.c **** *  Clear status register of the component.
 993:.\Generated_Source\PSoC5/SDSPI_SPIMaster.c **** *
 994:.\Generated_Source\PSoC5/SDSPI_SPIMaster.c **** *******************************************************************************/
 995:.\Generated_Source\PSoC5/SDSPI_SPIMaster.c **** void SDSPI_SPIMaster_ClearFIFO(void) 
 996:.\Generated_Source\PSoC5/SDSPI_SPIMaster.c **** {
 997:.\Generated_Source\PSoC5/SDSPI_SPIMaster.c ****     uint8 enableInterrupts;
 998:.\Generated_Source\PSoC5/SDSPI_SPIMaster.c **** 
 999:.\Generated_Source\PSoC5/SDSPI_SPIMaster.c ****     /* Clear Hardware RX FIFO */
1000:.\Generated_Source\PSoC5/SDSPI_SPIMaster.c ****     while(0u !=(SDSPI_SPIMaster_RX_STATUS_REG & SDSPI_SPIMaster_STS_RX_FIFO_NOT_EMPTY))
  42              		.loc 1 1000 0
  43 0006 124A     		ldr	r2, .L11+4
  44              	.LBE37:
  45              	.LBE36:
  66:.\Generated_Source\PSoC5/SDSPI_SPIMaster.c **** 
  46              		.loc 1 66 0
  47 0008 1970     		strb	r1, [r3]
  48              	.LBB41:
  49              	.LBB38:
  50              		.loc 1 1000 0
  51 000a 1378     		ldrb	r3, [r2]	@ zero_extendqisi2
  52 000c 9906     		lsls	r1, r3, #26
  53 000e 04D5     		bpl	.L2
1001:.\Generated_Source\PSoC5/SDSPI_SPIMaster.c ****     {
1002:.\Generated_Source\PSoC5/SDSPI_SPIMaster.c ****         (void) CY_GET_REG8(SDSPI_SPIMaster_RXDATA_PTR);
  54              		.loc 1 1002 0
  55 0010 1049     		ldr	r1, .L11+8
  56              	.L6:
  57 0012 0B78     		ldrb	r3, [r1]	@ zero_extendqisi2
1000:.\Generated_Source\PSoC5/SDSPI_SPIMaster.c ****     {
  58              		.loc 1 1000 0
  59 0014 1378     		ldrb	r3, [r2]	@ zero_extendqisi2
  60 0016 9B06     		lsls	r3, r3, #26
  61 0018 FBD4     		bmi	.L6
  62              	.L2:
1003:.\Generated_Source\PSoC5/SDSPI_SPIMaster.c ****     }
1004:.\Generated_Source\PSoC5/SDSPI_SPIMaster.c **** 
1005:.\Generated_Source\PSoC5/SDSPI_SPIMaster.c ****     enableInterrupts = CyEnterCriticalSection();
  63              		.loc 1 1005 0
  64 001a FFF7FEFF 		bl	CyEnterCriticalSection
  65              	.LVL0:
1006:.\Generated_Source\PSoC5/SDSPI_SPIMaster.c ****     /* Clear TX FIFO */
1007:.\Generated_Source\PSoC5/SDSPI_SPIMaster.c ****     SDSPI_SPIMaster_AUX_CONTROL_DP0_REG |= ((uint8)  SDSPI_SPIMaster_TX_FIFO_CLR);
  66              		.loc 1 1007 0
  67 001e 0E4B     		ldr	r3, .L11+12
  68              	.LBE38:
  69              	.LBE41:
  70              	.LBB42:
  71              	.LBB43:
 401:.\Generated_Source\PSoC5/SDSPI_SPIMaster.c **** 
  72              		.loc 1 401 0
  73 0020 0E4D     		ldr	r5, .L11+16
ARM GAS  C:\Users\honet\AppData\Local\Temp\ccwozZGh.s 			page 20


  74              	.LBE43:
  75              	.LBE42:
  76              	.LBB45:
  77              	.LBB39:
  78              		.loc 1 1007 0
  79 0022 1A78     		ldrb	r2, [r3]	@ zero_extendqisi2
  80              	.LBE39:
  81              	.LBE45:
  82              	.LBB46:
  83              	.LBB47:
 452:.\Generated_Source\PSoC5/SDSPI_SPIMaster.c **** 
  84              		.loc 1 452 0
  85 0024 0A4C     		ldr	r4, .L11+4
  86              	.LBE47:
  87              	.LBE46:
  88              	.LBB49:
  89              	.LBB40:
  90              		.loc 1 1007 0
  91 0026 42F00102 		orr	r2, r2, #1
  92 002a 1A70     		strb	r2, [r3]
1008:.\Generated_Source\PSoC5/SDSPI_SPIMaster.c ****     SDSPI_SPIMaster_AUX_CONTROL_DP0_REG &= ((uint8) ~SDSPI_SPIMaster_TX_FIFO_CLR);
  93              		.loc 1 1008 0
  94 002c 1A78     		ldrb	r2, [r3]	@ zero_extendqisi2
  95 002e 02F0FE02 		and	r2, r2, #254
  96 0032 1A70     		strb	r2, [r3]
1009:.\Generated_Source\PSoC5/SDSPI_SPIMaster.c **** 
1010:.\Generated_Source\PSoC5/SDSPI_SPIMaster.c ****     #if(SDSPI_SPIMaster_USE_SECOND_DATAPATH)
1011:.\Generated_Source\PSoC5/SDSPI_SPIMaster.c ****         /* Clear TX FIFO for 2nd Datapath */
1012:.\Generated_Source\PSoC5/SDSPI_SPIMaster.c ****         SDSPI_SPIMaster_AUX_CONTROL_DP1_REG |= ((uint8)  SDSPI_SPIMaster_TX_FIFO_CLR);
1013:.\Generated_Source\PSoC5/SDSPI_SPIMaster.c ****         SDSPI_SPIMaster_AUX_CONTROL_DP1_REG &= ((uint8) ~SDSPI_SPIMaster_TX_FIFO_CLR);
1014:.\Generated_Source\PSoC5/SDSPI_SPIMaster.c ****     #endif /* (SDSPI_SPIMaster_USE_SECOND_DATAPATH) */
1015:.\Generated_Source\PSoC5/SDSPI_SPIMaster.c ****     CyExitCriticalSection(enableInterrupts);
  97              		.loc 1 1015 0
  98 0034 FFF7FEFF 		bl	CyExitCriticalSection
  99              	.LVL1:
 100              	.LBE40:
 101              	.LBE49:
 101:.\Generated_Source\PSoC5/SDSPI_SPIMaster.c ****     SDSPI_SPIMaster_RX_STATUS_MASK_REG = SDSPI_SPIMaster_RX_INIT_INTERRUPTS_MASK;
 102              		.loc 1 101 0
 103 0038 0949     		ldr	r1, .L11+20
 102:.\Generated_Source\PSoC5/SDSPI_SPIMaster.c **** }
 104              		.loc 1 102 0
 105 003a 0A4B     		ldr	r3, .L11+24
 101:.\Generated_Source\PSoC5/SDSPI_SPIMaster.c ****     SDSPI_SPIMaster_RX_STATUS_MASK_REG = SDSPI_SPIMaster_RX_INIT_INTERRUPTS_MASK;
 106              		.loc 1 101 0
 107 003c 0220     		movs	r0, #2
 102:.\Generated_Source\PSoC5/SDSPI_SPIMaster.c **** }
 108              		.loc 1 102 0
 109 003e 2022     		movs	r2, #32
 110              	.LBB50:
 111              	.LBB44:
 401:.\Generated_Source\PSoC5/SDSPI_SPIMaster.c **** 
 112              		.loc 1 401 0
 113 0040 2D78     		ldrb	r5, [r5]	@ zero_extendqisi2
 114              	.LVL2:
 115              	.LBE44:
 116              	.LBE50:
ARM GAS  C:\Users\honet\AppData\Local\Temp\ccwozZGh.s 			page 21


 117              	.LBB51:
 118              	.LBB48:
 452:.\Generated_Source\PSoC5/SDSPI_SPIMaster.c **** 
 119              		.loc 1 452 0
 120 0042 2478     		ldrb	r4, [r4]	@ zero_extendqisi2
 121              	.LVL3:
 122              	.LBE48:
 123              	.LBE51:
 101:.\Generated_Source\PSoC5/SDSPI_SPIMaster.c ****     SDSPI_SPIMaster_RX_STATUS_MASK_REG = SDSPI_SPIMaster_RX_INIT_INTERRUPTS_MASK;
 124              		.loc 1 101 0
 125 0044 0870     		strb	r0, [r1]
 102:.\Generated_Source\PSoC5/SDSPI_SPIMaster.c **** }
 126              		.loc 1 102 0
 127 0046 1A70     		strb	r2, [r3]
 128 0048 38BD     		pop	{r3, r4, r5, pc}
 129              	.L12:
 130 004a 00BF     		.align	2
 131              	.L11:
 132 004c 8E640040 		.word	1073767566
 133 0050 6D640040 		.word	1073767533
 134 0054 5E640040 		.word	1073767518
 135 0058 9E640040 		.word	1073767582
 136 005c 6F640040 		.word	1073767535
 137 0060 8F640040 		.word	1073767567
 138 0064 8D640040 		.word	1073767565
 139              		.cfi_endproc
 140              	.LFE0:
 141              		.size	SDSPI_SPIMaster_Init, .-SDSPI_SPIMaster_Init
 142              		.section	.text.SDSPI_SPIMaster_Enable,"ax",%progbits
 143              		.align	2
 144              		.global	SDSPI_SPIMaster_Enable
 145              		.thumb
 146              		.thumb_func
 147              		.type	SDSPI_SPIMaster_Enable, %function
 148              	SDSPI_SPIMaster_Enable:
 149              	.LFB1:
 121:.\Generated_Source\PSoC5/SDSPI_SPIMaster.c ****     uint8 enableInterrupts;
 150              		.loc 1 121 0
 151              		.cfi_startproc
 152              		@ args = 0, pretend = 0, frame = 0
 153              		@ frame_needed = 0, uses_anonymous_args = 0
 154 0000 10B5     		push	{r4, lr}
 155              		.cfi_def_cfa_offset 8
 156              		.cfi_offset 4, -8
 157              		.cfi_offset 14, -4
 125:.\Generated_Source\PSoC5/SDSPI_SPIMaster.c ****     SDSPI_SPIMaster_TX_STATUS_ACTL_REG  |= SDSPI_SPIMaster_INT_ENABLE;
 158              		.loc 1 125 0
 159 0002 0A4C     		ldr	r4, .L15
 124:.\Generated_Source\PSoC5/SDSPI_SPIMaster.c ****     SDSPI_SPIMaster_COUNTER_CONTROL_REG |= SDSPI_SPIMaster_CNTR_ENABLE;
 160              		.loc 1 124 0
 161 0004 FFF7FEFF 		bl	CyEnterCriticalSection
 162              	.LVL4:
 125:.\Generated_Source\PSoC5/SDSPI_SPIMaster.c ****     SDSPI_SPIMaster_TX_STATUS_ACTL_REG  |= SDSPI_SPIMaster_INT_ENABLE;
 163              		.loc 1 125 0
 164 0008 2378     		ldrb	r3, [r4]	@ zero_extendqisi2
 126:.\Generated_Source\PSoC5/SDSPI_SPIMaster.c ****     SDSPI_SPIMaster_RX_STATUS_ACTL_REG  |= SDSPI_SPIMaster_INT_ENABLE;
 165              		.loc 1 126 0
ARM GAS  C:\Users\honet\AppData\Local\Temp\ccwozZGh.s 			page 22


 166 000a 0949     		ldr	r1, .L15+4
 125:.\Generated_Source\PSoC5/SDSPI_SPIMaster.c ****     SDSPI_SPIMaster_TX_STATUS_ACTL_REG  |= SDSPI_SPIMaster_INT_ENABLE;
 167              		.loc 1 125 0
 168 000c 43F02003 		orr	r3, r3, #32
 169 0010 2370     		strb	r3, [r4]
 126:.\Generated_Source\PSoC5/SDSPI_SPIMaster.c ****     SDSPI_SPIMaster_RX_STATUS_ACTL_REG  |= SDSPI_SPIMaster_INT_ENABLE;
 170              		.loc 1 126 0
 171 0012 0B78     		ldrb	r3, [r1]	@ zero_extendqisi2
 127:.\Generated_Source\PSoC5/SDSPI_SPIMaster.c ****     CyExitCriticalSection(enableInterrupts);
 172              		.loc 1 127 0
 173 0014 074A     		ldr	r2, .L15+8
 126:.\Generated_Source\PSoC5/SDSPI_SPIMaster.c ****     SDSPI_SPIMaster_RX_STATUS_ACTL_REG  |= SDSPI_SPIMaster_INT_ENABLE;
 174              		.loc 1 126 0
 175 0016 43F01003 		orr	r3, r3, #16
 176 001a 0B70     		strb	r3, [r1]
 127:.\Generated_Source\PSoC5/SDSPI_SPIMaster.c ****     CyExitCriticalSection(enableInterrupts);
 177              		.loc 1 127 0
 178 001c 1378     		ldrb	r3, [r2]	@ zero_extendqisi2
 179 001e 43F01003 		orr	r3, r3, #16
 180 0022 1370     		strb	r3, [r2]
 136:.\Generated_Source\PSoC5/SDSPI_SPIMaster.c **** 
 181              		.loc 1 136 0
 182 0024 BDE81040 		pop	{r4, lr}
 183              		.cfi_restore 14
 184              		.cfi_restore 4
 185              		.cfi_def_cfa_offset 0
 128:.\Generated_Source\PSoC5/SDSPI_SPIMaster.c **** 
 186              		.loc 1 128 0
 187 0028 FFF7FEBF 		b	CyExitCriticalSection
 188              	.LVL5:
 189              	.L16:
 190              		.align	2
 191              	.L15:
 192 002c 9E640040 		.word	1073767582
 193 0030 9F640040 		.word	1073767583
 194 0034 9D640040 		.word	1073767581
 195              		.cfi_endproc
 196              	.LFE1:
 197              		.size	SDSPI_SPIMaster_Enable, .-SDSPI_SPIMaster_Enable
 198              		.section	.text.SDSPI_SPIMaster_Start,"ax",%progbits
 199              		.align	2
 200              		.global	SDSPI_SPIMaster_Start
 201              		.thumb
 202              		.thumb_func
 203              		.type	SDSPI_SPIMaster_Start, %function
 204              	SDSPI_SPIMaster_Start:
 205              	.LFB2:
 164:.\Generated_Source\PSoC5/SDSPI_SPIMaster.c ****     if(0u == SDSPI_SPIMaster_initVar)
 206              		.loc 1 164 0
 207              		.cfi_startproc
 208              		@ args = 0, pretend = 0, frame = 0
 209              		@ frame_needed = 0, uses_anonymous_args = 0
 210 0000 F8B5     		push	{r3, r4, r5, r6, r7, lr}
 211              		.cfi_def_cfa_offset 24
 212              		.cfi_offset 3, -24
 213              		.cfi_offset 4, -20
 214              		.cfi_offset 5, -16
ARM GAS  C:\Users\honet\AppData\Local\Temp\ccwozZGh.s 			page 23


 215              		.cfi_offset 6, -12
 216              		.cfi_offset 7, -8
 217              		.cfi_offset 14, -4
 165:.\Generated_Source\PSoC5/SDSPI_SPIMaster.c ****     {
 218              		.loc 1 165 0
 219 0002 1F4C     		ldr	r4, .L28
 220 0004 2378     		ldrb	r3, [r4]	@ zero_extendqisi2
 221 0006 A3B1     		cbz	r3, .L27
 222              	.L18:
 223              	.LBB62:
 224              	.LBB63:
 125:.\Generated_Source\PSoC5/SDSPI_SPIMaster.c ****     SDSPI_SPIMaster_TX_STATUS_ACTL_REG  |= SDSPI_SPIMaster_INT_ENABLE;
 225              		.loc 1 125 0
 226 0008 1E4C     		ldr	r4, .L28+4
 124:.\Generated_Source\PSoC5/SDSPI_SPIMaster.c ****     SDSPI_SPIMaster_COUNTER_CONTROL_REG |= SDSPI_SPIMaster_CNTR_ENABLE;
 227              		.loc 1 124 0
 228 000a FFF7FEFF 		bl	CyEnterCriticalSection
 229              	.LVL6:
 125:.\Generated_Source\PSoC5/SDSPI_SPIMaster.c ****     SDSPI_SPIMaster_TX_STATUS_ACTL_REG  |= SDSPI_SPIMaster_INT_ENABLE;
 230              		.loc 1 125 0
 231 000e 2378     		ldrb	r3, [r4]	@ zero_extendqisi2
 126:.\Generated_Source\PSoC5/SDSPI_SPIMaster.c ****     SDSPI_SPIMaster_RX_STATUS_ACTL_REG  |= SDSPI_SPIMaster_INT_ENABLE;
 232              		.loc 1 126 0
 233 0010 1D49     		ldr	r1, .L28+8
 125:.\Generated_Source\PSoC5/SDSPI_SPIMaster.c ****     SDSPI_SPIMaster_TX_STATUS_ACTL_REG  |= SDSPI_SPIMaster_INT_ENABLE;
 234              		.loc 1 125 0
 235 0012 43F02003 		orr	r3, r3, #32
 236 0016 2370     		strb	r3, [r4]
 126:.\Generated_Source\PSoC5/SDSPI_SPIMaster.c ****     SDSPI_SPIMaster_RX_STATUS_ACTL_REG  |= SDSPI_SPIMaster_INT_ENABLE;
 237              		.loc 1 126 0
 238 0018 0B78     		ldrb	r3, [r1]	@ zero_extendqisi2
 127:.\Generated_Source\PSoC5/SDSPI_SPIMaster.c ****     CyExitCriticalSection(enableInterrupts);
 239              		.loc 1 127 0
 240 001a 1C4A     		ldr	r2, .L28+12
 126:.\Generated_Source\PSoC5/SDSPI_SPIMaster.c ****     SDSPI_SPIMaster_RX_STATUS_ACTL_REG  |= SDSPI_SPIMaster_INT_ENABLE;
 241              		.loc 1 126 0
 242 001c 43F01003 		orr	r3, r3, #16
 243 0020 0B70     		strb	r3, [r1]
 127:.\Generated_Source\PSoC5/SDSPI_SPIMaster.c ****     CyExitCriticalSection(enableInterrupts);
 244              		.loc 1 127 0
 245 0022 1378     		ldrb	r3, [r2]	@ zero_extendqisi2
 246 0024 43F01003 		orr	r3, r3, #16
 247 0028 1370     		strb	r3, [r2]
 248              	.LBE63:
 249              	.LBE62:
 172:.\Generated_Source\PSoC5/SDSPI_SPIMaster.c **** 
 250              		.loc 1 172 0
 251 002a BDE8F840 		pop	{r3, r4, r5, r6, r7, lr}
 252              		.cfi_remember_state
 253              		.cfi_restore 14
 254              		.cfi_restore 7
 255              		.cfi_restore 6
 256              		.cfi_restore 5
 257              		.cfi_restore 4
 258              		.cfi_restore 3
 259              		.cfi_def_cfa_offset 0
 260              	.LBB65:
ARM GAS  C:\Users\honet\AppData\Local\Temp\ccwozZGh.s 			page 24


 261              	.LBB64:
 128:.\Generated_Source\PSoC5/SDSPI_SPIMaster.c **** 
 262              		.loc 1 128 0
 263 002e FFF7FEBF 		b	CyExitCriticalSection
 264              	.LVL7:
 265              	.L27:
 266              		.cfi_restore_state
 267              	.LBE64:
 268              	.LBE65:
 269              	.LBB66:
 270              	.LBB67:
  66:.\Generated_Source\PSoC5/SDSPI_SPIMaster.c **** 
 271              		.loc 1 66 0
 272 0032 174B     		ldr	r3, .L28+16
 273 0034 0F21     		movs	r1, #15
 274              	.LBB68:
 275              	.LBB69:
1000:.\Generated_Source\PSoC5/SDSPI_SPIMaster.c ****     {
 276              		.loc 1 1000 0
 277 0036 174A     		ldr	r2, .L28+20
 278              	.LBE69:
 279              	.LBE68:
  66:.\Generated_Source\PSoC5/SDSPI_SPIMaster.c **** 
 280              		.loc 1 66 0
 281 0038 1970     		strb	r1, [r3]
 282              	.LBB74:
 283              	.LBB70:
1000:.\Generated_Source\PSoC5/SDSPI_SPIMaster.c ****     {
 284              		.loc 1 1000 0
 285 003a 1378     		ldrb	r3, [r2]	@ zero_extendqisi2
 286 003c 9906     		lsls	r1, r3, #26
 287 003e 04D5     		bpl	.L19
1002:.\Generated_Source\PSoC5/SDSPI_SPIMaster.c ****     }
 288              		.loc 1 1002 0
 289 0040 1549     		ldr	r1, .L28+24
 290              	.L23:
 291 0042 0B78     		ldrb	r3, [r1]	@ zero_extendqisi2
1000:.\Generated_Source\PSoC5/SDSPI_SPIMaster.c ****     {
 292              		.loc 1 1000 0
 293 0044 1378     		ldrb	r3, [r2]	@ zero_extendqisi2
 294 0046 9B06     		lsls	r3, r3, #26
 295 0048 FBD4     		bmi	.L23
 296              	.L19:
1005:.\Generated_Source\PSoC5/SDSPI_SPIMaster.c ****     /* Clear TX FIFO */
 297              		.loc 1 1005 0
 298 004a FFF7FEFF 		bl	CyEnterCriticalSection
 299              	.LVL8:
1007:.\Generated_Source\PSoC5/SDSPI_SPIMaster.c ****     SDSPI_SPIMaster_AUX_CONTROL_DP0_REG &= ((uint8) ~SDSPI_SPIMaster_TX_FIFO_CLR);
 300              		.loc 1 1007 0
 301 004e 0D4B     		ldr	r3, .L28+4
 302              	.LBE70:
 303              	.LBE74:
 304              	.LBB75:
 305              	.LBB76:
 401:.\Generated_Source\PSoC5/SDSPI_SPIMaster.c **** 
 306              		.loc 1 401 0
 307 0050 124F     		ldr	r7, .L28+28
ARM GAS  C:\Users\honet\AppData\Local\Temp\ccwozZGh.s 			page 25


 308              	.LBE76:
 309              	.LBE75:
 310              	.LBB78:
 311              	.LBB71:
1007:.\Generated_Source\PSoC5/SDSPI_SPIMaster.c ****     SDSPI_SPIMaster_AUX_CONTROL_DP0_REG &= ((uint8) ~SDSPI_SPIMaster_TX_FIFO_CLR);
 312              		.loc 1 1007 0
 313 0052 1A78     		ldrb	r2, [r3]	@ zero_extendqisi2
 314              	.LBE71:
 315              	.LBE78:
 316              	.LBB79:
 317              	.LBB80:
 452:.\Generated_Source\PSoC5/SDSPI_SPIMaster.c **** 
 318              		.loc 1 452 0
 319 0054 0F4E     		ldr	r6, .L28+20
 320              	.LBE80:
 321              	.LBE79:
 322              	.LBB82:
 323              	.LBB72:
1007:.\Generated_Source\PSoC5/SDSPI_SPIMaster.c ****     SDSPI_SPIMaster_AUX_CONTROL_DP0_REG &= ((uint8) ~SDSPI_SPIMaster_TX_FIFO_CLR);
 324              		.loc 1 1007 0
 325 0056 42F00102 		orr	r2, r2, #1
 326 005a 1A70     		strb	r2, [r3]
1008:.\Generated_Source\PSoC5/SDSPI_SPIMaster.c **** 
 327              		.loc 1 1008 0
 328 005c 1A78     		ldrb	r2, [r3]	@ zero_extendqisi2
 329              	.LBE72:
 330              	.LBE82:
 101:.\Generated_Source\PSoC5/SDSPI_SPIMaster.c ****     SDSPI_SPIMaster_RX_STATUS_MASK_REG = SDSPI_SPIMaster_RX_INIT_INTERRUPTS_MASK;
 331              		.loc 1 101 0
 332 005e 0225     		movs	r5, #2
 333              	.LBB83:
 334              	.LBB73:
1008:.\Generated_Source\PSoC5/SDSPI_SPIMaster.c **** 
 335              		.loc 1 1008 0
 336 0060 02F0FE02 		and	r2, r2, #254
 337 0064 1A70     		strb	r2, [r3]
 338              		.loc 1 1015 0
 339 0066 FFF7FEFF 		bl	CyExitCriticalSection
 340              	.LVL9:
 341              	.LBE73:
 342              	.LBE83:
 101:.\Generated_Source\PSoC5/SDSPI_SPIMaster.c ****     SDSPI_SPIMaster_RX_STATUS_MASK_REG = SDSPI_SPIMaster_RX_INIT_INTERRUPTS_MASK;
 343              		.loc 1 101 0
 344 006a 0D48     		ldr	r0, .L28+32
 102:.\Generated_Source\PSoC5/SDSPI_SPIMaster.c **** }
 345              		.loc 1 102 0
 346 006c 0D4A     		ldr	r2, .L28+36
 347 006e 2021     		movs	r1, #32
 348              	.LBE67:
 349              	.LBE66:
 168:.\Generated_Source\PSoC5/SDSPI_SPIMaster.c ****     }
 350              		.loc 1 168 0
 351 0070 0123     		movs	r3, #1
 352              	.LBB87:
 353              	.LBB86:
 354              	.LBB84:
 355              	.LBB77:
ARM GAS  C:\Users\honet\AppData\Local\Temp\ccwozZGh.s 			page 26


 401:.\Generated_Source\PSoC5/SDSPI_SPIMaster.c **** 
 356              		.loc 1 401 0
 357 0072 3F78     		ldrb	r7, [r7]	@ zero_extendqisi2
 358              	.LVL10:
 359              	.LBE77:
 360              	.LBE84:
 361              	.LBB85:
 362              	.LBB81:
 452:.\Generated_Source\PSoC5/SDSPI_SPIMaster.c **** 
 363              		.loc 1 452 0
 364 0074 3678     		ldrb	r6, [r6]	@ zero_extendqisi2
 365              	.LVL11:
 366              	.LBE81:
 367              	.LBE85:
 101:.\Generated_Source\PSoC5/SDSPI_SPIMaster.c ****     SDSPI_SPIMaster_RX_STATUS_MASK_REG = SDSPI_SPIMaster_RX_INIT_INTERRUPTS_MASK;
 368              		.loc 1 101 0
 369 0076 0570     		strb	r5, [r0]
 102:.\Generated_Source\PSoC5/SDSPI_SPIMaster.c **** }
 370              		.loc 1 102 0
 371 0078 1170     		strb	r1, [r2]
 372              	.LBE86:
 373              	.LBE87:
 168:.\Generated_Source\PSoC5/SDSPI_SPIMaster.c ****     }
 374              		.loc 1 168 0
 375 007a 2370     		strb	r3, [r4]
 376 007c C4E7     		b	.L18
 377              	.L29:
 378 007e 00BF     		.align	2
 379              	.L28:
 380 0080 00000000 		.word	.LANCHOR0
 381 0084 9E640040 		.word	1073767582
 382 0088 9F640040 		.word	1073767583
 383 008c 9D640040 		.word	1073767581
 384 0090 8E640040 		.word	1073767566
 385 0094 6D640040 		.word	1073767533
 386 0098 5E640040 		.word	1073767518
 387 009c 6F640040 		.word	1073767535
 388 00a0 8F640040 		.word	1073767567
 389 00a4 8D640040 		.word	1073767565
 390              		.cfi_endproc
 391              	.LFE2:
 392              		.size	SDSPI_SPIMaster_Start, .-SDSPI_SPIMaster_Start
 393              		.section	.text.SDSPI_SPIMaster_Stop,"ax",%progbits
 394              		.align	2
 395              		.global	SDSPI_SPIMaster_Stop
 396              		.thumb
 397              		.thumb_func
 398              		.type	SDSPI_SPIMaster_Stop, %function
 399              	SDSPI_SPIMaster_Stop:
 400              	.LFB3:
 193:.\Generated_Source\PSoC5/SDSPI_SPIMaster.c ****     uint8 enableInterrupts;
 401              		.loc 1 193 0
 402              		.cfi_startproc
 403              		@ args = 0, pretend = 0, frame = 0
 404              		@ frame_needed = 0, uses_anonymous_args = 0
 405 0000 08B5     		push	{r3, lr}
 406              		.cfi_def_cfa_offset 8
ARM GAS  C:\Users\honet\AppData\Local\Temp\ccwozZGh.s 			page 27


 407              		.cfi_offset 3, -8
 408              		.cfi_offset 14, -4
 196:.\Generated_Source\PSoC5/SDSPI_SPIMaster.c ****     SDSPI_SPIMaster_TX_STATUS_ACTL_REG &= ((uint8) ~SDSPI_SPIMaster_INT_ENABLE);
 409              		.loc 1 196 0
 410 0002 FFF7FEFF 		bl	CyEnterCriticalSection
 411              	.LVL12:
 197:.\Generated_Source\PSoC5/SDSPI_SPIMaster.c ****     SDSPI_SPIMaster_RX_STATUS_ACTL_REG &= ((uint8) ~SDSPI_SPIMaster_INT_ENABLE);
 412              		.loc 1 197 0
 413 0006 0749     		ldr	r1, .L32
 198:.\Generated_Source\PSoC5/SDSPI_SPIMaster.c ****     CyExitCriticalSection(enableInterrupts);
 414              		.loc 1 198 0
 415 0008 074A     		ldr	r2, .L32+4
 197:.\Generated_Source\PSoC5/SDSPI_SPIMaster.c ****     SDSPI_SPIMaster_RX_STATUS_ACTL_REG &= ((uint8) ~SDSPI_SPIMaster_INT_ENABLE);
 416              		.loc 1 197 0
 417 000a 0B78     		ldrb	r3, [r1]	@ zero_extendqisi2
 418 000c 03F0EF03 		and	r3, r3, #239
 419 0010 0B70     		strb	r3, [r1]
 198:.\Generated_Source\PSoC5/SDSPI_SPIMaster.c ****     CyExitCriticalSection(enableInterrupts);
 420              		.loc 1 198 0
 421 0012 1378     		ldrb	r3, [r2]	@ zero_extendqisi2
 422 0014 03F0EF03 		and	r3, r3, #239
 423 0018 1370     		strb	r3, [r2]
 207:.\Generated_Source\PSoC5/SDSPI_SPIMaster.c **** 
 424              		.loc 1 207 0
 425 001a BDE80840 		pop	{r3, lr}
 426              		.cfi_restore 14
 427              		.cfi_restore 3
 428              		.cfi_def_cfa_offset 0
 199:.\Generated_Source\PSoC5/SDSPI_SPIMaster.c **** 
 429              		.loc 1 199 0
 430 001e FFF7FEBF 		b	CyExitCriticalSection
 431              	.LVL13:
 432              	.L33:
 433 0022 00BF     		.align	2
 434              	.L32:
 435 0024 9F640040 		.word	1073767583
 436 0028 9D640040 		.word	1073767581
 437              		.cfi_endproc
 438              	.LFE3:
 439              		.size	SDSPI_SPIMaster_Stop, .-SDSPI_SPIMaster_Stop
 440              		.section	.text.SDSPI_SPIMaster_EnableTxInt,"ax",%progbits
 441              		.align	2
 442              		.global	SDSPI_SPIMaster_EnableTxInt
 443              		.thumb
 444              		.thumb_func
 445              		.type	SDSPI_SPIMaster_EnableTxInt, %function
 446              	SDSPI_SPIMaster_EnableTxInt:
 447              	.LFB4:
 228:.\Generated_Source\PSoC5/SDSPI_SPIMaster.c ****     #if(0u != SDSPI_SPIMaster_INTERNAL_TX_INT_ENABLED)
 448              		.loc 1 228 0
 449              		.cfi_startproc
 450              		@ args = 0, pretend = 0, frame = 0
 451              		@ frame_needed = 0, uses_anonymous_args = 0
 452              		@ link register save eliminated.
 453 0000 7047     		bx	lr
 454              		.cfi_endproc
 455              	.LFE4:
ARM GAS  C:\Users\honet\AppData\Local\Temp\ccwozZGh.s 			page 28


 456              		.size	SDSPI_SPIMaster_EnableTxInt, .-SDSPI_SPIMaster_EnableTxInt
 457 0002 00BF     		.section	.text.SDSPI_SPIMaster_EnableRxInt,"ax",%progbits
 458              		.align	2
 459              		.global	SDSPI_SPIMaster_EnableRxInt
 460              		.thumb
 461              		.thumb_func
 462              		.type	SDSPI_SPIMaster_EnableRxInt, %function
 463              	SDSPI_SPIMaster_EnableRxInt:
 464              	.LFB5:
 253:.\Generated_Source\PSoC5/SDSPI_SPIMaster.c ****     #if(0u != SDSPI_SPIMaster_INTERNAL_RX_INT_ENABLED)
 465              		.loc 1 253 0
 466              		.cfi_startproc
 467              		@ args = 0, pretend = 0, frame = 0
 468              		@ frame_needed = 0, uses_anonymous_args = 0
 469              		@ link register save eliminated.
 470 0000 7047     		bx	lr
 471              		.cfi_endproc
 472              	.LFE5:
 473              		.size	SDSPI_SPIMaster_EnableRxInt, .-SDSPI_SPIMaster_EnableRxInt
 474 0002 00BF     		.section	.text.SDSPI_SPIMaster_DisableTxInt,"ax",%progbits
 475              		.align	2
 476              		.global	SDSPI_SPIMaster_DisableTxInt
 477              		.thumb
 478              		.thumb_func
 479              		.type	SDSPI_SPIMaster_DisableTxInt, %function
 480              	SDSPI_SPIMaster_DisableTxInt:
 481              	.LFB6:
 278:.\Generated_Source\PSoC5/SDSPI_SPIMaster.c ****     #if(0u != SDSPI_SPIMaster_INTERNAL_TX_INT_ENABLED)
 482              		.loc 1 278 0
 483              		.cfi_startproc
 484              		@ args = 0, pretend = 0, frame = 0
 485              		@ frame_needed = 0, uses_anonymous_args = 0
 486              		@ link register save eliminated.
 487 0000 7047     		bx	lr
 488              		.cfi_endproc
 489              	.LFE6:
 490              		.size	SDSPI_SPIMaster_DisableTxInt, .-SDSPI_SPIMaster_DisableTxInt
 491 0002 00BF     		.section	.text.SDSPI_SPIMaster_DisableRxInt,"ax",%progbits
 492              		.align	2
 493              		.global	SDSPI_SPIMaster_DisableRxInt
 494              		.thumb
 495              		.thumb_func
 496              		.type	SDSPI_SPIMaster_DisableRxInt, %function
 497              	SDSPI_SPIMaster_DisableRxInt:
 498              	.LFB7:
 303:.\Generated_Source\PSoC5/SDSPI_SPIMaster.c ****     #if(0u != SDSPI_SPIMaster_INTERNAL_RX_INT_ENABLED)
 499              		.loc 1 303 0
 500              		.cfi_startproc
 501              		@ args = 0, pretend = 0, frame = 0
 502              		@ frame_needed = 0, uses_anonymous_args = 0
 503              		@ link register save eliminated.
 504 0000 7047     		bx	lr
 505              		.cfi_endproc
 506              	.LFE7:
 507              		.size	SDSPI_SPIMaster_DisableRxInt, .-SDSPI_SPIMaster_DisableRxInt
 508 0002 00BF     		.section	.text.SDSPI_SPIMaster_SetTxInterruptMode,"ax",%progbits
 509              		.align	2
ARM GAS  C:\Users\honet\AppData\Local\Temp\ccwozZGh.s 			page 29


 510              		.global	SDSPI_SPIMaster_SetTxInterruptMode
 511              		.thumb
 512              		.thumb_func
 513              		.type	SDSPI_SPIMaster_SetTxInterruptMode, %function
 514              	SDSPI_SPIMaster_SetTxInterruptMode:
 515              	.LFB8:
 329:.\Generated_Source\PSoC5/SDSPI_SPIMaster.c ****     SDSPI_SPIMaster_TX_STATUS_MASK_REG = intSrc;
 516              		.loc 1 329 0
 517              		.cfi_startproc
 518              		@ args = 0, pretend = 0, frame = 0
 519              		@ frame_needed = 0, uses_anonymous_args = 0
 520              		@ link register save eliminated.
 521              	.LVL14:
 330:.\Generated_Source\PSoC5/SDSPI_SPIMaster.c **** }
 522              		.loc 1 330 0
 523 0000 014B     		ldr	r3, .L39
 524 0002 1870     		strb	r0, [r3]
 525 0004 7047     		bx	lr
 526              	.L40:
 527 0006 00BF     		.align	2
 528              	.L39:
 529 0008 8F640040 		.word	1073767567
 530              		.cfi_endproc
 531              	.LFE8:
 532              		.size	SDSPI_SPIMaster_SetTxInterruptMode, .-SDSPI_SPIMaster_SetTxInterruptMode
 533              		.section	.text.SDSPI_SPIMaster_SetRxInterruptMode,"ax",%progbits
 534              		.align	2
 535              		.global	SDSPI_SPIMaster_SetRxInterruptMode
 536              		.thumb
 537              		.thumb_func
 538              		.type	SDSPI_SPIMaster_SetRxInterruptMode, %function
 539              	SDSPI_SPIMaster_SetRxInterruptMode:
 540              	.LFB9:
 353:.\Generated_Source\PSoC5/SDSPI_SPIMaster.c ****     SDSPI_SPIMaster_RX_STATUS_MASK_REG  = intSrc;
 541              		.loc 1 353 0
 542              		.cfi_startproc
 543              		@ args = 0, pretend = 0, frame = 0
 544              		@ frame_needed = 0, uses_anonymous_args = 0
 545              		@ link register save eliminated.
 546              	.LVL15:
 354:.\Generated_Source\PSoC5/SDSPI_SPIMaster.c **** }
 547              		.loc 1 354 0
 548 0000 014B     		ldr	r3, .L42
 549 0002 1870     		strb	r0, [r3]
 550 0004 7047     		bx	lr
 551              	.L43:
 552 0006 00BF     		.align	2
 553              	.L42:
 554 0008 8D640040 		.word	1073767565
 555              		.cfi_endproc
 556              	.LFE9:
 557              		.size	SDSPI_SPIMaster_SetRxInterruptMode, .-SDSPI_SPIMaster_SetRxInterruptMode
 558              		.section	.text.SDSPI_SPIMaster_ReadTxStatus,"ax",%progbits
 559              		.align	2
 560              		.global	SDSPI_SPIMaster_ReadTxStatus
 561              		.thumb
 562              		.thumb_func
ARM GAS  C:\Users\honet\AppData\Local\Temp\ccwozZGh.s 			page 30


 563              		.type	SDSPI_SPIMaster_ReadTxStatus, %function
 564              	SDSPI_SPIMaster_ReadTxStatus:
 565              	.LFB10:
 387:.\Generated_Source\PSoC5/SDSPI_SPIMaster.c ****     uint8 tmpStatus;
 566              		.loc 1 387 0
 567              		.cfi_startproc
 568              		@ args = 0, pretend = 0, frame = 0
 569              		@ frame_needed = 0, uses_anonymous_args = 0
 570              		@ link register save eliminated.
 401:.\Generated_Source\PSoC5/SDSPI_SPIMaster.c **** 
 571              		.loc 1 401 0
 572 0000 014B     		ldr	r3, .L45
 573 0002 1878     		ldrb	r0, [r3]	@ zero_extendqisi2
 574              	.LVL16:
 406:.\Generated_Source\PSoC5/SDSPI_SPIMaster.c **** 
 575              		.loc 1 406 0
 576 0004 7047     		bx	lr
 577              	.L46:
 578 0006 00BF     		.align	2
 579              	.L45:
 580 0008 6F640040 		.word	1073767535
 581              		.cfi_endproc
 582              	.LFE10:
 583              		.size	SDSPI_SPIMaster_ReadTxStatus, .-SDSPI_SPIMaster_ReadTxStatus
 584              		.section	.text.SDSPI_SPIMaster_ReadRxStatus,"ax",%progbits
 585              		.align	2
 586              		.global	SDSPI_SPIMaster_ReadRxStatus
 587              		.thumb
 588              		.thumb_func
 589              		.type	SDSPI_SPIMaster_ReadRxStatus, %function
 590              	SDSPI_SPIMaster_ReadRxStatus:
 591              	.LFB11:
 438:.\Generated_Source\PSoC5/SDSPI_SPIMaster.c ****     uint8 tmpStatus;
 592              		.loc 1 438 0
 593              		.cfi_startproc
 594              		@ args = 0, pretend = 0, frame = 0
 595              		@ frame_needed = 0, uses_anonymous_args = 0
 596              		@ link register save eliminated.
 452:.\Generated_Source\PSoC5/SDSPI_SPIMaster.c **** 
 597              		.loc 1 452 0
 598 0000 014B     		ldr	r3, .L48
 599 0002 1878     		ldrb	r0, [r3]	@ zero_extendqisi2
 600              	.LVL17:
 457:.\Generated_Source\PSoC5/SDSPI_SPIMaster.c **** 
 601              		.loc 1 457 0
 602 0004 7047     		bx	lr
 603              	.L49:
 604 0006 00BF     		.align	2
 605              	.L48:
 606 0008 6D640040 		.word	1073767533
 607              		.cfi_endproc
 608              	.LFE11:
 609              		.size	SDSPI_SPIMaster_ReadRxStatus, .-SDSPI_SPIMaster_ReadRxStatus
 610              		.section	.text.SDSPI_SPIMaster_WriteTxData,"ax",%progbits
 611              		.align	2
 612              		.global	SDSPI_SPIMaster_WriteTxData
 613              		.thumb
ARM GAS  C:\Users\honet\AppData\Local\Temp\ccwozZGh.s 			page 31


 614              		.thumb_func
 615              		.type	SDSPI_SPIMaster_WriteTxData, %function
 616              	SDSPI_SPIMaster_WriteTxData:
 617              	.LFB12:
 495:.\Generated_Source\PSoC5/SDSPI_SPIMaster.c ****     #if(SDSPI_SPIMaster_TX_SOFTWARE_BUF_ENABLED)
 618              		.loc 1 495 0
 619              		.cfi_startproc
 620              		@ args = 0, pretend = 0, frame = 0
 621              		@ frame_needed = 0, uses_anonymous_args = 0
 622              		@ link register save eliminated.
 623              	.LVL18:
 557:.\Generated_Source\PSoC5/SDSPI_SPIMaster.c ****         {
 624              		.loc 1 557 0
 625 0000 034A     		ldr	r2, .L54
 626              	.L51:
 557:.\Generated_Source\PSoC5/SDSPI_SPIMaster.c ****         {
 627              		.loc 1 557 0 is_stmt 0 discriminator 1
 628 0002 1378     		ldrb	r3, [r2]	@ zero_extendqisi2
 629 0004 5B07     		lsls	r3, r3, #29
 630 0006 FCD5     		bpl	.L51
 562:.\Generated_Source\PSoC5/SDSPI_SPIMaster.c **** 
 631              		.loc 1 562 0 is_stmt 1
 632 0008 024B     		ldr	r3, .L54+4
 633 000a 1870     		strb	r0, [r3]
 634 000c 7047     		bx	lr
 635              	.L55:
 636 000e 00BF     		.align	2
 637              	.L54:
 638 0010 6F640040 		.word	1073767535
 639 0014 4E640040 		.word	1073767502
 640              		.cfi_endproc
 641              	.LFE12:
 642              		.size	SDSPI_SPIMaster_WriteTxData, .-SDSPI_SPIMaster_WriteTxData
 643              		.section	.text.SDSPI_SPIMaster_ReadRxData,"ax",%progbits
 644              		.align	2
 645              		.global	SDSPI_SPIMaster_ReadRxData
 646              		.thumb
 647              		.thumb_func
 648              		.type	SDSPI_SPIMaster_ReadRxData, %function
 649              	SDSPI_SPIMaster_ReadRxData:
 650              	.LFB13:
 603:.\Generated_Source\PSoC5/SDSPI_SPIMaster.c ****     uint8 rxData;
 651              		.loc 1 603 0
 652              		.cfi_startproc
 653              		@ args = 0, pretend = 0, frame = 0
 654              		@ frame_needed = 0, uses_anonymous_args = 0
 655              		@ link register save eliminated.
 633:.\Generated_Source\PSoC5/SDSPI_SPIMaster.c **** 
 656              		.loc 1 633 0
 657 0000 014B     		ldr	r3, .L57
 658 0002 1878     		ldrb	r0, [r3]	@ zero_extendqisi2
 659              	.LVL19:
 638:.\Generated_Source\PSoC5/SDSPI_SPIMaster.c **** 
 660              		.loc 1 638 0
 661 0004 7047     		bx	lr
 662              	.L58:
 663 0006 00BF     		.align	2
ARM GAS  C:\Users\honet\AppData\Local\Temp\ccwozZGh.s 			page 32


 664              	.L57:
 665 0008 5E640040 		.word	1073767518
 666              		.cfi_endproc
 667              	.LFE13:
 668              		.size	SDSPI_SPIMaster_ReadRxData, .-SDSPI_SPIMaster_ReadRxData
 669              		.section	.text.SDSPI_SPIMaster_GetRxBufferSize,"ax",%progbits
 670              		.align	2
 671              		.global	SDSPI_SPIMaster_GetRxBufferSize
 672              		.thumb
 673              		.thumb_func
 674              		.type	SDSPI_SPIMaster_GetRxBufferSize, %function
 675              	SDSPI_SPIMaster_GetRxBufferSize:
 676              	.LFB14:
 667:.\Generated_Source\PSoC5/SDSPI_SPIMaster.c ****     uint8 size;
 677              		.loc 1 667 0
 678              		.cfi_startproc
 679              		@ args = 0, pretend = 0, frame = 0
 680              		@ frame_needed = 0, uses_anonymous_args = 0
 681              		@ link register save eliminated.
 693:.\Generated_Source\PSoC5/SDSPI_SPIMaster.c **** 
 682              		.loc 1 693 0
 683 0000 024B     		ldr	r3, .L60
 684 0002 1878     		ldrb	r0, [r3]	@ zero_extendqisi2
 685              	.LVL20:
 698:.\Generated_Source\PSoC5/SDSPI_SPIMaster.c **** 
 686              		.loc 1 698 0
 687 0004 C0F34010 		ubfx	r0, r0, #5, #1
 688              	.LVL21:
 689 0008 7047     		bx	lr
 690              	.L61:
 691 000a 00BF     		.align	2
 692              	.L60:
 693 000c 6D640040 		.word	1073767533
 694              		.cfi_endproc
 695              	.LFE14:
 696              		.size	SDSPI_SPIMaster_GetRxBufferSize, .-SDSPI_SPIMaster_GetRxBufferSize
 697              		.section	.text.SDSPI_SPIMaster_GetTxBufferSize,"ax",%progbits
 698              		.align	2
 699              		.global	SDSPI_SPIMaster_GetTxBufferSize
 700              		.thumb
 701              		.thumb_func
 702              		.type	SDSPI_SPIMaster_GetTxBufferSize, %function
 703              	SDSPI_SPIMaster_GetTxBufferSize:
 704              	.LFB15:
 728:.\Generated_Source\PSoC5/SDSPI_SPIMaster.c ****     uint8 size;
 705              		.loc 1 728 0
 706              		.cfi_startproc
 707              		@ args = 0, pretend = 0, frame = 0
 708              		@ frame_needed = 0, uses_anonymous_args = 0
 709              		@ link register save eliminated.
 752:.\Generated_Source\PSoC5/SDSPI_SPIMaster.c **** 
 710              		.loc 1 752 0
 711 0000 064B     		ldr	r3, .L66
 712 0002 1B78     		ldrb	r3, [r3]	@ zero_extendqisi2
 713 0004 DBB2     		uxtb	r3, r3
 714              	.LVL22:
 754:.\Generated_Source\PSoC5/SDSPI_SPIMaster.c ****         {
ARM GAS  C:\Users\honet\AppData\Local\Temp\ccwozZGh.s 			page 33


 715              		.loc 1 754 0
 716 0006 9A07     		lsls	r2, r3, #30
 717 0008 05D4     		bmi	.L64
 758:.\Generated_Source\PSoC5/SDSPI_SPIMaster.c ****         {
 718              		.loc 1 758 0
 719 000a 13F0040F 		tst	r3, #4
 764:.\Generated_Source\PSoC5/SDSPI_SPIMaster.c ****         }
 720              		.loc 1 764 0
 721 000e 14BF     		ite	ne
 722 0010 0120     		movne	r0, #1
 723 0012 0420     		moveq	r0, #4
 724 0014 7047     		bx	lr
 725              	.L64:
 756:.\Generated_Source\PSoC5/SDSPI_SPIMaster.c ****         }
 726              		.loc 1 756 0
 727 0016 0020     		movs	r0, #0
 728              	.LVL23:
 770:.\Generated_Source\PSoC5/SDSPI_SPIMaster.c **** 
 729              		.loc 1 770 0
 730 0018 7047     		bx	lr
 731              	.L67:
 732 001a 00BF     		.align	2
 733              	.L66:
 734 001c 6F640040 		.word	1073767535
 735              		.cfi_endproc
 736              	.LFE15:
 737              		.size	SDSPI_SPIMaster_GetTxBufferSize, .-SDSPI_SPIMaster_GetTxBufferSize
 738              		.section	.text.SDSPI_SPIMaster_ClearRxBuffer,"ax",%progbits
 739              		.align	2
 740              		.global	SDSPI_SPIMaster_ClearRxBuffer
 741              		.thumb
 742              		.thumb_func
 743              		.type	SDSPI_SPIMaster_ClearRxBuffer, %function
 744              	SDSPI_SPIMaster_ClearRxBuffer:
 745              	.LFB16:
 807:.\Generated_Source\PSoC5/SDSPI_SPIMaster.c ****     /* Clear Hardware RX FIFO */
 746              		.loc 1 807 0
 747              		.cfi_startproc
 748              		@ args = 0, pretend = 0, frame = 0
 749              		@ frame_needed = 0, uses_anonymous_args = 0
 750              		@ link register save eliminated.
 809:.\Generated_Source\PSoC5/SDSPI_SPIMaster.c ****     {
 751              		.loc 1 809 0
 752 0000 044A     		ldr	r2, .L76
 753 0002 1378     		ldrb	r3, [r2]	@ zero_extendqisi2
 754 0004 9906     		lsls	r1, r3, #26
 755 0006 04D5     		bpl	.L68
 811:.\Generated_Source\PSoC5/SDSPI_SPIMaster.c ****     }
 756              		.loc 1 811 0
 757 0008 0349     		ldr	r1, .L76+4
 758              	.L73:
 759 000a 0B78     		ldrb	r3, [r1]	@ zero_extendqisi2
 809:.\Generated_Source\PSoC5/SDSPI_SPIMaster.c ****     {
 760              		.loc 1 809 0
 761 000c 1378     		ldrb	r3, [r2]	@ zero_extendqisi2
 762 000e 9B06     		lsls	r3, r3, #26
 763 0010 FBD4     		bmi	.L73
ARM GAS  C:\Users\honet\AppData\Local\Temp\ccwozZGh.s 			page 34


 764              	.L68:
 765 0012 7047     		bx	lr
 766              	.L77:
 767              		.align	2
 768              	.L76:
 769 0014 6D640040 		.word	1073767533
 770 0018 5E640040 		.word	1073767518
 771              		.cfi_endproc
 772              	.LFE16:
 773              		.size	SDSPI_SPIMaster_ClearRxBuffer, .-SDSPI_SPIMaster_ClearRxBuffer
 774              		.section	.text.SDSPI_SPIMaster_ClearTxBuffer,"ax",%progbits
 775              		.align	2
 776              		.global	SDSPI_SPIMaster_ClearTxBuffer
 777              		.thumb
 778              		.thumb_func
 779              		.type	SDSPI_SPIMaster_ClearTxBuffer, %function
 780              	SDSPI_SPIMaster_ClearTxBuffer:
 781              	.LFB17:
 862:.\Generated_Source\PSoC5/SDSPI_SPIMaster.c ****     uint8 enableInterrupts;
 782              		.loc 1 862 0
 783              		.cfi_startproc
 784              		@ args = 0, pretend = 0, frame = 0
 785              		@ frame_needed = 0, uses_anonymous_args = 0
 786 0000 08B5     		push	{r3, lr}
 787              		.cfi_def_cfa_offset 8
 788              		.cfi_offset 3, -8
 789              		.cfi_offset 14, -4
 865:.\Generated_Source\PSoC5/SDSPI_SPIMaster.c ****     /* Clear TX FIFO */
 790              		.loc 1 865 0
 791 0002 FFF7FEFF 		bl	CyEnterCriticalSection
 792              	.LVL24:
 867:.\Generated_Source\PSoC5/SDSPI_SPIMaster.c ****     SDSPI_SPIMaster_AUX_CONTROL_DP0_REG &= ((uint8) ~SDSPI_SPIMaster_TX_FIFO_CLR);
 793              		.loc 1 867 0
 794 0006 064B     		ldr	r3, .L80
 795 0008 1A78     		ldrb	r2, [r3]	@ zero_extendqisi2
 796 000a 42F00102 		orr	r2, r2, #1
 797 000e 1A70     		strb	r2, [r3]
 868:.\Generated_Source\PSoC5/SDSPI_SPIMaster.c **** 
 798              		.loc 1 868 0
 799 0010 1A78     		ldrb	r2, [r3]	@ zero_extendqisi2
 800 0012 02F0FE02 		and	r2, r2, #254
 801 0016 1A70     		strb	r2, [r3]
 890:.\Generated_Source\PSoC5/SDSPI_SPIMaster.c **** 
 802              		.loc 1 890 0
 803 0018 BDE80840 		pop	{r3, lr}
 804              		.cfi_restore 14
 805              		.cfi_restore 3
 806              		.cfi_def_cfa_offset 0
 875:.\Generated_Source\PSoC5/SDSPI_SPIMaster.c **** 
 807              		.loc 1 875 0
 808 001c FFF7FEBF 		b	CyExitCriticalSection
 809              	.LVL25:
 810              	.L81:
 811              		.align	2
 812              	.L80:
 813 0020 9E640040 		.word	1073767582
 814              		.cfi_endproc
ARM GAS  C:\Users\honet\AppData\Local\Temp\ccwozZGh.s 			page 35


 815              	.LFE17:
 816              		.size	SDSPI_SPIMaster_ClearTxBuffer, .-SDSPI_SPIMaster_ClearTxBuffer
 817              		.section	.text.SDSPI_SPIMaster_PutArray,"ax",%progbits
 818              		.align	2
 819              		.global	SDSPI_SPIMaster_PutArray
 820              		.thumb
 821              		.thumb_func
 822              		.type	SDSPI_SPIMaster_PutArray, %function
 823              	SDSPI_SPIMaster_PutArray:
 824              	.LFB18:
 964:.\Generated_Source\PSoC5/SDSPI_SPIMaster.c ****     uint8 bufIndex;
 825              		.loc 1 964 0
 826              		.cfi_startproc
 827              		@ args = 0, pretend = 0, frame = 0
 828              		@ frame_needed = 0, uses_anonymous_args = 0
 829              		@ link register save eliminated.
 830              	.LVL26:
 969:.\Generated_Source\PSoC5/SDSPI_SPIMaster.c ****     {
 831              		.loc 1 969 0
 832 0000 69B1     		cbz	r1, .L92
 964:.\Generated_Source\PSoC5/SDSPI_SPIMaster.c ****     uint8 bufIndex;
 833              		.loc 1 964 0
 834 0002 70B4     		push	{r4, r5, r6}
 835              		.cfi_def_cfa_offset 12
 836              		.cfi_offset 4, -12
 837              		.cfi_offset 5, -8
 838              		.cfi_offset 6, -4
 839              	.LBB88:
 840              	.LBB89:
 557:.\Generated_Source\PSoC5/SDSPI_SPIMaster.c ****         {
 841              		.loc 1 557 0
 842 0004 064A     		ldr	r2, .L93
 562:.\Generated_Source\PSoC5/SDSPI_SPIMaster.c **** 
 843              		.loc 1 562 0
 844 0006 074E     		ldr	r6, .L93+4
 845              	.LBE89:
 846              	.LBE88:
 969:.\Generated_Source\PSoC5/SDSPI_SPIMaster.c ****     {
 847              		.loc 1 969 0
 848 0008 0024     		movs	r4, #0
 849              	.LVL27:
 850              	.L83:
 971:.\Generated_Source\PSoC5/SDSPI_SPIMaster.c ****         bufIndex++;
 851              		.loc 1 971 0
 852 000a 055D     		ldrb	r5, [r0, r4]	@ zero_extendqisi2
 853              	.LVL28:
 854              	.L84:
 855              	.LBB92:
 856              	.LBB90:
 557:.\Generated_Source\PSoC5/SDSPI_SPIMaster.c ****         {
 857              		.loc 1 557 0
 858 000c 1378     		ldrb	r3, [r2]	@ zero_extendqisi2
 859 000e 5B07     		lsls	r3, r3, #29
 860 0010 FCD5     		bpl	.L84
 861              	.LBE90:
 862              	.LBE92:
 972:.\Generated_Source\PSoC5/SDSPI_SPIMaster.c ****         byteCount--;
ARM GAS  C:\Users\honet\AppData\Local\Temp\ccwozZGh.s 			page 36


 863              		.loc 1 972 0
 864 0012 0134     		adds	r4, r4, #1
 865              	.LVL29:
 866 0014 E4B2     		uxtb	r4, r4
 867              	.LVL30:
 969:.\Generated_Source\PSoC5/SDSPI_SPIMaster.c ****     {
 868              		.loc 1 969 0
 869 0016 8C42     		cmp	r4, r1
 870              	.LBB93:
 871              	.LBB91:
 562:.\Generated_Source\PSoC5/SDSPI_SPIMaster.c **** 
 872              		.loc 1 562 0
 873 0018 3570     		strb	r5, [r6]
 874              	.LBE91:
 875              	.LBE93:
 969:.\Generated_Source\PSoC5/SDSPI_SPIMaster.c ****     {
 876              		.loc 1 969 0
 877 001a F6D1     		bne	.L83
 975:.\Generated_Source\PSoC5/SDSPI_SPIMaster.c **** 
 878              		.loc 1 975 0
 879 001c 70BC     		pop	{r4, r5, r6}
 880              		.cfi_restore 6
 881              		.cfi_restore 5
 882              		.cfi_restore 4
 883              		.cfi_def_cfa_offset 0
 884              	.LVL31:
 885              	.L92:
 886 001e 7047     		bx	lr
 887              	.L94:
 888              		.align	2
 889              	.L93:
 890 0020 6F640040 		.word	1073767535
 891 0024 4E640040 		.word	1073767502
 892              		.cfi_endproc
 893              	.LFE18:
 894              		.size	SDSPI_SPIMaster_PutArray, .-SDSPI_SPIMaster_PutArray
 895              		.section	.text.SDSPI_SPIMaster_ClearFIFO,"ax",%progbits
 896              		.align	2
 897              		.global	SDSPI_SPIMaster_ClearFIFO
 898              		.thumb
 899              		.thumb_func
 900              		.type	SDSPI_SPIMaster_ClearFIFO, %function
 901              	SDSPI_SPIMaster_ClearFIFO:
 902              	.LFB19:
 996:.\Generated_Source\PSoC5/SDSPI_SPIMaster.c ****     uint8 enableInterrupts;
 903              		.loc 1 996 0
 904              		.cfi_startproc
 905              		@ args = 0, pretend = 0, frame = 0
 906              		@ frame_needed = 0, uses_anonymous_args = 0
 907 0000 08B5     		push	{r3, lr}
 908              		.cfi_def_cfa_offset 8
 909              		.cfi_offset 3, -8
 910              		.cfi_offset 14, -4
1000:.\Generated_Source\PSoC5/SDSPI_SPIMaster.c ****     {
 911              		.loc 1 1000 0
 912 0002 0C4A     		ldr	r2, .L104
 913 0004 1378     		ldrb	r3, [r2]	@ zero_extendqisi2
ARM GAS  C:\Users\honet\AppData\Local\Temp\ccwozZGh.s 			page 37


 914 0006 9906     		lsls	r1, r3, #26
 915 0008 04D5     		bpl	.L96
1002:.\Generated_Source\PSoC5/SDSPI_SPIMaster.c ****     }
 916              		.loc 1 1002 0
 917 000a 0B49     		ldr	r1, .L104+4
 918              	.L100:
 919 000c 0B78     		ldrb	r3, [r1]	@ zero_extendqisi2
1000:.\Generated_Source\PSoC5/SDSPI_SPIMaster.c ****     {
 920              		.loc 1 1000 0
 921 000e 1378     		ldrb	r3, [r2]	@ zero_extendqisi2
 922 0010 9B06     		lsls	r3, r3, #26
 923 0012 FBD4     		bmi	.L100
 924              	.L96:
1005:.\Generated_Source\PSoC5/SDSPI_SPIMaster.c ****     /* Clear TX FIFO */
 925              		.loc 1 1005 0
 926 0014 FFF7FEFF 		bl	CyEnterCriticalSection
 927              	.LVL32:
1007:.\Generated_Source\PSoC5/SDSPI_SPIMaster.c ****     SDSPI_SPIMaster_AUX_CONTROL_DP0_REG &= ((uint8) ~SDSPI_SPIMaster_TX_FIFO_CLR);
 928              		.loc 1 1007 0
 929 0018 084B     		ldr	r3, .L104+8
 930 001a 1A78     		ldrb	r2, [r3]	@ zero_extendqisi2
 931 001c 42F00102 		orr	r2, r2, #1
 932 0020 1A70     		strb	r2, [r3]
1008:.\Generated_Source\PSoC5/SDSPI_SPIMaster.c **** 
 933              		.loc 1 1008 0
 934 0022 1A78     		ldrb	r2, [r3]	@ zero_extendqisi2
 935 0024 02F0FE02 		and	r2, r2, #254
 936 0028 1A70     		strb	r2, [r3]
1016:.\Generated_Source\PSoC5/SDSPI_SPIMaster.c **** }
 937              		.loc 1 1016 0
 938 002a BDE80840 		pop	{r3, lr}
 939              		.cfi_restore 14
 940              		.cfi_restore 3
 941              		.cfi_def_cfa_offset 0
1015:.\Generated_Source\PSoC5/SDSPI_SPIMaster.c **** }
 942              		.loc 1 1015 0
 943 002e FFF7FEBF 		b	CyExitCriticalSection
 944              	.LVL33:
 945              	.L105:
 946 0032 00BF     		.align	2
 947              	.L104:
 948 0034 6D640040 		.word	1073767533
 949 0038 5E640040 		.word	1073767518
 950 003c 9E640040 		.word	1073767582
 951              		.cfi_endproc
 952              	.LFE19:
 953              		.size	SDSPI_SPIMaster_ClearFIFO, .-SDSPI_SPIMaster_ClearFIFO
 954              		.section	.text.SDSPI_SPIMaster_EnableInt,"ax",%progbits
 955              		.align	2
 956              		.global	SDSPI_SPIMaster_EnableInt
 957              		.thumb
 958              		.thumb_func
 959              		.type	SDSPI_SPIMaster_EnableInt, %function
 960              	SDSPI_SPIMaster_EnableInt:
 961              	.LFB20:
1017:.\Generated_Source\PSoC5/SDSPI_SPIMaster.c **** 
1018:.\Generated_Source\PSoC5/SDSPI_SPIMaster.c **** 
ARM GAS  C:\Users\honet\AppData\Local\Temp\ccwozZGh.s 			page 38


1019:.\Generated_Source\PSoC5/SDSPI_SPIMaster.c **** /* Following functions are for version Compatibility, they are obsolete.
1020:.\Generated_Source\PSoC5/SDSPI_SPIMaster.c **** *  Please do not use it in new projects.
1021:.\Generated_Source\PSoC5/SDSPI_SPIMaster.c **** */
1022:.\Generated_Source\PSoC5/SDSPI_SPIMaster.c **** 
1023:.\Generated_Source\PSoC5/SDSPI_SPIMaster.c **** 
1024:.\Generated_Source\PSoC5/SDSPI_SPIMaster.c **** /*******************************************************************************
1025:.\Generated_Source\PSoC5/SDSPI_SPIMaster.c **** * Function Name: SDSPI_SPIMaster_EnableInt
1026:.\Generated_Source\PSoC5/SDSPI_SPIMaster.c **** ********************************************************************************
1027:.\Generated_Source\PSoC5/SDSPI_SPIMaster.c **** *
1028:.\Generated_Source\PSoC5/SDSPI_SPIMaster.c **** * Summary:
1029:.\Generated_Source\PSoC5/SDSPI_SPIMaster.c **** *  Enable internal interrupt generation.
1030:.\Generated_Source\PSoC5/SDSPI_SPIMaster.c **** *
1031:.\Generated_Source\PSoC5/SDSPI_SPIMaster.c **** * Parameters:
1032:.\Generated_Source\PSoC5/SDSPI_SPIMaster.c **** *  None.
1033:.\Generated_Source\PSoC5/SDSPI_SPIMaster.c **** *
1034:.\Generated_Source\PSoC5/SDSPI_SPIMaster.c **** * Return:
1035:.\Generated_Source\PSoC5/SDSPI_SPIMaster.c **** *  None.
1036:.\Generated_Source\PSoC5/SDSPI_SPIMaster.c **** *
1037:.\Generated_Source\PSoC5/SDSPI_SPIMaster.c **** * Theory:
1038:.\Generated_Source\PSoC5/SDSPI_SPIMaster.c **** *  Enable the internal interrupt output -or- the interrupt component itself.
1039:.\Generated_Source\PSoC5/SDSPI_SPIMaster.c **** *
1040:.\Generated_Source\PSoC5/SDSPI_SPIMaster.c **** *******************************************************************************/
1041:.\Generated_Source\PSoC5/SDSPI_SPIMaster.c **** void SDSPI_SPIMaster_EnableInt(void) 
1042:.\Generated_Source\PSoC5/SDSPI_SPIMaster.c **** {
 962              		.loc 1 1042 0
 963              		.cfi_startproc
 964              		@ args = 0, pretend = 0, frame = 0
 965              		@ frame_needed = 0, uses_anonymous_args = 0
 966              		@ link register save eliminated.
 967 0000 7047     		bx	lr
 968              		.cfi_endproc
 969              	.LFE20:
 970              		.size	SDSPI_SPIMaster_EnableInt, .-SDSPI_SPIMaster_EnableInt
 971 0002 00BF     		.section	.text.SDSPI_SPIMaster_DisableInt,"ax",%progbits
 972              		.align	2
 973              		.global	SDSPI_SPIMaster_DisableInt
 974              		.thumb
 975              		.thumb_func
 976              		.type	SDSPI_SPIMaster_DisableInt, %function
 977              	SDSPI_SPIMaster_DisableInt:
 978              	.LFB21:
1043:.\Generated_Source\PSoC5/SDSPI_SPIMaster.c ****     SDSPI_SPIMaster_EnableRxInt();
1044:.\Generated_Source\PSoC5/SDSPI_SPIMaster.c ****     SDSPI_SPIMaster_EnableTxInt();
1045:.\Generated_Source\PSoC5/SDSPI_SPIMaster.c **** }
1046:.\Generated_Source\PSoC5/SDSPI_SPIMaster.c **** 
1047:.\Generated_Source\PSoC5/SDSPI_SPIMaster.c **** 
1048:.\Generated_Source\PSoC5/SDSPI_SPIMaster.c **** /*******************************************************************************
1049:.\Generated_Source\PSoC5/SDSPI_SPIMaster.c **** * Function Name: SDSPI_SPIMaster_DisableInt
1050:.\Generated_Source\PSoC5/SDSPI_SPIMaster.c **** ********************************************************************************
1051:.\Generated_Source\PSoC5/SDSPI_SPIMaster.c **** *
1052:.\Generated_Source\PSoC5/SDSPI_SPIMaster.c **** * Summary:
1053:.\Generated_Source\PSoC5/SDSPI_SPIMaster.c **** *  Disable internal interrupt generation.
1054:.\Generated_Source\PSoC5/SDSPI_SPIMaster.c **** *
1055:.\Generated_Source\PSoC5/SDSPI_SPIMaster.c **** * Parameters:
1056:.\Generated_Source\PSoC5/SDSPI_SPIMaster.c **** *  None.
1057:.\Generated_Source\PSoC5/SDSPI_SPIMaster.c **** *
1058:.\Generated_Source\PSoC5/SDSPI_SPIMaster.c **** * Return:
ARM GAS  C:\Users\honet\AppData\Local\Temp\ccwozZGh.s 			page 39


1059:.\Generated_Source\PSoC5/SDSPI_SPIMaster.c **** *  None.
1060:.\Generated_Source\PSoC5/SDSPI_SPIMaster.c **** *
1061:.\Generated_Source\PSoC5/SDSPI_SPIMaster.c **** * Theory:
1062:.\Generated_Source\PSoC5/SDSPI_SPIMaster.c **** *  Disable the internal interrupt output -or- the interrupt component itself.
1063:.\Generated_Source\PSoC5/SDSPI_SPIMaster.c **** *
1064:.\Generated_Source\PSoC5/SDSPI_SPIMaster.c **** *******************************************************************************/
1065:.\Generated_Source\PSoC5/SDSPI_SPIMaster.c **** void SDSPI_SPIMaster_DisableInt(void) 
1066:.\Generated_Source\PSoC5/SDSPI_SPIMaster.c **** {
 979              		.loc 1 1066 0
 980              		.cfi_startproc
 981              		@ args = 0, pretend = 0, frame = 0
 982              		@ frame_needed = 0, uses_anonymous_args = 0
 983              		@ link register save eliminated.
 984 0000 7047     		bx	lr
 985              		.cfi_endproc
 986              	.LFE21:
 987              		.size	SDSPI_SPIMaster_DisableInt, .-SDSPI_SPIMaster_DisableInt
 988 0002 00BF     		.section	.text.SDSPI_SPIMaster_SetInterruptMode,"ax",%progbits
 989              		.align	2
 990              		.global	SDSPI_SPIMaster_SetInterruptMode
 991              		.thumb
 992              		.thumb_func
 993              		.type	SDSPI_SPIMaster_SetInterruptMode, %function
 994              	SDSPI_SPIMaster_SetInterruptMode:
 995              	.LFB22:
1067:.\Generated_Source\PSoC5/SDSPI_SPIMaster.c ****     SDSPI_SPIMaster_DisableTxInt();
1068:.\Generated_Source\PSoC5/SDSPI_SPIMaster.c ****     SDSPI_SPIMaster_DisableRxInt();
1069:.\Generated_Source\PSoC5/SDSPI_SPIMaster.c **** }
1070:.\Generated_Source\PSoC5/SDSPI_SPIMaster.c **** 
1071:.\Generated_Source\PSoC5/SDSPI_SPIMaster.c **** 
1072:.\Generated_Source\PSoC5/SDSPI_SPIMaster.c **** /*******************************************************************************
1073:.\Generated_Source\PSoC5/SDSPI_SPIMaster.c **** * Function Name: SDSPI_SPIMaster_SetInterruptMode
1074:.\Generated_Source\PSoC5/SDSPI_SPIMaster.c **** ********************************************************************************
1075:.\Generated_Source\PSoC5/SDSPI_SPIMaster.c **** *
1076:.\Generated_Source\PSoC5/SDSPI_SPIMaster.c **** * Summary:
1077:.\Generated_Source\PSoC5/SDSPI_SPIMaster.c **** *  Configure which status bits trigger an interrupt event.
1078:.\Generated_Source\PSoC5/SDSPI_SPIMaster.c **** *
1079:.\Generated_Source\PSoC5/SDSPI_SPIMaster.c **** * Parameters:
1080:.\Generated_Source\PSoC5/SDSPI_SPIMaster.c **** *  intSrc: An or'd combination of the desired status bit masks (defined in the
1081:.\Generated_Source\PSoC5/SDSPI_SPIMaster.c **** *  header file).
1082:.\Generated_Source\PSoC5/SDSPI_SPIMaster.c **** *
1083:.\Generated_Source\PSoC5/SDSPI_SPIMaster.c **** * Return:
1084:.\Generated_Source\PSoC5/SDSPI_SPIMaster.c **** *  None.
1085:.\Generated_Source\PSoC5/SDSPI_SPIMaster.c **** *
1086:.\Generated_Source\PSoC5/SDSPI_SPIMaster.c **** * Theory:
1087:.\Generated_Source\PSoC5/SDSPI_SPIMaster.c **** *  Enables the output of specific status bits to the interrupt controller.
1088:.\Generated_Source\PSoC5/SDSPI_SPIMaster.c **** *
1089:.\Generated_Source\PSoC5/SDSPI_SPIMaster.c **** *******************************************************************************/
1090:.\Generated_Source\PSoC5/SDSPI_SPIMaster.c **** void SDSPI_SPIMaster_SetInterruptMode(uint8 intSrc) 
1091:.\Generated_Source\PSoC5/SDSPI_SPIMaster.c **** {
 996              		.loc 1 1091 0
 997              		.cfi_startproc
 998              		@ args = 0, pretend = 0, frame = 0
 999              		@ frame_needed = 0, uses_anonymous_args = 0
 1000              		@ link register save eliminated.
 1001              	.LVL34:
1092:.\Generated_Source\PSoC5/SDSPI_SPIMaster.c ****     SDSPI_SPIMaster_TX_STATUS_MASK_REG  = (intSrc & ((uint8) ~SDSPI_SPIMaster_STS_SPI_IDLE));
ARM GAS  C:\Users\honet\AppData\Local\Temp\ccwozZGh.s 			page 40


 1002              		.loc 1 1092 0
 1003 0000 034A     		ldr	r2, .L109
1093:.\Generated_Source\PSoC5/SDSPI_SPIMaster.c ****     SDSPI_SPIMaster_RX_STATUS_MASK_REG  =  intSrc;
 1004              		.loc 1 1093 0
 1005 0002 044B     		ldr	r3, .L109+4
1092:.\Generated_Source\PSoC5/SDSPI_SPIMaster.c ****     SDSPI_SPIMaster_TX_STATUS_MASK_REG  = (intSrc & ((uint8) ~SDSPI_SPIMaster_STS_SPI_IDLE));
 1006              		.loc 1 1092 0
 1007 0004 00F0EF01 		and	r1, r0, #239
 1008 0008 1170     		strb	r1, [r2]
 1009              		.loc 1 1093 0
 1010 000a 1870     		strb	r0, [r3]
 1011 000c 7047     		bx	lr
 1012              	.L110:
 1013 000e 00BF     		.align	2
 1014              	.L109:
 1015 0010 8F640040 		.word	1073767567
 1016 0014 8D640040 		.word	1073767565
 1017              		.cfi_endproc
 1018              	.LFE22:
 1019              		.size	SDSPI_SPIMaster_SetInterruptMode, .-SDSPI_SPIMaster_SetInterruptMode
 1020              		.section	.text.SDSPI_SPIMaster_ReadStatus,"ax",%progbits
 1021              		.align	2
 1022              		.global	SDSPI_SPIMaster_ReadStatus
 1023              		.thumb
 1024              		.thumb_func
 1025              		.type	SDSPI_SPIMaster_ReadStatus, %function
 1026              	SDSPI_SPIMaster_ReadStatus:
 1027              	.LFB23:
1094:.\Generated_Source\PSoC5/SDSPI_SPIMaster.c **** }
1095:.\Generated_Source\PSoC5/SDSPI_SPIMaster.c **** 
1096:.\Generated_Source\PSoC5/SDSPI_SPIMaster.c **** 
1097:.\Generated_Source\PSoC5/SDSPI_SPIMaster.c **** /*******************************************************************************
1098:.\Generated_Source\PSoC5/SDSPI_SPIMaster.c **** * Function Name: SDSPI_SPIMaster_ReadStatus
1099:.\Generated_Source\PSoC5/SDSPI_SPIMaster.c **** ********************************************************************************
1100:.\Generated_Source\PSoC5/SDSPI_SPIMaster.c **** *
1101:.\Generated_Source\PSoC5/SDSPI_SPIMaster.c **** * Summary:
1102:.\Generated_Source\PSoC5/SDSPI_SPIMaster.c **** *  Read the status register for the component.
1103:.\Generated_Source\PSoC5/SDSPI_SPIMaster.c **** *
1104:.\Generated_Source\PSoC5/SDSPI_SPIMaster.c **** * Parameters:
1105:.\Generated_Source\PSoC5/SDSPI_SPIMaster.c **** *  None.
1106:.\Generated_Source\PSoC5/SDSPI_SPIMaster.c **** *
1107:.\Generated_Source\PSoC5/SDSPI_SPIMaster.c **** * Return:
1108:.\Generated_Source\PSoC5/SDSPI_SPIMaster.c **** *  Contents of the status register.
1109:.\Generated_Source\PSoC5/SDSPI_SPIMaster.c **** *
1110:.\Generated_Source\PSoC5/SDSPI_SPIMaster.c **** * Global variables:
1111:.\Generated_Source\PSoC5/SDSPI_SPIMaster.c **** *  SDSPI_SPIMaster_swStatus - used to store in software status register,
1112:.\Generated_Source\PSoC5/SDSPI_SPIMaster.c **** *  modified every function call - resets to zero.
1113:.\Generated_Source\PSoC5/SDSPI_SPIMaster.c **** *
1114:.\Generated_Source\PSoC5/SDSPI_SPIMaster.c **** * Theory:
1115:.\Generated_Source\PSoC5/SDSPI_SPIMaster.c **** *  Allows the user and the API to read the status register for error detection
1116:.\Generated_Source\PSoC5/SDSPI_SPIMaster.c **** *  and flow control.
1117:.\Generated_Source\PSoC5/SDSPI_SPIMaster.c **** *
1118:.\Generated_Source\PSoC5/SDSPI_SPIMaster.c **** * Side Effects:
1119:.\Generated_Source\PSoC5/SDSPI_SPIMaster.c **** *  Clear status register of the component.
1120:.\Generated_Source\PSoC5/SDSPI_SPIMaster.c **** *
1121:.\Generated_Source\PSoC5/SDSPI_SPIMaster.c **** * Reentrant:
1122:.\Generated_Source\PSoC5/SDSPI_SPIMaster.c **** *  No.
ARM GAS  C:\Users\honet\AppData\Local\Temp\ccwozZGh.s 			page 41


1123:.\Generated_Source\PSoC5/SDSPI_SPIMaster.c **** *
1124:.\Generated_Source\PSoC5/SDSPI_SPIMaster.c **** *******************************************************************************/
1125:.\Generated_Source\PSoC5/SDSPI_SPIMaster.c **** uint8 SDSPI_SPIMaster_ReadStatus(void) 
1126:.\Generated_Source\PSoC5/SDSPI_SPIMaster.c **** {
 1028              		.loc 1 1126 0
 1029              		.cfi_startproc
 1030              		@ args = 0, pretend = 0, frame = 0
 1031              		@ frame_needed = 0, uses_anonymous_args = 0
 1032              		@ link register save eliminated.
1127:.\Generated_Source\PSoC5/SDSPI_SPIMaster.c ****     uint8 tmpStatus;
1128:.\Generated_Source\PSoC5/SDSPI_SPIMaster.c **** 
1129:.\Generated_Source\PSoC5/SDSPI_SPIMaster.c ****     #if(SDSPI_SPIMaster_TX_SOFTWARE_BUF_ENABLED || SDSPI_SPIMaster_RX_SOFTWARE_BUF_ENABLED)
1130:.\Generated_Source\PSoC5/SDSPI_SPIMaster.c **** 
1131:.\Generated_Source\PSoC5/SDSPI_SPIMaster.c ****         SDSPI_SPIMaster_DisableInt();
1132:.\Generated_Source\PSoC5/SDSPI_SPIMaster.c **** 
1133:.\Generated_Source\PSoC5/SDSPI_SPIMaster.c ****         tmpStatus  = SDSPI_SPIMaster_GET_STATUS_RX(SDSPI_SPIMaster_swStatusRx);
1134:.\Generated_Source\PSoC5/SDSPI_SPIMaster.c ****         tmpStatus |= SDSPI_SPIMaster_GET_STATUS_TX(SDSPI_SPIMaster_swStatusTx);
1135:.\Generated_Source\PSoC5/SDSPI_SPIMaster.c ****         tmpStatus &= ((uint8) ~SDSPI_SPIMaster_STS_SPI_IDLE);
1136:.\Generated_Source\PSoC5/SDSPI_SPIMaster.c **** 
1137:.\Generated_Source\PSoC5/SDSPI_SPIMaster.c ****         SDSPI_SPIMaster_swStatusTx = 0u;
1138:.\Generated_Source\PSoC5/SDSPI_SPIMaster.c ****         SDSPI_SPIMaster_swStatusRx = 0u;
1139:.\Generated_Source\PSoC5/SDSPI_SPIMaster.c **** 
1140:.\Generated_Source\PSoC5/SDSPI_SPIMaster.c ****         SDSPI_SPIMaster_EnableInt();
1141:.\Generated_Source\PSoC5/SDSPI_SPIMaster.c **** 
1142:.\Generated_Source\PSoC5/SDSPI_SPIMaster.c ****     #else
1143:.\Generated_Source\PSoC5/SDSPI_SPIMaster.c **** 
1144:.\Generated_Source\PSoC5/SDSPI_SPIMaster.c ****         tmpStatus  = SDSPI_SPIMaster_RX_STATUS_REG;
1145:.\Generated_Source\PSoC5/SDSPI_SPIMaster.c ****         tmpStatus |= SDSPI_SPIMaster_TX_STATUS_REG;
 1033              		.loc 1 1145 0
 1034 0000 034A     		ldr	r2, .L112
1144:.\Generated_Source\PSoC5/SDSPI_SPIMaster.c ****         tmpStatus |= SDSPI_SPIMaster_TX_STATUS_REG;
 1035              		.loc 1 1144 0
 1036 0002 044B     		ldr	r3, .L112+4
 1037 0004 1B78     		ldrb	r3, [r3]	@ zero_extendqisi2
 1038              	.LVL35:
 1039              		.loc 1 1145 0
 1040 0006 1078     		ldrb	r0, [r2]	@ zero_extendqisi2
 1041 0008 1843     		orrs	r0, r0, r3
 1042              	.LVL36:
1146:.\Generated_Source\PSoC5/SDSPI_SPIMaster.c ****         tmpStatus &= ((uint8) ~SDSPI_SPIMaster_STS_SPI_IDLE);
1147:.\Generated_Source\PSoC5/SDSPI_SPIMaster.c **** 
1148:.\Generated_Source\PSoC5/SDSPI_SPIMaster.c ****     #endif /* (SDSPI_SPIMaster_TX_SOFTWARE_BUF_ENABLED || SDSPI_SPIMaster_RX_SOFTWARE_BUF_ENABLED) 
1149:.\Generated_Source\PSoC5/SDSPI_SPIMaster.c **** 
1150:.\Generated_Source\PSoC5/SDSPI_SPIMaster.c ****     return(tmpStatus);
1151:.\Generated_Source\PSoC5/SDSPI_SPIMaster.c **** }
 1043              		.loc 1 1151 0
 1044 000a 00F0EF00 		and	r0, r0, #239
 1045              	.LVL37:
 1046 000e 7047     		bx	lr
 1047              	.L113:
 1048              		.align	2
 1049              	.L112:
 1050 0010 6F640040 		.word	1073767535
 1051 0014 6D640040 		.word	1073767533
 1052              		.cfi_endproc
 1053              	.LFE23:
 1054              		.size	SDSPI_SPIMaster_ReadStatus, .-SDSPI_SPIMaster_ReadStatus
ARM GAS  C:\Users\honet\AppData\Local\Temp\ccwozZGh.s 			page 42


 1055              		.comm	SDSPI_SPIMaster_swStatusRx,1,1
 1056              		.comm	SDSPI_SPIMaster_swStatusTx,1,1
 1057              		.global	SDSPI_SPIMaster_initVar
 1058              		.bss
 1059              		.set	.LANCHOR0,. + 0
 1060              		.type	SDSPI_SPIMaster_initVar, %object
 1061              		.size	SDSPI_SPIMaster_initVar, 1
 1062              	SDSPI_SPIMaster_initVar:
 1063 0000 00       		.space	1
 1064              		.text
 1065              	.Letext0:
 1066              		.file 2 ".\\Generated_Source\\PSoC5\\cytypes.h"
 1067              		.file 3 ".\\Generated_Source\\PSoC5\\CyLib.h"