ARM GAS  C:\Users\honet\AppData\Local\Temp\ccmZgOxw.s 			page 1


   1              		.syntax unified
   2              		.cpu cortex-m3
   3              		.fpu softvfp
   4              		.eabi_attribute 20, 1
   5              		.eabi_attribute 21, 1
   6              		.eabi_attribute 23, 3
   7              		.eabi_attribute 24, 1
   8              		.eabi_attribute 25, 1
   9              		.eabi_attribute 26, 1
  10              		.eabi_attribute 30, 2
  11              		.eabi_attribute 34, 1
  12              		.eabi_attribute 18, 4
  13              		.thumb
  14              		.file	"SDSPI_SPIMaster_PM.c"
  15              		.text
  16              	.Ltext0:
  17              		.cfi_sections	.debug_frame
  18              		.section	.text.SDSPI_SPIMaster_SaveConfig,"ax",%progbits
  19              		.align	2
  20              		.global	SDSPI_SPIMaster_SaveConfig
  21              		.thumb
  22              		.thumb_func
  23              		.type	SDSPI_SPIMaster_SaveConfig, %function
  24              	SDSPI_SPIMaster_SaveConfig:
  25              	.LFB0:
  26              		.file 1 ".\\Generated_Source\\PSoC5\\SDSPI_SPIMaster_PM.c"
   1:.\Generated_Source\PSoC5/SDSPI_SPIMaster_PM.c **** /*******************************************************************************
   2:.\Generated_Source\PSoC5/SDSPI_SPIMaster_PM.c **** * File Name: SDSPI_SPIMaster_PM.c
   3:.\Generated_Source\PSoC5/SDSPI_SPIMaster_PM.c **** * Version 2.50
   4:.\Generated_Source\PSoC5/SDSPI_SPIMaster_PM.c **** *
   5:.\Generated_Source\PSoC5/SDSPI_SPIMaster_PM.c **** * Description:
   6:.\Generated_Source\PSoC5/SDSPI_SPIMaster_PM.c **** *  This file contains the setup, control and status commands to support
   7:.\Generated_Source\PSoC5/SDSPI_SPIMaster_PM.c **** *  component operations in low power mode.
   8:.\Generated_Source\PSoC5/SDSPI_SPIMaster_PM.c **** *
   9:.\Generated_Source\PSoC5/SDSPI_SPIMaster_PM.c **** * Note:
  10:.\Generated_Source\PSoC5/SDSPI_SPIMaster_PM.c **** *
  11:.\Generated_Source\PSoC5/SDSPI_SPIMaster_PM.c **** ********************************************************************************
  12:.\Generated_Source\PSoC5/SDSPI_SPIMaster_PM.c **** * Copyright 2008-2015, Cypress Semiconductor Corporation.  All rights reserved.
  13:.\Generated_Source\PSoC5/SDSPI_SPIMaster_PM.c **** * You may use this file only in accordance with the license, terms, conditions,
  14:.\Generated_Source\PSoC5/SDSPI_SPIMaster_PM.c **** * disclaimers, and limitations in the end user license agreement accompanying
  15:.\Generated_Source\PSoC5/SDSPI_SPIMaster_PM.c **** * the software package with which this file was provided.
  16:.\Generated_Source\PSoC5/SDSPI_SPIMaster_PM.c **** *******************************************************************************/
  17:.\Generated_Source\PSoC5/SDSPI_SPIMaster_PM.c **** 
  18:.\Generated_Source\PSoC5/SDSPI_SPIMaster_PM.c **** #include "SDSPI_SPIMaster_PVT.h"
  19:.\Generated_Source\PSoC5/SDSPI_SPIMaster_PM.c **** 
  20:.\Generated_Source\PSoC5/SDSPI_SPIMaster_PM.c **** static SDSPI_SPIMaster_BACKUP_STRUCT SDSPI_SPIMaster_backup =
  21:.\Generated_Source\PSoC5/SDSPI_SPIMaster_PM.c **** {
  22:.\Generated_Source\PSoC5/SDSPI_SPIMaster_PM.c ****     SDSPI_SPIMaster_DISABLED,
  23:.\Generated_Source\PSoC5/SDSPI_SPIMaster_PM.c ****     SDSPI_SPIMaster_BITCTR_INIT,
  24:.\Generated_Source\PSoC5/SDSPI_SPIMaster_PM.c **** };
  25:.\Generated_Source\PSoC5/SDSPI_SPIMaster_PM.c **** 
  26:.\Generated_Source\PSoC5/SDSPI_SPIMaster_PM.c **** 
  27:.\Generated_Source\PSoC5/SDSPI_SPIMaster_PM.c **** /*******************************************************************************
  28:.\Generated_Source\PSoC5/SDSPI_SPIMaster_PM.c **** * Function Name: SDSPI_SPIMaster_SaveConfig
  29:.\Generated_Source\PSoC5/SDSPI_SPIMaster_PM.c **** ********************************************************************************
  30:.\Generated_Source\PSoC5/SDSPI_SPIMaster_PM.c **** *
  31:.\Generated_Source\PSoC5/SDSPI_SPIMaster_PM.c **** * Summary:
ARM GAS  C:\Users\honet\AppData\Local\Temp\ccmZgOxw.s 			page 2


  32:.\Generated_Source\PSoC5/SDSPI_SPIMaster_PM.c **** *  Empty function. Included for consistency with other components.
  33:.\Generated_Source\PSoC5/SDSPI_SPIMaster_PM.c **** *
  34:.\Generated_Source\PSoC5/SDSPI_SPIMaster_PM.c **** * Parameters:
  35:.\Generated_Source\PSoC5/SDSPI_SPIMaster_PM.c **** *  None.
  36:.\Generated_Source\PSoC5/SDSPI_SPIMaster_PM.c **** *
  37:.\Generated_Source\PSoC5/SDSPI_SPIMaster_PM.c **** * Return:
  38:.\Generated_Source\PSoC5/SDSPI_SPIMaster_PM.c **** *  None.
  39:.\Generated_Source\PSoC5/SDSPI_SPIMaster_PM.c **** *
  40:.\Generated_Source\PSoC5/SDSPI_SPIMaster_PM.c **** *******************************************************************************/
  41:.\Generated_Source\PSoC5/SDSPI_SPIMaster_PM.c **** void SDSPI_SPIMaster_SaveConfig(void) 
  42:.\Generated_Source\PSoC5/SDSPI_SPIMaster_PM.c **** {
  27              		.loc 1 42 0
  28              		.cfi_startproc
  29              		@ args = 0, pretend = 0, frame = 0
  30              		@ frame_needed = 0, uses_anonymous_args = 0
  31              		@ link register save eliminated.
  32 0000 7047     		bx	lr
  33              		.cfi_endproc
  34              	.LFE0:
  35              		.size	SDSPI_SPIMaster_SaveConfig, .-SDSPI_SPIMaster_SaveConfig
  36 0002 00BF     		.section	.text.SDSPI_SPIMaster_RestoreConfig,"ax",%progbits
  37              		.align	2
  38              		.global	SDSPI_SPIMaster_RestoreConfig
  39              		.thumb
  40              		.thumb_func
  41              		.type	SDSPI_SPIMaster_RestoreConfig, %function
  42              	SDSPI_SPIMaster_RestoreConfig:
  43              	.LFB1:
  43:.\Generated_Source\PSoC5/SDSPI_SPIMaster_PM.c **** 
  44:.\Generated_Source\PSoC5/SDSPI_SPIMaster_PM.c **** }
  45:.\Generated_Source\PSoC5/SDSPI_SPIMaster_PM.c **** 
  46:.\Generated_Source\PSoC5/SDSPI_SPIMaster_PM.c **** 
  47:.\Generated_Source\PSoC5/SDSPI_SPIMaster_PM.c **** /*******************************************************************************
  48:.\Generated_Source\PSoC5/SDSPI_SPIMaster_PM.c **** * Function Name: SDSPI_SPIMaster_RestoreConfig
  49:.\Generated_Source\PSoC5/SDSPI_SPIMaster_PM.c **** ********************************************************************************
  50:.\Generated_Source\PSoC5/SDSPI_SPIMaster_PM.c **** *
  51:.\Generated_Source\PSoC5/SDSPI_SPIMaster_PM.c **** * Summary:
  52:.\Generated_Source\PSoC5/SDSPI_SPIMaster_PM.c **** *  Empty function. Included for consistency with other components.
  53:.\Generated_Source\PSoC5/SDSPI_SPIMaster_PM.c **** *
  54:.\Generated_Source\PSoC5/SDSPI_SPIMaster_PM.c **** * Parameters:
  55:.\Generated_Source\PSoC5/SDSPI_SPIMaster_PM.c **** *  None.
  56:.\Generated_Source\PSoC5/SDSPI_SPIMaster_PM.c **** *
  57:.\Generated_Source\PSoC5/SDSPI_SPIMaster_PM.c **** * Return:
  58:.\Generated_Source\PSoC5/SDSPI_SPIMaster_PM.c **** *  None.
  59:.\Generated_Source\PSoC5/SDSPI_SPIMaster_PM.c **** *
  60:.\Generated_Source\PSoC5/SDSPI_SPIMaster_PM.c **** *******************************************************************************/
  61:.\Generated_Source\PSoC5/SDSPI_SPIMaster_PM.c **** void SDSPI_SPIMaster_RestoreConfig(void) 
  62:.\Generated_Source\PSoC5/SDSPI_SPIMaster_PM.c **** {
  44              		.loc 1 62 0
  45              		.cfi_startproc
  46              		@ args = 0, pretend = 0, frame = 0
  47              		@ frame_needed = 0, uses_anonymous_args = 0
  48              		@ link register save eliminated.
  49 0000 7047     		bx	lr
  50              		.cfi_endproc
  51              	.LFE1:
  52              		.size	SDSPI_SPIMaster_RestoreConfig, .-SDSPI_SPIMaster_RestoreConfig
ARM GAS  C:\Users\honet\AppData\Local\Temp\ccmZgOxw.s 			page 3


  53 0002 00BF     		.section	.text.SDSPI_SPIMaster_Sleep,"ax",%progbits
  54              		.align	2
  55              		.global	SDSPI_SPIMaster_Sleep
  56              		.thumb
  57              		.thumb_func
  58              		.type	SDSPI_SPIMaster_Sleep, %function
  59              	SDSPI_SPIMaster_Sleep:
  60              	.LFB2:
  63:.\Generated_Source\PSoC5/SDSPI_SPIMaster_PM.c **** 
  64:.\Generated_Source\PSoC5/SDSPI_SPIMaster_PM.c **** }
  65:.\Generated_Source\PSoC5/SDSPI_SPIMaster_PM.c **** 
  66:.\Generated_Source\PSoC5/SDSPI_SPIMaster_PM.c **** 
  67:.\Generated_Source\PSoC5/SDSPI_SPIMaster_PM.c **** /*******************************************************************************
  68:.\Generated_Source\PSoC5/SDSPI_SPIMaster_PM.c **** * Function Name: SDSPI_SPIMaster_Sleep
  69:.\Generated_Source\PSoC5/SDSPI_SPIMaster_PM.c **** ********************************************************************************
  70:.\Generated_Source\PSoC5/SDSPI_SPIMaster_PM.c **** *
  71:.\Generated_Source\PSoC5/SDSPI_SPIMaster_PM.c **** * Summary:
  72:.\Generated_Source\PSoC5/SDSPI_SPIMaster_PM.c **** *  Prepare SPIM Component goes to sleep.
  73:.\Generated_Source\PSoC5/SDSPI_SPIMaster_PM.c **** *
  74:.\Generated_Source\PSoC5/SDSPI_SPIMaster_PM.c **** * Parameters:
  75:.\Generated_Source\PSoC5/SDSPI_SPIMaster_PM.c **** *  None.
  76:.\Generated_Source\PSoC5/SDSPI_SPIMaster_PM.c **** *
  77:.\Generated_Source\PSoC5/SDSPI_SPIMaster_PM.c **** * Return:
  78:.\Generated_Source\PSoC5/SDSPI_SPIMaster_PM.c **** *  None.
  79:.\Generated_Source\PSoC5/SDSPI_SPIMaster_PM.c **** *
  80:.\Generated_Source\PSoC5/SDSPI_SPIMaster_PM.c **** * Global Variables:
  81:.\Generated_Source\PSoC5/SDSPI_SPIMaster_PM.c **** *  SDSPI_SPIMaster_backup - modified when non-retention registers are saved.
  82:.\Generated_Source\PSoC5/SDSPI_SPIMaster_PM.c **** *
  83:.\Generated_Source\PSoC5/SDSPI_SPIMaster_PM.c **** * Reentrant:
  84:.\Generated_Source\PSoC5/SDSPI_SPIMaster_PM.c **** *  No.
  85:.\Generated_Source\PSoC5/SDSPI_SPIMaster_PM.c **** *
  86:.\Generated_Source\PSoC5/SDSPI_SPIMaster_PM.c **** *******************************************************************************/
  87:.\Generated_Source\PSoC5/SDSPI_SPIMaster_PM.c **** void SDSPI_SPIMaster_Sleep(void) 
  88:.\Generated_Source\PSoC5/SDSPI_SPIMaster_PM.c **** {
  61              		.loc 1 88 0
  62              		.cfi_startproc
  63              		@ args = 0, pretend = 0, frame = 0
  64              		@ frame_needed = 0, uses_anonymous_args = 0
  65              		@ link register save eliminated.
  89:.\Generated_Source\PSoC5/SDSPI_SPIMaster_PM.c ****     /* Save components enable state */
  90:.\Generated_Source\PSoC5/SDSPI_SPIMaster_PM.c ****     SDSPI_SPIMaster_backup.enableState = ((uint8) SDSPI_SPIMaster_IS_ENABLED);
  66              		.loc 1 90 0
  67 0000 034B     		ldr	r3, .L4
  68 0002 044A     		ldr	r2, .L4+4
  69 0004 1B78     		ldrb	r3, [r3]	@ zero_extendqisi2
  70 0006 C3F30013 		ubfx	r3, r3, #4, #1
  71 000a 1370     		strb	r3, [r2]
  91:.\Generated_Source\PSoC5/SDSPI_SPIMaster_PM.c **** 
  92:.\Generated_Source\PSoC5/SDSPI_SPIMaster_PM.c ****     SDSPI_SPIMaster_Stop();
  72              		.loc 1 92 0
  73 000c FFF7FEBF 		b	SDSPI_SPIMaster_Stop
  74              	.LVL0:
  75              	.L5:
  76              		.align	2
  77              	.L4:
  78 0010 9F640040 		.word	1073767583
  79 0014 00000000 		.word	.LANCHOR0
ARM GAS  C:\Users\honet\AppData\Local\Temp\ccmZgOxw.s 			page 4


  80              		.cfi_endproc
  81              	.LFE2:
  82              		.size	SDSPI_SPIMaster_Sleep, .-SDSPI_SPIMaster_Sleep
  83              		.section	.text.SDSPI_SPIMaster_Wakeup,"ax",%progbits
  84              		.align	2
  85              		.global	SDSPI_SPIMaster_Wakeup
  86              		.thumb
  87              		.thumb_func
  88              		.type	SDSPI_SPIMaster_Wakeup, %function
  89              	SDSPI_SPIMaster_Wakeup:
  90              	.LFB3:
  93:.\Generated_Source\PSoC5/SDSPI_SPIMaster_PM.c **** }
  94:.\Generated_Source\PSoC5/SDSPI_SPIMaster_PM.c **** 
  95:.\Generated_Source\PSoC5/SDSPI_SPIMaster_PM.c **** 
  96:.\Generated_Source\PSoC5/SDSPI_SPIMaster_PM.c **** /*******************************************************************************
  97:.\Generated_Source\PSoC5/SDSPI_SPIMaster_PM.c **** * Function Name: SDSPI_SPIMaster_Wakeup
  98:.\Generated_Source\PSoC5/SDSPI_SPIMaster_PM.c **** ********************************************************************************
  99:.\Generated_Source\PSoC5/SDSPI_SPIMaster_PM.c **** *
 100:.\Generated_Source\PSoC5/SDSPI_SPIMaster_PM.c **** * Summary:
 101:.\Generated_Source\PSoC5/SDSPI_SPIMaster_PM.c **** *  Prepare SPIM Component to wake up.
 102:.\Generated_Source\PSoC5/SDSPI_SPIMaster_PM.c **** *
 103:.\Generated_Source\PSoC5/SDSPI_SPIMaster_PM.c **** * Parameters:
 104:.\Generated_Source\PSoC5/SDSPI_SPIMaster_PM.c **** *  None.
 105:.\Generated_Source\PSoC5/SDSPI_SPIMaster_PM.c **** *
 106:.\Generated_Source\PSoC5/SDSPI_SPIMaster_PM.c **** * Return:
 107:.\Generated_Source\PSoC5/SDSPI_SPIMaster_PM.c **** *  None.
 108:.\Generated_Source\PSoC5/SDSPI_SPIMaster_PM.c **** *
 109:.\Generated_Source\PSoC5/SDSPI_SPIMaster_PM.c **** * Global Variables:
 110:.\Generated_Source\PSoC5/SDSPI_SPIMaster_PM.c **** *  SDSPI_SPIMaster_backup - used when non-retention registers are restored.
 111:.\Generated_Source\PSoC5/SDSPI_SPIMaster_PM.c **** *  SDSPI_SPIMaster_txBufferWrite - modified every function call - resets to
 112:.\Generated_Source\PSoC5/SDSPI_SPIMaster_PM.c **** *  zero.
 113:.\Generated_Source\PSoC5/SDSPI_SPIMaster_PM.c **** *  SDSPI_SPIMaster_txBufferRead - modified every function call - resets to
 114:.\Generated_Source\PSoC5/SDSPI_SPIMaster_PM.c **** *  zero.
 115:.\Generated_Source\PSoC5/SDSPI_SPIMaster_PM.c **** *  SDSPI_SPIMaster_rxBufferWrite - modified every function call - resets to
 116:.\Generated_Source\PSoC5/SDSPI_SPIMaster_PM.c **** *  zero.
 117:.\Generated_Source\PSoC5/SDSPI_SPIMaster_PM.c **** *  SDSPI_SPIMaster_rxBufferRead - modified every function call - resets to
 118:.\Generated_Source\PSoC5/SDSPI_SPIMaster_PM.c **** *  zero.
 119:.\Generated_Source\PSoC5/SDSPI_SPIMaster_PM.c **** *
 120:.\Generated_Source\PSoC5/SDSPI_SPIMaster_PM.c **** * Reentrant:
 121:.\Generated_Source\PSoC5/SDSPI_SPIMaster_PM.c **** *  No.
 122:.\Generated_Source\PSoC5/SDSPI_SPIMaster_PM.c **** *
 123:.\Generated_Source\PSoC5/SDSPI_SPIMaster_PM.c **** *******************************************************************************/
 124:.\Generated_Source\PSoC5/SDSPI_SPIMaster_PM.c **** void SDSPI_SPIMaster_Wakeup(void) 
 125:.\Generated_Source\PSoC5/SDSPI_SPIMaster_PM.c **** {
  91              		.loc 1 125 0
  92              		.cfi_startproc
  93              		@ args = 0, pretend = 0, frame = 0
  94              		@ frame_needed = 0, uses_anonymous_args = 0
  95 0000 08B5     		push	{r3, lr}
  96              		.cfi_def_cfa_offset 8
  97              		.cfi_offset 3, -8
  98              		.cfi_offset 14, -4
 126:.\Generated_Source\PSoC5/SDSPI_SPIMaster_PM.c ****     #if(SDSPI_SPIMaster_RX_SOFTWARE_BUF_ENABLED)
 127:.\Generated_Source\PSoC5/SDSPI_SPIMaster_PM.c ****         SDSPI_SPIMaster_rxBufferFull  = 0u;
 128:.\Generated_Source\PSoC5/SDSPI_SPIMaster_PM.c ****         SDSPI_SPIMaster_rxBufferRead  = 0u;
 129:.\Generated_Source\PSoC5/SDSPI_SPIMaster_PM.c ****         SDSPI_SPIMaster_rxBufferWrite = 0u;
 130:.\Generated_Source\PSoC5/SDSPI_SPIMaster_PM.c ****     #endif /* (SDSPI_SPIMaster_RX_SOFTWARE_BUF_ENABLED) */
ARM GAS  C:\Users\honet\AppData\Local\Temp\ccmZgOxw.s 			page 5


 131:.\Generated_Source\PSoC5/SDSPI_SPIMaster_PM.c **** 
 132:.\Generated_Source\PSoC5/SDSPI_SPIMaster_PM.c ****     #if(SDSPI_SPIMaster_TX_SOFTWARE_BUF_ENABLED)
 133:.\Generated_Source\PSoC5/SDSPI_SPIMaster_PM.c ****         SDSPI_SPIMaster_txBufferFull  = 0u;
 134:.\Generated_Source\PSoC5/SDSPI_SPIMaster_PM.c ****         SDSPI_SPIMaster_txBufferRead  = 0u;
 135:.\Generated_Source\PSoC5/SDSPI_SPIMaster_PM.c ****         SDSPI_SPIMaster_txBufferWrite = 0u;
 136:.\Generated_Source\PSoC5/SDSPI_SPIMaster_PM.c ****     #endif /* (SDSPI_SPIMaster_TX_SOFTWARE_BUF_ENABLED) */
 137:.\Generated_Source\PSoC5/SDSPI_SPIMaster_PM.c **** 
 138:.\Generated_Source\PSoC5/SDSPI_SPIMaster_PM.c ****     /* Clear any data from the RX and TX FIFO */
 139:.\Generated_Source\PSoC5/SDSPI_SPIMaster_PM.c ****     SDSPI_SPIMaster_ClearFIFO();
  99              		.loc 1 139 0
 100 0002 FFF7FEFF 		bl	SDSPI_SPIMaster_ClearFIFO
 101              	.LVL1:
 140:.\Generated_Source\PSoC5/SDSPI_SPIMaster_PM.c **** 
 141:.\Generated_Source\PSoC5/SDSPI_SPIMaster_PM.c ****     /* Restore components block enable state */
 142:.\Generated_Source\PSoC5/SDSPI_SPIMaster_PM.c ****     if(0u != SDSPI_SPIMaster_backup.enableState)
 102              		.loc 1 142 0
 103 0006 044B     		ldr	r3, .L11
 104 0008 1B78     		ldrb	r3, [r3]	@ zero_extendqisi2
 105 000a 03B9     		cbnz	r3, .L10
 106 000c 08BD     		pop	{r3, pc}
 107              	.L10:
 143:.\Generated_Source\PSoC5/SDSPI_SPIMaster_PM.c ****     {
 144:.\Generated_Source\PSoC5/SDSPI_SPIMaster_PM.c ****         SDSPI_SPIMaster_Enable();
 145:.\Generated_Source\PSoC5/SDSPI_SPIMaster_PM.c ****     }
 146:.\Generated_Source\PSoC5/SDSPI_SPIMaster_PM.c **** }
 108              		.loc 1 146 0
 109 000e BDE80840 		pop	{r3, lr}
 110              		.cfi_restore 14
 111              		.cfi_restore 3
 112              		.cfi_def_cfa_offset 0
 144:.\Generated_Source\PSoC5/SDSPI_SPIMaster_PM.c ****     }
 113              		.loc 1 144 0
 114 0012 FFF7FEBF 		b	SDSPI_SPIMaster_Enable
 115              	.LVL2:
 116              	.L12:
 117 0016 00BF     		.align	2
 118              	.L11:
 119 0018 00000000 		.word	.LANCHOR0
 120              		.cfi_endproc
 121              	.LFE3:
 122              		.size	SDSPI_SPIMaster_Wakeup, .-SDSPI_SPIMaster_Wakeup
 123              		.data
 124              		.align	2
 125              		.set	.LANCHOR0,. + 0
 126              		.type	SDSPI_SPIMaster_backup, %object
 127              		.size	SDSPI_SPIMaster_backup, 2
 128              	SDSPI_SPIMaster_backup:
 129 0000 00       		.byte	0
 130 0001 0F       		.byte	15
 131 0002 0000     		.text
 132              	.Letext0:
 133              		.file 2 ".\\Generated_Source\\PSoC5\\cytypes.h"
 134              		.file 3 ".\\Generated_Source\\PSoC5\\SDSPI_SPIMaster.h"