ARM GAS  C:\Users\honet\AppData\Local\Temp\cc8NWylb.s 			page 1


   1              		.syntax unified
   2              		.cpu cortex-m3
   3              		.fpu softvfp
   4              		.eabi_attribute 20, 1
   5              		.eabi_attribute 21, 1
   6              		.eabi_attribute 23, 3
   7              		.eabi_attribute 24, 1
   8              		.eabi_attribute 25, 1
   9              		.eabi_attribute 26, 1
  10              		.eabi_attribute 30, 2
  11              		.eabi_attribute 34, 1
  12              		.eabi_attribute 18, 4
  13              		.thumb
  14              		.file	"SDSPI_RX_DMA_IRQ.c"
  15              		.text
  16              	.Ltext0:
  17              		.cfi_sections	.debug_frame
  18              		.section	.text.SDSPI_RX_DMA_IRQ_Interrupt,"ax",%progbits
  19              		.align	2
  20              		.global	SDSPI_RX_DMA_IRQ_Interrupt
  21              		.thumb
  22              		.thumb_func
  23              		.type	SDSPI_RX_DMA_IRQ_Interrupt, %function
  24              	SDSPI_RX_DMA_IRQ_Interrupt:
  25              	.LFB3:
  26              		.file 1 ".\\Generated_Source\\PSoC5\\SDSPI_RX_DMA_IRQ.c"
   1:.\Generated_Source\PSoC5/SDSPI_RX_DMA_IRQ.c **** /*******************************************************************************
   2:.\Generated_Source\PSoC5/SDSPI_RX_DMA_IRQ.c **** * File Name: SDSPI_RX_DMA_IRQ.c  
   3:.\Generated_Source\PSoC5/SDSPI_RX_DMA_IRQ.c **** * Version 1.70
   4:.\Generated_Source\PSoC5/SDSPI_RX_DMA_IRQ.c **** *
   5:.\Generated_Source\PSoC5/SDSPI_RX_DMA_IRQ.c **** *  Description:
   6:.\Generated_Source\PSoC5/SDSPI_RX_DMA_IRQ.c **** *   API for controlling the state of an interrupt.
   7:.\Generated_Source\PSoC5/SDSPI_RX_DMA_IRQ.c **** *
   8:.\Generated_Source\PSoC5/SDSPI_RX_DMA_IRQ.c **** *
   9:.\Generated_Source\PSoC5/SDSPI_RX_DMA_IRQ.c **** *  Note:
  10:.\Generated_Source\PSoC5/SDSPI_RX_DMA_IRQ.c **** *
  11:.\Generated_Source\PSoC5/SDSPI_RX_DMA_IRQ.c **** ********************************************************************************
  12:.\Generated_Source\PSoC5/SDSPI_RX_DMA_IRQ.c **** * Copyright 2008-2015, Cypress Semiconductor Corporation.  All rights reserved.
  13:.\Generated_Source\PSoC5/SDSPI_RX_DMA_IRQ.c **** * You may use this file only in accordance with the license, terms, conditions, 
  14:.\Generated_Source\PSoC5/SDSPI_RX_DMA_IRQ.c **** * disclaimers, and limitations in the end user license agreement accompanying 
  15:.\Generated_Source\PSoC5/SDSPI_RX_DMA_IRQ.c **** * the software package with which this file was provided.
  16:.\Generated_Source\PSoC5/SDSPI_RX_DMA_IRQ.c **** *******************************************************************************/
  17:.\Generated_Source\PSoC5/SDSPI_RX_DMA_IRQ.c **** 
  18:.\Generated_Source\PSoC5/SDSPI_RX_DMA_IRQ.c **** 
  19:.\Generated_Source\PSoC5/SDSPI_RX_DMA_IRQ.c **** #include <cydevice_trm.h>
  20:.\Generated_Source\PSoC5/SDSPI_RX_DMA_IRQ.c **** #include <CyLib.h>
  21:.\Generated_Source\PSoC5/SDSPI_RX_DMA_IRQ.c **** #include <SDSPI_RX_DMA_IRQ.h>
  22:.\Generated_Source\PSoC5/SDSPI_RX_DMA_IRQ.c **** #include "cyapicallbacks.h"
  23:.\Generated_Source\PSoC5/SDSPI_RX_DMA_IRQ.c **** 
  24:.\Generated_Source\PSoC5/SDSPI_RX_DMA_IRQ.c **** #if !defined(SDSPI_RX_DMA_IRQ__REMOVED) /* Check for removal by optimization */
  25:.\Generated_Source\PSoC5/SDSPI_RX_DMA_IRQ.c **** 
  26:.\Generated_Source\PSoC5/SDSPI_RX_DMA_IRQ.c **** /*******************************************************************************
  27:.\Generated_Source\PSoC5/SDSPI_RX_DMA_IRQ.c **** *  Place your includes, defines and code here 
  28:.\Generated_Source\PSoC5/SDSPI_RX_DMA_IRQ.c **** ********************************************************************************/
  29:.\Generated_Source\PSoC5/SDSPI_RX_DMA_IRQ.c **** /* `#START SDSPI_RX_DMA_IRQ_intc` */
  30:.\Generated_Source\PSoC5/SDSPI_RX_DMA_IRQ.c **** 
  31:.\Generated_Source\PSoC5/SDSPI_RX_DMA_IRQ.c **** /* `#END` */
ARM GAS  C:\Users\honet\AppData\Local\Temp\cc8NWylb.s 			page 2


  32:.\Generated_Source\PSoC5/SDSPI_RX_DMA_IRQ.c **** 
  33:.\Generated_Source\PSoC5/SDSPI_RX_DMA_IRQ.c **** #ifndef CYINT_IRQ_BASE
  34:.\Generated_Source\PSoC5/SDSPI_RX_DMA_IRQ.c **** #define CYINT_IRQ_BASE      16
  35:.\Generated_Source\PSoC5/SDSPI_RX_DMA_IRQ.c **** #endif /* CYINT_IRQ_BASE */
  36:.\Generated_Source\PSoC5/SDSPI_RX_DMA_IRQ.c **** #ifndef CYINT_VECT_TABLE
  37:.\Generated_Source\PSoC5/SDSPI_RX_DMA_IRQ.c **** #define CYINT_VECT_TABLE    ((cyisraddress **) CYREG_NVIC_VECT_OFFSET)
  38:.\Generated_Source\PSoC5/SDSPI_RX_DMA_IRQ.c **** #endif /* CYINT_VECT_TABLE */
  39:.\Generated_Source\PSoC5/SDSPI_RX_DMA_IRQ.c **** 
  40:.\Generated_Source\PSoC5/SDSPI_RX_DMA_IRQ.c **** /* Declared in startup, used to set unused interrupts to. */
  41:.\Generated_Source\PSoC5/SDSPI_RX_DMA_IRQ.c **** CY_ISR_PROTO(IntDefaultHandler);
  42:.\Generated_Source\PSoC5/SDSPI_RX_DMA_IRQ.c **** 
  43:.\Generated_Source\PSoC5/SDSPI_RX_DMA_IRQ.c **** 
  44:.\Generated_Source\PSoC5/SDSPI_RX_DMA_IRQ.c **** /*******************************************************************************
  45:.\Generated_Source\PSoC5/SDSPI_RX_DMA_IRQ.c **** * Function Name: SDSPI_RX_DMA_IRQ_Start
  46:.\Generated_Source\PSoC5/SDSPI_RX_DMA_IRQ.c **** ********************************************************************************
  47:.\Generated_Source\PSoC5/SDSPI_RX_DMA_IRQ.c **** *
  48:.\Generated_Source\PSoC5/SDSPI_RX_DMA_IRQ.c **** * Summary:
  49:.\Generated_Source\PSoC5/SDSPI_RX_DMA_IRQ.c **** *  Set up the interrupt and enable it. This function disables the interrupt, 
  50:.\Generated_Source\PSoC5/SDSPI_RX_DMA_IRQ.c **** *  sets the default interrupt vector, sets the priority from the value in the
  51:.\Generated_Source\PSoC5/SDSPI_RX_DMA_IRQ.c **** *  Design Wide Resources Interrupt Editor, then enables the interrupt to the 
  52:.\Generated_Source\PSoC5/SDSPI_RX_DMA_IRQ.c **** *  interrupt controller.
  53:.\Generated_Source\PSoC5/SDSPI_RX_DMA_IRQ.c **** *
  54:.\Generated_Source\PSoC5/SDSPI_RX_DMA_IRQ.c **** * Parameters:  
  55:.\Generated_Source\PSoC5/SDSPI_RX_DMA_IRQ.c **** *   None
  56:.\Generated_Source\PSoC5/SDSPI_RX_DMA_IRQ.c **** *
  57:.\Generated_Source\PSoC5/SDSPI_RX_DMA_IRQ.c **** * Return:
  58:.\Generated_Source\PSoC5/SDSPI_RX_DMA_IRQ.c **** *   None
  59:.\Generated_Source\PSoC5/SDSPI_RX_DMA_IRQ.c **** *
  60:.\Generated_Source\PSoC5/SDSPI_RX_DMA_IRQ.c **** *******************************************************************************/
  61:.\Generated_Source\PSoC5/SDSPI_RX_DMA_IRQ.c **** void SDSPI_RX_DMA_IRQ_Start(void)
  62:.\Generated_Source\PSoC5/SDSPI_RX_DMA_IRQ.c **** {
  63:.\Generated_Source\PSoC5/SDSPI_RX_DMA_IRQ.c ****     /* For all we know the interrupt is active. */
  64:.\Generated_Source\PSoC5/SDSPI_RX_DMA_IRQ.c ****     SDSPI_RX_DMA_IRQ_Disable();
  65:.\Generated_Source\PSoC5/SDSPI_RX_DMA_IRQ.c **** 
  66:.\Generated_Source\PSoC5/SDSPI_RX_DMA_IRQ.c ****     /* Set the ISR to point to the SDSPI_RX_DMA_IRQ Interrupt. */
  67:.\Generated_Source\PSoC5/SDSPI_RX_DMA_IRQ.c ****     SDSPI_RX_DMA_IRQ_SetVector(&SDSPI_RX_DMA_IRQ_Interrupt);
  68:.\Generated_Source\PSoC5/SDSPI_RX_DMA_IRQ.c **** 
  69:.\Generated_Source\PSoC5/SDSPI_RX_DMA_IRQ.c ****     /* Set the priority. */
  70:.\Generated_Source\PSoC5/SDSPI_RX_DMA_IRQ.c ****     SDSPI_RX_DMA_IRQ_SetPriority((uint8)SDSPI_RX_DMA_IRQ_INTC_PRIOR_NUMBER);
  71:.\Generated_Source\PSoC5/SDSPI_RX_DMA_IRQ.c **** 
  72:.\Generated_Source\PSoC5/SDSPI_RX_DMA_IRQ.c ****     /* Enable it. */
  73:.\Generated_Source\PSoC5/SDSPI_RX_DMA_IRQ.c ****     SDSPI_RX_DMA_IRQ_Enable();
  74:.\Generated_Source\PSoC5/SDSPI_RX_DMA_IRQ.c **** }
  75:.\Generated_Source\PSoC5/SDSPI_RX_DMA_IRQ.c **** 
  76:.\Generated_Source\PSoC5/SDSPI_RX_DMA_IRQ.c **** 
  77:.\Generated_Source\PSoC5/SDSPI_RX_DMA_IRQ.c **** /*******************************************************************************
  78:.\Generated_Source\PSoC5/SDSPI_RX_DMA_IRQ.c **** * Function Name: SDSPI_RX_DMA_IRQ_StartEx
  79:.\Generated_Source\PSoC5/SDSPI_RX_DMA_IRQ.c **** ********************************************************************************
  80:.\Generated_Source\PSoC5/SDSPI_RX_DMA_IRQ.c **** *
  81:.\Generated_Source\PSoC5/SDSPI_RX_DMA_IRQ.c **** * Summary:
  82:.\Generated_Source\PSoC5/SDSPI_RX_DMA_IRQ.c **** *  Sets up the interrupt and enables it. This function disables the interrupt,
  83:.\Generated_Source\PSoC5/SDSPI_RX_DMA_IRQ.c **** *  sets the interrupt vector based on the address passed in, sets the priority 
  84:.\Generated_Source\PSoC5/SDSPI_RX_DMA_IRQ.c **** *  from the value in the Design Wide Resources Interrupt Editor, then enables 
  85:.\Generated_Source\PSoC5/SDSPI_RX_DMA_IRQ.c **** *  the interrupt to the interrupt controller.
  86:.\Generated_Source\PSoC5/SDSPI_RX_DMA_IRQ.c **** *  
  87:.\Generated_Source\PSoC5/SDSPI_RX_DMA_IRQ.c **** *  When defining ISR functions, the CY_ISR and CY_ISR_PROTO macros should be 
  88:.\Generated_Source\PSoC5/SDSPI_RX_DMA_IRQ.c **** *  used to provide consistent definition across compilers:
ARM GAS  C:\Users\honet\AppData\Local\Temp\cc8NWylb.s 			page 3


  89:.\Generated_Source\PSoC5/SDSPI_RX_DMA_IRQ.c **** *  
  90:.\Generated_Source\PSoC5/SDSPI_RX_DMA_IRQ.c **** *  Function definition example:
  91:.\Generated_Source\PSoC5/SDSPI_RX_DMA_IRQ.c **** *   CY_ISR(MyISR)
  92:.\Generated_Source\PSoC5/SDSPI_RX_DMA_IRQ.c **** *   {
  93:.\Generated_Source\PSoC5/SDSPI_RX_DMA_IRQ.c **** *   }
  94:.\Generated_Source\PSoC5/SDSPI_RX_DMA_IRQ.c **** *   Function prototype example:
  95:.\Generated_Source\PSoC5/SDSPI_RX_DMA_IRQ.c **** *   CY_ISR_PROTO(MyISR);
  96:.\Generated_Source\PSoC5/SDSPI_RX_DMA_IRQ.c **** *
  97:.\Generated_Source\PSoC5/SDSPI_RX_DMA_IRQ.c **** * Parameters:  
  98:.\Generated_Source\PSoC5/SDSPI_RX_DMA_IRQ.c **** *   address: Address of the ISR to set in the interrupt vector table.
  99:.\Generated_Source\PSoC5/SDSPI_RX_DMA_IRQ.c **** *
 100:.\Generated_Source\PSoC5/SDSPI_RX_DMA_IRQ.c **** * Return:
 101:.\Generated_Source\PSoC5/SDSPI_RX_DMA_IRQ.c **** *   None
 102:.\Generated_Source\PSoC5/SDSPI_RX_DMA_IRQ.c **** *
 103:.\Generated_Source\PSoC5/SDSPI_RX_DMA_IRQ.c **** *******************************************************************************/
 104:.\Generated_Source\PSoC5/SDSPI_RX_DMA_IRQ.c **** void SDSPI_RX_DMA_IRQ_StartEx(cyisraddress address)
 105:.\Generated_Source\PSoC5/SDSPI_RX_DMA_IRQ.c **** {
 106:.\Generated_Source\PSoC5/SDSPI_RX_DMA_IRQ.c ****     /* For all we know the interrupt is active. */
 107:.\Generated_Source\PSoC5/SDSPI_RX_DMA_IRQ.c ****     SDSPI_RX_DMA_IRQ_Disable();
 108:.\Generated_Source\PSoC5/SDSPI_RX_DMA_IRQ.c **** 
 109:.\Generated_Source\PSoC5/SDSPI_RX_DMA_IRQ.c ****     /* Set the ISR to point to the SDSPI_RX_DMA_IRQ Interrupt. */
 110:.\Generated_Source\PSoC5/SDSPI_RX_DMA_IRQ.c ****     SDSPI_RX_DMA_IRQ_SetVector(address);
 111:.\Generated_Source\PSoC5/SDSPI_RX_DMA_IRQ.c **** 
 112:.\Generated_Source\PSoC5/SDSPI_RX_DMA_IRQ.c ****     /* Set the priority. */
 113:.\Generated_Source\PSoC5/SDSPI_RX_DMA_IRQ.c ****     SDSPI_RX_DMA_IRQ_SetPriority((uint8)SDSPI_RX_DMA_IRQ_INTC_PRIOR_NUMBER);
 114:.\Generated_Source\PSoC5/SDSPI_RX_DMA_IRQ.c **** 
 115:.\Generated_Source\PSoC5/SDSPI_RX_DMA_IRQ.c ****     /* Enable it. */
 116:.\Generated_Source\PSoC5/SDSPI_RX_DMA_IRQ.c ****     SDSPI_RX_DMA_IRQ_Enable();
 117:.\Generated_Source\PSoC5/SDSPI_RX_DMA_IRQ.c **** }
 118:.\Generated_Source\PSoC5/SDSPI_RX_DMA_IRQ.c **** 
 119:.\Generated_Source\PSoC5/SDSPI_RX_DMA_IRQ.c **** 
 120:.\Generated_Source\PSoC5/SDSPI_RX_DMA_IRQ.c **** /*******************************************************************************
 121:.\Generated_Source\PSoC5/SDSPI_RX_DMA_IRQ.c **** * Function Name: SDSPI_RX_DMA_IRQ_Stop
 122:.\Generated_Source\PSoC5/SDSPI_RX_DMA_IRQ.c **** ********************************************************************************
 123:.\Generated_Source\PSoC5/SDSPI_RX_DMA_IRQ.c **** *
 124:.\Generated_Source\PSoC5/SDSPI_RX_DMA_IRQ.c **** * Summary:
 125:.\Generated_Source\PSoC5/SDSPI_RX_DMA_IRQ.c **** *   Disables and removes the interrupt.
 126:.\Generated_Source\PSoC5/SDSPI_RX_DMA_IRQ.c **** *
 127:.\Generated_Source\PSoC5/SDSPI_RX_DMA_IRQ.c **** * Parameters:  
 128:.\Generated_Source\PSoC5/SDSPI_RX_DMA_IRQ.c **** *   None
 129:.\Generated_Source\PSoC5/SDSPI_RX_DMA_IRQ.c **** *
 130:.\Generated_Source\PSoC5/SDSPI_RX_DMA_IRQ.c **** * Return:
 131:.\Generated_Source\PSoC5/SDSPI_RX_DMA_IRQ.c **** *   None
 132:.\Generated_Source\PSoC5/SDSPI_RX_DMA_IRQ.c **** *
 133:.\Generated_Source\PSoC5/SDSPI_RX_DMA_IRQ.c **** *******************************************************************************/
 134:.\Generated_Source\PSoC5/SDSPI_RX_DMA_IRQ.c **** void SDSPI_RX_DMA_IRQ_Stop(void)
 135:.\Generated_Source\PSoC5/SDSPI_RX_DMA_IRQ.c **** {
 136:.\Generated_Source\PSoC5/SDSPI_RX_DMA_IRQ.c ****     /* Disable this interrupt. */
 137:.\Generated_Source\PSoC5/SDSPI_RX_DMA_IRQ.c ****     SDSPI_RX_DMA_IRQ_Disable();
 138:.\Generated_Source\PSoC5/SDSPI_RX_DMA_IRQ.c **** 
 139:.\Generated_Source\PSoC5/SDSPI_RX_DMA_IRQ.c ****     /* Set the ISR to point to the passive one. */
 140:.\Generated_Source\PSoC5/SDSPI_RX_DMA_IRQ.c ****     SDSPI_RX_DMA_IRQ_SetVector(&IntDefaultHandler);
 141:.\Generated_Source\PSoC5/SDSPI_RX_DMA_IRQ.c **** }
 142:.\Generated_Source\PSoC5/SDSPI_RX_DMA_IRQ.c **** 
 143:.\Generated_Source\PSoC5/SDSPI_RX_DMA_IRQ.c **** 
 144:.\Generated_Source\PSoC5/SDSPI_RX_DMA_IRQ.c **** /*******************************************************************************
 145:.\Generated_Source\PSoC5/SDSPI_RX_DMA_IRQ.c **** * Function Name: SDSPI_RX_DMA_IRQ_Interrupt
ARM GAS  C:\Users\honet\AppData\Local\Temp\cc8NWylb.s 			page 4


 146:.\Generated_Source\PSoC5/SDSPI_RX_DMA_IRQ.c **** ********************************************************************************
 147:.\Generated_Source\PSoC5/SDSPI_RX_DMA_IRQ.c **** *
 148:.\Generated_Source\PSoC5/SDSPI_RX_DMA_IRQ.c **** * Summary:
 149:.\Generated_Source\PSoC5/SDSPI_RX_DMA_IRQ.c **** *   The default Interrupt Service Routine for SDSPI_RX_DMA_IRQ.
 150:.\Generated_Source\PSoC5/SDSPI_RX_DMA_IRQ.c **** *
 151:.\Generated_Source\PSoC5/SDSPI_RX_DMA_IRQ.c **** *   Add custom code between the coments to keep the next version of this file
 152:.\Generated_Source\PSoC5/SDSPI_RX_DMA_IRQ.c **** *   from over writting your code.
 153:.\Generated_Source\PSoC5/SDSPI_RX_DMA_IRQ.c **** *
 154:.\Generated_Source\PSoC5/SDSPI_RX_DMA_IRQ.c **** * Parameters:  
 155:.\Generated_Source\PSoC5/SDSPI_RX_DMA_IRQ.c **** *
 156:.\Generated_Source\PSoC5/SDSPI_RX_DMA_IRQ.c **** * Return:
 157:.\Generated_Source\PSoC5/SDSPI_RX_DMA_IRQ.c **** *   None
 158:.\Generated_Source\PSoC5/SDSPI_RX_DMA_IRQ.c **** *
 159:.\Generated_Source\PSoC5/SDSPI_RX_DMA_IRQ.c **** *******************************************************************************/
 160:.\Generated_Source\PSoC5/SDSPI_RX_DMA_IRQ.c **** CY_ISR(SDSPI_RX_DMA_IRQ_Interrupt)
 161:.\Generated_Source\PSoC5/SDSPI_RX_DMA_IRQ.c **** {
  27              		.loc 1 161 0
  28              		.cfi_startproc
  29              		@ args = 0, pretend = 0, frame = 0
  30              		@ frame_needed = 0, uses_anonymous_args = 0
  31              		@ link register save eliminated.
  32 0000 7047     		bx	lr
  33              		.cfi_endproc
  34              	.LFE3:
  35              		.size	SDSPI_RX_DMA_IRQ_Interrupt, .-SDSPI_RX_DMA_IRQ_Interrupt
  36 0002 00BF     		.section	.text.SDSPI_RX_DMA_IRQ_Start,"ax",%progbits
  37              		.align	2
  38              		.global	SDSPI_RX_DMA_IRQ_Start
  39              		.thumb
  40              		.thumb_func
  41              		.type	SDSPI_RX_DMA_IRQ_Start, %function
  42              	SDSPI_RX_DMA_IRQ_Start:
  43              	.LFB0:
  62:.\Generated_Source\PSoC5/SDSPI_RX_DMA_IRQ.c ****     /* For all we know the interrupt is active. */
  44              		.loc 1 62 0
  45              		.cfi_startproc
  46              		@ args = 0, pretend = 0, frame = 0
  47              		@ frame_needed = 0, uses_anonymous_args = 0
  48              		@ link register save eliminated.
  62:.\Generated_Source\PSoC5/SDSPI_RX_DMA_IRQ.c ****     /* For all we know the interrupt is active. */
  49              		.loc 1 62 0
  50 0000 70B4     		push	{r4, r5, r6}
  51              		.cfi_def_cfa_offset 12
  52              		.cfi_offset 4, -12
  53              		.cfi_offset 5, -8
  54              		.cfi_offset 6, -4
  55              	.LBB22:
  56              	.LBB23:
 162:.\Generated_Source\PSoC5/SDSPI_RX_DMA_IRQ.c ****     #ifdef SDSPI_RX_DMA_IRQ_INTERRUPT_INTERRUPT_CALLBACK
 163:.\Generated_Source\PSoC5/SDSPI_RX_DMA_IRQ.c ****         SDSPI_RX_DMA_IRQ_Interrupt_InterruptCallback();
 164:.\Generated_Source\PSoC5/SDSPI_RX_DMA_IRQ.c ****     #endif /* SDSPI_RX_DMA_IRQ_INTERRUPT_INTERRUPT_CALLBACK */ 
 165:.\Generated_Source\PSoC5/SDSPI_RX_DMA_IRQ.c **** 
 166:.\Generated_Source\PSoC5/SDSPI_RX_DMA_IRQ.c ****     /*  Place your Interrupt code here. */
 167:.\Generated_Source\PSoC5/SDSPI_RX_DMA_IRQ.c ****     /* `#START SDSPI_RX_DMA_IRQ_Interrupt` */
 168:.\Generated_Source\PSoC5/SDSPI_RX_DMA_IRQ.c **** 
 169:.\Generated_Source\PSoC5/SDSPI_RX_DMA_IRQ.c ****     /* `#END` */
 170:.\Generated_Source\PSoC5/SDSPI_RX_DMA_IRQ.c **** }
ARM GAS  C:\Users\honet\AppData\Local\Temp\cc8NWylb.s 			page 5


 171:.\Generated_Source\PSoC5/SDSPI_RX_DMA_IRQ.c **** 
 172:.\Generated_Source\PSoC5/SDSPI_RX_DMA_IRQ.c **** 
 173:.\Generated_Source\PSoC5/SDSPI_RX_DMA_IRQ.c **** /*******************************************************************************
 174:.\Generated_Source\PSoC5/SDSPI_RX_DMA_IRQ.c **** * Function Name: SDSPI_RX_DMA_IRQ_SetVector
 175:.\Generated_Source\PSoC5/SDSPI_RX_DMA_IRQ.c **** ********************************************************************************
 176:.\Generated_Source\PSoC5/SDSPI_RX_DMA_IRQ.c **** *
 177:.\Generated_Source\PSoC5/SDSPI_RX_DMA_IRQ.c **** * Summary:
 178:.\Generated_Source\PSoC5/SDSPI_RX_DMA_IRQ.c **** *   Change the ISR vector for the Interrupt. Note calling SDSPI_RX_DMA_IRQ_Start
 179:.\Generated_Source\PSoC5/SDSPI_RX_DMA_IRQ.c **** *   will override any effect this method would have had. To set the vector 
 180:.\Generated_Source\PSoC5/SDSPI_RX_DMA_IRQ.c **** *   before the component has been started use SDSPI_RX_DMA_IRQ_StartEx instead.
 181:.\Generated_Source\PSoC5/SDSPI_RX_DMA_IRQ.c **** * 
 182:.\Generated_Source\PSoC5/SDSPI_RX_DMA_IRQ.c **** *   When defining ISR functions, the CY_ISR and CY_ISR_PROTO macros should be 
 183:.\Generated_Source\PSoC5/SDSPI_RX_DMA_IRQ.c **** *   used to provide consistent definition across compilers:
 184:.\Generated_Source\PSoC5/SDSPI_RX_DMA_IRQ.c **** *
 185:.\Generated_Source\PSoC5/SDSPI_RX_DMA_IRQ.c **** *   Function definition example:
 186:.\Generated_Source\PSoC5/SDSPI_RX_DMA_IRQ.c **** *   CY_ISR(MyISR)
 187:.\Generated_Source\PSoC5/SDSPI_RX_DMA_IRQ.c **** *   {
 188:.\Generated_Source\PSoC5/SDSPI_RX_DMA_IRQ.c **** *   }
 189:.\Generated_Source\PSoC5/SDSPI_RX_DMA_IRQ.c **** *
 190:.\Generated_Source\PSoC5/SDSPI_RX_DMA_IRQ.c **** *   Function prototype example:
 191:.\Generated_Source\PSoC5/SDSPI_RX_DMA_IRQ.c **** *     CY_ISR_PROTO(MyISR);
 192:.\Generated_Source\PSoC5/SDSPI_RX_DMA_IRQ.c **** *
 193:.\Generated_Source\PSoC5/SDSPI_RX_DMA_IRQ.c **** * Parameters:
 194:.\Generated_Source\PSoC5/SDSPI_RX_DMA_IRQ.c **** *   address: Address of the ISR to set in the interrupt vector table.
 195:.\Generated_Source\PSoC5/SDSPI_RX_DMA_IRQ.c **** *
 196:.\Generated_Source\PSoC5/SDSPI_RX_DMA_IRQ.c **** * Return:
 197:.\Generated_Source\PSoC5/SDSPI_RX_DMA_IRQ.c **** *   None
 198:.\Generated_Source\PSoC5/SDSPI_RX_DMA_IRQ.c **** *
 199:.\Generated_Source\PSoC5/SDSPI_RX_DMA_IRQ.c **** *******************************************************************************/
 200:.\Generated_Source\PSoC5/SDSPI_RX_DMA_IRQ.c **** void SDSPI_RX_DMA_IRQ_SetVector(cyisraddress address)
 201:.\Generated_Source\PSoC5/SDSPI_RX_DMA_IRQ.c **** {
 202:.\Generated_Source\PSoC5/SDSPI_RX_DMA_IRQ.c ****     cyisraddress * ramVectorTable;
 203:.\Generated_Source\PSoC5/SDSPI_RX_DMA_IRQ.c **** 
 204:.\Generated_Source\PSoC5/SDSPI_RX_DMA_IRQ.c ****     ramVectorTable = (cyisraddress *) *CYINT_VECT_TABLE;
  57              		.loc 1 204 0
  58 0002 074B     		ldr	r3, .L4
  59              	.LBE23:
  60              	.LBE22:
  61              	.LBB26:
  62              	.LBB27:
 205:.\Generated_Source\PSoC5/SDSPI_RX_DMA_IRQ.c **** 
 206:.\Generated_Source\PSoC5/SDSPI_RX_DMA_IRQ.c ****     ramVectorTable[CYINT_IRQ_BASE + (uint32)SDSPI_RX_DMA_IRQ__INTC_NUMBER] = address;
 207:.\Generated_Source\PSoC5/SDSPI_RX_DMA_IRQ.c **** }
 208:.\Generated_Source\PSoC5/SDSPI_RX_DMA_IRQ.c **** 
 209:.\Generated_Source\PSoC5/SDSPI_RX_DMA_IRQ.c **** 
 210:.\Generated_Source\PSoC5/SDSPI_RX_DMA_IRQ.c **** /*******************************************************************************
 211:.\Generated_Source\PSoC5/SDSPI_RX_DMA_IRQ.c **** * Function Name: SDSPI_RX_DMA_IRQ_GetVector
 212:.\Generated_Source\PSoC5/SDSPI_RX_DMA_IRQ.c **** ********************************************************************************
 213:.\Generated_Source\PSoC5/SDSPI_RX_DMA_IRQ.c **** *
 214:.\Generated_Source\PSoC5/SDSPI_RX_DMA_IRQ.c **** * Summary:
 215:.\Generated_Source\PSoC5/SDSPI_RX_DMA_IRQ.c **** *   Gets the "address" of the current ISR vector for the Interrupt.
 216:.\Generated_Source\PSoC5/SDSPI_RX_DMA_IRQ.c **** *
 217:.\Generated_Source\PSoC5/SDSPI_RX_DMA_IRQ.c **** * Parameters:
 218:.\Generated_Source\PSoC5/SDSPI_RX_DMA_IRQ.c **** *   None
 219:.\Generated_Source\PSoC5/SDSPI_RX_DMA_IRQ.c **** *
 220:.\Generated_Source\PSoC5/SDSPI_RX_DMA_IRQ.c **** * Return:
 221:.\Generated_Source\PSoC5/SDSPI_RX_DMA_IRQ.c **** *   Address of the ISR in the interrupt vector table.
ARM GAS  C:\Users\honet\AppData\Local\Temp\cc8NWylb.s 			page 6


 222:.\Generated_Source\PSoC5/SDSPI_RX_DMA_IRQ.c **** *
 223:.\Generated_Source\PSoC5/SDSPI_RX_DMA_IRQ.c **** *******************************************************************************/
 224:.\Generated_Source\PSoC5/SDSPI_RX_DMA_IRQ.c **** cyisraddress SDSPI_RX_DMA_IRQ_GetVector(void)
 225:.\Generated_Source\PSoC5/SDSPI_RX_DMA_IRQ.c **** {
 226:.\Generated_Source\PSoC5/SDSPI_RX_DMA_IRQ.c ****     cyisraddress * ramVectorTable;
 227:.\Generated_Source\PSoC5/SDSPI_RX_DMA_IRQ.c **** 
 228:.\Generated_Source\PSoC5/SDSPI_RX_DMA_IRQ.c ****     ramVectorTable = (cyisraddress *) *CYINT_VECT_TABLE;
 229:.\Generated_Source\PSoC5/SDSPI_RX_DMA_IRQ.c **** 
 230:.\Generated_Source\PSoC5/SDSPI_RX_DMA_IRQ.c ****     return ramVectorTable[CYINT_IRQ_BASE + (uint32)SDSPI_RX_DMA_IRQ__INTC_NUMBER];
 231:.\Generated_Source\PSoC5/SDSPI_RX_DMA_IRQ.c **** }
 232:.\Generated_Source\PSoC5/SDSPI_RX_DMA_IRQ.c **** 
 233:.\Generated_Source\PSoC5/SDSPI_RX_DMA_IRQ.c **** 
 234:.\Generated_Source\PSoC5/SDSPI_RX_DMA_IRQ.c **** /*******************************************************************************
 235:.\Generated_Source\PSoC5/SDSPI_RX_DMA_IRQ.c **** * Function Name: SDSPI_RX_DMA_IRQ_SetPriority
 236:.\Generated_Source\PSoC5/SDSPI_RX_DMA_IRQ.c **** ********************************************************************************
 237:.\Generated_Source\PSoC5/SDSPI_RX_DMA_IRQ.c **** *
 238:.\Generated_Source\PSoC5/SDSPI_RX_DMA_IRQ.c **** * Summary:
 239:.\Generated_Source\PSoC5/SDSPI_RX_DMA_IRQ.c **** *   Sets the Priority of the Interrupt. 
 240:.\Generated_Source\PSoC5/SDSPI_RX_DMA_IRQ.c **** *
 241:.\Generated_Source\PSoC5/SDSPI_RX_DMA_IRQ.c **** *   Note calling SDSPI_RX_DMA_IRQ_Start or SDSPI_RX_DMA_IRQ_StartEx will 
 242:.\Generated_Source\PSoC5/SDSPI_RX_DMA_IRQ.c **** *   override any effect this API would have had. This API should only be called
 243:.\Generated_Source\PSoC5/SDSPI_RX_DMA_IRQ.c **** *   after SDSPI_RX_DMA_IRQ_Start or SDSPI_RX_DMA_IRQ_StartEx has been called. 
 244:.\Generated_Source\PSoC5/SDSPI_RX_DMA_IRQ.c **** *   To set the initial priority for the component, use the Design-Wide Resources
 245:.\Generated_Source\PSoC5/SDSPI_RX_DMA_IRQ.c **** *   Interrupt Editor.
 246:.\Generated_Source\PSoC5/SDSPI_RX_DMA_IRQ.c **** *
 247:.\Generated_Source\PSoC5/SDSPI_RX_DMA_IRQ.c **** *   Note This API has no effect on Non-maskable interrupt NMI).
 248:.\Generated_Source\PSoC5/SDSPI_RX_DMA_IRQ.c **** *
 249:.\Generated_Source\PSoC5/SDSPI_RX_DMA_IRQ.c **** * Parameters:
 250:.\Generated_Source\PSoC5/SDSPI_RX_DMA_IRQ.c **** *   priority: Priority of the interrupt, 0 being the highest priority
 251:.\Generated_Source\PSoC5/SDSPI_RX_DMA_IRQ.c **** *             PSoC 3 and PSoC 5LP: Priority is from 0 to 7.
 252:.\Generated_Source\PSoC5/SDSPI_RX_DMA_IRQ.c **** *             PSoC 4: Priority is from 0 to 3.
 253:.\Generated_Source\PSoC5/SDSPI_RX_DMA_IRQ.c **** *
 254:.\Generated_Source\PSoC5/SDSPI_RX_DMA_IRQ.c **** * Return:
 255:.\Generated_Source\PSoC5/SDSPI_RX_DMA_IRQ.c **** *   None
 256:.\Generated_Source\PSoC5/SDSPI_RX_DMA_IRQ.c **** *
 257:.\Generated_Source\PSoC5/SDSPI_RX_DMA_IRQ.c **** *******************************************************************************/
 258:.\Generated_Source\PSoC5/SDSPI_RX_DMA_IRQ.c **** void SDSPI_RX_DMA_IRQ_SetPriority(uint8 priority)
 259:.\Generated_Source\PSoC5/SDSPI_RX_DMA_IRQ.c **** {
 260:.\Generated_Source\PSoC5/SDSPI_RX_DMA_IRQ.c ****     *SDSPI_RX_DMA_IRQ_INTC_PRIOR = priority << 5;
 261:.\Generated_Source\PSoC5/SDSPI_RX_DMA_IRQ.c **** }
 262:.\Generated_Source\PSoC5/SDSPI_RX_DMA_IRQ.c **** 
 263:.\Generated_Source\PSoC5/SDSPI_RX_DMA_IRQ.c **** 
 264:.\Generated_Source\PSoC5/SDSPI_RX_DMA_IRQ.c **** /*******************************************************************************
 265:.\Generated_Source\PSoC5/SDSPI_RX_DMA_IRQ.c **** * Function Name: SDSPI_RX_DMA_IRQ_GetPriority
 266:.\Generated_Source\PSoC5/SDSPI_RX_DMA_IRQ.c **** ********************************************************************************
 267:.\Generated_Source\PSoC5/SDSPI_RX_DMA_IRQ.c **** *
 268:.\Generated_Source\PSoC5/SDSPI_RX_DMA_IRQ.c **** * Summary:
 269:.\Generated_Source\PSoC5/SDSPI_RX_DMA_IRQ.c **** *   Gets the Priority of the Interrupt.
 270:.\Generated_Source\PSoC5/SDSPI_RX_DMA_IRQ.c **** *
 271:.\Generated_Source\PSoC5/SDSPI_RX_DMA_IRQ.c **** * Parameters:
 272:.\Generated_Source\PSoC5/SDSPI_RX_DMA_IRQ.c **** *   None
 273:.\Generated_Source\PSoC5/SDSPI_RX_DMA_IRQ.c **** *
 274:.\Generated_Source\PSoC5/SDSPI_RX_DMA_IRQ.c **** * Return:
 275:.\Generated_Source\PSoC5/SDSPI_RX_DMA_IRQ.c **** *   Priority of the interrupt, 0 being the highest priority
 276:.\Generated_Source\PSoC5/SDSPI_RX_DMA_IRQ.c **** *    PSoC 3 and PSoC 5LP: Priority is from 0 to 7.
 277:.\Generated_Source\PSoC5/SDSPI_RX_DMA_IRQ.c **** *    PSoC 4: Priority is from 0 to 3.
 278:.\Generated_Source\PSoC5/SDSPI_RX_DMA_IRQ.c **** *
ARM GAS  C:\Users\honet\AppData\Local\Temp\cc8NWylb.s 			page 7


 279:.\Generated_Source\PSoC5/SDSPI_RX_DMA_IRQ.c **** *******************************************************************************/
 280:.\Generated_Source\PSoC5/SDSPI_RX_DMA_IRQ.c **** uint8 SDSPI_RX_DMA_IRQ_GetPriority(void)
 281:.\Generated_Source\PSoC5/SDSPI_RX_DMA_IRQ.c **** {
 282:.\Generated_Source\PSoC5/SDSPI_RX_DMA_IRQ.c ****     uint8 priority;
 283:.\Generated_Source\PSoC5/SDSPI_RX_DMA_IRQ.c **** 
 284:.\Generated_Source\PSoC5/SDSPI_RX_DMA_IRQ.c **** 
 285:.\Generated_Source\PSoC5/SDSPI_RX_DMA_IRQ.c ****     priority = *SDSPI_RX_DMA_IRQ_INTC_PRIOR >> 5;
 286:.\Generated_Source\PSoC5/SDSPI_RX_DMA_IRQ.c **** 
 287:.\Generated_Source\PSoC5/SDSPI_RX_DMA_IRQ.c ****     return priority;
 288:.\Generated_Source\PSoC5/SDSPI_RX_DMA_IRQ.c **** }
 289:.\Generated_Source\PSoC5/SDSPI_RX_DMA_IRQ.c **** 
 290:.\Generated_Source\PSoC5/SDSPI_RX_DMA_IRQ.c **** 
 291:.\Generated_Source\PSoC5/SDSPI_RX_DMA_IRQ.c **** /*******************************************************************************
 292:.\Generated_Source\PSoC5/SDSPI_RX_DMA_IRQ.c **** * Function Name: SDSPI_RX_DMA_IRQ_Enable
 293:.\Generated_Source\PSoC5/SDSPI_RX_DMA_IRQ.c **** ********************************************************************************
 294:.\Generated_Source\PSoC5/SDSPI_RX_DMA_IRQ.c **** *
 295:.\Generated_Source\PSoC5/SDSPI_RX_DMA_IRQ.c **** * Summary:
 296:.\Generated_Source\PSoC5/SDSPI_RX_DMA_IRQ.c **** *   Enables the interrupt to the interrupt controller. Do not call this function
 297:.\Generated_Source\PSoC5/SDSPI_RX_DMA_IRQ.c **** *   unless ISR_Start() has been called or the functionality of the ISR_Start() 
 298:.\Generated_Source\PSoC5/SDSPI_RX_DMA_IRQ.c **** *   function, which sets the vector and the priority, has been called.
 299:.\Generated_Source\PSoC5/SDSPI_RX_DMA_IRQ.c **** *
 300:.\Generated_Source\PSoC5/SDSPI_RX_DMA_IRQ.c **** * Parameters:
 301:.\Generated_Source\PSoC5/SDSPI_RX_DMA_IRQ.c **** *   None
 302:.\Generated_Source\PSoC5/SDSPI_RX_DMA_IRQ.c **** *
 303:.\Generated_Source\PSoC5/SDSPI_RX_DMA_IRQ.c **** * Return:
 304:.\Generated_Source\PSoC5/SDSPI_RX_DMA_IRQ.c **** *   None
 305:.\Generated_Source\PSoC5/SDSPI_RX_DMA_IRQ.c **** *
 306:.\Generated_Source\PSoC5/SDSPI_RX_DMA_IRQ.c **** *******************************************************************************/
 307:.\Generated_Source\PSoC5/SDSPI_RX_DMA_IRQ.c **** void SDSPI_RX_DMA_IRQ_Enable(void)
 308:.\Generated_Source\PSoC5/SDSPI_RX_DMA_IRQ.c **** {
 309:.\Generated_Source\PSoC5/SDSPI_RX_DMA_IRQ.c ****     /* Enable the general interrupt. */
 310:.\Generated_Source\PSoC5/SDSPI_RX_DMA_IRQ.c ****     *SDSPI_RX_DMA_IRQ_INTC_SET_EN = SDSPI_RX_DMA_IRQ__INTC_MASK;
 311:.\Generated_Source\PSoC5/SDSPI_RX_DMA_IRQ.c **** }
 312:.\Generated_Source\PSoC5/SDSPI_RX_DMA_IRQ.c **** 
 313:.\Generated_Source\PSoC5/SDSPI_RX_DMA_IRQ.c **** 
 314:.\Generated_Source\PSoC5/SDSPI_RX_DMA_IRQ.c **** /*******************************************************************************
 315:.\Generated_Source\PSoC5/SDSPI_RX_DMA_IRQ.c **** * Function Name: SDSPI_RX_DMA_IRQ_GetState
 316:.\Generated_Source\PSoC5/SDSPI_RX_DMA_IRQ.c **** ********************************************************************************
 317:.\Generated_Source\PSoC5/SDSPI_RX_DMA_IRQ.c **** *
 318:.\Generated_Source\PSoC5/SDSPI_RX_DMA_IRQ.c **** * Summary:
 319:.\Generated_Source\PSoC5/SDSPI_RX_DMA_IRQ.c **** *   Gets the state (enabled, disabled) of the Interrupt.
 320:.\Generated_Source\PSoC5/SDSPI_RX_DMA_IRQ.c **** *
 321:.\Generated_Source\PSoC5/SDSPI_RX_DMA_IRQ.c **** * Parameters:
 322:.\Generated_Source\PSoC5/SDSPI_RX_DMA_IRQ.c **** *   None
 323:.\Generated_Source\PSoC5/SDSPI_RX_DMA_IRQ.c **** *
 324:.\Generated_Source\PSoC5/SDSPI_RX_DMA_IRQ.c **** * Return:
 325:.\Generated_Source\PSoC5/SDSPI_RX_DMA_IRQ.c **** *   1 if enabled, 0 if disabled.
 326:.\Generated_Source\PSoC5/SDSPI_RX_DMA_IRQ.c **** *
 327:.\Generated_Source\PSoC5/SDSPI_RX_DMA_IRQ.c **** *******************************************************************************/
 328:.\Generated_Source\PSoC5/SDSPI_RX_DMA_IRQ.c **** uint8 SDSPI_RX_DMA_IRQ_GetState(void)
 329:.\Generated_Source\PSoC5/SDSPI_RX_DMA_IRQ.c **** {
 330:.\Generated_Source\PSoC5/SDSPI_RX_DMA_IRQ.c ****     /* Get the state of the general interrupt. */
 331:.\Generated_Source\PSoC5/SDSPI_RX_DMA_IRQ.c ****     return ((*SDSPI_RX_DMA_IRQ_INTC_SET_EN & (uint32)SDSPI_RX_DMA_IRQ__INTC_MASK) != 0u) ? 1u:0u;
 332:.\Generated_Source\PSoC5/SDSPI_RX_DMA_IRQ.c **** }
 333:.\Generated_Source\PSoC5/SDSPI_RX_DMA_IRQ.c **** 
 334:.\Generated_Source\PSoC5/SDSPI_RX_DMA_IRQ.c **** 
 335:.\Generated_Source\PSoC5/SDSPI_RX_DMA_IRQ.c **** /*******************************************************************************
ARM GAS  C:\Users\honet\AppData\Local\Temp\cc8NWylb.s 			page 8


 336:.\Generated_Source\PSoC5/SDSPI_RX_DMA_IRQ.c **** * Function Name: SDSPI_RX_DMA_IRQ_Disable
 337:.\Generated_Source\PSoC5/SDSPI_RX_DMA_IRQ.c **** ********************************************************************************
 338:.\Generated_Source\PSoC5/SDSPI_RX_DMA_IRQ.c **** *
 339:.\Generated_Source\PSoC5/SDSPI_RX_DMA_IRQ.c **** * Summary:
 340:.\Generated_Source\PSoC5/SDSPI_RX_DMA_IRQ.c **** *   Disables the Interrupt in the interrupt controller.
 341:.\Generated_Source\PSoC5/SDSPI_RX_DMA_IRQ.c **** *
 342:.\Generated_Source\PSoC5/SDSPI_RX_DMA_IRQ.c **** * Parameters:
 343:.\Generated_Source\PSoC5/SDSPI_RX_DMA_IRQ.c **** *   None
 344:.\Generated_Source\PSoC5/SDSPI_RX_DMA_IRQ.c **** *
 345:.\Generated_Source\PSoC5/SDSPI_RX_DMA_IRQ.c **** * Return:
 346:.\Generated_Source\PSoC5/SDSPI_RX_DMA_IRQ.c **** *   None
 347:.\Generated_Source\PSoC5/SDSPI_RX_DMA_IRQ.c **** *
 348:.\Generated_Source\PSoC5/SDSPI_RX_DMA_IRQ.c **** *******************************************************************************/
 349:.\Generated_Source\PSoC5/SDSPI_RX_DMA_IRQ.c **** void SDSPI_RX_DMA_IRQ_Disable(void)
 350:.\Generated_Source\PSoC5/SDSPI_RX_DMA_IRQ.c **** {
 351:.\Generated_Source\PSoC5/SDSPI_RX_DMA_IRQ.c ****     /* Disable the general interrupt. */
 352:.\Generated_Source\PSoC5/SDSPI_RX_DMA_IRQ.c ****     *SDSPI_RX_DMA_IRQ_INTC_CLR_EN = SDSPI_RX_DMA_IRQ__INTC_MASK;
  63              		.loc 1 352 0
  64 0004 074E     		ldr	r6, .L4+4
  65              	.LBE27:
  66              	.LBE26:
  67              	.LBB30:
  68              	.LBB24:
 204:.\Generated_Source\PSoC5/SDSPI_RX_DMA_IRQ.c **** 
  69              		.loc 1 204 0
  70 0006 1C68     		ldr	r4, [r3]
 206:.\Generated_Source\PSoC5/SDSPI_RX_DMA_IRQ.c **** }
  71              		.loc 1 206 0
  72 0008 074D     		ldr	r5, .L4+8
  73              	.LBE24:
  74              	.LBE30:
  75              	.LBB31:
  76              	.LBB32:
 260:.\Generated_Source\PSoC5/SDSPI_RX_DMA_IRQ.c **** }
  77              		.loc 1 260 0
  78 000a 0849     		ldr	r1, .L4+12
  79              	.LBE32:
  80              	.LBE31:
  81              	.LBB35:
  82              	.LBB28:
  83              		.loc 1 352 0
  84 000c 0123     		movs	r3, #1
  85              	.LBE28:
  86              	.LBE35:
  87              	.LBB36:
  88              	.LBB37:
 310:.\Generated_Source\PSoC5/SDSPI_RX_DMA_IRQ.c **** }
  89              		.loc 1 310 0
  90 000e 084A     		ldr	r2, .L4+16
  91              	.LBE37:
  92              	.LBE36:
  93              	.LBB39:
  94              	.LBB33:
 260:.\Generated_Source\PSoC5/SDSPI_RX_DMA_IRQ.c **** }
  95              		.loc 1 260 0
  96 0010 E020     		movs	r0, #224
  97              	.LBE33:
ARM GAS  C:\Users\honet\AppData\Local\Temp\cc8NWylb.s 			page 9


  98              	.LBE39:
  99              	.LBB40:
 100              	.LBB29:
 101              		.loc 1 352 0
 102 0012 3360     		str	r3, [r6]
 103              	.LVL0:
 104              	.LBE29:
 105              	.LBE40:
 106              	.LBB41:
 107              	.LBB25:
 206:.\Generated_Source\PSoC5/SDSPI_RX_DMA_IRQ.c **** }
 108              		.loc 1 206 0
 109 0014 2564     		str	r5, [r4, #64]
 110              	.LVL1:
 111              	.LBE25:
 112              	.LBE41:
 113              	.LBB42:
 114              	.LBB34:
 260:.\Generated_Source\PSoC5/SDSPI_RX_DMA_IRQ.c **** }
 115              		.loc 1 260 0
 116 0016 0870     		strb	r0, [r1]
 117              	.LBE34:
 118              	.LBE42:
  74:.\Generated_Source\PSoC5/SDSPI_RX_DMA_IRQ.c **** 
 119              		.loc 1 74 0
 120 0018 70BC     		pop	{r4, r5, r6}
 121              		.cfi_restore 6
 122              		.cfi_restore 5
 123              		.cfi_restore 4
 124              		.cfi_def_cfa_offset 0
 125              	.LVL2:
 126              	.LBB43:
 127              	.LBB38:
 310:.\Generated_Source\PSoC5/SDSPI_RX_DMA_IRQ.c **** }
 128              		.loc 1 310 0
 129 001a 1360     		str	r3, [r2]
 130              	.LBE38:
 131              	.LBE43:
  74:.\Generated_Source\PSoC5/SDSPI_RX_DMA_IRQ.c **** 
 132              		.loc 1 74 0
 133 001c 7047     		bx	lr
 134              	.L5:
 135 001e 00BF     		.align	2
 136              	.L4:
 137 0020 08ED00E0 		.word	-536810232
 138 0024 80E100E0 		.word	-536813184
 139 0028 00000000 		.word	SDSPI_RX_DMA_IRQ_Interrupt
 140 002c 00E400E0 		.word	-536812544
 141 0030 00E100E0 		.word	-536813312
 142              		.cfi_endproc
 143              	.LFE0:
 144              		.size	SDSPI_RX_DMA_IRQ_Start, .-SDSPI_RX_DMA_IRQ_Start
 145              		.section	.text.SDSPI_RX_DMA_IRQ_StartEx,"ax",%progbits
 146              		.align	2
 147              		.global	SDSPI_RX_DMA_IRQ_StartEx
 148              		.thumb
 149              		.thumb_func
ARM GAS  C:\Users\honet\AppData\Local\Temp\cc8NWylb.s 			page 10


 150              		.type	SDSPI_RX_DMA_IRQ_StartEx, %function
 151              	SDSPI_RX_DMA_IRQ_StartEx:
 152              	.LFB1:
 105:.\Generated_Source\PSoC5/SDSPI_RX_DMA_IRQ.c ****     /* For all we know the interrupt is active. */
 153              		.loc 1 105 0
 154              		.cfi_startproc
 155              		@ args = 0, pretend = 0, frame = 0
 156              		@ frame_needed = 0, uses_anonymous_args = 0
 157              		@ link register save eliminated.
 158              	.LVL3:
 159 0000 70B4     		push	{r4, r5, r6}
 160              		.cfi_def_cfa_offset 12
 161              		.cfi_offset 4, -12
 162              		.cfi_offset 5, -8
 163              		.cfi_offset 6, -4
 164              	.LBB44:
 165              	.LBB45:
 204:.\Generated_Source\PSoC5/SDSPI_RX_DMA_IRQ.c **** 
 166              		.loc 1 204 0
 167 0002 064B     		ldr	r3, .L8
 168              	.LBE45:
 169              	.LBE44:
 170              	.LBB48:
 171              	.LBB49:
 172              		.loc 1 352 0
 173 0004 064E     		ldr	r6, .L8+4
 174              	.LBE49:
 175              	.LBE48:
 176              	.LBB52:
 177              	.LBB46:
 204:.\Generated_Source\PSoC5/SDSPI_RX_DMA_IRQ.c **** 
 178              		.loc 1 204 0
 179 0006 1D68     		ldr	r5, [r3]
 180              	.LBE46:
 181              	.LBE52:
 182              	.LBB53:
 183              	.LBB54:
 260:.\Generated_Source\PSoC5/SDSPI_RX_DMA_IRQ.c **** }
 184              		.loc 1 260 0
 185 0008 0649     		ldr	r1, .L8+8
 186              	.LBE54:
 187              	.LBE53:
 188              	.LBB57:
 189              	.LBB50:
 190              		.loc 1 352 0
 191 000a 0123     		movs	r3, #1
 192              	.LBE50:
 193              	.LBE57:
 194              	.LBB58:
 195              	.LBB55:
 260:.\Generated_Source\PSoC5/SDSPI_RX_DMA_IRQ.c **** }
 196              		.loc 1 260 0
 197 000c E024     		movs	r4, #224
 198              	.LBE55:
 199              	.LBE58:
 200              	.LBB59:
 201              	.LBB60:
ARM GAS  C:\Users\honet\AppData\Local\Temp\cc8NWylb.s 			page 11


 310:.\Generated_Source\PSoC5/SDSPI_RX_DMA_IRQ.c **** }
 202              		.loc 1 310 0
 203 000e 064A     		ldr	r2, .L8+12
 204              	.LBE60:
 205              	.LBE59:
 206              	.LBB62:
 207              	.LBB51:
 208              		.loc 1 352 0
 209 0010 3360     		str	r3, [r6]
 210              	.LVL4:
 211              	.LBE51:
 212              	.LBE62:
 213              	.LBB63:
 214              	.LBB47:
 206:.\Generated_Source\PSoC5/SDSPI_RX_DMA_IRQ.c **** }
 215              		.loc 1 206 0
 216 0012 2864     		str	r0, [r5, #64]
 217              	.LVL5:
 218              	.LBE47:
 219              	.LBE63:
 220              	.LBB64:
 221              	.LBB56:
 260:.\Generated_Source\PSoC5/SDSPI_RX_DMA_IRQ.c **** }
 222              		.loc 1 260 0
 223 0014 0C70     		strb	r4, [r1]
 224              	.LBE56:
 225              	.LBE64:
 117:.\Generated_Source\PSoC5/SDSPI_RX_DMA_IRQ.c **** 
 226              		.loc 1 117 0
 227 0016 70BC     		pop	{r4, r5, r6}
 228              		.cfi_restore 6
 229              		.cfi_restore 5
 230              		.cfi_restore 4
 231              		.cfi_def_cfa_offset 0
 232              	.LVL6:
 233              	.LBB65:
 234              	.LBB61:
 310:.\Generated_Source\PSoC5/SDSPI_RX_DMA_IRQ.c **** }
 235              		.loc 1 310 0
 236 0018 1360     		str	r3, [r2]
 237              	.LBE61:
 238              	.LBE65:
 117:.\Generated_Source\PSoC5/SDSPI_RX_DMA_IRQ.c **** 
 239              		.loc 1 117 0
 240 001a 7047     		bx	lr
 241              	.L9:
 242              		.align	2
 243              	.L8:
 244 001c 08ED00E0 		.word	-536810232
 245 0020 80E100E0 		.word	-536813184
 246 0024 00E400E0 		.word	-536812544
 247 0028 00E100E0 		.word	-536813312
 248              		.cfi_endproc
 249              	.LFE1:
 250              		.size	SDSPI_RX_DMA_IRQ_StartEx, .-SDSPI_RX_DMA_IRQ_StartEx
 251              		.section	.text.SDSPI_RX_DMA_IRQ_Stop,"ax",%progbits
 252              		.align	2
ARM GAS  C:\Users\honet\AppData\Local\Temp\cc8NWylb.s 			page 12


 253              		.global	SDSPI_RX_DMA_IRQ_Stop
 254              		.thumb
 255              		.thumb_func
 256              		.type	SDSPI_RX_DMA_IRQ_Stop, %function
 257              	SDSPI_RX_DMA_IRQ_Stop:
 258              	.LFB2:
 135:.\Generated_Source\PSoC5/SDSPI_RX_DMA_IRQ.c ****     /* Disable this interrupt. */
 259              		.loc 1 135 0
 260              		.cfi_startproc
 261              		@ args = 0, pretend = 0, frame = 0
 262              		@ frame_needed = 0, uses_anonymous_args = 0
 263              		@ link register save eliminated.
 264              	.LBB66:
 265              	.LBB67:
 204:.\Generated_Source\PSoC5/SDSPI_RX_DMA_IRQ.c **** 
 266              		.loc 1 204 0
 267 0000 034B     		ldr	r3, .L11
 268              	.LBE67:
 269              	.LBE66:
 270              	.LBB70:
 271              	.LBB71:
 272              		.loc 1 352 0
 273 0002 0449     		ldr	r1, .L11+4
 274              	.LBE71:
 275              	.LBE70:
 276              	.LBB73:
 277              	.LBB68:
 204:.\Generated_Source\PSoC5/SDSPI_RX_DMA_IRQ.c **** 
 278              		.loc 1 204 0
 279 0004 1B68     		ldr	r3, [r3]
 206:.\Generated_Source\PSoC5/SDSPI_RX_DMA_IRQ.c **** }
 280              		.loc 1 206 0
 281 0006 044A     		ldr	r2, .L11+8
 282              	.LBE68:
 283              	.LBE73:
 284              	.LBB74:
 285              	.LBB72:
 286              		.loc 1 352 0
 287 0008 0120     		movs	r0, #1
 288 000a 0860     		str	r0, [r1]
 289              	.LVL7:
 290              	.LBE72:
 291              	.LBE74:
 292              	.LBB75:
 293              	.LBB69:
 206:.\Generated_Source\PSoC5/SDSPI_RX_DMA_IRQ.c **** }
 294              		.loc 1 206 0
 295 000c 1A64     		str	r2, [r3, #64]
 296 000e 7047     		bx	lr
 297              	.L12:
 298              		.align	2
 299              	.L11:
 300 0010 08ED00E0 		.word	-536810232
 301 0014 80E100E0 		.word	-536813184
 302 0018 00000000 		.word	IntDefaultHandler
 303              	.LBE69:
 304              	.LBE75:
ARM GAS  C:\Users\honet\AppData\Local\Temp\cc8NWylb.s 			page 13


 305              		.cfi_endproc
 306              	.LFE2:
 307              		.size	SDSPI_RX_DMA_IRQ_Stop, .-SDSPI_RX_DMA_IRQ_Stop
 308              		.section	.text.SDSPI_RX_DMA_IRQ_SetVector,"ax",%progbits
 309              		.align	2
 310              		.global	SDSPI_RX_DMA_IRQ_SetVector
 311              		.thumb
 312              		.thumb_func
 313              		.type	SDSPI_RX_DMA_IRQ_SetVector, %function
 314              	SDSPI_RX_DMA_IRQ_SetVector:
 315              	.LFB4:
 201:.\Generated_Source\PSoC5/SDSPI_RX_DMA_IRQ.c ****     cyisraddress * ramVectorTable;
 316              		.loc 1 201 0
 317              		.cfi_startproc
 318              		@ args = 0, pretend = 0, frame = 0
 319              		@ frame_needed = 0, uses_anonymous_args = 0
 320              		@ link register save eliminated.
 321              	.LVL8:
 204:.\Generated_Source\PSoC5/SDSPI_RX_DMA_IRQ.c **** 
 322              		.loc 1 204 0
 323 0000 014B     		ldr	r3, .L14
 324 0002 1B68     		ldr	r3, [r3]
 325              	.LVL9:
 206:.\Generated_Source\PSoC5/SDSPI_RX_DMA_IRQ.c **** }
 326              		.loc 1 206 0
 327 0004 1864     		str	r0, [r3, #64]
 328 0006 7047     		bx	lr
 329              	.L15:
 330              		.align	2
 331              	.L14:
 332 0008 08ED00E0 		.word	-536810232
 333              		.cfi_endproc
 334              	.LFE4:
 335              		.size	SDSPI_RX_DMA_IRQ_SetVector, .-SDSPI_RX_DMA_IRQ_SetVector
 336              		.section	.text.SDSPI_RX_DMA_IRQ_GetVector,"ax",%progbits
 337              		.align	2
 338              		.global	SDSPI_RX_DMA_IRQ_GetVector
 339              		.thumb
 340              		.thumb_func
 341              		.type	SDSPI_RX_DMA_IRQ_GetVector, %function
 342              	SDSPI_RX_DMA_IRQ_GetVector:
 343              	.LFB5:
 225:.\Generated_Source\PSoC5/SDSPI_RX_DMA_IRQ.c ****     cyisraddress * ramVectorTable;
 344              		.loc 1 225 0
 345              		.cfi_startproc
 346              		@ args = 0, pretend = 0, frame = 0
 347              		@ frame_needed = 0, uses_anonymous_args = 0
 348              		@ link register save eliminated.
 349              	.LVL10:
 228:.\Generated_Source\PSoC5/SDSPI_RX_DMA_IRQ.c **** 
 350              		.loc 1 228 0
 351 0000 014B     		ldr	r3, .L17
 352              	.LVL11:
 230:.\Generated_Source\PSoC5/SDSPI_RX_DMA_IRQ.c **** }
 353              		.loc 1 230 0
 354 0002 1B68     		ldr	r3, [r3]
 355              	.LVL12:
ARM GAS  C:\Users\honet\AppData\Local\Temp\cc8NWylb.s 			page 14


 231:.\Generated_Source\PSoC5/SDSPI_RX_DMA_IRQ.c **** 
 356              		.loc 1 231 0
 357 0004 186C     		ldr	r0, [r3, #64]
 358 0006 7047     		bx	lr
 359              	.L18:
 360              		.align	2
 361              	.L17:
 362 0008 08ED00E0 		.word	-536810232
 363              		.cfi_endproc
 364              	.LFE5:
 365              		.size	SDSPI_RX_DMA_IRQ_GetVector, .-SDSPI_RX_DMA_IRQ_GetVector
 366              		.section	.text.SDSPI_RX_DMA_IRQ_SetPriority,"ax",%progbits
 367              		.align	2
 368              		.global	SDSPI_RX_DMA_IRQ_SetPriority
 369              		.thumb
 370              		.thumb_func
 371              		.type	SDSPI_RX_DMA_IRQ_SetPriority, %function
 372              	SDSPI_RX_DMA_IRQ_SetPriority:
 373              	.LFB6:
 259:.\Generated_Source\PSoC5/SDSPI_RX_DMA_IRQ.c ****     *SDSPI_RX_DMA_IRQ_INTC_PRIOR = priority << 5;
 374              		.loc 1 259 0
 375              		.cfi_startproc
 376              		@ args = 0, pretend = 0, frame = 0
 377              		@ frame_needed = 0, uses_anonymous_args = 0
 378              		@ link register save eliminated.
 379              	.LVL13:
 260:.\Generated_Source\PSoC5/SDSPI_RX_DMA_IRQ.c **** }
 380              		.loc 1 260 0
 381 0000 4001     		lsls	r0, r0, #5
 382              	.LVL14:
 383 0002 024B     		ldr	r3, .L20
 384 0004 C0B2     		uxtb	r0, r0
 385 0006 1870     		strb	r0, [r3]
 386 0008 7047     		bx	lr
 387              	.L21:
 388 000a 00BF     		.align	2
 389              	.L20:
 390 000c 00E400E0 		.word	-536812544
 391              		.cfi_endproc
 392              	.LFE6:
 393              		.size	SDSPI_RX_DMA_IRQ_SetPriority, .-SDSPI_RX_DMA_IRQ_SetPriority
 394              		.section	.text.SDSPI_RX_DMA_IRQ_GetPriority,"ax",%progbits
 395              		.align	2
 396              		.global	SDSPI_RX_DMA_IRQ_GetPriority
 397              		.thumb
 398              		.thumb_func
 399              		.type	SDSPI_RX_DMA_IRQ_GetPriority, %function
 400              	SDSPI_RX_DMA_IRQ_GetPriority:
 401              	.LFB7:
 281:.\Generated_Source\PSoC5/SDSPI_RX_DMA_IRQ.c ****     uint8 priority;
 402              		.loc 1 281 0
 403              		.cfi_startproc
 404              		@ args = 0, pretend = 0, frame = 0
 405              		@ frame_needed = 0, uses_anonymous_args = 0
 406              		@ link register save eliminated.
 285:.\Generated_Source\PSoC5/SDSPI_RX_DMA_IRQ.c **** 
 407              		.loc 1 285 0
ARM GAS  C:\Users\honet\AppData\Local\Temp\cc8NWylb.s 			page 15


 408 0000 014B     		ldr	r3, .L23
 409 0002 1878     		ldrb	r0, [r3]	@ zero_extendqisi2
 410              	.LVL15:
 288:.\Generated_Source\PSoC5/SDSPI_RX_DMA_IRQ.c **** 
 411              		.loc 1 288 0
 412 0004 4009     		lsrs	r0, r0, #5
 413              	.LVL16:
 414 0006 7047     		bx	lr
 415              	.L24:
 416              		.align	2
 417              	.L23:
 418 0008 00E400E0 		.word	-536812544
 419              		.cfi_endproc
 420              	.LFE7:
 421              		.size	SDSPI_RX_DMA_IRQ_GetPriority, .-SDSPI_RX_DMA_IRQ_GetPriority
 422              		.section	.text.SDSPI_RX_DMA_IRQ_Enable,"ax",%progbits
 423              		.align	2
 424              		.global	SDSPI_RX_DMA_IRQ_Enable
 425              		.thumb
 426              		.thumb_func
 427              		.type	SDSPI_RX_DMA_IRQ_Enable, %function
 428              	SDSPI_RX_DMA_IRQ_Enable:
 429              	.LFB8:
 308:.\Generated_Source\PSoC5/SDSPI_RX_DMA_IRQ.c ****     /* Enable the general interrupt. */
 430              		.loc 1 308 0
 431              		.cfi_startproc
 432              		@ args = 0, pretend = 0, frame = 0
 433              		@ frame_needed = 0, uses_anonymous_args = 0
 434              		@ link register save eliminated.
 310:.\Generated_Source\PSoC5/SDSPI_RX_DMA_IRQ.c **** }
 435              		.loc 1 310 0
 436 0000 014B     		ldr	r3, .L26
 437 0002 0122     		movs	r2, #1
 438 0004 1A60     		str	r2, [r3]
 439 0006 7047     		bx	lr
 440              	.L27:
 441              		.align	2
 442              	.L26:
 443 0008 00E100E0 		.word	-536813312
 444              		.cfi_endproc
 445              	.LFE8:
 446              		.size	SDSPI_RX_DMA_IRQ_Enable, .-SDSPI_RX_DMA_IRQ_Enable
 447              		.section	.text.SDSPI_RX_DMA_IRQ_GetState,"ax",%progbits
 448              		.align	2
 449              		.global	SDSPI_RX_DMA_IRQ_GetState
 450              		.thumb
 451              		.thumb_func
 452              		.type	SDSPI_RX_DMA_IRQ_GetState, %function
 453              	SDSPI_RX_DMA_IRQ_GetState:
 454              	.LFB9:
 329:.\Generated_Source\PSoC5/SDSPI_RX_DMA_IRQ.c ****     /* Get the state of the general interrupt. */
 455              		.loc 1 329 0
 456              		.cfi_startproc
 457              		@ args = 0, pretend = 0, frame = 0
 458              		@ frame_needed = 0, uses_anonymous_args = 0
 459              		@ link register save eliminated.
 331:.\Generated_Source\PSoC5/SDSPI_RX_DMA_IRQ.c **** }
ARM GAS  C:\Users\honet\AppData\Local\Temp\cc8NWylb.s 			page 16


 460              		.loc 1 331 0
 461 0000 024B     		ldr	r3, .L29
 462 0002 1868     		ldr	r0, [r3]
 332:.\Generated_Source\PSoC5/SDSPI_RX_DMA_IRQ.c **** 
 463              		.loc 1 332 0
 464 0004 00F00100 		and	r0, r0, #1
 465 0008 7047     		bx	lr
 466              	.L30:
 467 000a 00BF     		.align	2
 468              	.L29:
 469 000c 00E100E0 		.word	-536813312
 470              		.cfi_endproc
 471              	.LFE9:
 472              		.size	SDSPI_RX_DMA_IRQ_GetState, .-SDSPI_RX_DMA_IRQ_GetState
 473              		.section	.text.SDSPI_RX_DMA_IRQ_Disable,"ax",%progbits
 474              		.align	2
 475              		.global	SDSPI_RX_DMA_IRQ_Disable
 476              		.thumb
 477              		.thumb_func
 478              		.type	SDSPI_RX_DMA_IRQ_Disable, %function
 479              	SDSPI_RX_DMA_IRQ_Disable:
 480              	.LFB10:
 350:.\Generated_Source\PSoC5/SDSPI_RX_DMA_IRQ.c ****     /* Disable the general interrupt. */
 481              		.loc 1 350 0
 482              		.cfi_startproc
 483              		@ args = 0, pretend = 0, frame = 0
 484              		@ frame_needed = 0, uses_anonymous_args = 0
 485              		@ link register save eliminated.
 486              		.loc 1 352 0
 487 0000 014B     		ldr	r3, .L32
 488 0002 0122     		movs	r2, #1
 489 0004 1A60     		str	r2, [r3]
 490 0006 7047     		bx	lr
 491              	.L33:
 492              		.align	2
 493              	.L32:
 494 0008 80E100E0 		.word	-536813184
 495              		.cfi_endproc
 496              	.LFE10:
 497              		.size	SDSPI_RX_DMA_IRQ_Disable, .-SDSPI_RX_DMA_IRQ_Disable
 498              		.section	.text.SDSPI_RX_DMA_IRQ_SetPending,"ax",%progbits
 499              		.align	2
 500              		.global	SDSPI_RX_DMA_IRQ_SetPending
 501              		.thumb
 502              		.thumb_func
 503              		.type	SDSPI_RX_DMA_IRQ_SetPending, %function
 504              	SDSPI_RX_DMA_IRQ_SetPending:
 505              	.LFB11:
 353:.\Generated_Source\PSoC5/SDSPI_RX_DMA_IRQ.c **** }
 354:.\Generated_Source\PSoC5/SDSPI_RX_DMA_IRQ.c **** 
 355:.\Generated_Source\PSoC5/SDSPI_RX_DMA_IRQ.c **** 
 356:.\Generated_Source\PSoC5/SDSPI_RX_DMA_IRQ.c **** /*******************************************************************************
 357:.\Generated_Source\PSoC5/SDSPI_RX_DMA_IRQ.c **** * Function Name: SDSPI_RX_DMA_IRQ_SetPending
 358:.\Generated_Source\PSoC5/SDSPI_RX_DMA_IRQ.c **** ********************************************************************************
 359:.\Generated_Source\PSoC5/SDSPI_RX_DMA_IRQ.c **** *
 360:.\Generated_Source\PSoC5/SDSPI_RX_DMA_IRQ.c **** * Summary:
 361:.\Generated_Source\PSoC5/SDSPI_RX_DMA_IRQ.c **** *   Causes the Interrupt to enter the pending state, a software method of
ARM GAS  C:\Users\honet\AppData\Local\Temp\cc8NWylb.s 			page 17


 362:.\Generated_Source\PSoC5/SDSPI_RX_DMA_IRQ.c **** *   generating the interrupt.
 363:.\Generated_Source\PSoC5/SDSPI_RX_DMA_IRQ.c **** *
 364:.\Generated_Source\PSoC5/SDSPI_RX_DMA_IRQ.c **** * Parameters:
 365:.\Generated_Source\PSoC5/SDSPI_RX_DMA_IRQ.c **** *   None
 366:.\Generated_Source\PSoC5/SDSPI_RX_DMA_IRQ.c **** *
 367:.\Generated_Source\PSoC5/SDSPI_RX_DMA_IRQ.c **** * Return:
 368:.\Generated_Source\PSoC5/SDSPI_RX_DMA_IRQ.c **** *   None
 369:.\Generated_Source\PSoC5/SDSPI_RX_DMA_IRQ.c **** *
 370:.\Generated_Source\PSoC5/SDSPI_RX_DMA_IRQ.c **** * Side Effects:
 371:.\Generated_Source\PSoC5/SDSPI_RX_DMA_IRQ.c **** *   If interrupts are enabled and the interrupt is set up properly, the ISR is
 372:.\Generated_Source\PSoC5/SDSPI_RX_DMA_IRQ.c **** *   entered (depending on the priority of this interrupt and other pending 
 373:.\Generated_Source\PSoC5/SDSPI_RX_DMA_IRQ.c **** *   interrupts).
 374:.\Generated_Source\PSoC5/SDSPI_RX_DMA_IRQ.c **** *
 375:.\Generated_Source\PSoC5/SDSPI_RX_DMA_IRQ.c **** *******************************************************************************/
 376:.\Generated_Source\PSoC5/SDSPI_RX_DMA_IRQ.c **** void SDSPI_RX_DMA_IRQ_SetPending(void)
 377:.\Generated_Source\PSoC5/SDSPI_RX_DMA_IRQ.c **** {
 506              		.loc 1 377 0
 507              		.cfi_startproc
 508              		@ args = 0, pretend = 0, frame = 0
 509              		@ frame_needed = 0, uses_anonymous_args = 0
 510              		@ link register save eliminated.
 378:.\Generated_Source\PSoC5/SDSPI_RX_DMA_IRQ.c ****     *SDSPI_RX_DMA_IRQ_INTC_SET_PD = SDSPI_RX_DMA_IRQ__INTC_MASK;
 511              		.loc 1 378 0
 512 0000 014B     		ldr	r3, .L35
 513 0002 0122     		movs	r2, #1
 514 0004 1A60     		str	r2, [r3]
 515 0006 7047     		bx	lr
 516              	.L36:
 517              		.align	2
 518              	.L35:
 519 0008 00E200E0 		.word	-536813056
 520              		.cfi_endproc
 521              	.LFE11:
 522              		.size	SDSPI_RX_DMA_IRQ_SetPending, .-SDSPI_RX_DMA_IRQ_SetPending
 523              		.section	.text.SDSPI_RX_DMA_IRQ_ClearPending,"ax",%progbits
 524              		.align	2
 525              		.global	SDSPI_RX_DMA_IRQ_ClearPending
 526              		.thumb
 527              		.thumb_func
 528              		.type	SDSPI_RX_DMA_IRQ_ClearPending, %function
 529              	SDSPI_RX_DMA_IRQ_ClearPending:
 530              	.LFB12:
 379:.\Generated_Source\PSoC5/SDSPI_RX_DMA_IRQ.c **** }
 380:.\Generated_Source\PSoC5/SDSPI_RX_DMA_IRQ.c **** 
 381:.\Generated_Source\PSoC5/SDSPI_RX_DMA_IRQ.c **** 
 382:.\Generated_Source\PSoC5/SDSPI_RX_DMA_IRQ.c **** /*******************************************************************************
 383:.\Generated_Source\PSoC5/SDSPI_RX_DMA_IRQ.c **** * Function Name: SDSPI_RX_DMA_IRQ_ClearPending
 384:.\Generated_Source\PSoC5/SDSPI_RX_DMA_IRQ.c **** ********************************************************************************
 385:.\Generated_Source\PSoC5/SDSPI_RX_DMA_IRQ.c **** *
 386:.\Generated_Source\PSoC5/SDSPI_RX_DMA_IRQ.c **** * Summary:
 387:.\Generated_Source\PSoC5/SDSPI_RX_DMA_IRQ.c **** *   Clears a pending interrupt in the interrupt controller.
 388:.\Generated_Source\PSoC5/SDSPI_RX_DMA_IRQ.c **** *
 389:.\Generated_Source\PSoC5/SDSPI_RX_DMA_IRQ.c **** *   Note Some interrupt sources are clear-on-read and require the block 
 390:.\Generated_Source\PSoC5/SDSPI_RX_DMA_IRQ.c **** *   interrupt/status register to be read/cleared with the appropriate block API 
 391:.\Generated_Source\PSoC5/SDSPI_RX_DMA_IRQ.c **** *   (GPIO, UART, and so on). Otherwise the ISR will continue to remain in 
 392:.\Generated_Source\PSoC5/SDSPI_RX_DMA_IRQ.c **** *   pending state even though the interrupt itself is cleared using this API.
 393:.\Generated_Source\PSoC5/SDSPI_RX_DMA_IRQ.c **** *
ARM GAS  C:\Users\honet\AppData\Local\Temp\cc8NWylb.s 			page 18


 394:.\Generated_Source\PSoC5/SDSPI_RX_DMA_IRQ.c **** * Parameters:
 395:.\Generated_Source\PSoC5/SDSPI_RX_DMA_IRQ.c **** *   None
 396:.\Generated_Source\PSoC5/SDSPI_RX_DMA_IRQ.c **** *
 397:.\Generated_Source\PSoC5/SDSPI_RX_DMA_IRQ.c **** * Return:
 398:.\Generated_Source\PSoC5/SDSPI_RX_DMA_IRQ.c **** *   None
 399:.\Generated_Source\PSoC5/SDSPI_RX_DMA_IRQ.c **** *
 400:.\Generated_Source\PSoC5/SDSPI_RX_DMA_IRQ.c **** *******************************************************************************/
 401:.\Generated_Source\PSoC5/SDSPI_RX_DMA_IRQ.c **** void SDSPI_RX_DMA_IRQ_ClearPending(void)
 402:.\Generated_Source\PSoC5/SDSPI_RX_DMA_IRQ.c **** {
 531              		.loc 1 402 0
 532              		.cfi_startproc
 533              		@ args = 0, pretend = 0, frame = 0
 534              		@ frame_needed = 0, uses_anonymous_args = 0
 535              		@ link register save eliminated.
 403:.\Generated_Source\PSoC5/SDSPI_RX_DMA_IRQ.c ****     *SDSPI_RX_DMA_IRQ_INTC_CLR_PD = SDSPI_RX_DMA_IRQ__INTC_MASK;
 536              		.loc 1 403 0
 537 0000 014B     		ldr	r3, .L38
 538 0002 0122     		movs	r2, #1
 539 0004 1A60     		str	r2, [r3]
 540 0006 7047     		bx	lr
 541              	.L39:
 542              		.align	2
 543              	.L38:
 544 0008 80E200E0 		.word	-536812928
 545              		.cfi_endproc
 546              	.LFE12:
 547              		.size	SDSPI_RX_DMA_IRQ_ClearPending, .-SDSPI_RX_DMA_IRQ_ClearPending
 548              		.text
 549              	.Letext0:
 550              		.file 2 "Generated_Source\\PSoC5/cytypes.h"