ARM GAS  C:\Users\honet\AppData\Local\Temp\ccZTrKJV.s 			page 1


   1              		.syntax unified
   2              		.cpu cortex-m3
   3              		.fpu softvfp
   4              		.eabi_attribute 20, 1
   5              		.eabi_attribute 21, 1
   6              		.eabi_attribute 23, 3
   7              		.eabi_attribute 24, 1
   8              		.eabi_attribute 25, 1
   9              		.eabi_attribute 26, 1
  10              		.eabi_attribute 30, 2
  11              		.eabi_attribute 34, 1
  12              		.eabi_attribute 18, 4
  13              		.thumb
  14              		.file	"USBUART_1_msc.c"
  15              		.text
  16              	.Ltext0:
  17              		.cfi_sections	.debug_frame
  18              		.section	.text.USBUART_1_DispatchMSCClassRqst,"ax",%progbits
  19              		.align	2
  20              		.global	USBUART_1_DispatchMSCClassRqst
  21              		.thumb
  22              		.thumb_func
  23              		.type	USBUART_1_DispatchMSCClassRqst, %function
  24              	USBUART_1_DispatchMSCClassRqst:
  25              	.LFB0:
  26              		.file 1 ".\\Generated_Source\\PSoC5\\USBUART_1_msc.c"
   1:.\Generated_Source\PSoC5/USBUART_1_msc.c **** /***************************************************************************//**
   2:.\Generated_Source\PSoC5/USBUART_1_msc.c **** * \file USBUART_1_cdc.c
   3:.\Generated_Source\PSoC5/USBUART_1_msc.c **** * \version 3.0
   4:.\Generated_Source\PSoC5/USBUART_1_msc.c **** *
   5:.\Generated_Source\PSoC5/USBUART_1_msc.c **** * \brief
   6:.\Generated_Source\PSoC5/USBUART_1_msc.c **** *  This file contains the USB MSC Class request handler and global API for MSC 
   7:.\Generated_Source\PSoC5/USBUART_1_msc.c **** *  class.
   8:.\Generated_Source\PSoC5/USBUART_1_msc.c **** *
   9:.\Generated_Source\PSoC5/USBUART_1_msc.c **** * Related Document:
  10:.\Generated_Source\PSoC5/USBUART_1_msc.c **** *  Universal Serial Bus Class Definitions for Communication Devices Version 1.1
  11:.\Generated_Source\PSoC5/USBUART_1_msc.c **** *
  12:.\Generated_Source\PSoC5/USBUART_1_msc.c **** ********************************************************************************
  13:.\Generated_Source\PSoC5/USBUART_1_msc.c **** * \copyright
  14:.\Generated_Source\PSoC5/USBUART_1_msc.c **** * Copyright 2012-2015, Cypress Semiconductor Corporation.  All rights reserved.
  15:.\Generated_Source\PSoC5/USBUART_1_msc.c **** * You may use this file only in accordance with the license, terms, conditions,
  16:.\Generated_Source\PSoC5/USBUART_1_msc.c **** * disclaimers, and limitations in the end user license agreement accompanying
  17:.\Generated_Source\PSoC5/USBUART_1_msc.c **** * the software package with which this file was provided.
  18:.\Generated_Source\PSoC5/USBUART_1_msc.c **** *******************************************************************************/
  19:.\Generated_Source\PSoC5/USBUART_1_msc.c **** 
  20:.\Generated_Source\PSoC5/USBUART_1_msc.c **** #include "USBUART_1_msc.h"
  21:.\Generated_Source\PSoC5/USBUART_1_msc.c **** #include "USBUART_1_pvt.h"
  22:.\Generated_Source\PSoC5/USBUART_1_msc.c **** #include "cyapicallbacks.h"
  23:.\Generated_Source\PSoC5/USBUART_1_msc.c **** 
  24:.\Generated_Source\PSoC5/USBUART_1_msc.c **** #if (USBUART_1_HANDLE_MSC_REQUESTS)
  25:.\Generated_Source\PSoC5/USBUART_1_msc.c **** 
  26:.\Generated_Source\PSoC5/USBUART_1_msc.c **** /***************************************
  27:.\Generated_Source\PSoC5/USBUART_1_msc.c **** *          Internal variables
  28:.\Generated_Source\PSoC5/USBUART_1_msc.c **** ***************************************/
  29:.\Generated_Source\PSoC5/USBUART_1_msc.c **** 
  30:.\Generated_Source\PSoC5/USBUART_1_msc.c **** static uint8 USBUART_1_lunCount = USBUART_1_MSC_LUN_NUMBER;
  31:.\Generated_Source\PSoC5/USBUART_1_msc.c **** 
ARM GAS  C:\Users\honet\AppData\Local\Temp\ccZTrKJV.s 			page 2


  32:.\Generated_Source\PSoC5/USBUART_1_msc.c **** 
  33:.\Generated_Source\PSoC5/USBUART_1_msc.c **** /*******************************************************************************
  34:.\Generated_Source\PSoC5/USBUART_1_msc.c **** * Function Name: USBUART_1_DispatchMSCClassRqst
  35:.\Generated_Source\PSoC5/USBUART_1_msc.c **** ****************************************************************************//**
  36:.\Generated_Source\PSoC5/USBUART_1_msc.c **** *   
  37:.\Generated_Source\PSoC5/USBUART_1_msc.c **** *  \internal 
  38:.\Generated_Source\PSoC5/USBUART_1_msc.c **** *  This routine dispatches MSC class requests.
  39:.\Generated_Source\PSoC5/USBUART_1_msc.c **** *
  40:.\Generated_Source\PSoC5/USBUART_1_msc.c **** * \return
  41:.\Generated_Source\PSoC5/USBUART_1_msc.c **** *  Status of request processing: handled or not handled.
  42:.\Generated_Source\PSoC5/USBUART_1_msc.c **** *
  43:.\Generated_Source\PSoC5/USBUART_1_msc.c **** * \globalvars
  44:.\Generated_Source\PSoC5/USBUART_1_msc.c **** *  USBUART_1_lunCount - stores number of LUN (logical units).
  45:.\Generated_Source\PSoC5/USBUART_1_msc.c **** *
  46:.\Generated_Source\PSoC5/USBUART_1_msc.c **** * \reentrant
  47:.\Generated_Source\PSoC5/USBUART_1_msc.c **** *  No.
  48:.\Generated_Source\PSoC5/USBUART_1_msc.c **** *
  49:.\Generated_Source\PSoC5/USBUART_1_msc.c **** *******************************************************************************/
  50:.\Generated_Source\PSoC5/USBUART_1_msc.c **** uint8 USBUART_1_DispatchMSCClassRqst(void) 
  51:.\Generated_Source\PSoC5/USBUART_1_msc.c **** {
  27              		.loc 1 51 0
  28              		.cfi_startproc
  29              		@ args = 0, pretend = 0, frame = 0
  30              		@ frame_needed = 0, uses_anonymous_args = 0
  31              		@ link register save eliminated.
  32              	.LVL0:
  33 0000 30B4     		push	{r4, r5}
  34              		.cfi_def_cfa_offset 8
  35              		.cfi_offset 4, -8
  36              		.cfi_offset 5, -4
  52:.\Generated_Source\PSoC5/USBUART_1_msc.c ****     uint8 requestHandled = USBUART_1_FALSE;
  53:.\Generated_Source\PSoC5/USBUART_1_msc.c ****     
  54:.\Generated_Source\PSoC5/USBUART_1_msc.c ****     /* Get request data. */
  55:.\Generated_Source\PSoC5/USBUART_1_msc.c ****     uint16 value  = USBUART_1_GET_UINT16(USBUART_1_wValueHiReg,  USBUART_1_wValueLoReg);
  37              		.loc 1 55 0
  38 0002 144B     		ldr	r3, .L14
  39 0004 DD78     		ldrb	r5, [r3, #3]	@ zero_extendqisi2
  40 0006 9A78     		ldrb	r2, [r3, #2]	@ zero_extendqisi2
  56:.\Generated_Source\PSoC5/USBUART_1_msc.c ****     uint16 dataLength = USBUART_1_GET_UINT16(USBUART_1_wLengthHiReg, USBUART_1_wLengthLoReg);
  41              		.loc 1 56 0
  42 0008 DC79     		ldrb	r4, [r3, #7]	@ zero_extendqisi2
  43 000a 9979     		ldrb	r1, [r3, #6]	@ zero_extendqisi2
  57:.\Generated_Source\PSoC5/USBUART_1_msc.c ****        
  58:.\Generated_Source\PSoC5/USBUART_1_msc.c ****     /* Check request direction: D2H or H2D. */
  59:.\Generated_Source\PSoC5/USBUART_1_msc.c ****     if (0u != (USBUART_1_bmRequestTypeReg & USBUART_1_RQST_DIR_D2H))
  44              		.loc 1 59 0
  45 000c 1878     		ldrb	r0, [r3]	@ zero_extendqisi2
  55:.\Generated_Source\PSoC5/USBUART_1_msc.c ****     uint16 dataLength = USBUART_1_GET_UINT16(USBUART_1_wLengthHiReg, USBUART_1_wLengthLoReg);
  46              		.loc 1 55 0
  47 000e 42EA0522 		orr	r2, r2, r5, lsl #8
  48              	.LVL1:
  49              		.loc 1 59 0
  50 0012 0006     		lsls	r0, r0, #24
  56:.\Generated_Source\PSoC5/USBUART_1_msc.c ****     uint16 dataLength = USBUART_1_GET_UINT16(USBUART_1_wLengthHiReg, USBUART_1_wLengthLoReg);
  51              		.loc 1 56 0
  52 0014 41EA0421 		orr	r1, r1, r4, lsl #8
  53              	.LVL2:
ARM GAS  C:\Users\honet\AppData\Local\Temp\ccZTrKJV.s 			page 3


  60:.\Generated_Source\PSoC5/USBUART_1_msc.c ****     {
  61:.\Generated_Source\PSoC5/USBUART_1_msc.c ****         /* Handle direction from device to host. */
  62:.\Generated_Source\PSoC5/USBUART_1_msc.c ****         
  63:.\Generated_Source\PSoC5/USBUART_1_msc.c ****         if (USBUART_1_MSC_GET_MAX_LUN == USBUART_1_bRequestReg)
  54              		.loc 1 63 0
  55 0018 5B78     		ldrb	r3, [r3, #1]	@ zero_extendqisi2
  59:.\Generated_Source\PSoC5/USBUART_1_msc.c ****     {
  56              		.loc 1 59 0
  57 001a 0DD4     		bmi	.L12
  64:.\Generated_Source\PSoC5/USBUART_1_msc.c ****         {
  65:.\Generated_Source\PSoC5/USBUART_1_msc.c ****             /* Check request fields. */
  66:.\Generated_Source\PSoC5/USBUART_1_msc.c ****             if ((value  == USBUART_1_MSC_GET_MAX_LUN_WVALUE) &&
  67:.\Generated_Source\PSoC5/USBUART_1_msc.c ****                 (dataLength == USBUART_1_MSC_GET_MAX_LUN_WLENGTH))
  68:.\Generated_Source\PSoC5/USBUART_1_msc.c ****             {
  69:.\Generated_Source\PSoC5/USBUART_1_msc.c ****                 /* Reply to Get Max LUN request: setup control read. */
  70:.\Generated_Source\PSoC5/USBUART_1_msc.c ****                 USBUART_1_currentTD.pData = &USBUART_1_lunCount;
  71:.\Generated_Source\PSoC5/USBUART_1_msc.c ****                 USBUART_1_currentTD.count =  USBUART_1_MSC_GET_MAX_LUN_WLENGTH;
  72:.\Generated_Source\PSoC5/USBUART_1_msc.c ****                 
  73:.\Generated_Source\PSoC5/USBUART_1_msc.c ****                 requestHandled  = USBUART_1_InitControlRead();
  74:.\Generated_Source\PSoC5/USBUART_1_msc.c ****             }
  75:.\Generated_Source\PSoC5/USBUART_1_msc.c ****         }
  76:.\Generated_Source\PSoC5/USBUART_1_msc.c ****     }
  77:.\Generated_Source\PSoC5/USBUART_1_msc.c ****     else
  78:.\Generated_Source\PSoC5/USBUART_1_msc.c ****     {
  79:.\Generated_Source\PSoC5/USBUART_1_msc.c ****         /* Handle direction from host to device. */
  80:.\Generated_Source\PSoC5/USBUART_1_msc.c ****         
  81:.\Generated_Source\PSoC5/USBUART_1_msc.c ****         if (USBUART_1_MSC_RESET == USBUART_1_bRequestReg)
  58              		.loc 1 81 0
  59 001c FF2B     		cmp	r3, #255
  60 001e 02D0     		beq	.L13
  61              	.L3:
  62              	.LVL3:
  82:.\Generated_Source\PSoC5/USBUART_1_msc.c ****         {
  83:.\Generated_Source\PSoC5/USBUART_1_msc.c ****             /* Check request fields. */
  84:.\Generated_Source\PSoC5/USBUART_1_msc.c ****             if ((value  == USBUART_1_MSC_RESET_WVALUE) &&
  85:.\Generated_Source\PSoC5/USBUART_1_msc.c ****                 (dataLength == USBUART_1_MSC_RESET_WLENGTH))
  86:.\Generated_Source\PSoC5/USBUART_1_msc.c ****             {
  87:.\Generated_Source\PSoC5/USBUART_1_msc.c ****                 /* Handle to Bulk-Only Reset request: no data control transfer. */
  88:.\Generated_Source\PSoC5/USBUART_1_msc.c ****                 USBUART_1_currentTD.count = USBUART_1_MSC_RESET_WLENGTH;
  89:.\Generated_Source\PSoC5/USBUART_1_msc.c ****                 
  90:.\Generated_Source\PSoC5/USBUART_1_msc.c ****             #ifdef USBUART_1_DISPATCH_MSC_CLASS_MSC_RESET_RQST_CALLBACK
  91:.\Generated_Source\PSoC5/USBUART_1_msc.c ****                 USBUART_1_DispatchMSCClass_MSC_RESET_RQST_Callback();
  92:.\Generated_Source\PSoC5/USBUART_1_msc.c ****             #endif /* (USBUART_1_DISPATCH_MSC_CLASS_MSC_RESET_RQST_CALLBACK) */
  93:.\Generated_Source\PSoC5/USBUART_1_msc.c ****                 
  94:.\Generated_Source\PSoC5/USBUART_1_msc.c ****                 requestHandled = USBUART_1_InitNoDataControlTransfer();
  95:.\Generated_Source\PSoC5/USBUART_1_msc.c ****             }
  96:.\Generated_Source\PSoC5/USBUART_1_msc.c ****         }
  97:.\Generated_Source\PSoC5/USBUART_1_msc.c ****     }
  98:.\Generated_Source\PSoC5/USBUART_1_msc.c ****     
  99:.\Generated_Source\PSoC5/USBUART_1_msc.c ****     return (requestHandled);
 100:.\Generated_Source\PSoC5/USBUART_1_msc.c **** }
  63              		.loc 1 100 0
  64 0020 30BC     		pop	{r4, r5}
  65              		.cfi_remember_state
  66              		.cfi_restore 5
  67              		.cfi_restore 4
  68              		.cfi_def_cfa_offset 0
ARM GAS  C:\Users\honet\AppData\Local\Temp\ccZTrKJV.s 			page 4


  69 0022 0020     		movs	r0, #0
  70 0024 7047     		bx	lr
  71              	.LVL4:
  72              	.L13:
  73              		.cfi_restore_state
  84:.\Generated_Source\PSoC5/USBUART_1_msc.c ****                 (dataLength == USBUART_1_MSC_RESET_WLENGTH))
  74              		.loc 1 84 0
  75 0026 002A     		cmp	r2, #0
  76 0028 FAD1     		bne	.L3
  84:.\Generated_Source\PSoC5/USBUART_1_msc.c ****                 (dataLength == USBUART_1_MSC_RESET_WLENGTH))
  77              		.loc 1 84 0 is_stmt 0 discriminator 1
  78 002a 0029     		cmp	r1, #0
  79 002c F8D1     		bne	.L3
  80              		.loc 1 100 0 is_stmt 1
  81 002e 30BC     		pop	{r4, r5}
  82              		.cfi_remember_state
  83              		.cfi_restore 5
  84              		.cfi_restore 4
  85              		.cfi_def_cfa_offset 0
  88:.\Generated_Source\PSoC5/USBUART_1_msc.c ****                 
  86              		.loc 1 88 0
  87 0030 094B     		ldr	r3, .L14+4
  88 0032 1980     		strh	r1, [r3]	@ movhi
  94:.\Generated_Source\PSoC5/USBUART_1_msc.c ****             }
  89              		.loc 1 94 0
  90 0034 FFF7FEBF 		b	USBUART_1_InitNoDataControlTransfer
  91              	.LVL5:
  92              	.L12:
  93              		.cfi_restore_state
  63:.\Generated_Source\PSoC5/USBUART_1_msc.c ****         {
  94              		.loc 1 63 0
  95 0038 FE2B     		cmp	r3, #254
  96 003a F1D1     		bne	.L3
  66:.\Generated_Source\PSoC5/USBUART_1_msc.c ****                 (dataLength == USBUART_1_MSC_GET_MAX_LUN_WLENGTH))
  97              		.loc 1 66 0
  98 003c 002A     		cmp	r2, #0
  99 003e EFD1     		bne	.L3
  66:.\Generated_Source\PSoC5/USBUART_1_msc.c ****                 (dataLength == USBUART_1_MSC_GET_MAX_LUN_WLENGTH))
 100              		.loc 1 66 0 is_stmt 0 discriminator 1
 101 0040 0129     		cmp	r1, #1
 102 0042 EDD1     		bne	.L3
 103              		.loc 1 100 0 is_stmt 1
 104 0044 30BC     		pop	{r4, r5}
 105              		.cfi_restore 5
 106              		.cfi_restore 4
 107              		.cfi_def_cfa_offset 0
  70:.\Generated_Source\PSoC5/USBUART_1_msc.c ****                 USBUART_1_currentTD.count =  USBUART_1_MSC_GET_MAX_LUN_WLENGTH;
 108              		.loc 1 70 0
 109 0046 044B     		ldr	r3, .L14+4
 110 0048 044A     		ldr	r2, .L14+8
 111              	.LVL6:
 112 004a 5A60     		str	r2, [r3, #4]
  71:.\Generated_Source\PSoC5/USBUART_1_msc.c ****                 
 113              		.loc 1 71 0
 114 004c 1980     		strh	r1, [r3]	@ movhi
  73:.\Generated_Source\PSoC5/USBUART_1_msc.c ****             }
 115              		.loc 1 73 0
ARM GAS  C:\Users\honet\AppData\Local\Temp\ccZTrKJV.s 			page 5


 116 004e FFF7FEBF 		b	USBUART_1_InitControlRead
 117              	.LVL7:
 118              	.L15:
 119 0052 00BF     		.align	2
 120              	.L14:
 121 0054 00600040 		.word	1073766400
 122 0058 00000000 		.word	USBUART_1_currentTD
 123 005c 00000000 		.word	.LANCHOR0
 124              		.cfi_endproc
 125              	.LFE0:
 126              		.size	USBUART_1_DispatchMSCClassRqst, .-USBUART_1_DispatchMSCClassRqst
 127              		.section	.text.USBUART_1_MSC_SetLunCount,"ax",%progbits
 128              		.align	2
 129              		.global	USBUART_1_MSC_SetLunCount
 130              		.thumb
 131              		.thumb_func
 132              		.type	USBUART_1_MSC_SetLunCount, %function
 133              	USBUART_1_MSC_SetLunCount:
 134              	.LFB1:
 101:.\Generated_Source\PSoC5/USBUART_1_msc.c **** 
 102:.\Generated_Source\PSoC5/USBUART_1_msc.c **** 
 103:.\Generated_Source\PSoC5/USBUART_1_msc.c **** /*******************************************************************************
 104:.\Generated_Source\PSoC5/USBUART_1_msc.c **** * Function Name: USBUART_1_MSC_SetLunCount
 105:.\Generated_Source\PSoC5/USBUART_1_msc.c **** ****************************************************************************//**
 106:.\Generated_Source\PSoC5/USBUART_1_msc.c **** *
 107:.\Generated_Source\PSoC5/USBUART_1_msc.c **** *  This function sets the number of logical units supported in the application. 
 108:.\Generated_Source\PSoC5/USBUART_1_msc.c **** *  The default number of logical units is set in the component customizer.
 109:.\Generated_Source\PSoC5/USBUART_1_msc.c **** *
 110:.\Generated_Source\PSoC5/USBUART_1_msc.c **** *  \param lunCount: Count of the logical units. Valid range is between 1 and 16.
 111:.\Generated_Source\PSoC5/USBUART_1_msc.c **** *
 112:.\Generated_Source\PSoC5/USBUART_1_msc.c **** *
 113:.\Generated_Source\PSoC5/USBUART_1_msc.c **** * \globalvars
 114:.\Generated_Source\PSoC5/USBUART_1_msc.c **** *  USBUART_1_lunCount - stores number of LUN (logical units).
 115:.\Generated_Source\PSoC5/USBUART_1_msc.c **** *
 116:.\Generated_Source\PSoC5/USBUART_1_msc.c **** * \reentrant
 117:.\Generated_Source\PSoC5/USBUART_1_msc.c **** *  No.
 118:.\Generated_Source\PSoC5/USBUART_1_msc.c **** *
 119:.\Generated_Source\PSoC5/USBUART_1_msc.c **** *******************************************************************************/
 120:.\Generated_Source\PSoC5/USBUART_1_msc.c **** void USBUART_1_MSC_SetLunCount(uint8 lunCount) 
 121:.\Generated_Source\PSoC5/USBUART_1_msc.c **** {
 135              		.loc 1 121 0
 136              		.cfi_startproc
 137              		@ args = 0, pretend = 0, frame = 0
 138              		@ frame_needed = 0, uses_anonymous_args = 0
 139              		@ link register save eliminated.
 140              	.LVL8:
 122:.\Generated_Source\PSoC5/USBUART_1_msc.c ****     USBUART_1_lunCount = (lunCount - 1u);
 141              		.loc 1 122 0
 142 0000 014B     		ldr	r3, .L17
 143 0002 0138     		subs	r0, r0, #1
 144              	.LVL9:
 145 0004 1870     		strb	r0, [r3]
 146 0006 7047     		bx	lr
 147              	.L18:
 148              		.align	2
 149              	.L17:
 150 0008 00000000 		.word	.LANCHOR0
ARM GAS  C:\Users\honet\AppData\Local\Temp\ccZTrKJV.s 			page 6


 151              		.cfi_endproc
 152              	.LFE1:
 153              		.size	USBUART_1_MSC_SetLunCount, .-USBUART_1_MSC_SetLunCount
 154              		.section	.text.USBUART_1_MSC_GetLunCount,"ax",%progbits
 155              		.align	2
 156              		.global	USBUART_1_MSC_GetLunCount
 157              		.thumb
 158              		.thumb_func
 159              		.type	USBUART_1_MSC_GetLunCount, %function
 160              	USBUART_1_MSC_GetLunCount:
 161              	.LFB2:
 123:.\Generated_Source\PSoC5/USBUART_1_msc.c **** }
 124:.\Generated_Source\PSoC5/USBUART_1_msc.c **** 
 125:.\Generated_Source\PSoC5/USBUART_1_msc.c **** 
 126:.\Generated_Source\PSoC5/USBUART_1_msc.c **** /*******************************************************************************
 127:.\Generated_Source\PSoC5/USBUART_1_msc.c **** * Function Name: USBUART_1_MSC_GetLunCount
 128:.\Generated_Source\PSoC5/USBUART_1_msc.c **** ****************************************************************************//**
 129:.\Generated_Source\PSoC5/USBUART_1_msc.c **** *
 130:.\Generated_Source\PSoC5/USBUART_1_msc.c **** *  This function returns the number of logical units.
 131:.\Generated_Source\PSoC5/USBUART_1_msc.c **** *
 132:.\Generated_Source\PSoC5/USBUART_1_msc.c **** * \return
 133:.\Generated_Source\PSoC5/USBUART_1_msc.c **** *   Number of the logical units.
 134:.\Generated_Source\PSoC5/USBUART_1_msc.c **** *
 135:.\Generated_Source\PSoC5/USBUART_1_msc.c **** * \globalvars
 136:.\Generated_Source\PSoC5/USBUART_1_msc.c **** *  USBUART_1_lunCount - stores number of LUN (logical units).
 137:.\Generated_Source\PSoC5/USBUART_1_msc.c **** *
 138:.\Generated_Source\PSoC5/USBUART_1_msc.c **** * \reentrant
 139:.\Generated_Source\PSoC5/USBUART_1_msc.c **** *  No.
 140:.\Generated_Source\PSoC5/USBUART_1_msc.c **** *
 141:.\Generated_Source\PSoC5/USBUART_1_msc.c **** *******************************************************************************/
 142:.\Generated_Source\PSoC5/USBUART_1_msc.c **** uint8 USBUART_1_MSC_GetLunCount(void) 
 143:.\Generated_Source\PSoC5/USBUART_1_msc.c **** {
 162              		.loc 1 143 0
 163              		.cfi_startproc
 164              		@ args = 0, pretend = 0, frame = 0
 165              		@ frame_needed = 0, uses_anonymous_args = 0
 166              		@ link register save eliminated.
 144:.\Generated_Source\PSoC5/USBUART_1_msc.c ****     return (USBUART_1_lunCount + 1u);
 167              		.loc 1 144 0
 168 0000 024B     		ldr	r3, .L20
 169 0002 1878     		ldrb	r0, [r3]	@ zero_extendqisi2
 170 0004 0130     		adds	r0, r0, #1
 145:.\Generated_Source\PSoC5/USBUART_1_msc.c **** }   
 171              		.loc 1 145 0
 172 0006 C0B2     		uxtb	r0, r0
 173 0008 7047     		bx	lr
 174              	.L21:
 175 000a 00BF     		.align	2
 176              	.L20:
 177 000c 00000000 		.word	.LANCHOR0
 178              		.cfi_endproc
 179              	.LFE2:
 180              		.size	USBUART_1_MSC_GetLunCount, .-USBUART_1_MSC_GetLunCount
 181              		.bss
 182              		.set	.LANCHOR0,. + 0
 183              		.type	USBUART_1_lunCount, %object
 184              		.size	USBUART_1_lunCount, 1
ARM GAS  C:\Users\honet\AppData\Local\Temp\ccZTrKJV.s 			page 7


 185              	USBUART_1_lunCount:
 186 0000 00       		.space	1
 187              		.text
 188              	.Letext0:
 189              		.file 2 ".\\Generated_Source\\PSoC5\\cytypes.h"
 190              		.file 3 ".\\Generated_Source\\PSoC5\\USBUART_1.h"
 191              		.file 4 ".\\Generated_Source\\PSoC5\\USBUART_1_pvt.h"