ARM GAS  C:\Users\honet\AppData\Local\Temp\ccXOsytd.s 			page 1


   1              		.syntax unified
   2              		.cpu cortex-m3
   3              		.fpu softvfp
   4              		.eabi_attribute 20, 1
   5              		.eabi_attribute 21, 1
   6              		.eabi_attribute 23, 3
   7              		.eabi_attribute 24, 1
   8              		.eabi_attribute 25, 1
   9              		.eabi_attribute 26, 1
  10              		.eabi_attribute 30, 2
  11              		.eabi_attribute 34, 1
  12              		.eabi_attribute 18, 4
  13              		.thumb
  14              		.file	"USBUART_1_Dp.c"
  15              		.text
  16              	.Ltext0:
  17              		.cfi_sections	.debug_frame
  18              		.section	.text.USBUART_1_Dp_Write,"ax",%progbits
  19              		.align	2
  20              		.global	USBUART_1_Dp_Write
  21              		.thumb
  22              		.thumb_func
  23              		.type	USBUART_1_Dp_Write, %function
  24              	USBUART_1_Dp_Write:
  25              	.LFB0:
  26              		.file 1 ".\\Generated_Source\\PSoC5\\USBUART_1_Dp.c"
   1:.\Generated_Source\PSoC5/USBUART_1_Dp.c **** /*******************************************************************************
   2:.\Generated_Source\PSoC5/USBUART_1_Dp.c **** * File Name: USBUART_1_Dp.c  
   3:.\Generated_Source\PSoC5/USBUART_1_Dp.c **** * Version 2.20
   4:.\Generated_Source\PSoC5/USBUART_1_Dp.c **** *
   5:.\Generated_Source\PSoC5/USBUART_1_Dp.c **** * Description:
   6:.\Generated_Source\PSoC5/USBUART_1_Dp.c **** *  This file contains API to enable firmware control of a Pins component.
   7:.\Generated_Source\PSoC5/USBUART_1_Dp.c **** *
   8:.\Generated_Source\PSoC5/USBUART_1_Dp.c **** * Note:
   9:.\Generated_Source\PSoC5/USBUART_1_Dp.c **** *
  10:.\Generated_Source\PSoC5/USBUART_1_Dp.c **** ********************************************************************************
  11:.\Generated_Source\PSoC5/USBUART_1_Dp.c **** * Copyright 2008-2015, Cypress Semiconductor Corporation.  All rights reserved.
  12:.\Generated_Source\PSoC5/USBUART_1_Dp.c **** * You may use this file only in accordance with the license, terms, conditions, 
  13:.\Generated_Source\PSoC5/USBUART_1_Dp.c **** * disclaimers, and limitations in the end user license agreement accompanying 
  14:.\Generated_Source\PSoC5/USBUART_1_Dp.c **** * the software package with which this file was provided.
  15:.\Generated_Source\PSoC5/USBUART_1_Dp.c **** *******************************************************************************/
  16:.\Generated_Source\PSoC5/USBUART_1_Dp.c **** 
  17:.\Generated_Source\PSoC5/USBUART_1_Dp.c **** #include "cytypes.h"
  18:.\Generated_Source\PSoC5/USBUART_1_Dp.c **** #include "USBUART_1_Dp.h"
  19:.\Generated_Source\PSoC5/USBUART_1_Dp.c **** 
  20:.\Generated_Source\PSoC5/USBUART_1_Dp.c **** /* APIs are not generated for P15[7:6] on PSoC 5 */
  21:.\Generated_Source\PSoC5/USBUART_1_Dp.c **** #if !(CY_PSOC5A &&\
  22:.\Generated_Source\PSoC5/USBUART_1_Dp.c **** 	 USBUART_1_Dp__PORT == 15 && ((USBUART_1_Dp__MASK & 0xC0) != 0))
  23:.\Generated_Source\PSoC5/USBUART_1_Dp.c **** 
  24:.\Generated_Source\PSoC5/USBUART_1_Dp.c **** 
  25:.\Generated_Source\PSoC5/USBUART_1_Dp.c **** /*******************************************************************************
  26:.\Generated_Source\PSoC5/USBUART_1_Dp.c **** * Function Name: USBUART_1_Dp_Write
  27:.\Generated_Source\PSoC5/USBUART_1_Dp.c **** ****************************************************************************//**
  28:.\Generated_Source\PSoC5/USBUART_1_Dp.c **** *
  29:.\Generated_Source\PSoC5/USBUART_1_Dp.c **** * \brief Writes the value to the physical port (data output register), masking
  30:.\Generated_Source\PSoC5/USBUART_1_Dp.c **** *  and shifting the bits appropriately. 
  31:.\Generated_Source\PSoC5/USBUART_1_Dp.c **** *
ARM GAS  C:\Users\honet\AppData\Local\Temp\ccXOsytd.s 			page 2


  32:.\Generated_Source\PSoC5/USBUART_1_Dp.c **** * The data output register controls the signal applied to the physical pin in 
  33:.\Generated_Source\PSoC5/USBUART_1_Dp.c **** * conjunction with the drive mode parameter. This function avoids changing 
  34:.\Generated_Source\PSoC5/USBUART_1_Dp.c **** * other bits in the port by using the appropriate method (read-modify-write or
  35:.\Generated_Source\PSoC5/USBUART_1_Dp.c **** * bit banding).
  36:.\Generated_Source\PSoC5/USBUART_1_Dp.c **** *
  37:.\Generated_Source\PSoC5/USBUART_1_Dp.c **** * <b>Note</b> This function should not be used on a hardware digital output pin 
  38:.\Generated_Source\PSoC5/USBUART_1_Dp.c **** * as it is driven by the hardware signal attached to it.
  39:.\Generated_Source\PSoC5/USBUART_1_Dp.c **** *
  40:.\Generated_Source\PSoC5/USBUART_1_Dp.c **** * \param value
  41:.\Generated_Source\PSoC5/USBUART_1_Dp.c **** *  Value to write to the component instance.
  42:.\Generated_Source\PSoC5/USBUART_1_Dp.c **** *
  43:.\Generated_Source\PSoC5/USBUART_1_Dp.c **** * \return 
  44:.\Generated_Source\PSoC5/USBUART_1_Dp.c **** *  None 
  45:.\Generated_Source\PSoC5/USBUART_1_Dp.c **** *
  46:.\Generated_Source\PSoC5/USBUART_1_Dp.c **** * \sideeffect
  47:.\Generated_Source\PSoC5/USBUART_1_Dp.c **** *  If you use read-modify-write operations that are not atomic; the Interrupt 
  48:.\Generated_Source\PSoC5/USBUART_1_Dp.c **** *  Service Routines (ISR) can cause corruption of this function. An ISR that 
  49:.\Generated_Source\PSoC5/USBUART_1_Dp.c **** *  interrupts this function and performs writes to the Pins component data 
  50:.\Generated_Source\PSoC5/USBUART_1_Dp.c **** *  register can cause corrupted port data. To avoid this issue, you should 
  51:.\Generated_Source\PSoC5/USBUART_1_Dp.c **** *  either use the Per-Pin APIs (primary method) or disable interrupts around 
  52:.\Generated_Source\PSoC5/USBUART_1_Dp.c **** *  this function.
  53:.\Generated_Source\PSoC5/USBUART_1_Dp.c **** *
  54:.\Generated_Source\PSoC5/USBUART_1_Dp.c **** * \funcusage
  55:.\Generated_Source\PSoC5/USBUART_1_Dp.c **** *  \snippet USBUART_1_Dp_SUT.c usage_USBUART_1_Dp_Write
  56:.\Generated_Source\PSoC5/USBUART_1_Dp.c **** *******************************************************************************/
  57:.\Generated_Source\PSoC5/USBUART_1_Dp.c **** void USBUART_1_Dp_Write(uint8 value)
  58:.\Generated_Source\PSoC5/USBUART_1_Dp.c **** {
  27              		.loc 1 58 0
  28              		.cfi_startproc
  29              		@ args = 0, pretend = 0, frame = 0
  30              		@ frame_needed = 0, uses_anonymous_args = 0
  31              		@ link register save eliminated.
  32              	.LVL0:
  59:.\Generated_Source\PSoC5/USBUART_1_Dp.c ****     uint8 staticBits = (USBUART_1_Dp_DR & (uint8)(~USBUART_1_Dp_MASK));
  33              		.loc 1 59 0
  34 0000 044A     		ldr	r2, .L2
  60:.\Generated_Source\PSoC5/USBUART_1_Dp.c ****     USBUART_1_Dp_DR = staticBits | ((uint8)(value << USBUART_1_Dp_SHIFT) & USBUART_1_Dp_MASK);
  35              		.loc 1 60 0
  36 0002 8001     		lsls	r0, r0, #6
  37              	.LVL1:
  59:.\Generated_Source\PSoC5/USBUART_1_Dp.c ****     uint8 staticBits = (USBUART_1_Dp_DR & (uint8)(~USBUART_1_Dp_MASK));
  38              		.loc 1 59 0
  39 0004 1378     		ldrb	r3, [r2]	@ zero_extendqisi2
  40              	.LVL2:
  41              		.loc 1 60 0
  42 0006 00F04000 		and	r0, r0, #64
  59:.\Generated_Source\PSoC5/USBUART_1_Dp.c ****     uint8 staticBits = (USBUART_1_Dp_DR & (uint8)(~USBUART_1_Dp_MASK));
  43              		.loc 1 59 0
  44 000a 03F0BF03 		and	r3, r3, #191
  45              	.LVL3:
  46              		.loc 1 60 0
  47 000e 1843     		orrs	r0, r0, r3
  48 0010 1070     		strb	r0, [r2]
  49 0012 7047     		bx	lr
  50              	.L3:
  51              		.align	2
  52              	.L2:
ARM GAS  C:\Users\honet\AppData\Local\Temp\ccXOsytd.s 			page 3


  53 0014 F0510040 		.word	1073762800
  54              		.cfi_endproc
  55              	.LFE0:
  56              		.size	USBUART_1_Dp_Write, .-USBUART_1_Dp_Write
  57              		.section	.text.USBUART_1_Dp_SetDriveMode,"ax",%progbits
  58              		.align	2
  59              		.global	USBUART_1_Dp_SetDriveMode
  60              		.thumb
  61              		.thumb_func
  62              		.type	USBUART_1_Dp_SetDriveMode, %function
  63              	USBUART_1_Dp_SetDriveMode:
  64              	.LFB1:
  61:.\Generated_Source\PSoC5/USBUART_1_Dp.c **** }
  62:.\Generated_Source\PSoC5/USBUART_1_Dp.c **** 
  63:.\Generated_Source\PSoC5/USBUART_1_Dp.c **** 
  64:.\Generated_Source\PSoC5/USBUART_1_Dp.c **** /*******************************************************************************
  65:.\Generated_Source\PSoC5/USBUART_1_Dp.c **** * Function Name: USBUART_1_Dp_SetDriveMode
  66:.\Generated_Source\PSoC5/USBUART_1_Dp.c **** ****************************************************************************//**
  67:.\Generated_Source\PSoC5/USBUART_1_Dp.c **** *
  68:.\Generated_Source\PSoC5/USBUART_1_Dp.c **** * \brief Sets the drive mode for each of the Pins component's pins.
  69:.\Generated_Source\PSoC5/USBUART_1_Dp.c **** * 
  70:.\Generated_Source\PSoC5/USBUART_1_Dp.c **** * <b>Note</b> This affects all pins in the Pins component instance. Use the
  71:.\Generated_Source\PSoC5/USBUART_1_Dp.c **** * Per-Pin APIs if you wish to control individual pin's drive modes.
  72:.\Generated_Source\PSoC5/USBUART_1_Dp.c **** *
  73:.\Generated_Source\PSoC5/USBUART_1_Dp.c **** * \param mode
  74:.\Generated_Source\PSoC5/USBUART_1_Dp.c **** *  Mode for the selected signals. Valid options are documented in 
  75:.\Generated_Source\PSoC5/USBUART_1_Dp.c **** *  \ref driveMode.
  76:.\Generated_Source\PSoC5/USBUART_1_Dp.c **** *
  77:.\Generated_Source\PSoC5/USBUART_1_Dp.c **** * \return
  78:.\Generated_Source\PSoC5/USBUART_1_Dp.c **** *  None
  79:.\Generated_Source\PSoC5/USBUART_1_Dp.c **** *
  80:.\Generated_Source\PSoC5/USBUART_1_Dp.c **** * \sideeffect
  81:.\Generated_Source\PSoC5/USBUART_1_Dp.c **** *  If you use read-modify-write operations that are not atomic, the ISR can
  82:.\Generated_Source\PSoC5/USBUART_1_Dp.c **** *  cause corruption of this function. An ISR that interrupts this function 
  83:.\Generated_Source\PSoC5/USBUART_1_Dp.c **** *  and performs writes to the Pins component Drive Mode registers can cause 
  84:.\Generated_Source\PSoC5/USBUART_1_Dp.c **** *  corrupted port data. To avoid this issue, you should either use the Per-Pin
  85:.\Generated_Source\PSoC5/USBUART_1_Dp.c **** *  APIs (primary method) or disable interrupts around this function.
  86:.\Generated_Source\PSoC5/USBUART_1_Dp.c **** *
  87:.\Generated_Source\PSoC5/USBUART_1_Dp.c **** * \funcusage
  88:.\Generated_Source\PSoC5/USBUART_1_Dp.c **** *  \snippet USBUART_1_Dp_SUT.c usage_USBUART_1_Dp_SetDriveMode
  89:.\Generated_Source\PSoC5/USBUART_1_Dp.c **** *******************************************************************************/
  90:.\Generated_Source\PSoC5/USBUART_1_Dp.c **** void USBUART_1_Dp_SetDriveMode(uint8 mode)
  91:.\Generated_Source\PSoC5/USBUART_1_Dp.c **** {
  65              		.loc 1 91 0
  66              		.cfi_startproc
  67              		@ args = 0, pretend = 0, frame = 0
  68              		@ frame_needed = 0, uses_anonymous_args = 0
  69              		@ link register save eliminated.
  70              	.LVL4:
  92:.\Generated_Source\PSoC5/USBUART_1_Dp.c **** 	CyPins_SetPinDriveMode(USBUART_1_Dp_0, mode);
  71              		.loc 1 92 0
  72 0000 044A     		ldr	r2, .L5
  73 0002 00F00E00 		and	r0, r0, #14
  74              	.LVL5:
  75 0006 1378     		ldrb	r3, [r2]	@ zero_extendqisi2
  76 0008 03F0F103 		and	r3, r3, #241
  77 000c 1843     		orrs	r0, r0, r3
ARM GAS  C:\Users\honet\AppData\Local\Temp\ccXOsytd.s 			page 4


  78 000e 1070     		strb	r0, [r2]
  79 0010 7047     		bx	lr
  80              	.L6:
  81 0012 00BF     		.align	2
  82              	.L5:
  83 0014 7E500040 		.word	1073762430
  84              		.cfi_endproc
  85              	.LFE1:
  86              		.size	USBUART_1_Dp_SetDriveMode, .-USBUART_1_Dp_SetDriveMode
  87              		.section	.text.USBUART_1_Dp_Read,"ax",%progbits
  88              		.align	2
  89              		.global	USBUART_1_Dp_Read
  90              		.thumb
  91              		.thumb_func
  92              		.type	USBUART_1_Dp_Read, %function
  93              	USBUART_1_Dp_Read:
  94              	.LFB2:
  93:.\Generated_Source\PSoC5/USBUART_1_Dp.c **** }
  94:.\Generated_Source\PSoC5/USBUART_1_Dp.c **** 
  95:.\Generated_Source\PSoC5/USBUART_1_Dp.c **** 
  96:.\Generated_Source\PSoC5/USBUART_1_Dp.c **** /*******************************************************************************
  97:.\Generated_Source\PSoC5/USBUART_1_Dp.c **** * Function Name: USBUART_1_Dp_Read
  98:.\Generated_Source\PSoC5/USBUART_1_Dp.c **** ****************************************************************************//**
  99:.\Generated_Source\PSoC5/USBUART_1_Dp.c **** *
 100:.\Generated_Source\PSoC5/USBUART_1_Dp.c **** * \brief Reads the associated physical port (pin status register) and masks 
 101:.\Generated_Source\PSoC5/USBUART_1_Dp.c **** *  the required bits according to the width and bit position of the component
 102:.\Generated_Source\PSoC5/USBUART_1_Dp.c **** *  instance. 
 103:.\Generated_Source\PSoC5/USBUART_1_Dp.c **** *
 104:.\Generated_Source\PSoC5/USBUART_1_Dp.c **** * The pin's status register returns the current logic level present on the 
 105:.\Generated_Source\PSoC5/USBUART_1_Dp.c **** * physical pin.
 106:.\Generated_Source\PSoC5/USBUART_1_Dp.c **** *
 107:.\Generated_Source\PSoC5/USBUART_1_Dp.c **** * \return 
 108:.\Generated_Source\PSoC5/USBUART_1_Dp.c **** *  The current value for the pins in the component as a right justified number.
 109:.\Generated_Source\PSoC5/USBUART_1_Dp.c **** *
 110:.\Generated_Source\PSoC5/USBUART_1_Dp.c **** * \funcusage
 111:.\Generated_Source\PSoC5/USBUART_1_Dp.c **** *  \snippet USBUART_1_Dp_SUT.c usage_USBUART_1_Dp_Read  
 112:.\Generated_Source\PSoC5/USBUART_1_Dp.c **** *******************************************************************************/
 113:.\Generated_Source\PSoC5/USBUART_1_Dp.c **** uint8 USBUART_1_Dp_Read(void)
 114:.\Generated_Source\PSoC5/USBUART_1_Dp.c **** {
  95              		.loc 1 114 0
  96              		.cfi_startproc
  97              		@ args = 0, pretend = 0, frame = 0
  98              		@ frame_needed = 0, uses_anonymous_args = 0
  99              		@ link register save eliminated.
 115:.\Generated_Source\PSoC5/USBUART_1_Dp.c ****     return (USBUART_1_Dp_PS & USBUART_1_Dp_MASK) >> USBUART_1_Dp_SHIFT;
 100              		.loc 1 115 0
 101 0000 024B     		ldr	r3, .L8
 102 0002 1878     		ldrb	r0, [r3]	@ zero_extendqisi2
 116:.\Generated_Source\PSoC5/USBUART_1_Dp.c **** }
 103              		.loc 1 116 0
 104 0004 C0F38010 		ubfx	r0, r0, #6, #1
 105 0008 7047     		bx	lr
 106              	.L9:
 107 000a 00BF     		.align	2
 108              	.L8:
 109 000c F1510040 		.word	1073762801
 110              		.cfi_endproc
ARM GAS  C:\Users\honet\AppData\Local\Temp\ccXOsytd.s 			page 5


 111              	.LFE2:
 112              		.size	USBUART_1_Dp_Read, .-USBUART_1_Dp_Read
 113              		.section	.text.USBUART_1_Dp_ReadDataReg,"ax",%progbits
 114              		.align	2
 115              		.global	USBUART_1_Dp_ReadDataReg
 116              		.thumb
 117              		.thumb_func
 118              		.type	USBUART_1_Dp_ReadDataReg, %function
 119              	USBUART_1_Dp_ReadDataReg:
 120              	.LFB3:
 117:.\Generated_Source\PSoC5/USBUART_1_Dp.c **** 
 118:.\Generated_Source\PSoC5/USBUART_1_Dp.c **** 
 119:.\Generated_Source\PSoC5/USBUART_1_Dp.c **** /*******************************************************************************
 120:.\Generated_Source\PSoC5/USBUART_1_Dp.c **** * Function Name: USBUART_1_Dp_ReadDataReg
 121:.\Generated_Source\PSoC5/USBUART_1_Dp.c **** ****************************************************************************//**
 122:.\Generated_Source\PSoC5/USBUART_1_Dp.c **** *
 123:.\Generated_Source\PSoC5/USBUART_1_Dp.c **** * \brief Reads the associated physical port's data output register and masks 
 124:.\Generated_Source\PSoC5/USBUART_1_Dp.c **** *  the correct bits according to the width and bit position of the component 
 125:.\Generated_Source\PSoC5/USBUART_1_Dp.c **** *  instance. 
 126:.\Generated_Source\PSoC5/USBUART_1_Dp.c **** *
 127:.\Generated_Source\PSoC5/USBUART_1_Dp.c **** * The data output register controls the signal applied to the physical pin in 
 128:.\Generated_Source\PSoC5/USBUART_1_Dp.c **** * conjunction with the drive mode parameter. This is not the same as the 
 129:.\Generated_Source\PSoC5/USBUART_1_Dp.c **** * preferred USBUART_1_Dp_Read() API because the 
 130:.\Generated_Source\PSoC5/USBUART_1_Dp.c **** * USBUART_1_Dp_ReadDataReg() reads the data register instead of the status 
 131:.\Generated_Source\PSoC5/USBUART_1_Dp.c **** * register. For output pins this is a useful function to determine the value 
 132:.\Generated_Source\PSoC5/USBUART_1_Dp.c **** * just written to the pin.
 133:.\Generated_Source\PSoC5/USBUART_1_Dp.c **** *
 134:.\Generated_Source\PSoC5/USBUART_1_Dp.c **** * \return 
 135:.\Generated_Source\PSoC5/USBUART_1_Dp.c **** *  The current value of the data register masked and shifted into a right 
 136:.\Generated_Source\PSoC5/USBUART_1_Dp.c **** *  justified number for the component instance.
 137:.\Generated_Source\PSoC5/USBUART_1_Dp.c **** *
 138:.\Generated_Source\PSoC5/USBUART_1_Dp.c **** * \funcusage
 139:.\Generated_Source\PSoC5/USBUART_1_Dp.c **** *  \snippet USBUART_1_Dp_SUT.c usage_USBUART_1_Dp_ReadDataReg 
 140:.\Generated_Source\PSoC5/USBUART_1_Dp.c **** *******************************************************************************/
 141:.\Generated_Source\PSoC5/USBUART_1_Dp.c **** uint8 USBUART_1_Dp_ReadDataReg(void)
 142:.\Generated_Source\PSoC5/USBUART_1_Dp.c **** {
 121              		.loc 1 142 0
 122              		.cfi_startproc
 123              		@ args = 0, pretend = 0, frame = 0
 124              		@ frame_needed = 0, uses_anonymous_args = 0
 125              		@ link register save eliminated.
 143:.\Generated_Source\PSoC5/USBUART_1_Dp.c ****     return (USBUART_1_Dp_DR & USBUART_1_Dp_MASK) >> USBUART_1_Dp_SHIFT;
 126              		.loc 1 143 0
 127 0000 024B     		ldr	r3, .L11
 128 0002 1878     		ldrb	r0, [r3]	@ zero_extendqisi2
 144:.\Generated_Source\PSoC5/USBUART_1_Dp.c **** }
 129              		.loc 1 144 0
 130 0004 C0F38010 		ubfx	r0, r0, #6, #1
 131 0008 7047     		bx	lr
 132              	.L12:
 133 000a 00BF     		.align	2
 134              	.L11:
 135 000c F0510040 		.word	1073762800
 136              		.cfi_endproc
 137              	.LFE3:
 138              		.size	USBUART_1_Dp_ReadDataReg, .-USBUART_1_Dp_ReadDataReg
 139              		.section	.text.USBUART_1_Dp_SetInterruptMode,"ax",%progbits
ARM GAS  C:\Users\honet\AppData\Local\Temp\ccXOsytd.s 			page 6


 140              		.align	2
 141              		.global	USBUART_1_Dp_SetInterruptMode
 142              		.thumb
 143              		.thumb_func
 144              		.type	USBUART_1_Dp_SetInterruptMode, %function
 145              	USBUART_1_Dp_SetInterruptMode:
 146              	.LFB4:
 145:.\Generated_Source\PSoC5/USBUART_1_Dp.c **** 
 146:.\Generated_Source\PSoC5/USBUART_1_Dp.c **** 
 147:.\Generated_Source\PSoC5/USBUART_1_Dp.c **** /* If interrupt is connected for this Pins component */ 
 148:.\Generated_Source\PSoC5/USBUART_1_Dp.c **** #if defined(USBUART_1_Dp_INTSTAT) 
 149:.\Generated_Source\PSoC5/USBUART_1_Dp.c **** 
 150:.\Generated_Source\PSoC5/USBUART_1_Dp.c ****     /*******************************************************************************
 151:.\Generated_Source\PSoC5/USBUART_1_Dp.c ****     * Function Name: USBUART_1_Dp_SetInterruptMode
 152:.\Generated_Source\PSoC5/USBUART_1_Dp.c ****     ****************************************************************************//**
 153:.\Generated_Source\PSoC5/USBUART_1_Dp.c ****     *
 154:.\Generated_Source\PSoC5/USBUART_1_Dp.c ****     * \brief Configures the interrupt mode for each of the Pins component's
 155:.\Generated_Source\PSoC5/USBUART_1_Dp.c ****     *  pins. Alternatively you may set the interrupt mode for all the pins
 156:.\Generated_Source\PSoC5/USBUART_1_Dp.c ****     *  specified in the Pins component.
 157:.\Generated_Source\PSoC5/USBUART_1_Dp.c ****     *
 158:.\Generated_Source\PSoC5/USBUART_1_Dp.c ****     *  <b>Note</b> The interrupt is port-wide and therefore any enabled pin
 159:.\Generated_Source\PSoC5/USBUART_1_Dp.c ****     *  interrupt may trigger it.
 160:.\Generated_Source\PSoC5/USBUART_1_Dp.c ****     *
 161:.\Generated_Source\PSoC5/USBUART_1_Dp.c ****     * \param position
 162:.\Generated_Source\PSoC5/USBUART_1_Dp.c ****     *  The pin position as listed in the Pins component. You may OR these to be 
 163:.\Generated_Source\PSoC5/USBUART_1_Dp.c ****     *  able to configure the interrupt mode of multiple pins within a Pins 
 164:.\Generated_Source\PSoC5/USBUART_1_Dp.c ****     *  component. Or you may use USBUART_1_Dp_INTR_ALL to configure the
 165:.\Generated_Source\PSoC5/USBUART_1_Dp.c ****     *  interrupt mode of all the pins in the Pins component.       
 166:.\Generated_Source\PSoC5/USBUART_1_Dp.c ****     *  - USBUART_1_Dp_0_INTR       (First pin in the list)
 167:.\Generated_Source\PSoC5/USBUART_1_Dp.c ****     *  - USBUART_1_Dp_1_INTR       (Second pin in the list)
 168:.\Generated_Source\PSoC5/USBUART_1_Dp.c ****     *  - ...
 169:.\Generated_Source\PSoC5/USBUART_1_Dp.c ****     *  - USBUART_1_Dp_INTR_ALL     (All pins in Pins component)
 170:.\Generated_Source\PSoC5/USBUART_1_Dp.c ****     *
 171:.\Generated_Source\PSoC5/USBUART_1_Dp.c ****     * \param mode
 172:.\Generated_Source\PSoC5/USBUART_1_Dp.c ****     *  Interrupt mode for the selected pins. Valid options are documented in
 173:.\Generated_Source\PSoC5/USBUART_1_Dp.c ****     *  \ref intrMode.
 174:.\Generated_Source\PSoC5/USBUART_1_Dp.c ****     *
 175:.\Generated_Source\PSoC5/USBUART_1_Dp.c ****     * \return 
 176:.\Generated_Source\PSoC5/USBUART_1_Dp.c ****     *  None
 177:.\Generated_Source\PSoC5/USBUART_1_Dp.c ****     *  
 178:.\Generated_Source\PSoC5/USBUART_1_Dp.c ****     * \sideeffect
 179:.\Generated_Source\PSoC5/USBUART_1_Dp.c ****     *  It is recommended that the interrupt be disabled before calling this 
 180:.\Generated_Source\PSoC5/USBUART_1_Dp.c ****     *  function to avoid unintended interrupt requests. Note that the interrupt
 181:.\Generated_Source\PSoC5/USBUART_1_Dp.c ****     *  type is port wide, and therefore will trigger for any enabled pin on the 
 182:.\Generated_Source\PSoC5/USBUART_1_Dp.c ****     *  port.
 183:.\Generated_Source\PSoC5/USBUART_1_Dp.c ****     *
 184:.\Generated_Source\PSoC5/USBUART_1_Dp.c ****     * \funcusage
 185:.\Generated_Source\PSoC5/USBUART_1_Dp.c ****     *  \snippet USBUART_1_Dp_SUT.c usage_USBUART_1_Dp_SetInterruptMode
 186:.\Generated_Source\PSoC5/USBUART_1_Dp.c ****     *******************************************************************************/
 187:.\Generated_Source\PSoC5/USBUART_1_Dp.c ****     void USBUART_1_Dp_SetInterruptMode(uint16 position, uint16 mode)
 188:.\Generated_Source\PSoC5/USBUART_1_Dp.c ****     {
 147              		.loc 1 188 0
 148              		.cfi_startproc
 149              		@ args = 0, pretend = 0, frame = 0
 150              		@ frame_needed = 0, uses_anonymous_args = 0
 151              		@ link register save eliminated.
 152              	.LVL6:
ARM GAS  C:\Users\honet\AppData\Local\Temp\ccXOsytd.s 			page 7


 189:.\Generated_Source\PSoC5/USBUART_1_Dp.c **** 		if((position & USBUART_1_Dp_0_INTR) != 0u) 
 153              		.loc 1 189 0
 154 0000 4306     		lsls	r3, r0, #25
 155 0002 02D5     		bpl	.L13
 190:.\Generated_Source\PSoC5/USBUART_1_Dp.c **** 		{ 
 191:.\Generated_Source\PSoC5/USBUART_1_Dp.c **** 			 USBUART_1_Dp_0_INTTYPE_REG = (uint8)mode; 
 156              		.loc 1 191 0
 157 0004 014B     		ldr	r3, .L19
 158 0006 C9B2     		uxtb	r1, r1
 159              	.LVL7:
 160 0008 1970     		strb	r1, [r3]
 161              	.L13:
 162 000a 7047     		bx	lr
 163              	.L20:
 164              		.align	2
 165              	.L19:
 166 000c 7E450040 		.word	1073759614
 167              		.cfi_endproc
 168              	.LFE4:
 169              		.size	USBUART_1_Dp_SetInterruptMode, .-USBUART_1_Dp_SetInterruptMode
 170              		.section	.text.USBUART_1_Dp_ClearInterrupt,"ax",%progbits
 171              		.align	2
 172              		.global	USBUART_1_Dp_ClearInterrupt
 173              		.thumb
 174              		.thumb_func
 175              		.type	USBUART_1_Dp_ClearInterrupt, %function
 176              	USBUART_1_Dp_ClearInterrupt:
 177              	.LFB5:
 192:.\Generated_Source\PSoC5/USBUART_1_Dp.c **** 		}
 193:.\Generated_Source\PSoC5/USBUART_1_Dp.c ****     }
 194:.\Generated_Source\PSoC5/USBUART_1_Dp.c ****     
 195:.\Generated_Source\PSoC5/USBUART_1_Dp.c ****     
 196:.\Generated_Source\PSoC5/USBUART_1_Dp.c ****     /*******************************************************************************
 197:.\Generated_Source\PSoC5/USBUART_1_Dp.c ****     * Function Name: USBUART_1_Dp_ClearInterrupt
 198:.\Generated_Source\PSoC5/USBUART_1_Dp.c ****     ****************************************************************************//**
 199:.\Generated_Source\PSoC5/USBUART_1_Dp.c ****     *
 200:.\Generated_Source\PSoC5/USBUART_1_Dp.c ****     * \brief Clears any active interrupts attached with the component and returns 
 201:.\Generated_Source\PSoC5/USBUART_1_Dp.c ****     *  the value of the interrupt status register allowing determination of which
 202:.\Generated_Source\PSoC5/USBUART_1_Dp.c ****     *  pins generated an interrupt event.
 203:.\Generated_Source\PSoC5/USBUART_1_Dp.c ****     *
 204:.\Generated_Source\PSoC5/USBUART_1_Dp.c ****     * \return 
 205:.\Generated_Source\PSoC5/USBUART_1_Dp.c ****     *  The right-shifted current value of the interrupt status register. Each pin 
 206:.\Generated_Source\PSoC5/USBUART_1_Dp.c ****     *  has one bit set if it generated an interrupt event. For example, bit 0 is 
 207:.\Generated_Source\PSoC5/USBUART_1_Dp.c ****     *  for pin 0 and bit 1 is for pin 1 of the Pins component.
 208:.\Generated_Source\PSoC5/USBUART_1_Dp.c ****     *  
 209:.\Generated_Source\PSoC5/USBUART_1_Dp.c ****     * \sideeffect
 210:.\Generated_Source\PSoC5/USBUART_1_Dp.c ****     *  Clears all bits of the physical port's interrupt status register, not just
 211:.\Generated_Source\PSoC5/USBUART_1_Dp.c ****     *  those associated with the Pins component.
 212:.\Generated_Source\PSoC5/USBUART_1_Dp.c ****     *
 213:.\Generated_Source\PSoC5/USBUART_1_Dp.c ****     * \funcusage
 214:.\Generated_Source\PSoC5/USBUART_1_Dp.c ****     *  \snippet USBUART_1_Dp_SUT.c usage_USBUART_1_Dp_ClearInterrupt
 215:.\Generated_Source\PSoC5/USBUART_1_Dp.c ****     *******************************************************************************/
 216:.\Generated_Source\PSoC5/USBUART_1_Dp.c ****     uint8 USBUART_1_Dp_ClearInterrupt(void)
 217:.\Generated_Source\PSoC5/USBUART_1_Dp.c ****     {
 178              		.loc 1 217 0
 179              		.cfi_startproc
 180              		@ args = 0, pretend = 0, frame = 0
ARM GAS  C:\Users\honet\AppData\Local\Temp\ccXOsytd.s 			page 8


 181              		@ frame_needed = 0, uses_anonymous_args = 0
 182              		@ link register save eliminated.
 218:.\Generated_Source\PSoC5/USBUART_1_Dp.c ****         return (USBUART_1_Dp_INTSTAT & USBUART_1_Dp_MASK) >> USBUART_1_Dp_SHIFT;
 183              		.loc 1 218 0
 184 0000 024B     		ldr	r3, .L22
 185 0002 1878     		ldrb	r0, [r3]	@ zero_extendqisi2
 219:.\Generated_Source\PSoC5/USBUART_1_Dp.c ****     }
 186              		.loc 1 219 0
 187 0004 C0F38010 		ubfx	r0, r0, #6, #1
 188 0008 7047     		bx	lr
 189              	.L23:
 190 000a 00BF     		.align	2
 191              	.L22:
 192 000c 8F450040 		.word	1073759631
 193              		.cfi_endproc
 194              	.LFE5:
 195              		.size	USBUART_1_Dp_ClearInterrupt, .-USBUART_1_Dp_ClearInterrupt
 196              		.text
 197              	.Letext0:
 198              		.file 2 ".\\Generated_Source\\PSoC5\\cytypes.h"