ARM GAS  C:\Users\honet\AppData\Local\Temp\ccfKFSWb.s 			page 1


   1              		.syntax unified
   2              		.cpu cortex-m3
   3              		.fpu softvfp
   4              		.eabi_attribute 20, 1
   5              		.eabi_attribute 21, 1
   6              		.eabi_attribute 23, 3
   7              		.eabi_attribute 24, 1
   8              		.eabi_attribute 25, 1
   9              		.eabi_attribute 26, 1
  10              		.eabi_attribute 30, 2
  11              		.eabi_attribute 34, 1
  12              		.eabi_attribute 18, 4
  13              		.thumb
  14              		.file	"diskio.c"
  15              		.text
  16              	.Ltext0:
  17              		.cfi_sections	.debug_frame
  18              		.section	.text.send_cmd,"ax",%progbits
  19              		.align	2
  20              		.thumb
  21              		.thumb_func
  22              		.type	send_cmd, %function
  23              	send_cmd:
  24              	.LFB13:
  25              		.file 1 ".\\diskio.c"
   1:.\diskio.c    **** /*-----------------------------------------------------------------------*/
   2:.\diskio.c    **** /* Low level disk I/O module skeleton for FatFs     (C)ChaN, 2016        */
   3:.\diskio.c    **** /*-----------------------------------------------------------------------*/
   4:.\diskio.c    **** /* If a working storage control module is available, it should be        */
   5:.\diskio.c    **** /* attached to the FatFs via a glue function rather than modifying it.   */
   6:.\diskio.c    **** /* This is an example of glue functions to attach various exsisting      */
   7:.\diskio.c    **** /* storage control modules to the FatFs module with a defined API.       */
   8:.\diskio.c    **** /*-----------------------------------------------------------------------*/
   9:.\diskio.c    **** /*------------------------------------------------------------------------*/
  10:.\diskio.c    **** /* STM32F100: MMCv3/SDv1/SDv2 (SPI mode) control module                   */
  11:.\diskio.c    **** /*------------------------------------------------------------------------*/
  12:.\diskio.c    **** /*
  13:.\diskio.c    **** /  Copyright (C) 2014, ChaN, all right reserved.
  14:.\diskio.c    **** /
  15:.\diskio.c    **** / * This software is a free software and there is NO WARRANTY.
  16:.\diskio.c    **** / * No restriction on use. You can use, modify and redistribute it for
  17:.\diskio.c    **** /   personal, non-profit or commercial products UNDER YOUR RESPONSIBILITY.
  18:.\diskio.c    **** / * Redistributions of source code must retain the above copyright notice.
  19:.\diskio.c    **** /
  20:.\diskio.c    **** /-------------------------------------------------------------------------*/
  21:.\diskio.c    **** 
  22:.\diskio.c    **** 
  23:.\diskio.c    **** #include <stdint.h>
  24:.\diskio.c    **** #include <stdio.h>
  25:.\diskio.c    **** #include <string.h>
  26:.\diskio.c    **** 
  27:.\diskio.c    **** #include "integer.h"
  28:.\diskio.c    **** #include "diskio.h"		/* FatFs lower layer API */
  29:.\diskio.c    **** #include "ff.h"
  30:.\diskio.c    **** 
  31:.\diskio.c    **** 
  32:.\diskio.c    **** /*--------------------------------------------------------------------------
ARM GAS  C:\Users\honet\AppData\Local\Temp\ccfKFSWb.s 			page 2


  33:.\diskio.c    **** 
  34:.\diskio.c    ****    Module Private Functions
  35:.\diskio.c    **** 
  36:.\diskio.c    **** ---------------------------------------------------------------------------*/
  37:.\diskio.c    **** 
  38:.\diskio.c    **** /* MMC/SD command */
  39:.\diskio.c    **** #define CMD0	(0)			/* GO_IDLE_STATE */
  40:.\diskio.c    **** #define CMD1	(1)			/* SEND_OP_COND (MMC) */
  41:.\diskio.c    **** #define	ACMD41	(0x80+41)	/* SEND_OP_COND (SDC) */
  42:.\diskio.c    **** #define CMD8	(8)			/* SEND_IF_COND */
  43:.\diskio.c    **** #define CMD9	(9)			/* SEND_CSD */
  44:.\diskio.c    **** #define CMD10	(10)		/* SEND_CID */
  45:.\diskio.c    **** #define CMD12	(12)		/* STOP_TRANSMISSION */
  46:.\diskio.c    **** #define ACMD13	(0x80+13)	/* SD_STATUS (SDC) */
  47:.\diskio.c    **** #define CMD16	(16)		/* SET_BLOCKLEN */
  48:.\diskio.c    **** #define CMD17	(17)		/* READ_SINGLE_BLOCK */
  49:.\diskio.c    **** #define CMD18	(18)		/* READ_MULTIPLE_BLOCK */
  50:.\diskio.c    **** #define CMD23	(23)		/* SET_BLOCK_COUNT (MMC) */
  51:.\diskio.c    **** #define	ACMD23	(0x80+23)	/* SET_WR_BLK_ERASE_COUNT (SDC) */
  52:.\diskio.c    **** #define CMD24	(24)		/* WRITE_BLOCK */
  53:.\diskio.c    **** #define CMD25	(25)		/* WRITE_MULTIPLE_BLOCK */
  54:.\diskio.c    **** #define CMD32	(32)		/* ERASE_ER_BLK_START */
  55:.\diskio.c    **** #define CMD33	(33)		/* ERASE_ER_BLK_END */
  56:.\diskio.c    **** #define CMD38	(38)		/* ERASE */
  57:.\diskio.c    **** #define CMD55	(55)		/* APP_CMD */
  58:.\diskio.c    **** #define CMD58	(58)		/* READ_OCR */
  59:.\diskio.c    **** 
  60:.\diskio.c    **** 
  61:.\diskio.c    **** static volatile
  62:.\diskio.c    **** DSTATUS Stat = STA_NOINIT;	/* Physical drive status */
  63:.\diskio.c    **** 
  64:.\diskio.c    **** static volatile
  65:.\diskio.c    **** UINT Timer1, Timer2;	/* 1kHz decrement timer stopped at zero (disk_timerproc()) */
  66:.\diskio.c    **** 
  67:.\diskio.c    **** static
  68:.\diskio.c    **** BYTE CardType;			/* Card type flags */
  69:.\diskio.c    **** 
  70:.\diskio.c    **** 
  71:.\diskio.c    **** SPI_FUNCTIONS SpiFuncs;
  72:.\diskio.c    **** 
  73:.\diskio.c    **** BYTE disk_carddtype()
  74:.\diskio.c    **** {
  75:.\diskio.c    ****     return CardType;
  76:.\diskio.c    **** }
  77:.\diskio.c    **** 
  78:.\diskio.c    **** void disk_attach_spifuncs(SPI_FUNCTIONS* pFuncs)
  79:.\diskio.c    **** {
  80:.\diskio.c    ****     memcpy(&SpiFuncs, pFuncs, sizeof(SPI_FUNCTIONS));
  81:.\diskio.c    **** }
  82:.\diskio.c    **** 
  83:.\diskio.c    **** void FCLK_SLOW()
  84:.\diskio.c    **** {
  85:.\diskio.c    ****     SpiFuncs.SPSLOWCK();
  86:.\diskio.c    **** }
  87:.\diskio.c    **** 
  88:.\diskio.c    **** void FCLK_FAST()
  89:.\diskio.c    **** {
ARM GAS  C:\Users\honet\AppData\Local\Temp\ccfKFSWb.s 			page 3


  90:.\diskio.c    ****     SpiFuncs.SPFASTCK();
  91:.\diskio.c    **** }
  92:.\diskio.c    **** 
  93:.\diskio.c    **** /*-----------------------------------------------------------------------*/
  94:.\diskio.c    **** /* SPI controls (Platform dependent)                                     */
  95:.\diskio.c    **** /*-----------------------------------------------------------------------*/
  96:.\diskio.c    **** 
  97:.\diskio.c    **** //SEND:
  98:.\diskio.c    **** //  Setup..
  99:.\diskio.c    **** //    nCount = 0
 100:.\diskio.c    **** //    nTerminalCount = buffer size
 101:.\diskio.c    **** //    pBuffer = buffer
 102:.\diskio.c    **** //    nTransferMode = TRANSMODE_SEND
 103:.\diskio.c    **** //  Initiate..
 104:.\diskio.c    **** //    call SPI_RX_ISR() directly
 105:.\diskio.c    **** //    Wait for G_nTransferMode = TRANSMODE_IDLE
 106:.\diskio.c    **** 
 107:.\diskio.c    **** //RECEIVE:
 108:.\diskio.c    **** //  Setup
 109:.\diskio.c    **** //    nCount = 0
 110:.\diskio.c    **** //    nTerminalCount = buffer size
 111:.\diskio.c    **** //    pBuffer = buffer
 112:.\diskio.c    **** //    nTransferMode = TRANSMODE_RECV
 113:.\diskio.c    **** //  Initiate..
 114:.\diskio.c    **** //    Send a dummy byte
 115:.\diskio.c    **** //    Wait for G_nTransferMode = TRANSMODE_IDLE
 116:.\diskio.c    **** 
 117:.\diskio.c    **** /* Initialize MMC interface */
 118:.\diskio.c    **** static
 119:.\diskio.c    **** void init_spi (void)
 120:.\diskio.c    **** {
 121:.\diskio.c    ****     FCLK_SLOW();                //set to slow clock
 122:.\diskio.c    ****     SpiFuncs.SPDESELECTCARD();    //CS High
 123:.\diskio.c    **** 	for (Timer1 = 10; Timer1; ) ;   //Wait 10 ms
 124:.\diskio.c    **** }
 125:.\diskio.c    **** 
 126:.\diskio.c    **** /* Exchange a byte */
 127:.\diskio.c    **** static
 128:.\diskio.c    **** BYTE xchg_spi (
 129:.\diskio.c    **** 	BYTE dat	/* Data to send */
 130:.\diskio.c    **** )
 131:.\diskio.c    **** {
 132:.\diskio.c    ****     return SpiFuncs.SPEXCHANGE(dat);
 133:.\diskio.c    **** }
 134:.\diskio.c    **** 
 135:.\diskio.c    **** 
 136:.\diskio.c    **** /* Receive multiple byte */
 137:.\diskio.c    **** static
 138:.\diskio.c    **** void rcvr_spi_multi (
 139:.\diskio.c    **** 	BYTE *buff,		/* Pointer to data buffer */
 140:.\diskio.c    **** 	UINT btr		/* Number of bytes to receive (even number) */
 141:.\diskio.c    **** )
 142:.\diskio.c    **** {
 143:.\diskio.c    ****     SpiFuncs.SPRXSTREAM(buff, btr);
 144:.\diskio.c    ****     return;
 145:.\diskio.c    **** }
 146:.\diskio.c    **** 
ARM GAS  C:\Users\honet\AppData\Local\Temp\ccfKFSWb.s 			page 4


 147:.\diskio.c    **** 
 148:.\diskio.c    **** /* Send multiple byte */
 149:.\diskio.c    **** static
 150:.\diskio.c    **** void xmit_spi_multi (
 151:.\diskio.c    **** 	const BYTE *buff,	/* Pointer to the data */
 152:.\diskio.c    **** 	UINT btx			/* Number of bytes to send (even number) */
 153:.\diskio.c    **** )
 154:.\diskio.c    **** {
 155:.\diskio.c    ****     SpiFuncs.SPTXSTREAM(buff, btx);
 156:.\diskio.c    ****     return;
 157:.\diskio.c    **** }
 158:.\diskio.c    **** 
 159:.\diskio.c    **** 
 160:.\diskio.c    **** /*-----------------------------------------------------------------------*/
 161:.\diskio.c    **** /* Wait for card ready                                                   */
 162:.\diskio.c    **** /*-----------------------------------------------------------------------*/
 163:.\diskio.c    **** 
 164:.\diskio.c    **** static
 165:.\diskio.c    **** int wait_ready (	/* 1:Ready, 0:Timeout */
 166:.\diskio.c    **** 	UINT wt			/* Timeout [ms] */
 167:.\diskio.c    **** )
 168:.\diskio.c    **** {
 169:.\diskio.c    **** 	BYTE d;
 170:.\diskio.c    **** 
 171:.\diskio.c    **** 
 172:.\diskio.c    **** 	Timer2 = wt;
 173:.\diskio.c    **** 	do {
 174:.\diskio.c    **** 		d = xchg_spi(0xFF);
 175:.\diskio.c    **** 		// This loop takes a time. Insert rot_rdq() here for multitask envilonment.
 176:.\diskio.c    **** 	} while (d != 0xFF && Timer2);	// Wait for card goes ready or timeout
 177:.\diskio.c    **** 
 178:.\diskio.c    **** 	return (d == 0xFF) ? 1 : 0;
 179:.\diskio.c    **** }
 180:.\diskio.c    **** 
 181:.\diskio.c    **** 
 182:.\diskio.c    **** 
 183:.\diskio.c    **** /*-----------------------------------------------------------------------*/
 184:.\diskio.c    **** /* Deselect card and release SPI                                         */
 185:.\diskio.c    **** /*-----------------------------------------------------------------------*/
 186:.\diskio.c    **** 
 187:.\diskio.c    **** static
 188:.\diskio.c    **** void deselect (void)
 189:.\diskio.c    **** {
 190:.\diskio.c    **** 	SpiFuncs.SPDESELECTCARD();
 191:.\diskio.c    **** 	xchg_spi(0xFF);	/* Dummy clock (force DO hi-z for multiple slave SPI) */
 192:.\diskio.c    **** }
 193:.\diskio.c    **** 
 194:.\diskio.c    **** 
 195:.\diskio.c    **** 
 196:.\diskio.c    **** /*-----------------------------------------------------------------------*/
 197:.\diskio.c    **** /* Select card and wait for ready                                        */
 198:.\diskio.c    **** /*-----------------------------------------------------------------------*/
 199:.\diskio.c    **** 
 200:.\diskio.c    **** static
 201:.\diskio.c    **** int select (void)	/* 1:OK, 0:Timeout */
 202:.\diskio.c    **** {
 203:.\diskio.c    **** 	SpiFuncs.SPSELECTCARD();
ARM GAS  C:\Users\honet\AppData\Local\Temp\ccfKFSWb.s 			page 5


 204:.\diskio.c    **** 	xchg_spi(0xFF);	/* Dummy clock (force DO enabled) */
 205:.\diskio.c    **** 	if (wait_ready(500)) return 1;	/* Wait for card ready */
 206:.\diskio.c    **** 
 207:.\diskio.c    **** 	deselect();
 208:.\diskio.c    **** 	return 0;	/* Timeout */
 209:.\diskio.c    **** }
 210:.\diskio.c    **** 
 211:.\diskio.c    **** 
 212:.\diskio.c    **** 
 213:.\diskio.c    **** /*-----------------------------------------------------------------------*/
 214:.\diskio.c    **** /* Receive a data packet from the MMC                                    */
 215:.\diskio.c    **** /*-----------------------------------------------------------------------*/
 216:.\diskio.c    **** 
 217:.\diskio.c    **** static
 218:.\diskio.c    **** int rcvr_datablock (	/* 1:OK, 0:Error */
 219:.\diskio.c    **** 	BYTE *buff,			/* Data buffer */
 220:.\diskio.c    **** 	UINT btr			/* Data block length (byte) */
 221:.\diskio.c    **** )
 222:.\diskio.c    **** {
 223:.\diskio.c    **** 	BYTE token;
 224:.\diskio.c    **** 	Timer1 = 200;
 225:.\diskio.c    **** 	do {							/* Wait for DataStart token in timeout of 200ms */
 226:.\diskio.c    **** 		token = xchg_spi(0xFF);
 227:.\diskio.c    **** 		// This loop will take a time. Insert rot_rdq() here for multitask envilonment.
 228:.\diskio.c    **** 	} while ((token == 0xFF) && Timer1);
 229:.\diskio.c    **** 	if(token != 0xFE) return 0;		/* Function fails if invalid DataStart token or timeout */
 230:.\diskio.c    **** 
 231:.\diskio.c    **** 	rcvr_spi_multi(buff, btr);		/* Store trailing data to the buffer */
 232:.\diskio.c    **** 	xchg_spi(0xFF); xchg_spi(0xFF);			/* Discard CRC */
 233:.\diskio.c    **** 
 234:.\diskio.c    **** 	return 1;						/* Function succeeded */
 235:.\diskio.c    **** }
 236:.\diskio.c    **** 
 237:.\diskio.c    **** /*-----------------------------------------------------------------------*/
 238:.\diskio.c    **** /* Send a data packet to the MMC                                         */
 239:.\diskio.c    **** /*-----------------------------------------------------------------------*/
 240:.\diskio.c    **** 
 241:.\diskio.c    **** static
 242:.\diskio.c    **** int xmit_datablock (	/* 1:OK, 0:Failed */
 243:.\diskio.c    **** 	const BYTE *buff,	/* Ponter to 512 byte data to be sent */
 244:.\diskio.c    **** 	BYTE token			/* Token */
 245:.\diskio.c    **** )
 246:.\diskio.c    **** {
 247:.\diskio.c    **** 	BYTE resp;
 248:.\diskio.c    **** 	if (!wait_ready(500)) return 0;		/* Wait for card ready */
 249:.\diskio.c    **** 
 250:.\diskio.c    **** 	xchg_spi(token);					/* Send token */
 251:.\diskio.c    **** 	if (token != 0xFD) {				/* Send data if token is other than StopTran */
 252:.\diskio.c    **** 		xmit_spi_multi(buff, 512);		/* Data */
 253:.\diskio.c    **** 		xchg_spi(0xFF); xchg_spi(0xFF);	/* Dummy CRC */
 254:.\diskio.c    **** 
 255:.\diskio.c    **** 		resp = xchg_spi(0xFF);				/* Receive data resp */
 256:.\diskio.c    **** 		if ((resp & 0x1F) != 0x05)		/* Function fails if the data packet was not accepted */
 257:.\diskio.c    **** 			return 0;
 258:.\diskio.c    **** 	}
 259:.\diskio.c    **** 	return 1;
 260:.\diskio.c    **** }
ARM GAS  C:\Users\honet\AppData\Local\Temp\ccfKFSWb.s 			page 6


 261:.\diskio.c    **** 
 262:.\diskio.c    **** 
 263:.\diskio.c    **** /*-----------------------------------------------------------------------*/
 264:.\diskio.c    **** /* Send a command packet to the MMC                                      */
 265:.\diskio.c    **** /*-----------------------------------------------------------------------*/
 266:.\diskio.c    **** 
 267:.\diskio.c    **** static
 268:.\diskio.c    **** BYTE send_cmd (		/* Return value: R1 resp (bit7==1:Failed to send) */
 269:.\diskio.c    **** 	BYTE cmd,		/* Command index */
 270:.\diskio.c    **** 	DWORD arg		/* Argument */
 271:.\diskio.c    **** )
 272:.\diskio.c    **** {
  26              		.loc 1 272 0
  27              		.cfi_startproc
  28              		@ args = 0, pretend = 0, frame = 0
  29              		@ frame_needed = 0, uses_anonymous_args = 0
  30              	.LVL0:
  31 0000 2DE9F041 		push	{r4, r5, r6, r7, r8, lr}
  32              		.cfi_def_cfa_offset 24
  33              		.cfi_offset 4, -24
  34              		.cfi_offset 5, -20
  35              		.cfi_offset 6, -16
  36              		.cfi_offset 7, -12
  37              		.cfi_offset 8, -8
  38              		.cfi_offset 14, -4
  39              		.loc 1 272 0
  40 0004 8846     		mov	r8, r1
 273:.\diskio.c    **** 	BYTE n, res;
 274:.\diskio.c    **** 
 275:.\diskio.c    **** 
 276:.\diskio.c    **** 	if (cmd & 0x80) {	/* Send a CMD55 prior to ACMD<n> */
  41              		.loc 1 276 0
  42 0006 0106     		lsls	r1, r0, #24
  43              	.LVL1:
 272:.\diskio.c    **** 	BYTE n, res;
  44              		.loc 1 272 0
  45 0008 0746     		mov	r7, r0
  46              		.loc 1 276 0
  47 000a 45D4     		bmi	.L26
  48              	.LVL2:
  49              	.L2:
 277:.\diskio.c    **** 		cmd &= 0x7F;
 278:.\diskio.c    **** 		res = send_cmd(CMD55, 0);
 279:.\diskio.c    **** 		if (res > 1) return res;
 280:.\diskio.c    **** 	}
 281:.\diskio.c    **** 
 282:.\diskio.c    **** 	/* Select the card and wait for ready except to stop multiple block read */
 283:.\diskio.c    **** 	if (cmd != CMD12) {
  50              		.loc 1 283 0
  51 000c 0C2F     		cmp	r7, #12
  52              	.LBB170:
  53              	.LBB171:
 190:.\diskio.c    **** 	xchg_spi(0xFF);	/* Dummy clock (force DO hi-z for multiple slave SPI) */
  54              		.loc 1 190 0
  55 000e 304C     		ldr	r4, .L32
  56              	.LBE171:
  57              	.LBE170:
ARM GAS  C:\Users\honet\AppData\Local\Temp\ccfKFSWb.s 			page 7


  58              		.loc 1 283 0
  59 0010 17D0     		beq	.L4
  60              	.LBB175:
  61              	.LBB174:
 190:.\diskio.c    **** 	xchg_spi(0xFF);	/* Dummy clock (force DO hi-z for multiple slave SPI) */
  62              		.loc 1 190 0
  63 0012 6368     		ldr	r3, [r4, #4]
  64 0014 9847     		blx	r3
  65              	.LVL3:
  66              	.LBB172:
  67              	.LBB173:
 132:.\diskio.c    **** }
  68              		.loc 1 132 0
  69 0016 2369     		ldr	r3, [r4, #16]
  70 0018 FF20     		movs	r0, #255
  71 001a 9847     		blx	r3
  72              	.LVL4:
  73              	.LBE173:
  74              	.LBE172:
  75              	.LBE174:
  76              	.LBE175:
  77              	.LBB176:
  78              	.LBB177:
 203:.\diskio.c    **** 	xchg_spi(0xFF);	/* Dummy clock (force DO enabled) */
  79              		.loc 1 203 0
  80 001c 2368     		ldr	r3, [r4]
  81 001e 9847     		blx	r3
  82              	.LVL5:
  83              	.LBB178:
  84              	.LBB179:
 172:.\diskio.c    **** 	do {
  85              		.loc 1 172 0
  86 0020 2C4D     		ldr	r5, .L32+4
  87              	.LBE179:
  88              	.LBE178:
  89              	.LBB185:
  90              	.LBB186:
 132:.\diskio.c    **** }
  91              		.loc 1 132 0
  92 0022 2369     		ldr	r3, [r4, #16]
  93 0024 FF20     		movs	r0, #255
  94 0026 9847     		blx	r3
  95              	.LVL6:
  96              	.LBE186:
  97              	.LBE185:
  98              	.LBB187:
  99              	.LBB184:
 172:.\diskio.c    **** 	do {
 100              		.loc 1 172 0
 101 0028 4FF4FA73 		mov	r3, #500
 102 002c 2B60     		str	r3, [r5]
 103 002e 02E0     		b	.L5
 104              	.LVL7:
 105              	.L28:
 176:.\diskio.c    **** 
 106              		.loc 1 176 0
 107 0030 2B68     		ldr	r3, [r5]
ARM GAS  C:\Users\honet\AppData\Local\Temp\ccfKFSWb.s 			page 8


 108 0032 002B     		cmp	r3, #0
 109 0034 38D0     		beq	.L27
 110              	.LVL8:
 111              	.L5:
 112              	.LBB180:
 113              	.LBB181:
 132:.\diskio.c    **** }
 114              		.loc 1 132 0
 115 0036 2369     		ldr	r3, [r4, #16]
 116 0038 FF20     		movs	r0, #255
 117 003a 9847     		blx	r3
 118              	.LVL9:
 119              	.LBE181:
 120              	.LBE180:
 176:.\diskio.c    **** 
 121              		.loc 1 176 0
 122 003c FF28     		cmp	r0, #255
 123              	.LBB183:
 124              	.LBB182:
 132:.\diskio.c    **** }
 125              		.loc 1 132 0
 126 003e 244E     		ldr	r6, .L32
 127              	.LBE182:
 128              	.LBE183:
 176:.\diskio.c    **** 
 129              		.loc 1 176 0
 130 0040 F6D1     		bne	.L28
 131              	.LVL10:
 132              	.L4:
 133              	.LBE184:
 134              	.LBE187:
 135              	.LBE177:
 136              	.LBE176:
 137              	.LBB193:
 138              	.LBB194:
 132:.\diskio.c    **** }
 139              		.loc 1 132 0
 140 0042 2369     		ldr	r3, [r4, #16]
 141 0044 47F04000 		orr	r0, r7, #64
 142 0048 9847     		blx	r3
 143              	.LVL11:
 144              	.LBE194:
 145              	.LBE193:
 146              	.LBB196:
 147              	.LBB197:
 148 004a 2369     		ldr	r3, [r4, #16]
 149 004c 4FEA1860 		lsr	r0, r8, #24
 150 0050 9847     		blx	r3
 151              	.LVL12:
 152              	.LBE197:
 153              	.LBE196:
 154              	.LBB198:
 155              	.LBB199:
 156 0052 2369     		ldr	r3, [r4, #16]
 157 0054 C8F30740 		ubfx	r0, r8, #16, #8
 158 0058 9847     		blx	r3
 159              	.LVL13:
ARM GAS  C:\Users\honet\AppData\Local\Temp\ccfKFSWb.s 			page 9


 160              	.LBE199:
 161              	.LBE198:
 162              	.LBB200:
 163              	.LBB195:
 164 005a 1D4D     		ldr	r5, .L32
 165              	.LBE195:
 166              	.LBE200:
 167              	.LBB201:
 168              	.LBB202:
 169 005c 2369     		ldr	r3, [r4, #16]
 170 005e C8F30720 		ubfx	r0, r8, #8, #8
 171 0062 9847     		blx	r3
 172              	.LVL14:
 173              	.LBE202:
 174              	.LBE201:
 175              	.LBB203:
 176              	.LBB204:
 177 0064 2369     		ldr	r3, [r4, #16]
 178 0066 5FFA88F0 		uxtb	r0, r8
 179 006a 9847     		blx	r3
 180              	.LVL15:
 181              	.LBE204:
 182              	.LBE203:
 183              	.LBB205:
 184              	.LBB206:
 185 006c 2B69     		ldr	r3, [r5, #16]
 186              	.LBE206:
 187              	.LBE205:
 284:.\diskio.c    ****         deselect();
 285:.\diskio.c    **** 		if (!select()) return 0xFF;
 286:.\diskio.c    **** 	}
 287:.\diskio.c    **** 
 288:.\diskio.c    **** 	/* Send command packet */
 289:.\diskio.c    **** 	xchg_spi(0x40 | cmd);				/* Start + command index */
 290:.\diskio.c    **** 	xchg_spi((BYTE)(arg >> 24));		/* Argument[31..24] */
 291:.\diskio.c    **** 	xchg_spi((BYTE)(arg >> 16));		/* Argument[23..16] */
 292:.\diskio.c    **** 	xchg_spi((BYTE)(arg >> 8));			/* Argument[15..8] */
 293:.\diskio.c    **** 	xchg_spi((BYTE)arg);				/* Argument[7..0] */
 294:.\diskio.c    **** 	n = 0x01;							/* Dummy CRC + Stop */
 295:.\diskio.c    **** 	if (cmd == CMD0) n = 0x95;			/* Valid CRC for CMD0(0) */
 188              		.loc 1 295 0
 189 006e 77B9     		cbnz	r7, .L29
 190              	.LVL16:
 191              	.LBB210:
 192              	.LBB207:
 132:.\diskio.c    **** }
 193              		.loc 1 132 0
 194 0070 9520     		movs	r0, #149
 195 0072 9847     		blx	r3
 196              	.LVL17:
 197              	.L9:
 198              	.LBE207:
 199              	.LBE210:
 272:.\diskio.c    **** 	BYTE n, res;
 200              		.loc 1 272 0 discriminator 2
 201 0074 0A25     		movs	r5, #10
 202              	.L10:
ARM GAS  C:\Users\honet\AppData\Local\Temp\ccfKFSWb.s 			page 10


 203              	.LVL18:
 204              	.LBB211:
 205              	.LBB212:
 132:.\diskio.c    **** }
 206              		.loc 1 132 0 discriminator 2
 207 0076 2369     		ldr	r3, [r4, #16]
 208 0078 FF20     		movs	r0, #255
 209 007a 9847     		blx	r3
 210              	.LVL19:
 211              	.LBE212:
 212              	.LBE211:
 296:.\diskio.c    **** 	if (cmd == CMD8) n = 0x87;			/* Valid CRC for CMD8(0x1AA) */
 297:.\diskio.c    **** 	xchg_spi(n);
 298:.\diskio.c    **** 
 299:.\diskio.c    **** 	/* Receive command resp */
 300:.\diskio.c    **** 	if (cmd == CMD12) xchg_spi(0xFF);	/* Diacard following one byte when CMD12 */
 301:.\diskio.c    **** 	n = 10;								/* Wait for response (10 bytes max) */
 302:.\diskio.c    **** 	do
 303:.\diskio.c    **** 		res = xchg_spi(0xFF);
 304:.\diskio.c    **** 	while ((res & 0x80) && --n);
 213              		.loc 1 304 0 discriminator 2
 214 007c 0206     		lsls	r2, r0, #24
 215 007e 05F1FF33 		add	r3, r5, #-1
 216 0082 0FD5     		bpl	.L22
 217              		.loc 1 304 0 is_stmt 0 discriminator 1
 218 0084 13F0FF05 		ands	r5, r3, #255
 219 0088 F5D1     		bne	.L10
 220 008a BDE8F081 		pop	{r4, r5, r6, r7, r8, pc}
 221              	.LVL20:
 222              	.L29:
 296:.\diskio.c    **** 	if (cmd == CMD8) n = 0x87;			/* Valid CRC for CMD8(0x1AA) */
 223              		.loc 1 296 0 is_stmt 1
 224 008e 082F     		cmp	r7, #8
 225 0090 12D1     		bne	.L30
 226              	.LVL21:
 227              	.LBB213:
 228              	.LBB208:
 132:.\diskio.c    **** }
 229              		.loc 1 132 0
 230 0092 8720     		movs	r0, #135
 231 0094 9847     		blx	r3
 232              	.LVL22:
 233 0096 EDE7     		b	.L9
 234              	.LVL23:
 235              	.L26:
 236              	.LBE208:
 237              	.LBE213:
 278:.\diskio.c    **** 		if (res > 1) return res;
 238              		.loc 1 278 0
 239 0098 3720     		movs	r0, #55
 240 009a 0021     		movs	r1, #0
 241 009c FFF7B0FF 		bl	send_cmd
 242              	.LVL24:
 279:.\diskio.c    **** 	}
 243              		.loc 1 279 0
 244 00a0 0128     		cmp	r0, #1
 245 00a2 11D9     		bls	.L31
ARM GAS  C:\Users\honet\AppData\Local\Temp\ccfKFSWb.s 			page 11


 246              	.LVL25:
 247              	.L22:
 305:.\diskio.c    **** 
 306:.\diskio.c    **** 	return res;							/* Return received response */
 307:.\diskio.c    **** }
 248              		.loc 1 307 0
 249 00a4 BDE8F081 		pop	{r4, r5, r6, r7, r8, pc}
 250              	.LVL26:
 251              	.L27:
 252              	.LBB214:
 253              	.LBB192:
 254              	.LBB188:
 255              	.LBB189:
 190:.\diskio.c    **** 	xchg_spi(0xFF);	/* Dummy clock (force DO hi-z for multiple slave SPI) */
 256              		.loc 1 190 0
 257 00a8 7368     		ldr	r3, [r6, #4]
 258 00aa 9847     		blx	r3
 259              	.LVL27:
 260              	.LBB190:
 261              	.LBB191:
 132:.\diskio.c    **** }
 262              		.loc 1 132 0
 263 00ac 3369     		ldr	r3, [r6, #16]
 264 00ae FF20     		movs	r0, #255
 265 00b0 9847     		blx	r3
 266              	.LVL28:
 267              	.LBE191:
 268              	.LBE190:
 269              	.LBE189:
 270              	.LBE188:
 271              	.LBE192:
 272              	.LBE214:
 285:.\diskio.c    **** 	}
 273              		.loc 1 285 0
 274 00b2 FF20     		movs	r0, #255
 275 00b4 BDE8F081 		pop	{r4, r5, r6, r7, r8, pc}
 276              	.LVL29:
 277              	.L30:
 278              	.LBB215:
 279              	.LBB209:
 132:.\diskio.c    **** }
 280              		.loc 1 132 0
 281 00b8 0120     		movs	r0, #1
 282 00ba 9847     		blx	r3
 283              	.LVL30:
 284              	.LBE209:
 285              	.LBE215:
 300:.\diskio.c    **** 	n = 10;								/* Wait for response (10 bytes max) */
 286              		.loc 1 300 0
 287 00bc 0C2F     		cmp	r7, #12
 288 00be D9D1     		bne	.L9
 289              	.LVL31:
 290              	.LBB216:
 291              	.LBB217:
 132:.\diskio.c    **** }
 292              		.loc 1 132 0
 293 00c0 2B69     		ldr	r3, [r5, #16]
ARM GAS  C:\Users\honet\AppData\Local\Temp\ccfKFSWb.s 			page 12


 294 00c2 FF20     		movs	r0, #255
 295 00c4 9847     		blx	r3
 296              	.LVL32:
 297 00c6 D5E7     		b	.L9
 298              	.LVL33:
 299              	.L31:
 300              	.LBE217:
 301              	.LBE216:
 277:.\diskio.c    **** 		res = send_cmd(CMD55, 0);
 302              		.loc 1 277 0
 303 00c8 07F07F07 		and	r7, r7, #127
 304              	.LVL34:
 305 00cc 9EE7     		b	.L2
 306              	.L33:
 307 00ce 00BF     		.align	2
 308              	.L32:
 309 00d0 00000000 		.word	SpiFuncs
 310 00d4 00000000 		.word	.LANCHOR0
 311              		.cfi_endproc
 312              	.LFE13:
 313              		.size	send_cmd, .-send_cmd
 314              		.section	.text.xmit_datablock,"ax",%progbits
 315              		.align	2
 316              		.thumb
 317              		.thumb_func
 318              		.type	xmit_datablock, %function
 319              	xmit_datablock:
 320              	.LFB12:
 246:.\diskio.c    **** 	BYTE resp;
 321              		.loc 1 246 0
 322              		.cfi_startproc
 323              		@ args = 0, pretend = 0, frame = 0
 324              		@ frame_needed = 0, uses_anonymous_args = 0
 325              	.LVL35:
 326 0000 2DE9F843 		push	{r3, r4, r5, r6, r7, r8, r9, lr}
 327              		.cfi_def_cfa_offset 32
 328              		.cfi_offset 3, -32
 329              		.cfi_offset 4, -28
 330              		.cfi_offset 5, -24
 331              		.cfi_offset 6, -20
 332              		.cfi_offset 7, -16
 333              		.cfi_offset 8, -12
 334              		.cfi_offset 9, -8
 335              		.cfi_offset 14, -4
 336              	.LBB246:
 337              	.LBB247:
 172:.\diskio.c    **** 	do {
 338              		.loc 1 172 0
 339 0004 194D     		ldr	r5, .L45
 340 0006 4FF4FA73 		mov	r3, #500
 341              	.LBE247:
 342              	.LBE246:
 246:.\diskio.c    **** 	BYTE resp;
 343              		.loc 1 246 0
 344 000a 8146     		mov	r9, r0
 345              	.LVL36:
 346 000c 8846     		mov	r8, r1
ARM GAS  C:\Users\honet\AppData\Local\Temp\ccfKFSWb.s 			page 13


 347 000e 184E     		ldr	r6, .L45+4
 348              	.LBB253:
 349              	.LBB252:
 172:.\diskio.c    **** 	do {
 350              		.loc 1 172 0
 351 0010 2B60     		str	r3, [r5]
 352 0012 01E0     		b	.L36
 353              	.LVL37:
 354              	.L43:
 176:.\diskio.c    **** 
 355              		.loc 1 176 0
 356 0014 2868     		ldr	r0, [r5]
 357 0016 18B3     		cbz	r0, .L42
 358              	.LVL38:
 359              	.L36:
 360              	.LBB248:
 361              	.LBB249:
 132:.\diskio.c    **** }
 362              		.loc 1 132 0
 363 0018 3369     		ldr	r3, [r6, #16]
 364 001a FF20     		movs	r0, #255
 365 001c 9847     		blx	r3
 366              	.LVL39:
 367              	.LBE249:
 368              	.LBE248:
 176:.\diskio.c    **** 
 369              		.loc 1 176 0
 370 001e FF28     		cmp	r0, #255
 371              	.LBB251:
 372              	.LBB250:
 132:.\diskio.c    **** }
 373              		.loc 1 132 0
 374 0020 0446     		mov	r4, r0
 375 0022 134F     		ldr	r7, .L45+4
 376              	.LBE250:
 377              	.LBE251:
 176:.\diskio.c    **** 
 378              		.loc 1 176 0
 379 0024 F6D1     		bne	.L43
 380              	.LVL40:
 381              	.LBE252:
 382              	.LBE253:
 383              	.LBB254:
 384              	.LBB255:
 132:.\diskio.c    **** }
 385              		.loc 1 132 0
 386 0026 3B69     		ldr	r3, [r7, #16]
 387 0028 4046     		mov	r0, r8
 388 002a 9847     		blx	r3
 389              	.LVL41:
 390              	.LBE255:
 391              	.LBE254:
 251:.\diskio.c    **** 		xmit_spi_multi(buff, 512);		/* Data */
 392              		.loc 1 251 0
 393 002c B8F1FD0F 		cmp	r8, #253
 394 0030 18D0     		beq	.L44
 395              	.LVL42:
ARM GAS  C:\Users\honet\AppData\Local\Temp\ccfKFSWb.s 			page 14


 396              	.LBB256:
 397              	.LBB257:
 398              	.LBB258:
 399              	.LBB259:
 155:.\diskio.c    ****     return;
 400              		.loc 1 155 0
 401 0032 4FF40071 		mov	r1, #512
 402 0036 4846     		mov	r0, r9
 403 0038 BB69     		ldr	r3, [r7, #24]
 404 003a 9847     		blx	r3
 405              	.LVL43:
 406              	.LBE259:
 407              	.LBE258:
 408              	.LBB260:
 409              	.LBB261:
 132:.\diskio.c    **** }
 410              		.loc 1 132 0
 411 003c 3B69     		ldr	r3, [r7, #16]
 412 003e 2046     		mov	r0, r4
 413 0040 9847     		blx	r3
 414              	.LVL44:
 415              	.LBE261:
 416              	.LBE260:
 417              	.LBB262:
 418              	.LBB263:
 419 0042 3B69     		ldr	r3, [r7, #16]
 420 0044 2046     		mov	r0, r4
 421 0046 9847     		blx	r3
 422              	.LVL45:
 423              	.LBE263:
 424              	.LBE262:
 425              	.LBB264:
 426              	.LBB265:
 427 0048 3B69     		ldr	r3, [r7, #16]
 428 004a 2046     		mov	r0, r4
 429 004c 9847     		blx	r3
 430              	.LVL46:
 431              	.LBE265:
 432              	.LBE264:
 256:.\diskio.c    **** 			return 0;
 433              		.loc 1 256 0
 434 004e 00F01F00 		and	r0, r0, #31
 435 0052 A0F10500 		sub	r0, #5
 436 0056 B0FA80F0 		clz	r0, r0
 437 005a 4009     		lsrs	r0, r0, #5
 438 005c BDE8F883 		pop	{r3, r4, r5, r6, r7, r8, r9, pc}
 439              	.LVL47:
 440              	.L42:
 441 0060 BDE8F883 		pop	{r3, r4, r5, r6, r7, r8, r9, pc}
 442              	.LVL48:
 443              	.L44:
 444              	.LBE257:
 445              	.LBE256:
 259:.\diskio.c    **** }
 446              		.loc 1 259 0
 447 0064 0120     		movs	r0, #1
 260:.\diskio.c    **** 
ARM GAS  C:\Users\honet\AppData\Local\Temp\ccfKFSWb.s 			page 15


 448              		.loc 1 260 0
 449 0066 BDE8F883 		pop	{r3, r4, r5, r6, r7, r8, r9, pc}
 450              	.LVL49:
 451              	.L46:
 452 006a 00BF     		.align	2
 453              	.L45:
 454 006c 00000000 		.word	.LANCHOR0
 455 0070 00000000 		.word	SpiFuncs
 456              		.cfi_endproc
 457              	.LFE12:
 458              		.size	xmit_datablock, .-xmit_datablock
 459              		.section	.text.disk_carddtype,"ax",%progbits
 460              		.align	2
 461              		.global	disk_carddtype
 462              		.thumb
 463              		.thumb_func
 464              		.type	disk_carddtype, %function
 465              	disk_carddtype:
 466              	.LFB0:
  74:.\diskio.c    ****     return CardType;
 467              		.loc 1 74 0
 468              		.cfi_startproc
 469              		@ args = 0, pretend = 0, frame = 0
 470              		@ frame_needed = 0, uses_anonymous_args = 0
 471              		@ link register save eliminated.
  75:.\diskio.c    **** }
 472              		.loc 1 75 0
 473 0000 014B     		ldr	r3, .L48
  76:.\diskio.c    **** 
 474              		.loc 1 76 0
 475 0002 1879     		ldrb	r0, [r3, #4]	@ zero_extendqisi2
 476 0004 7047     		bx	lr
 477              	.L49:
 478 0006 00BF     		.align	2
 479              	.L48:
 480 0008 00000000 		.word	.LANCHOR0
 481              		.cfi_endproc
 482              	.LFE0:
 483              		.size	disk_carddtype, .-disk_carddtype
 484              		.section	.text.disk_attach_spifuncs,"ax",%progbits
 485              		.align	2
 486              		.global	disk_attach_spifuncs
 487              		.thumb
 488              		.thumb_func
 489              		.type	disk_attach_spifuncs, %function
 490              	disk_attach_spifuncs:
 491              	.LFB1:
  79:.\diskio.c    ****     memcpy(&SpiFuncs, pFuncs, sizeof(SPI_FUNCTIONS));
 492              		.loc 1 79 0
 493              		.cfi_startproc
 494              		@ args = 0, pretend = 0, frame = 0
 495              		@ frame_needed = 0, uses_anonymous_args = 0
 496              		@ link register save eliminated.
 497              	.LVL50:
 498 0000 F0B4     		push	{r4, r5, r6, r7}
 499              		.cfi_def_cfa_offset 16
 500              		.cfi_offset 4, -16
ARM GAS  C:\Users\honet\AppData\Local\Temp\ccfKFSWb.s 			page 16


 501              		.cfi_offset 5, -12
 502              		.cfi_offset 6, -8
 503              		.cfi_offset 7, -4
  79:.\diskio.c    ****     memcpy(&SpiFuncs, pFuncs, sizeof(SPI_FUNCTIONS));
 504              		.loc 1 79 0
 505 0002 0446     		mov	r4, r0
  80:.\diskio.c    **** }
 506              		.loc 1 80 0
 507 0004 084E     		ldr	r6, .L54
 508 0006 00F12007 		add	r7, r0, #32
 509              	.LVL51:
 510              	.L51:
 511 000a 3546     		mov	r5, r6
 512 000c 2068     		ldr	r0, [r4]	@ unaligned
 513 000e 6168     		ldr	r1, [r4, #4]	@ unaligned
 514 0010 A268     		ldr	r2, [r4, #8]	@ unaligned
 515 0012 E368     		ldr	r3, [r4, #12]	@ unaligned
 516 0014 1034     		adds	r4, r4, #16
 517 0016 BC42     		cmp	r4, r7
 518 0018 06F11006 		add	r6, r6, #16
 519 001c 0FC5     		stmia	r5!, {r0, r1, r2, r3}
 520 001e F4D1     		bne	.L51
 521 0020 2068     		ldr	r0, [r4]	@ unaligned
 522 0022 3060     		str	r0, [r6]	@ unaligned
  81:.\diskio.c    **** 
 523              		.loc 1 81 0
 524 0024 F0BC     		pop	{r4, r5, r6, r7}
 525              		.cfi_restore 7
 526              		.cfi_restore 6
 527              		.cfi_restore 5
 528              		.cfi_restore 4
 529              		.cfi_def_cfa_offset 0
 530              	.LVL52:
 531 0026 7047     		bx	lr
 532              	.L55:
 533              		.align	2
 534              	.L54:
 535 0028 00000000 		.word	SpiFuncs
 536              		.cfi_endproc
 537              	.LFE1:
 538              		.size	disk_attach_spifuncs, .-disk_attach_spifuncs
 539              		.section	.text.FCLK_SLOW,"ax",%progbits
 540              		.align	2
 541              		.global	FCLK_SLOW
 542              		.thumb
 543              		.thumb_func
 544              		.type	FCLK_SLOW, %function
 545              	FCLK_SLOW:
 546              	.LFB2:
  84:.\diskio.c    ****     SpiFuncs.SPSLOWCK();
 547              		.loc 1 84 0
 548              		.cfi_startproc
 549              		@ args = 0, pretend = 0, frame = 0
 550              		@ frame_needed = 0, uses_anonymous_args = 0
 551              		@ link register save eliminated.
  85:.\diskio.c    **** }
 552              		.loc 1 85 0
ARM GAS  C:\Users\honet\AppData\Local\Temp\ccfKFSWb.s 			page 17


 553 0000 014B     		ldr	r3, .L57
 554 0002 9B68     		ldr	r3, [r3, #8]
 555 0004 1847     		bx	r3	@ indirect register sibling call
 556              	.LVL53:
 557              	.L58:
 558 0006 00BF     		.align	2
 559              	.L57:
 560 0008 00000000 		.word	SpiFuncs
 561              		.cfi_endproc
 562              	.LFE2:
 563              		.size	FCLK_SLOW, .-FCLK_SLOW
 564              		.section	.text.FCLK_FAST,"ax",%progbits
 565              		.align	2
 566              		.global	FCLK_FAST
 567              		.thumb
 568              		.thumb_func
 569              		.type	FCLK_FAST, %function
 570              	FCLK_FAST:
 571              	.LFB3:
  89:.\diskio.c    ****     SpiFuncs.SPFASTCK();
 572              		.loc 1 89 0
 573              		.cfi_startproc
 574              		@ args = 0, pretend = 0, frame = 0
 575              		@ frame_needed = 0, uses_anonymous_args = 0
 576              		@ link register save eliminated.
  90:.\diskio.c    **** }
 577              		.loc 1 90 0
 578 0000 014B     		ldr	r3, .L60
 579 0002 DB68     		ldr	r3, [r3, #12]
 580 0004 1847     		bx	r3	@ indirect register sibling call
 581              	.LVL54:
 582              	.L61:
 583 0006 00BF     		.align	2
 584              	.L60:
 585 0008 00000000 		.word	SpiFuncs
 586              		.cfi_endproc
 587              	.LFE3:
 588              		.size	FCLK_FAST, .-FCLK_FAST
 589              		.section	.text.disk_initialize,"ax",%progbits
 590              		.align	2
 591              		.global	disk_initialize
 592              		.thumb
 593              		.thumb_func
 594              		.type	disk_initialize, %function
 595              	disk_initialize:
 596              	.LFB14:
 308:.\diskio.c    **** 
 309:.\diskio.c    **** 
 310:.\diskio.c    **** 
 311:.\diskio.c    **** /*--------------------------------------------------------------------------
 312:.\diskio.c    **** 
 313:.\diskio.c    ****    Public Functions
 314:.\diskio.c    **** 
 315:.\diskio.c    **** ---------------------------------------------------------------------------*/
 316:.\diskio.c    **** 
 317:.\diskio.c    **** 
 318:.\diskio.c    **** /*-----------------------------------------------------------------------*/
ARM GAS  C:\Users\honet\AppData\Local\Temp\ccfKFSWb.s 			page 18


 319:.\diskio.c    **** /* Initialize disk drive                                                 */
 320:.\diskio.c    **** /*-----------------------------------------------------------------------*/
 321:.\diskio.c    **** 
 322:.\diskio.c    **** DSTATUS disk_initialize (
 323:.\diskio.c    **** 	BYTE drv		/* Physical drive number (0) */
 324:.\diskio.c    **** )
 325:.\diskio.c    **** {
 597              		.loc 1 325 0
 598              		.cfi_startproc
 599              		@ args = 0, pretend = 0, frame = 8
 600              		@ frame_needed = 0, uses_anonymous_args = 0
 601              	.LVL55:
 326:.\diskio.c    **** 	BYTE n, cmd, ty, ocr[4];
 327:.\diskio.c    **** 
 328:.\diskio.c    **** 
 329:.\diskio.c    **** 	if (drv) return STA_NOINIT;			/* Supports only drive 0 */
 602              		.loc 1 329 0
 603 0000 08B1     		cbz	r0, .L99
 604 0002 0120     		movs	r0, #1
 605              	.LVL56:
 330:.\diskio.c    **** 	init_spi();							/* Initialize SPI */
 331:.\diskio.c    **** 
 332:.\diskio.c    **** 	if (Stat & STA_NODISK) return Stat;	/* Is card existing in the soket? */
 333:.\diskio.c    **** 
 334:.\diskio.c    **** 	FCLK_SLOW();
 335:.\diskio.c    **** 	for (n = 10; n; n--) xchg_spi(0xFF);	/* Send 80 dummy clocks */
 336:.\diskio.c    **** 
 337:.\diskio.c    **** 	ty = 0;
 338:.\diskio.c    **** 	if (send_cmd(CMD0, 0) == 1) {			/* Put the card SPI/Idle state */
 339:.\diskio.c    **** 		Timer1 = 1000;						/* Initialization timeout = 1 sec */
 340:.\diskio.c    **** 		if (send_cmd(CMD8, 0x1AA) == 1) {	/* SDv2? */
 341:.\diskio.c    **** 			for (n = 0; n < 4; n++) ocr[n] = xchg_spi(0xFF);	/* Get 32 bit return value of R7 resp */
 342:.\diskio.c    **** 			if (ocr[2] == 0x01 && ocr[3] == 0xAA) {				/* Is the card supports vcc of 2.7-3.6V? */
 343:.\diskio.c    **** 				while (Timer1 && send_cmd(ACMD41, 1UL << 30)) ;	/* Wait for end of initialization with ACMD41(H
 344:.\diskio.c    **** 				if (Timer1 && send_cmd(CMD58, 0) == 0) {		/* Check CCS bit in the OCR */
 345:.\diskio.c    **** 					for (n = 0; n < 4; n++) ocr[n] = xchg_spi(0xFF);
 346:.\diskio.c    **** 					ty = (ocr[0] & 0x40) ? CT_SD2 | CT_BLOCK : CT_SD2;	/* Card id SDv2 */
 347:.\diskio.c    **** 				}
 348:.\diskio.c    **** 			}
 349:.\diskio.c    **** 		} else {	/* Not SDv2 card */
 350:.\diskio.c    **** 			if (send_cmd(ACMD41, 0) <= 1) 	{	/* SDv1 or MMC? */
 351:.\diskio.c    **** 				ty = CT_SD1; cmd = ACMD41;	/* SDv1 (ACMD41(0)) */
 352:.\diskio.c    **** 			} else {
 353:.\diskio.c    **** 				ty = CT_MMC; cmd = CMD1;	/* MMCv3 (CMD1(0)) */
 354:.\diskio.c    **** 			}
 355:.\diskio.c    **** 			while (Timer1 && send_cmd(cmd, 0)) ;		/* Wait for end of initialization */
 356:.\diskio.c    **** 			if (!Timer1 || send_cmd(CMD16, 512) != 0)	/* Set block length: 512 */
 357:.\diskio.c    **** 				ty = 0;
 358:.\diskio.c    **** 		}
 359:.\diskio.c    **** 	}
 360:.\diskio.c    **** 	CardType = ty;	/* Card type */
 361:.\diskio.c    **** 	deselect();
 362:.\diskio.c    **** 
 363:.\diskio.c    **** 	if (ty) {			/* OK */
 364:.\diskio.c    **** 		FCLK_FAST();			/* Set fast clock */
 365:.\diskio.c    **** 		Stat &= ~STA_NOINIT;	/* Clear STA_NOINIT flag */
 366:.\diskio.c    **** 	} else {			/* Failed */
ARM GAS  C:\Users\honet\AppData\Local\Temp\ccfKFSWb.s 			page 19


 367:.\diskio.c    **** 		Stat = STA_NOINIT;
 368:.\diskio.c    **** 	}
 369:.\diskio.c    **** 
 370:.\diskio.c    **** 	return Stat;
 371:.\diskio.c    **** }
 606              		.loc 1 371 0
 607 0004 7047     		bx	lr
 608              	.LVL57:
 609              	.L99:
 325:.\diskio.c    **** 	BYTE n, cmd, ty, ocr[4];
 610              		.loc 1 325 0
 611 0006 2DE9F041 		push	{r4, r5, r6, r7, r8, lr}
 612              		.cfi_def_cfa_offset 24
 613              		.cfi_offset 4, -24
 614              		.cfi_offset 5, -20
 615              		.cfi_offset 6, -16
 616              		.cfi_offset 7, -12
 617              		.cfi_offset 8, -8
 618              		.cfi_offset 14, -4
 619              	.LBB266:
 620              	.LBB267:
 621              	.LBB268:
 622              	.LBB269:
  85:.\diskio.c    **** }
 623              		.loc 1 85 0
 624 000a 504E     		ldr	r6, .L102
 625              	.LBE269:
 626              	.LBE268:
 627              	.LBE267:
 628              	.LBE266:
 325:.\diskio.c    **** 	BYTE n, cmd, ty, ocr[4];
 629              		.loc 1 325 0
 630 000c 82B0     		sub	sp, sp, #8
 631              		.cfi_def_cfa_offset 32
 632              	.LBB273:
 633              	.LBB272:
 634              	.LBB271:
 635              	.LBB270:
  85:.\diskio.c    **** }
 636              		.loc 1 85 0
 637 000e B368     		ldr	r3, [r6, #8]
 638 0010 9847     		blx	r3
 639              	.LVL58:
 640              	.LBE270:
 641              	.LBE271:
 123:.\diskio.c    **** }
 642              		.loc 1 123 0
 643 0012 4F4D     		ldr	r5, .L102+4
 122:.\diskio.c    **** 	for (Timer1 = 10; Timer1; ) ;   //Wait 10 ms
 644              		.loc 1 122 0
 645 0014 7368     		ldr	r3, [r6, #4]
 646 0016 9847     		blx	r3
 647              	.LVL59:
 123:.\diskio.c    **** }
 648              		.loc 1 123 0
 649 0018 0A23     		movs	r3, #10
 650 001a AB60     		str	r3, [r5, #8]
ARM GAS  C:\Users\honet\AppData\Local\Temp\ccfKFSWb.s 			page 20


 651              	.L64:
 652 001c AB68     		ldr	r3, [r5, #8]
 653 001e 002B     		cmp	r3, #0
 654 0020 FCD1     		bne	.L64
 655              	.LBE272:
 656              	.LBE273:
 332:.\diskio.c    **** 
 657              		.loc 1 332 0
 658 0022 4C4F     		ldr	r7, .L102+8
 659 0024 3B78     		ldrb	r3, [r7]	@ zero_extendqisi2
 660 0026 9B07     		lsls	r3, r3, #30
 661 0028 04D5     		bpl	.L100
 662              	.L81:
 370:.\diskio.c    **** }
 663              		.loc 1 370 0
 664 002a 3878     		ldrb	r0, [r7]	@ zero_extendqisi2
 665 002c C0B2     		uxtb	r0, r0
 666              		.loc 1 371 0
 667 002e 02B0     		add	sp, sp, #8
 668              		.cfi_remember_state
 669              		.cfi_def_cfa_offset 24
 670              		@ sp needed
 671 0030 BDE8F081 		pop	{r4, r5, r6, r7, r8, pc}
 672              	.L100:
 673              		.cfi_restore_state
 674              	.LBB274:
 675              	.LBB275:
  85:.\diskio.c    **** }
 676              		.loc 1 85 0
 677 0034 B368     		ldr	r3, [r6, #8]
 678 0036 9847     		blx	r3
 679              	.LVL60:
 680 0038 0A24     		movs	r4, #10
 681              	.LVL61:
 682              	.L66:
 683              	.LBE275:
 684              	.LBE274:
 685              	.LBB276:
 686              	.LBB277:
 132:.\diskio.c    **** }
 687              		.loc 1 132 0
 688 003a 3369     		ldr	r3, [r6, #16]
 689 003c FF20     		movs	r0, #255
 690 003e 9847     		blx	r3
 691              	.LVL62:
 692 0040 611E     		subs	r1, r4, #1
 693              	.LBE277:
 694              	.LBE276:
 335:.\diskio.c    **** 
 695              		.loc 1 335 0
 696 0042 11F0FF04 		ands	r4, r1, #255
 697 0046 F8D1     		bne	.L66
 698              	.LVL63:
 338:.\diskio.c    **** 		Timer1 = 1000;						/* Initialization timeout = 1 sec */
 699              		.loc 1 338 0
 700 0048 2046     		mov	r0, r4
 701 004a 2146     		mov	r1, r4
ARM GAS  C:\Users\honet\AppData\Local\Temp\ccfKFSWb.s 			page 21


 702 004c FFF7FEFF 		bl	send_cmd
 703              	.LVL64:
 704 0050 0128     		cmp	r0, #1
 705 0052 8046     		mov	r8, r0
 706 0054 0DD0     		beq	.L101
 707              	.LVL65:
 708              	.L67:
 360:.\diskio.c    **** 	deselect();
 709              		.loc 1 360 0
 710 0056 0022     		movs	r2, #0
 711              	.LBB278:
 712              	.LBB279:
 190:.\diskio.c    **** 	xchg_spi(0xFF);	/* Dummy clock (force DO hi-z for multiple slave SPI) */
 713              		.loc 1 190 0
 714 0058 7368     		ldr	r3, [r6, #4]
 715              	.LBE279:
 716              	.LBE278:
 360:.\diskio.c    **** 	deselect();
 717              		.loc 1 360 0
 718 005a 2A71     		strb	r2, [r5, #4]
 719              	.LBB287:
 720              	.LBB284:
 190:.\diskio.c    **** 	xchg_spi(0xFF);	/* Dummy clock (force DO hi-z for multiple slave SPI) */
 721              		.loc 1 190 0
 722 005c 9847     		blx	r3
 723              	.LVL66:
 724              	.LBB280:
 725              	.LBB281:
 132:.\diskio.c    **** }
 726              		.loc 1 132 0
 727 005e 3369     		ldr	r3, [r6, #16]
 728 0060 FF20     		movs	r0, #255
 729 0062 9847     		blx	r3
 730              	.LVL67:
 731              	.LBE281:
 732              	.LBE280:
 733              	.LBE284:
 734              	.LBE287:
 367:.\diskio.c    **** 	}
 735              		.loc 1 367 0
 736 0064 0123     		movs	r3, #1
 737 0066 3B70     		strb	r3, [r7]
 370:.\diskio.c    **** }
 738              		.loc 1 370 0
 739 0068 3878     		ldrb	r0, [r7]	@ zero_extendqisi2
 740 006a C0B2     		uxtb	r0, r0
 741              		.loc 1 371 0
 742 006c 02B0     		add	sp, sp, #8
 743              		.cfi_remember_state
 744              		.cfi_def_cfa_offset 24
 745              		@ sp needed
 746 006e BDE8F081 		pop	{r4, r5, r6, r7, r8, pc}
 747              	.LVL68:
 748              	.L101:
 749              		.cfi_restore_state
 339:.\diskio.c    **** 		if (send_cmd(CMD8, 0x1AA) == 1) {	/* SDv2? */
 750              		.loc 1 339 0
ARM GAS  C:\Users\honet\AppData\Local\Temp\ccfKFSWb.s 			page 22


 751 0072 4FF47A73 		mov	r3, #1000
 340:.\diskio.c    **** 			for (n = 0; n < 4; n++) ocr[n] = xchg_spi(0xFF);	/* Get 32 bit return value of R7 resp */
 752              		.loc 1 340 0
 753 0076 0820     		movs	r0, #8
 754 0078 4FF4D571 		mov	r1, #426
 339:.\diskio.c    **** 		if (send_cmd(CMD8, 0x1AA) == 1) {	/* SDv2? */
 755              		.loc 1 339 0
 756 007c AB60     		str	r3, [r5, #8]
 340:.\diskio.c    **** 			for (n = 0; n < 4; n++) ocr[n] = xchg_spi(0xFF);	/* Get 32 bit return value of R7 resp */
 757              		.loc 1 340 0
 758 007e FFF7FEFF 		bl	send_cmd
 759              	.LVL69:
 760 0082 0128     		cmp	r0, #1
 761 0084 37D1     		bne	.L68
 762 0086 01AC     		add	r4, sp, #4
 763 0088 0DF10808 		add	r8, sp, #8
 764              	.L69:
 765              	.LVL70:
 766              	.LBB288:
 767              	.LBB289:
 132:.\diskio.c    **** }
 768              		.loc 1 132 0 discriminator 3
 769 008c 3369     		ldr	r3, [r6, #16]
 770 008e FF20     		movs	r0, #255
 771 0090 9847     		blx	r3
 772              	.LVL71:
 773              	.LBE289:
 774              	.LBE288:
 341:.\diskio.c    **** 			if (ocr[2] == 0x01 && ocr[3] == 0xAA) {				/* Is the card supports vcc of 2.7-3.6V? */
 775              		.loc 1 341 0 discriminator 3
 776 0092 04F8010B 		strb	r0, [r4], #1
 777              	.LVL72:
 778 0096 4445     		cmp	r4, r8
 779 0098 F8D1     		bne	.L69
 342:.\diskio.c    **** 				while (Timer1 && send_cmd(ACMD41, 1UL << 30)) ;	/* Wait for end of initialization with ACMD41(H
 780              		.loc 1 342 0
 781 009a 9DF80630 		ldrb	r3, [sp, #6]	@ zero_extendqisi2
 782 009e 012B     		cmp	r3, #1
 783 00a0 D9D1     		bne	.L67
 342:.\diskio.c    **** 				while (Timer1 && send_cmd(ACMD41, 1UL << 30)) ;	/* Wait for end of initialization with ACMD41(H
 784              		.loc 1 342 0 is_stmt 0 discriminator 1
 785 00a2 9DF80730 		ldrb	r3, [sp, #7]	@ zero_extendqisi2
 786 00a6 AA2B     		cmp	r3, #170
 787 00a8 D5D1     		bne	.L67
 788 00aa 02E0     		b	.L72
 789              	.L70:
 343:.\diskio.c    **** 				if (Timer1 && send_cmd(CMD58, 0) == 0) {		/* Check CCS bit in the OCR */
 790              		.loc 1 343 0 is_stmt 1 discriminator 1
 791 00ac FFF7FEFF 		bl	send_cmd
 792              	.LVL73:
 793 00b0 28B1     		cbz	r0, .L73
 794              	.L72:
 343:.\diskio.c    **** 				if (Timer1 && send_cmd(CMD58, 0) == 0) {		/* Check CCS bit in the OCR */
 795              		.loc 1 343 0 is_stmt 0 discriminator 2
 796 00b2 AB68     		ldr	r3, [r5, #8]
 797 00b4 A920     		movs	r0, #169
 798 00b6 4FF08041 		mov	r1, #1073741824
ARM GAS  C:\Users\honet\AppData\Local\Temp\ccfKFSWb.s 			page 23


 799 00ba 002B     		cmp	r3, #0
 800 00bc F6D1     		bne	.L70
 801              	.L73:
 344:.\diskio.c    **** 					for (n = 0; n < 4; n++) ocr[n] = xchg_spi(0xFF);
 802              		.loc 1 344 0 is_stmt 1
 803 00be AB68     		ldr	r3, [r5, #8]
 804 00c0 002B     		cmp	r3, #0
 805 00c2 C8D0     		beq	.L67
 344:.\diskio.c    **** 					for (n = 0; n < 4; n++) ocr[n] = xchg_spi(0xFF);
 806              		.loc 1 344 0 is_stmt 0 discriminator 1
 807 00c4 3A20     		movs	r0, #58
 808 00c6 0021     		movs	r1, #0
 809 00c8 FFF7FEFF 		bl	send_cmd
 810              	.LVL74:
 811 00cc 0028     		cmp	r0, #0
 812 00ce C2D1     		bne	.L67
 813 00d0 0446     		mov	r4, r0
 814              	.LVL75:
 815              	.L74:
 816              	.LBB290:
 817              	.LBB291:
 132:.\diskio.c    **** }
 818              		.loc 1 132 0 is_stmt 1 discriminator 3
 819 00d2 3369     		ldr	r3, [r6, #16]
 820 00d4 FF20     		movs	r0, #255
 821 00d6 9847     		blx	r3
 822              	.LVL76:
 823              	.LBE291:
 824              	.LBE290:
 345:.\diskio.c    **** 					ty = (ocr[0] & 0x40) ? CT_SD2 | CT_BLOCK : CT_SD2;	/* Card id SDv2 */
 825              		.loc 1 345 0 discriminator 3
 826 00d8 01AB     		add	r3, sp, #4
 827 00da 1855     		strb	r0, [r3, r4]
 828              	.LVL77:
 829 00dc 0134     		adds	r4, r4, #1
 830              	.LVL78:
 831 00de 042C     		cmp	r4, #4
 832 00e0 F7D1     		bne	.L74
 346:.\diskio.c    **** 				}
 833              		.loc 1 346 0
 834 00e2 9DF80430 		ldrb	r3, [sp, #4]	@ zero_extendqisi2
 835 00e6 13F0400F 		tst	r3, #64
 836 00ea 14BF     		ite	ne
 837 00ec 4FF00C08 		movne	r8, #12
 838 00f0 4FF00408 		moveq	r8, #4
 839 00f4 1CE0     		b	.L75
 840              	.LVL79:
 841              	.L68:
 350:.\diskio.c    **** 				ty = CT_SD1; cmd = ACMD41;	/* SDv1 (ACMD41(0)) */
 842              		.loc 1 350 0
 843 00f6 2146     		mov	r1, r4
 844 00f8 A920     		movs	r0, #169
 845 00fa FFF7FEFF 		bl	send_cmd
 846              	.LVL80:
 847 00fe 0128     		cmp	r0, #1
 353:.\diskio.c    **** 			}
 848              		.loc 1 353 0
ARM GAS  C:\Users\honet\AppData\Local\Temp\ccfKFSWb.s 			page 24


 849 0100 8EBF     		itee	hi
 850 0102 4446     		movhi	r4, r8
 351:.\diskio.c    **** 			} else {
 851              		.loc 1 351 0
 852 0104 4FF00208 		movls	r8, #2
 853 0108 A924     		movls	r4, #169
 854 010a 03E0     		b	.L79
 855              	.LVL81:
 856              	.L77:
 355:.\diskio.c    **** 			if (!Timer1 || send_cmd(CMD16, 512) != 0)	/* Set block length: 512 */
 857              		.loc 1 355 0 discriminator 1
 858 010c 2046     		mov	r0, r4
 859 010e FFF7FEFF 		bl	send_cmd
 860              	.LVL82:
 861 0112 18B1     		cbz	r0, .L80
 862              	.LVL83:
 863              	.L79:
 355:.\diskio.c    **** 			if (!Timer1 || send_cmd(CMD16, 512) != 0)	/* Set block length: 512 */
 864              		.loc 1 355 0 is_stmt 0 discriminator 2
 865 0114 AB68     		ldr	r3, [r5, #8]
 866 0116 0021     		movs	r1, #0
 867 0118 002B     		cmp	r3, #0
 868 011a F7D1     		bne	.L77
 869              	.L80:
 356:.\diskio.c    **** 				ty = 0;
 870              		.loc 1 356 0 is_stmt 1
 871 011c AB68     		ldr	r3, [r5, #8]
 872 011e 002B     		cmp	r3, #0
 873 0120 99D0     		beq	.L67
 356:.\diskio.c    **** 				ty = 0;
 874              		.loc 1 356 0 is_stmt 0 discriminator 1
 875 0122 1020     		movs	r0, #16
 876 0124 4FF40071 		mov	r1, #512
 877 0128 FFF7FEFF 		bl	send_cmd
 878              	.LVL84:
 879 012c 0028     		cmp	r0, #0
 880 012e 92D1     		bne	.L67
 881              	.LVL85:
 882              	.L75:
 883              	.LBB292:
 884              	.LBB285:
 190:.\diskio.c    **** 	xchg_spi(0xFF);	/* Dummy clock (force DO hi-z for multiple slave SPI) */
 885              		.loc 1 190 0 is_stmt 1
 886 0130 7368     		ldr	r3, [r6, #4]
 887              	.LBE285:
 888              	.LBE292:
 360:.\diskio.c    **** 	deselect();
 889              		.loc 1 360 0
 890 0132 85F80480 		strb	r8, [r5, #4]
 891              	.LBB293:
 892              	.LBB286:
 190:.\diskio.c    **** 	xchg_spi(0xFF);	/* Dummy clock (force DO hi-z for multiple slave SPI) */
 893              		.loc 1 190 0
 894 0136 9847     		blx	r3
 895              	.LVL86:
 896              	.LBB283:
 897              	.LBB282:
ARM GAS  C:\Users\honet\AppData\Local\Temp\ccfKFSWb.s 			page 25


 132:.\diskio.c    **** }
 898              		.loc 1 132 0
 899 0138 3369     		ldr	r3, [r6, #16]
 900 013a FF20     		movs	r0, #255
 901 013c 9847     		blx	r3
 902              	.LVL87:
 903              	.LBE282:
 904              	.LBE283:
 905              	.LBE286:
 906              	.LBE293:
 907              	.LBB294:
 908              	.LBB295:
  90:.\diskio.c    **** }
 909              		.loc 1 90 0
 910 013e F368     		ldr	r3, [r6, #12]
 911 0140 9847     		blx	r3
 912              	.LVL88:
 913              	.LBE295:
 914              	.LBE294:
 365:.\diskio.c    **** 	} else {			/* Failed */
 915              		.loc 1 365 0
 916 0142 3B78     		ldrb	r3, [r7]	@ zero_extendqisi2
 917 0144 03F0FE03 		and	r3, r3, #254
 918 0148 3B70     		strb	r3, [r7]
 919 014a 6EE7     		b	.L81
 920              	.L103:
 921              		.align	2
 922              	.L102:
 923 014c 00000000 		.word	SpiFuncs
 924 0150 00000000 		.word	.LANCHOR0
 925 0154 00000000 		.word	.LANCHOR1
 926              		.cfi_endproc
 927              	.LFE14:
 928              		.size	disk_initialize, .-disk_initialize
 929              		.section	.text.disk_status,"ax",%progbits
 930              		.align	2
 931              		.global	disk_status
 932              		.thumb
 933              		.thumb_func
 934              		.type	disk_status, %function
 935              	disk_status:
 936              	.LFB15:
 372:.\diskio.c    **** 
 373:.\diskio.c    **** 
 374:.\diskio.c    **** 
 375:.\diskio.c    **** /*-----------------------------------------------------------------------*/
 376:.\diskio.c    **** /* Get disk status                                                       */
 377:.\diskio.c    **** /*-----------------------------------------------------------------------*/
 378:.\diskio.c    **** 
 379:.\diskio.c    **** DSTATUS disk_status (
 380:.\diskio.c    **** 	BYTE drv		/* Physical drive number (0) */
 381:.\diskio.c    **** )
 382:.\diskio.c    **** {
 937              		.loc 1 382 0
 938              		.cfi_startproc
 939              		@ args = 0, pretend = 0, frame = 0
 940              		@ frame_needed = 0, uses_anonymous_args = 0
ARM GAS  C:\Users\honet\AppData\Local\Temp\ccfKFSWb.s 			page 26


 941              		@ link register save eliminated.
 942              	.LVL89:
 383:.\diskio.c    **** 	if (drv) return STA_NOINIT;		/* Supports only drive 0 */
 943              		.loc 1 383 0
 944 0000 18B9     		cbnz	r0, .L106
 384:.\diskio.c    **** 
 385:.\diskio.c    **** 	return Stat;	/* Return disk status */
 945              		.loc 1 385 0
 946 0002 034B     		ldr	r3, .L107
 947 0004 1878     		ldrb	r0, [r3]	@ zero_extendqisi2
 948              	.LVL90:
 949 0006 C0B2     		uxtb	r0, r0
 950 0008 7047     		bx	lr
 951              	.LVL91:
 952              	.L106:
 383:.\diskio.c    **** 	if (drv) return STA_NOINIT;		/* Supports only drive 0 */
 953              		.loc 1 383 0
 954 000a 0120     		movs	r0, #1
 955              	.LVL92:
 386:.\diskio.c    **** }
 956              		.loc 1 386 0
 957 000c 7047     		bx	lr
 958              	.L108:
 959 000e 00BF     		.align	2
 960              	.L107:
 961 0010 00000000 		.word	.LANCHOR1
 962              		.cfi_endproc
 963              	.LFE15:
 964              		.size	disk_status, .-disk_status
 965              		.section	.text.disk_read,"ax",%progbits
 966              		.align	2
 967              		.global	disk_read
 968              		.thumb
 969              		.thumb_func
 970              		.type	disk_read, %function
 971              	disk_read:
 972              	.LFB16:
 387:.\diskio.c    **** 
 388:.\diskio.c    **** 
 389:.\diskio.c    **** 
 390:.\diskio.c    **** /*-----------------------------------------------------------------------*/
 391:.\diskio.c    **** /* Read sector(s)                                                        */
 392:.\diskio.c    **** /*-----------------------------------------------------------------------*/
 393:.\diskio.c    **** 
 394:.\diskio.c    **** DRESULT disk_read (
 395:.\diskio.c    **** 	BYTE drv,		/* Physical drive number (0) */
 396:.\diskio.c    **** 	BYTE *buff,		/* Pointer to the data buffer to store read data */
 397:.\diskio.c    **** 	DWORD sector,	/* Start sector number (LBA) */
 398:.\diskio.c    **** 	UINT count		/* Number of sectors to read (1..128) */
 399:.\diskio.c    **** )
 400:.\diskio.c    **** {
 973              		.loc 1 400 0
 974              		.cfi_startproc
 975              		@ args = 0, pretend = 0, frame = 0
 976              		@ frame_needed = 0, uses_anonymous_args = 0
 977              	.LVL93:
 978 0000 2DE9F843 		push	{r3, r4, r5, r6, r7, r8, r9, lr}
ARM GAS  C:\Users\honet\AppData\Local\Temp\ccfKFSWb.s 			page 27


 979              		.cfi_def_cfa_offset 32
 980              		.cfi_offset 3, -32
 981              		.cfi_offset 4, -28
 982              		.cfi_offset 5, -24
 983              		.cfi_offset 6, -20
 984              		.cfi_offset 7, -16
 985              		.cfi_offset 8, -12
 986              		.cfi_offset 9, -8
 987              		.cfi_offset 14, -4
 401:.\diskio.c    **** 	if (drv || !count) return RES_PARERR;		/* Check parameter */
 988              		.loc 1 401 0
 989 0004 18B1     		cbz	r0, .L131
 990              	.L123:
 991 0006 0424     		movs	r4, #4
 992              	.LVL94:
 993              	.L110:
 402:.\diskio.c    **** 	if (Stat & STA_NOINIT) return RES_NOTRDY;	/* Check if drive is ready */
 403:.\diskio.c    **** 
 404:.\diskio.c    **** 	if (!(CardType & CT_BLOCK)) sector *= 512;	/* LBA ot BA conversion (byte addressing cards) */
 405:.\diskio.c    **** 
 406:.\diskio.c    **** 	if (count == 1) {	/* Single sector read */
 407:.\diskio.c    **** 		if ((send_cmd(CMD17, sector) == 0)	/* READ_SINGLE_BLOCK */
 408:.\diskio.c    **** 			&& rcvr_datablock(buff, 512))
 409:.\diskio.c    **** 			count = 0;
 410:.\diskio.c    **** 	}
 411:.\diskio.c    **** 	else {				/* Multiple sector read */
 412:.\diskio.c    **** 		if (send_cmd(CMD18, sector) == 0) {	/* READ_MULTIPLE_BLOCK */
 413:.\diskio.c    **** 			do {
 414:.\diskio.c    **** 				if (!rcvr_datablock(buff, 512)) break;
 415:.\diskio.c    **** 				buff += 512;
 416:.\diskio.c    **** 			} while (--count);
 417:.\diskio.c    **** 			send_cmd(CMD12, 0);				/* STOP_TRANSMISSION */
 418:.\diskio.c    **** 		}
 419:.\diskio.c    **** 	}
 420:.\diskio.c    **** 	deselect();
 421:.\diskio.c    **** 
 422:.\diskio.c    **** 	return count ? RES_ERROR : RES_OK;	/* Return result */
 423:.\diskio.c    **** }
 994              		.loc 1 423 0
 995 0008 2046     		mov	r0, r4
 996 000a BDE8F883 		pop	{r3, r4, r5, r6, r7, r8, r9, pc}
 997              	.LVL95:
 998              	.L131:
 999 000e 1C46     		mov	r4, r3
 401:.\diskio.c    **** 	if (drv || !count) return RES_PARERR;		/* Check parameter */
 1000              		.loc 1 401 0 discriminator 2
 1001 0010 002B     		cmp	r3, #0
 1002 0012 F8D0     		beq	.L123
 402:.\diskio.c    **** 	if (Stat & STA_NOINIT) return RES_NOTRDY;	/* Check if drive is ready */
 1003              		.loc 1 402 0
 1004 0014 344B     		ldr	r3, .L138
 1005              	.LVL96:
 1006 0016 1B78     		ldrb	r3, [r3]	@ zero_extendqisi2
 1007 0018 D807     		lsls	r0, r3, #31
 1008              	.LVL97:
 1009 001a 01D5     		bpl	.L132
 1010 001c 0324     		movs	r4, #3
ARM GAS  C:\Users\honet\AppData\Local\Temp\ccfKFSWb.s 			page 28


 1011              	.LVL98:
 1012 001e F3E7     		b	.L110
 1013              	.LVL99:
 1014              	.L132:
 404:.\diskio.c    **** 
 1015              		.loc 1 404 0
 1016 0020 324D     		ldr	r5, .L138+4
 1017 0022 0E46     		mov	r6, r1
 1018 0024 2B79     		ldrb	r3, [r5, #4]	@ zero_extendqisi2
 1019 0026 1B07     		lsls	r3, r3, #28
 1020 0028 58BF     		it	pl
 1021 002a 5202     		lslpl	r2, r2, #9
 1022              	.LVL100:
 406:.\diskio.c    **** 		if ((send_cmd(CMD17, sector) == 0)	/* READ_SINGLE_BLOCK */
 1023              		.loc 1 406 0
 1024 002c 012C     		cmp	r4, #1
 407:.\diskio.c    **** 			&& rcvr_datablock(buff, 512))
 1025              		.loc 1 407 0
 1026 002e 1146     		mov	r1, r2
 1027              	.LVL101:
 406:.\diskio.c    **** 		if ((send_cmd(CMD17, sector) == 0)	/* READ_SINGLE_BLOCK */
 1028              		.loc 1 406 0
 1029 0030 35D0     		beq	.L133
 412:.\diskio.c    **** 			do {
 1030              		.loc 1 412 0
 1031 0032 1220     		movs	r0, #18
 1032 0034 FFF7FEFF 		bl	send_cmd
 1033              	.LVL102:
 1034 0038 DFF8B490 		ldr	r9, .L138+8
 1035 003c 40B1     		cbz	r0, .L134
 1036              	.LVL103:
 1037              	.L125:
 1038 003e 0124     		movs	r4, #1
 1039              	.LVL104:
 1040              	.L114:
 1041              	.LBB328:
 1042              	.LBB329:
 190:.\diskio.c    **** 	xchg_spi(0xFF);	/* Dummy clock (force DO hi-z for multiple slave SPI) */
 1043              		.loc 1 190 0
 1044 0040 D9F80430 		ldr	r3, [r9, #4]
 1045 0044 9847     		blx	r3
 1046              	.LVL105:
 1047              	.LBB330:
 1048              	.LBB331:
 132:.\diskio.c    **** }
 1049              		.loc 1 132 0
 1050 0046 D9F81030 		ldr	r3, [r9, #16]
 1051 004a FF20     		movs	r0, #255
 1052 004c 9847     		blx	r3
 1053              	.LVL106:
 1054              	.LBE331:
 1055              	.LBE330:
 1056              	.LBE329:
 1057              	.LBE328:
 422:.\diskio.c    **** }
 1058              		.loc 1 422 0
 1059 004e DBE7     		b	.L110
ARM GAS  C:\Users\honet\AppData\Local\Temp\ccfKFSWb.s 			page 29


 1060              	.LVL107:
 1061              	.L134:
 1062              	.LBB332:
 1063              	.LBB333:
 1064              	.LBB334:
 1065              	.LBB335:
 132:.\diskio.c    **** }
 1066              		.loc 1 132 0
 1067 0050 C846     		mov	r8, r9
 1068              	.LBE335:
 1069              	.LBE334:
 224:.\diskio.c    **** 	do {							/* Wait for DataStart token in timeout of 200ms */
 1070              		.loc 1 224 0
 1071 0052 C827     		movs	r7, #200
 1072              	.LVL108:
 1073              	.L121:
 1074 0054 AF60     		str	r7, [r5, #8]
 1075 0056 01E0     		b	.L119
 1076              	.LVL109:
 1077              	.L135:
 228:.\diskio.c    **** 	if(token != 0xFE) return 0;		/* Function fails if invalid DataStart token or timeout */
 1078              		.loc 1 228 0
 1079 0058 AB68     		ldr	r3, [r5, #8]
 1080 005a 3BB1     		cbz	r3, .L126
 1081              	.LVL110:
 1082              	.L119:
 1083              	.LBB337:
 1084              	.LBB336:
 132:.\diskio.c    **** }
 1085              		.loc 1 132 0
 1086 005c D9F81030 		ldr	r3, [r9, #16]
 1087 0060 FF20     		movs	r0, #255
 1088 0062 9847     		blx	r3
 1089              	.LVL111:
 1090              	.LBE336:
 1091              	.LBE337:
 228:.\diskio.c    **** 	if(token != 0xFE) return 0;		/* Function fails if invalid DataStart token or timeout */
 1092              		.loc 1 228 0
 1093 0064 FF28     		cmp	r0, #255
 1094 0066 F7D0     		beq	.L135
 229:.\diskio.c    **** 
 1095              		.loc 1 229 0
 1096 0068 FE28     		cmp	r0, #254
 1097 006a 05D0     		beq	.L136
 1098              	.L126:
 1099 006c 0124     		movs	r4, #1
 1100              	.LVL112:
 1101              	.L120:
 1102              	.LBE333:
 1103              	.LBE332:
 417:.\diskio.c    **** 		}
 1104              		.loc 1 417 0
 1105 006e 0021     		movs	r1, #0
 1106 0070 0C20     		movs	r0, #12
 1107 0072 FFF7FEFF 		bl	send_cmd
 1108              	.LVL113:
 1109 0076 E3E7     		b	.L114
ARM GAS  C:\Users\honet\AppData\Local\Temp\ccfKFSWb.s 			page 30


 1110              	.LVL114:
 1111              	.L136:
 1112              	.LBB347:
 1113              	.LBB346:
 1114              	.LBB338:
 1115              	.LBB339:
 1116              	.LBB340:
 1117              	.LBB341:
 143:.\diskio.c    ****     return;
 1118              		.loc 1 143 0
 1119 0078 3046     		mov	r0, r6
 1120 007a 4FF40071 		mov	r1, #512
 1121 007e D8F81430 		ldr	r3, [r8, #20]
 1122 0082 9847     		blx	r3
 1123              	.LVL115:
 1124              	.LBE341:
 1125              	.LBE340:
 1126              	.LBB342:
 1127              	.LBB343:
 132:.\diskio.c    **** }
 1128              		.loc 1 132 0
 1129 0084 D8F81030 		ldr	r3, [r8, #16]
 1130 0088 FF20     		movs	r0, #255
 1131 008a 9847     		blx	r3
 1132              	.LVL116:
 1133              	.LBE343:
 1134              	.LBE342:
 1135              	.LBB344:
 1136              	.LBB345:
 1137 008c D8F81030 		ldr	r3, [r8, #16]
 1138 0090 FF20     		movs	r0, #255
 1139 0092 9847     		blx	r3
 1140              	.LVL117:
 1141              	.LBE345:
 1142              	.LBE344:
 1143              	.LBE339:
 1144              	.LBE338:
 1145              	.LBE346:
 1146              	.LBE347:
 416:.\diskio.c    **** 			send_cmd(CMD12, 0);				/* STOP_TRANSMISSION */
 1147              		.loc 1 416 0
 1148 0094 013C     		subs	r4, r4, #1
 1149              	.LVL118:
 415:.\diskio.c    **** 			} while (--count);
 1150              		.loc 1 415 0
 1151 0096 06F50076 		add	r6, r6, #512
 1152              	.LVL119:
 416:.\diskio.c    **** 			send_cmd(CMD12, 0);				/* STOP_TRANSMISSION */
 1153              		.loc 1 416 0
 1154 009a DBD1     		bne	.L121
 1155 009c E7E7     		b	.L120
 1156              	.LVL120:
 1157              	.L133:
 407:.\diskio.c    **** 			&& rcvr_datablock(buff, 512))
 1158              		.loc 1 407 0
 1159 009e 1120     		movs	r0, #17
 1160 00a0 FFF7FEFF 		bl	send_cmd
ARM GAS  C:\Users\honet\AppData\Local\Temp\ccfKFSWb.s 			page 31


 1161              	.LVL121:
 1162 00a4 10B1     		cbz	r0, .L113
 1163 00a6 DFF84890 		ldr	r9, .L138+8
 1164 00aa C8E7     		b	.L125
 1165              	.L113:
 1166              	.LVL122:
 1167              	.LBB348:
 1168              	.LBB349:
 224:.\diskio.c    **** 	do {							/* Wait for DataStart token in timeout of 200ms */
 1169              		.loc 1 224 0
 1170 00ac C823     		movs	r3, #200
 1171 00ae DFF84090 		ldr	r9, .L138+8
 1172 00b2 AB60     		str	r3, [r5, #8]
 1173 00b4 02E0     		b	.L116
 1174              	.LVL123:
 1175              	.L137:
 228:.\diskio.c    **** 	if(token != 0xFE) return 0;		/* Function fails if invalid DataStart token or timeout */
 1176              		.loc 1 228 0
 1177 00b6 AB68     		ldr	r3, [r5, #8]
 1178 00b8 002B     		cmp	r3, #0
 1179 00ba C0D0     		beq	.L125
 1180              	.LVL124:
 1181              	.L116:
 1182              	.LBB350:
 1183              	.LBB351:
 132:.\diskio.c    **** }
 1184              		.loc 1 132 0
 1185 00bc D9F81030 		ldr	r3, [r9, #16]
 1186 00c0 FF20     		movs	r0, #255
 1187 00c2 9847     		blx	r3
 1188              	.LVL125:
 1189              	.LBE351:
 1190              	.LBE350:
 228:.\diskio.c    **** 	if(token != 0xFE) return 0;		/* Function fails if invalid DataStart token or timeout */
 1191              		.loc 1 228 0
 1192 00c4 FF28     		cmp	r0, #255
 1193              	.LBB353:
 1194              	.LBB352:
 132:.\diskio.c    **** }
 1195              		.loc 1 132 0
 1196 00c6 0A4C     		ldr	r4, .L138+8
 1197              	.LBE352:
 1198              	.LBE353:
 228:.\diskio.c    **** 	if(token != 0xFE) return 0;		/* Function fails if invalid DataStart token or timeout */
 1199              		.loc 1 228 0
 1200 00c8 F5D0     		beq	.L137
 229:.\diskio.c    **** 
 1201              		.loc 1 229 0
 1202 00ca FE28     		cmp	r0, #254
 1203 00cc B7D1     		bne	.L125
 1204              	.LVL126:
 1205              	.LBB354:
 1206              	.LBB355:
 1207              	.LBB356:
 1208              	.LBB357:
 143:.\diskio.c    ****     return;
 1209              		.loc 1 143 0
ARM GAS  C:\Users\honet\AppData\Local\Temp\ccfKFSWb.s 			page 32


 1210 00ce 6369     		ldr	r3, [r4, #20]
 1211 00d0 4FF40071 		mov	r1, #512
 1212 00d4 3046     		mov	r0, r6
 1213 00d6 9847     		blx	r3
 1214              	.LVL127:
 1215              	.LBE357:
 1216              	.LBE356:
 1217              	.LBB358:
 1218              	.LBB359:
 132:.\diskio.c    **** }
 1219              		.loc 1 132 0
 1220 00d8 2369     		ldr	r3, [r4, #16]
 1221 00da FF20     		movs	r0, #255
 1222 00dc 9847     		blx	r3
 1223              	.LVL128:
 1224              	.LBE359:
 1225              	.LBE358:
 1226              	.LBB360:
 1227              	.LBB361:
 1228 00de 2369     		ldr	r3, [r4, #16]
 1229 00e0 FF20     		movs	r0, #255
 1230 00e2 9847     		blx	r3
 1231              	.LVL129:
 1232 00e4 0024     		movs	r4, #0
 1233 00e6 ABE7     		b	.L114
 1234              	.L139:
 1235              		.align	2
 1236              	.L138:
 1237 00e8 00000000 		.word	.LANCHOR1
 1238 00ec 00000000 		.word	.LANCHOR0
 1239 00f0 00000000 		.word	SpiFuncs
 1240              	.LBE361:
 1241              	.LBE360:
 1242              	.LBE355:
 1243              	.LBE354:
 1244              	.LBE349:
 1245              	.LBE348:
 1246              		.cfi_endproc
 1247              	.LFE16:
 1248              		.size	disk_read, .-disk_read
 1249              		.section	.text.disk_write,"ax",%progbits
 1250              		.align	2
 1251              		.global	disk_write
 1252              		.thumb
 1253              		.thumb_func
 1254              		.type	disk_write, %function
 1255              	disk_write:
 1256              	.LFB17:
 424:.\diskio.c    **** 
 425:.\diskio.c    **** 
 426:.\diskio.c    **** 
 427:.\diskio.c    **** /*-----------------------------------------------------------------------*/
 428:.\diskio.c    **** /* Write sector(s)                                                       */
 429:.\diskio.c    **** /*-----------------------------------------------------------------------*/
 430:.\diskio.c    **** 
 431:.\diskio.c    **** 
 432:.\diskio.c    **** DRESULT disk_write (
ARM GAS  C:\Users\honet\AppData\Local\Temp\ccfKFSWb.s 			page 33


 433:.\diskio.c    **** 	BYTE drv,			/* Physical drive number (0) */
 434:.\diskio.c    **** 	const BYTE *buff,	/* Ponter to the data to write */
 435:.\diskio.c    **** 	DWORD sector,		/* Start sector number (LBA) */
 436:.\diskio.c    **** 	UINT count			/* Number of sectors to write (1..128) */
 437:.\diskio.c    **** )
 438:.\diskio.c    **** {
 1257              		.loc 1 438 0
 1258              		.cfi_startproc
 1259              		@ args = 0, pretend = 0, frame = 8
 1260              		@ frame_needed = 0, uses_anonymous_args = 0
 1261              	.LVL130:
 1262 0000 70B5     		push	{r4, r5, r6, lr}
 1263              		.cfi_def_cfa_offset 16
 1264              		.cfi_offset 4, -16
 1265              		.cfi_offset 5, -12
 1266              		.cfi_offset 6, -8
 1267              		.cfi_offset 14, -4
 1268 0002 82B0     		sub	sp, sp, #8
 1269              		.cfi_def_cfa_offset 24
 439:.\diskio.c    **** 	if (drv || !count) return RES_PARERR;		/* Check parameter */
 1270              		.loc 1 439 0
 1271 0004 18B1     		cbz	r0, .L168
 1272              	.L153:
 1273 0006 0424     		movs	r4, #4
 1274              	.LVL131:
 1275              	.L165:
 440:.\diskio.c    **** 	if (Stat & STA_NOINIT) return RES_NOTRDY;	/* Check drive status */
 441:.\diskio.c    **** 	if (Stat & STA_PROTECT) return RES_WRPRT;	/* Check write protect */
 442:.\diskio.c    **** 
 443:.\diskio.c    **** 	if (!(CardType & CT_BLOCK)) sector *= 512;	/* LBA ==> BA conversion (byte addressing cards) */
 444:.\diskio.c    **** 
 445:.\diskio.c    **** 	if (count == 1) {	/* Single sector write */
 446:.\diskio.c    **** 		if ((send_cmd(CMD24, sector) == 0)	/* WRITE_BLOCK */
 447:.\diskio.c    **** 			&& xmit_datablock(buff, 0xFE))
 448:.\diskio.c    **** 			count = 0;
 449:.\diskio.c    **** 	}
 450:.\diskio.c    **** 	else {				/* Multiple sector write */
 451:.\diskio.c    **** 		if (CardType & CT_SDC) send_cmd(ACMD23, count);	/* Predefine number of sectors */
 452:.\diskio.c    **** 		if (send_cmd(CMD25, sector) == 0) {	/* WRITE_MULTIPLE_BLOCK */
 453:.\diskio.c    **** 			do {
 454:.\diskio.c    **** 				if (!xmit_datablock(buff, 0xFC)) break;
 455:.\diskio.c    **** 				buff += 512;
 456:.\diskio.c    **** 			} while (--count);
 457:.\diskio.c    **** 			if (!xmit_datablock(0, 0xFD))	/* STOP_TRAN token */
 458:.\diskio.c    **** 				count = 1;
 459:.\diskio.c    **** 		}
 460:.\diskio.c    **** 	}
 461:.\diskio.c    **** 	deselect();
 462:.\diskio.c    **** 
 463:.\diskio.c    **** 	return count ? RES_ERROR : RES_OK;	/* Return result */
 464:.\diskio.c    **** }
 1276              		.loc 1 464 0
 1277 0008 2046     		mov	r0, r4
 1278 000a 02B0     		add	sp, sp, #8
 1279              		.cfi_remember_state
 1280              		.cfi_def_cfa_offset 16
 1281              		@ sp needed
ARM GAS  C:\Users\honet\AppData\Local\Temp\ccfKFSWb.s 			page 34


 1282 000c 70BD     		pop	{r4, r5, r6, pc}
 1283              	.LVL132:
 1284              	.L168:
 1285              		.cfi_restore_state
 439:.\diskio.c    **** 	if (drv || !count) return RES_PARERR;		/* Check parameter */
 1286              		.loc 1 439 0 discriminator 2
 1287 000e 002B     		cmp	r3, #0
 1288 0010 F9D0     		beq	.L153
 1289 0012 0C46     		mov	r4, r1
 440:.\diskio.c    **** 	if (Stat & STA_NOINIT) return RES_NOTRDY;	/* Check drive status */
 1290              		.loc 1 440 0
 1291 0014 2F49     		ldr	r1, .L175
 1292              	.LVL133:
 1293 0016 0878     		ldrb	r0, [r1]	@ zero_extendqisi2
 1294              	.LVL134:
 1295 0018 C607     		lsls	r6, r0, #31
 1296 001a 01D5     		bpl	.L169
 1297 001c 0324     		movs	r4, #3
 1298              	.LVL135:
 1299 001e F3E7     		b	.L165
 1300              	.LVL136:
 1301              	.L169:
 441:.\diskio.c    **** 
 1302              		.loc 1 441 0
 1303 0020 0978     		ldrb	r1, [r1]	@ zero_extendqisi2
 1304 0022 4D07     		lsls	r5, r1, #29
 1305 0024 01D5     		bpl	.L170
 1306 0026 0224     		movs	r4, #2
 1307              	.LVL137:
 1308 0028 EEE7     		b	.L165
 1309              	.LVL138:
 1310              	.L170:
 443:.\diskio.c    **** 
 1311              		.loc 1 443 0
 1312 002a 2B4E     		ldr	r6, .L175+4
 1313 002c 3179     		ldrb	r1, [r6, #4]	@ zero_extendqisi2
 1314 002e 0807     		lsls	r0, r1, #28
 1315 0030 58BF     		it	pl
 1316 0032 5202     		lslpl	r2, r2, #9
 1317              	.LVL139:
 445:.\diskio.c    **** 		if ((send_cmd(CMD24, sector) == 0)	/* WRITE_BLOCK */
 1318              		.loc 1 445 0
 1319 0034 012B     		cmp	r3, #1
 1320 0036 3DD0     		beq	.L171
 451:.\diskio.c    **** 		if (send_cmd(CMD25, sector) == 0) {	/* WRITE_MULTIPLE_BLOCK */
 1321              		.loc 1 451 0
 1322 0038 11F0060F 		tst	r1, #6
 1323 003c 31D1     		bne	.L172
 1324              	.LVL140:
 1325              	.L146:
 452:.\diskio.c    **** 			do {
 1326              		.loc 1 452 0
 1327 003e 1146     		mov	r1, r2
 1328 0040 1920     		movs	r0, #25
 1329 0042 0093     		str	r3, [sp]
 1330 0044 FFF7FEFF 		bl	send_cmd
 1331              	.LVL141:
ARM GAS  C:\Users\honet\AppData\Local\Temp\ccfKFSWb.s 			page 35


 1332 0048 009B     		ldr	r3, [sp]
 1333 004a 48B1     		cbz	r0, .L148
 1334              	.L156:
 1335 004c 234D     		ldr	r5, .L175+8
 1336              	.LVL142:
 1337              	.L167:
 1338 004e 0124     		movs	r4, #1
 1339              	.L145:
 1340              	.LBB390:
 1341              	.LBB391:
 190:.\diskio.c    **** 	xchg_spi(0xFF);	/* Dummy clock (force DO hi-z for multiple slave SPI) */
 1342              		.loc 1 190 0
 1343 0050 6B68     		ldr	r3, [r5, #4]
 1344 0052 9847     		blx	r3
 1345              	.LVL143:
 1346              	.LBB392:
 1347              	.LBB393:
 132:.\diskio.c    **** }
 1348              		.loc 1 132 0
 1349 0054 2B69     		ldr	r3, [r5, #16]
 1350 0056 FF20     		movs	r0, #255
 1351 0058 9847     		blx	r3
 1352              	.LVL144:
 1353              	.LBE393:
 1354              	.LBE392:
 1355              	.LBE391:
 1356              	.LBE390:
 463:.\diskio.c    **** }
 1357              		.loc 1 463 0
 1358 005a D5E7     		b	.L165
 1359              	.LVL145:
 1360              	.L173:
 456:.\diskio.c    **** 			if (!xmit_datablock(0, 0xFD))	/* STOP_TRAN token */
 1361              		.loc 1 456 0
 1362 005c 013B     		subs	r3, r3, #1
 1363              	.LVL146:
 1364 005e 09D0     		beq	.L147
 1365              	.LVL147:
 1366              	.L148:
 454:.\diskio.c    **** 				buff += 512;
 1367              		.loc 1 454 0
 1368 0060 2046     		mov	r0, r4
 1369 0062 FC21     		movs	r1, #252
 1370 0064 0093     		str	r3, [sp]
 1371              	.LVL148:
 1372 0066 FFF7FEFF 		bl	xmit_datablock
 1373              	.LVL149:
 455:.\diskio.c    **** 			} while (--count);
 1374              		.loc 1 455 0
 1375 006a 04F50074 		add	r4, r4, #512
 1376              	.LVL150:
 454:.\diskio.c    **** 				buff += 512;
 1377              		.loc 1 454 0
 1378 006e 009B     		ldr	r3, [sp]
 1379 0070 0028     		cmp	r0, #0
 1380 0072 F3D1     		bne	.L173
 1381              	.L147:
ARM GAS  C:\Users\honet\AppData\Local\Temp\ccfKFSWb.s 			page 36


 1382              	.LVL151:
 1383              	.LBB394:
 1384              	.LBB395:
 1385              	.LBB396:
 1386              	.LBB397:
 172:.\diskio.c    **** 	do {
 1387              		.loc 1 172 0
 1388 0074 4FF4FA72 		mov	r2, #500
 1389 0078 184D     		ldr	r5, .L175+8
 1390 007a 3260     		str	r2, [r6]
 1391 007c 02E0     		b	.L150
 1392              	.LVL152:
 1393              	.L174:
 176:.\diskio.c    **** 
 1394              		.loc 1 176 0
 1395 007e 3268     		ldr	r2, [r6]
 1396 0080 002A     		cmp	r2, #0
 1397 0082 E4D0     		beq	.L167
 1398              	.LVL153:
 1399              	.L150:
 1400              	.LBB398:
 1401              	.LBB399:
 132:.\diskio.c    **** }
 1402              		.loc 1 132 0
 1403 0084 2A69     		ldr	r2, [r5, #16]
 1404 0086 FF20     		movs	r0, #255
 1405 0088 0093     		str	r3, [sp]
 1406 008a 9047     		blx	r2
 1407              	.LVL154:
 1408              	.LBE399:
 1409              	.LBE398:
 176:.\diskio.c    **** 
 1410              		.loc 1 176 0
 1411 008c FF28     		cmp	r0, #255
 1412              	.LBB401:
 1413              	.LBB400:
 132:.\diskio.c    **** }
 1414              		.loc 1 132 0
 1415 008e 134C     		ldr	r4, .L175+8
 1416              	.LBE400:
 1417              	.LBE401:
 176:.\diskio.c    **** 
 1418              		.loc 1 176 0
 1419 0090 009B     		ldr	r3, [sp]
 1420 0092 F4D1     		bne	.L174
 1421              	.LVL155:
 1422              	.LBE397:
 1423              	.LBE396:
 1424              	.LBB402:
 1425              	.LBB403:
 132:.\diskio.c    **** }
 1426              		.loc 1 132 0
 1427 0094 2269     		ldr	r2, [r4, #16]
 1428 0096 FD20     		movs	r0, #253
 1429 0098 1C1C     		adds	r4, r3, #0
 1430 009a 18BF     		it	ne
 1431 009c 0124     		movne	r4, #1
ARM GAS  C:\Users\honet\AppData\Local\Temp\ccfKFSWb.s 			page 37


 1432 009e 9047     		blx	r2
 1433              	.LVL156:
 1434 00a0 D6E7     		b	.L145
 1435              	.LVL157:
 1436              	.L172:
 1437              	.LBE403:
 1438              	.LBE402:
 1439              	.LBE395:
 1440              	.LBE394:
 451:.\diskio.c    **** 		if (send_cmd(CMD25, sector) == 0) {	/* WRITE_MULTIPLE_BLOCK */
 1441              		.loc 1 451 0 discriminator 1
 1442 00a2 1946     		mov	r1, r3
 1443 00a4 9720     		movs	r0, #151
 1444 00a6 0192     		str	r2, [sp, #4]
 1445 00a8 0093     		str	r3, [sp]
 1446 00aa FFF7FEFF 		bl	send_cmd
 1447              	.LVL158:
 1448 00ae 019A     		ldr	r2, [sp, #4]
 1449 00b0 009B     		ldr	r3, [sp]
 1450 00b2 C4E7     		b	.L146
 1451              	.LVL159:
 1452              	.L171:
 446:.\diskio.c    **** 			&& xmit_datablock(buff, 0xFE))
 1453              		.loc 1 446 0
 1454 00b4 1146     		mov	r1, r2
 1455 00b6 1820     		movs	r0, #24
 1456 00b8 FFF7FEFF 		bl	send_cmd
 1457              	.LVL160:
 1458 00bc 0028     		cmp	r0, #0
 1459 00be C5D1     		bne	.L156
 447:.\diskio.c    **** 			count = 0;
 1460              		.loc 1 447 0
 1461 00c0 2046     		mov	r0, r4
 1462 00c2 FE21     		movs	r1, #254
 1463 00c4 FFF7FEFF 		bl	xmit_datablock
 1464              	.LVL161:
 1465 00c8 B0FA80F4 		clz	r4, r0
 1466              	.LVL162:
 1467 00cc 034D     		ldr	r5, .L175+8
 1468 00ce 6409     		lsrs	r4, r4, #5
 1469 00d0 BEE7     		b	.L145
 1470              	.L176:
 1471 00d2 00BF     		.align	2
 1472              	.L175:
 1473 00d4 00000000 		.word	.LANCHOR1
 1474 00d8 00000000 		.word	.LANCHOR0
 1475 00dc 00000000 		.word	SpiFuncs
 1476              		.cfi_endproc
 1477              	.LFE17:
 1478              		.size	disk_write, .-disk_write
 1479              		.section	.text.disk_ioctl,"ax",%progbits
 1480              		.align	2
 1481              		.global	disk_ioctl
 1482              		.thumb
 1483              		.thumb_func
 1484              		.type	disk_ioctl, %function
 1485              	disk_ioctl:
ARM GAS  C:\Users\honet\AppData\Local\Temp\ccfKFSWb.s 			page 38


 1486              	.LFB18:
 465:.\diskio.c    **** 
 466:.\diskio.c    **** 
 467:.\diskio.c    **** /*-----------------------------------------------------------------------*/
 468:.\diskio.c    **** /* Miscellaneous drive controls other than data read/write               */
 469:.\diskio.c    **** /*-----------------------------------------------------------------------*/
 470:.\diskio.c    **** 
 471:.\diskio.c    **** 
 472:.\diskio.c    **** DRESULT disk_ioctl (
 473:.\diskio.c    **** 	BYTE drv,		/* Physical drive number (0) */
 474:.\diskio.c    **** 	BYTE cmd,		/* Control command code */
 475:.\diskio.c    **** 	void *buff		/* Pointer to the conrtol data */
 476:.\diskio.c    **** )
 477:.\diskio.c    **** {
 1487              		.loc 1 477 0
 1488              		.cfi_startproc
 1489              		@ args = 0, pretend = 0, frame = 16
 1490              		@ frame_needed = 0, uses_anonymous_args = 0
 1491              	.LVL163:
 478:.\diskio.c    **** 	DRESULT res;
 479:.\diskio.c    **** 	BYTE n, csd[16];
 480:.\diskio.c    **** 	DWORD *dp, st, ed, csize;
 481:.\diskio.c    **** 
 482:.\diskio.c    **** 
 483:.\diskio.c    **** 	if (drv) return RES_PARERR;					/* Check parameter */
 1492              		.loc 1 483 0
 1493 0000 08B1     		cbz	r0, .L237
 1494 0002 0420     		movs	r0, #4
 1495              	.LVL164:
 484:.\diskio.c    **** 	if (Stat & STA_NOINIT) return RES_NOTRDY;	/* Check if drive is ready */
 485:.\diskio.c    **** 
 486:.\diskio.c    **** 	res = RES_ERROR;
 487:.\diskio.c    **** 
 488:.\diskio.c    **** 	switch (cmd) {
 489:.\diskio.c    **** 	case CTRL_SYNC :		/* Wait for end of internal write process of the drive */
 490:.\diskio.c    **** 		if (select()) res = RES_OK;
 491:.\diskio.c    **** 		break;
 492:.\diskio.c    **** 
 493:.\diskio.c    **** 	case GET_SECTOR_COUNT :	/* Get drive capacity in unit of sector (DWORD) */
 494:.\diskio.c    **** 		if ((send_cmd(CMD9, 0) == 0) && rcvr_datablock(csd, 16)) {
 495:.\diskio.c    **** 			if ((csd[0] >> 6) == 1) {	/* SDC ver 2.00 */
 496:.\diskio.c    **** 				csize = csd[9] + ((WORD)csd[8] << 8) + ((DWORD)(csd[7] & 63) << 16) + 1;
 497:.\diskio.c    **** 				*(DWORD*)buff = csize << 10;
 498:.\diskio.c    **** 			} else {					/* SDC ver 1.XX or MMC ver 3 */
 499:.\diskio.c    **** 				n = (csd[5] & 15) + ((csd[10] & 128) >> 7) + ((csd[9] & 3) << 1) + 2;
 500:.\diskio.c    **** 				csize = (csd[8] >> 6) + ((WORD)csd[7] << 2) + ((WORD)(csd[6] & 3) << 10) + 1;
 501:.\diskio.c    **** 				*(DWORD*)buff = csize << (n - 9);
 502:.\diskio.c    **** 			}
 503:.\diskio.c    **** 			res = RES_OK;
 504:.\diskio.c    **** 		}
 505:.\diskio.c    **** 		break;
 506:.\diskio.c    **** 
 507:.\diskio.c    **** 	case GET_BLOCK_SIZE :	/* Get erase block size in unit of sector (DWORD) */
 508:.\diskio.c    **** 		if (CardType & CT_SD2) {	/* SDC ver 2.00 */
 509:.\diskio.c    **** 			if (send_cmd(ACMD13, 0) == 0) {	/* Read SD status */
 510:.\diskio.c    **** 				xchg_spi(0xFF);
 511:.\diskio.c    **** 				if (rcvr_datablock(csd, 16)) {				/* Read partial block */
ARM GAS  C:\Users\honet\AppData\Local\Temp\ccfKFSWb.s 			page 39


 512:.\diskio.c    **** 					for (n = 64 - 16; n; n--) xchg_spi(0xFF);	/* Purge trailing data */
 513:.\diskio.c    **** 					*(DWORD*)buff = 16UL << (csd[10] >> 4);
 514:.\diskio.c    **** 					res = RES_OK;
 515:.\diskio.c    **** 				}
 516:.\diskio.c    **** 			}
 517:.\diskio.c    **** 		} else {					/* SDC ver 1.XX or MMC */
 518:.\diskio.c    **** 			if ((send_cmd(CMD9, 0) == 0) && rcvr_datablock(csd, 16)) {	/* Read CSD */
 519:.\diskio.c    **** 				if (CardType & CT_SD1) {	/* SDC ver 1.XX */
 520:.\diskio.c    **** 					*(DWORD*)buff = (((csd[10] & 63) << 1) + ((WORD)(csd[11] & 128) >> 7) + 1) << ((csd[13] >> 6) 
 521:.\diskio.c    **** 				} else {					/* MMC */
 522:.\diskio.c    **** 					*(DWORD*)buff = ((WORD)((csd[10] & 124) >> 2) + 1) * (((csd[11] & 3) << 3) + ((csd[11] & 224) 
 523:.\diskio.c    **** 				}
 524:.\diskio.c    **** 				res = RES_OK;
 525:.\diskio.c    **** 			}
 526:.\diskio.c    **** 		}
 527:.\diskio.c    **** 		break;
 528:.\diskio.c    **** 
 529:.\diskio.c    **** 	case CTRL_TRIM :	/* Erase a block of sectors (used when _USE_ERASE == 1) */
 530:.\diskio.c    **** 		if (!(CardType & CT_SDC)) break;				/* Check if the card is SDC */
 531:.\diskio.c    **** 		if (disk_ioctl(drv, MMC_GET_CSD, csd)) break;	/* Get CSD */
 532:.\diskio.c    **** 		if (!(csd[0] >> 6) && !(csd[10] & 0x40)) break;	/* Check if sector erase can be applied to the ca
 533:.\diskio.c    **** 		dp = buff; st = dp[0]; ed = dp[1];				/* Load sector block */
 534:.\diskio.c    **** 		if (!(CardType & CT_BLOCK)) {
 535:.\diskio.c    **** 			st *= 512; ed *= 512;
 536:.\diskio.c    **** 		}
 537:.\diskio.c    **** 		if (send_cmd(CMD32, st) == 0 && send_cmd(CMD33, ed) == 0 && send_cmd(CMD38, 0) == 0 && wait_ready
 538:.\diskio.c    **** 			res = RES_OK;	/* FatFs does not check result of this command */
 539:.\diskio.c    **** 		break;
 540:.\diskio.c    **** 
 541:.\diskio.c    **** 	default:
 542:.\diskio.c    **** 		res = RES_PARERR;
 543:.\diskio.c    **** 	}
 544:.\diskio.c    **** 
 545:.\diskio.c    **** 	deselect();
 546:.\diskio.c    **** 
 547:.\diskio.c    **** 	return res;
 548:.\diskio.c    **** }
 1496              		.loc 1 548 0
 1497 0004 7047     		bx	lr
 1498              	.LVL165:
 1499              	.L237:
 484:.\diskio.c    **** 	if (Stat & STA_NOINIT) return RES_NOTRDY;	/* Check if drive is ready */
 1500              		.loc 1 484 0
 1501 0006 AD4B     		ldr	r3, .L247
 1502 0008 1B78     		ldrb	r3, [r3]	@ zero_extendqisi2
 1503 000a D807     		lsls	r0, r3, #31
 1504              	.LVL166:
 1505 000c 01D5     		bpl	.L238
 1506 000e 0320     		movs	r0, #3
 1507 0010 7047     		bx	lr
 1508              	.L238:
 477:.\diskio.c    **** 	DRESULT res;
 1509              		.loc 1 477 0
 1510 0012 F0B5     		push	{r4, r5, r6, r7, lr}
 1511              		.cfi_def_cfa_offset 20
 1512              		.cfi_offset 4, -20
 1513              		.cfi_offset 5, -16
ARM GAS  C:\Users\honet\AppData\Local\Temp\ccfKFSWb.s 			page 40


 1514              		.cfi_offset 6, -12
 1515              		.cfi_offset 7, -8
 1516              		.cfi_offset 14, -4
 1517 0014 1546     		mov	r5, r2
 1518              	.LVL167:
 1519 0016 85B0     		sub	sp, sp, #20
 1520              		.cfi_def_cfa_offset 40
 488:.\diskio.c    **** 	case CTRL_SYNC :		/* Wait for end of internal write process of the drive */
 1521              		.loc 1 488 0
 1522 0018 0429     		cmp	r1, #4
 1523 001a 00F2B080 		bhi	.L204
 1524 001e DFE801F0 		tbb	[pc, r1]
 1525              	.L181:
 1526 0022 4D       		.byte	(.L180-.L181)/2
 1527 0023 64       		.byte	(.L182-.L181)/2
 1528 0024 AE       		.byte	(.L204-.L181)/2
 1529 0025 13       		.byte	(.L183-.L181)/2
 1530 0026 03       		.byte	(.L184-.L181)/2
 1531 0027 00       		.p2align 1
 1532              	.L184:
 530:.\diskio.c    **** 		if (disk_ioctl(drv, MMC_GET_CSD, csd)) break;	/* Get CSD */
 1533              		.loc 1 530 0
 1534 0028 A54C     		ldr	r4, .L247+4
 1535 002a 2379     		ldrb	r3, [r4, #4]	@ zero_extendqisi2
 1536 002c 13F0060F 		tst	r3, #6
 1537 0030 40F0E880 		bne	.L239
 1538              	.LVL168:
 1539              	.L234:
 1540 0034 A34E     		ldr	r6, .L247+8
 1541              	.L235:
 486:.\diskio.c    **** 
 1542              		.loc 1 486 0
 1543 0036 0124     		movs	r4, #1
 1544              	.LVL169:
 1545              	.L179:
 1546              	.LBB478:
 1547              	.LBB479:
 190:.\diskio.c    **** 	xchg_spi(0xFF);	/* Dummy clock (force DO hi-z for multiple slave SPI) */
 1548              		.loc 1 190 0
 1549 0038 7368     		ldr	r3, [r6, #4]
 1550 003a 9847     		blx	r3
 1551              	.LVL170:
 1552              	.LBB480:
 1553              	.LBB481:
 132:.\diskio.c    **** }
 1554              		.loc 1 132 0
 1555 003c 3369     		ldr	r3, [r6, #16]
 1556 003e FF20     		movs	r0, #255
 1557 0040 9847     		blx	r3
 1558              	.LVL171:
 1559              	.LBE481:
 1560              	.LBE480:
 1561              	.LBE479:
 1562              	.LBE478:
 547:.\diskio.c    **** }
 1563              		.loc 1 547 0
 1564 0042 2046     		mov	r0, r4
ARM GAS  C:\Users\honet\AppData\Local\Temp\ccfKFSWb.s 			page 41


 1565              		.loc 1 548 0
 1566 0044 05B0     		add	sp, sp, #20
 1567              		.cfi_remember_state
 1568              		.cfi_def_cfa_offset 20
 1569              		@ sp needed
 1570 0046 F0BD     		pop	{r4, r5, r6, r7, pc}
 1571              	.LVL172:
 1572              	.L183:
 1573              		.cfi_restore_state
 508:.\diskio.c    **** 			if (send_cmd(ACMD13, 0) == 0) {	/* Read SD status */
 1574              		.loc 1 508 0
 1575 0048 9D4C     		ldr	r4, .L247+4
 1576 004a 2379     		ldrb	r3, [r4, #4]	@ zero_extendqisi2
 1577 004c 03F00403 		and	r3, r3, #4
 1578 0050 03F0FF01 		and	r1, r3, #255
 1579              	.LVL173:
 1580 0054 002B     		cmp	r3, #0
 1581 0056 00F09580 		beq	.L192
 509:.\diskio.c    **** 				xchg_spi(0xFF);
 1582              		.loc 1 509 0
 1583 005a 8D20     		movs	r0, #141
 1584 005c 0021     		movs	r1, #0
 1585 005e FFF7FEFF 		bl	send_cmd
 1586              	.LVL174:
 1587 0062 0028     		cmp	r0, #0
 1588 0064 E6D1     		bne	.L234
 1589              	.LVL175:
 1590              	.LBB482:
 1591              	.LBB483:
 132:.\diskio.c    **** }
 1592              		.loc 1 132 0
 1593 0066 974E     		ldr	r6, .L247+8
 1594 0068 FF20     		movs	r0, #255
 1595 006a 3369     		ldr	r3, [r6, #16]
 1596 006c 9847     		blx	r3
 1597              	.LVL176:
 1598              	.LBE483:
 1599              	.LBE482:
 1600              	.LBB484:
 1601              	.LBB485:
 224:.\diskio.c    **** 	do {							/* Wait for DataStart token in timeout of 200ms */
 1602              		.loc 1 224 0
 1603 006e C823     		movs	r3, #200
 1604 0070 A360     		str	r3, [r4, #8]
 1605 0072 02E0     		b	.L194
 1606              	.LVL177:
 1607              	.L240:
 228:.\diskio.c    **** 	if(token != 0xFE) return 0;		/* Function fails if invalid DataStart token or timeout */
 1608              		.loc 1 228 0
 1609 0074 A368     		ldr	r3, [r4, #8]
 1610 0076 002B     		cmp	r3, #0
 1611 0078 DDD0     		beq	.L235
 1612              	.LVL178:
 1613              	.L194:
 1614              	.LBB486:
 1615              	.LBB487:
 132:.\diskio.c    **** }
ARM GAS  C:\Users\honet\AppData\Local\Temp\ccfKFSWb.s 			page 42


 1616              		.loc 1 132 0
 1617 007a 3369     		ldr	r3, [r6, #16]
 1618 007c FF20     		movs	r0, #255
 1619 007e 9847     		blx	r3
 1620              	.LVL179:
 1621              	.LBE487:
 1622              	.LBE486:
 228:.\diskio.c    **** 	if(token != 0xFE) return 0;		/* Function fails if invalid DataStart token or timeout */
 1623              		.loc 1 228 0
 1624 0080 FF28     		cmp	r0, #255
 1625              	.LBB489:
 1626              	.LBB488:
 132:.\diskio.c    **** }
 1627              		.loc 1 132 0
 1628 0082 904F     		ldr	r7, .L247+8
 1629              	.LBE488:
 1630              	.LBE489:
 228:.\diskio.c    **** 	if(token != 0xFE) return 0;		/* Function fails if invalid DataStart token or timeout */
 1631              		.loc 1 228 0
 1632 0084 F6D0     		beq	.L240
 229:.\diskio.c    **** 
 1633              		.loc 1 229 0
 1634 0086 FE28     		cmp	r0, #254
 1635 0088 D5D1     		bne	.L235
 1636              	.LVL180:
 1637              	.LBB490:
 1638              	.LBB491:
 1639              	.LBB492:
 1640              	.LBB493:
 143:.\diskio.c    ****     return;
 1641              		.loc 1 143 0
 1642 008a 1021     		movs	r1, #16
 1643 008c 7B69     		ldr	r3, [r7, #20]
 1644 008e 6846     		mov	r0, sp
 1645 0090 9847     		blx	r3
 1646              	.LVL181:
 1647              	.LBE493:
 1648              	.LBE492:
 1649              	.LBB494:
 1650              	.LBB495:
 132:.\diskio.c    **** }
 1651              		.loc 1 132 0
 1652 0092 3B69     		ldr	r3, [r7, #16]
 1653 0094 FF20     		movs	r0, #255
 1654 0096 9847     		blx	r3
 1655              	.LVL182:
 1656              	.LBE495:
 1657              	.LBE494:
 1658              	.LBB496:
 1659              	.LBB497:
 1660 0098 3B69     		ldr	r3, [r7, #16]
 1661 009a FF20     		movs	r0, #255
 1662 009c 9847     		blx	r3
 1663              	.LVL183:
 1664 009e 3024     		movs	r4, #48
 1665              	.LVL184:
 1666              	.L195:
ARM GAS  C:\Users\honet\AppData\Local\Temp\ccfKFSWb.s 			page 43


 1667              	.LBE497:
 1668              	.LBE496:
 1669              	.LBE491:
 1670              	.LBE490:
 1671              	.LBE485:
 1672              	.LBE484:
 1673              	.LBB498:
 1674              	.LBB499:
 1675 00a0 3369     		ldr	r3, [r6, #16]
 1676 00a2 FF20     		movs	r0, #255
 1677 00a4 9847     		blx	r3
 1678              	.LVL185:
 1679 00a6 631E     		subs	r3, r4, #1
 1680              	.LBE499:
 1681              	.LBE498:
 512:.\diskio.c    **** 					*(DWORD*)buff = 16UL << (csd[10] >> 4);
 1682              		.loc 1 512 0
 1683 00a8 13F0FF04 		ands	r4, r3, #255
 1684 00ac F8D1     		bne	.L195
 513:.\diskio.c    **** 					res = RES_OK;
 1685              		.loc 1 513 0
 1686 00ae 9DF80A20 		ldrb	r2, [sp, #10]	@ zero_extendqisi2
 1687 00b2 1023     		movs	r3, #16
 1688 00b4 1209     		lsrs	r2, r2, #4
 1689 00b6 9340     		lsls	r3, r3, r2
 1690 00b8 2B60     		str	r3, [r5]
 1691              	.LVL186:
 1692 00ba BDE7     		b	.L179
 1693              	.LVL187:
 1694              	.L180:
 1695              	.LBB500:
 1696              	.LBB501:
 203:.\diskio.c    **** 	xchg_spi(0xFF);	/* Dummy clock (force DO enabled) */
 1697              		.loc 1 203 0
 1698 00bc 814E     		ldr	r6, .L247+8
 1699              	.LBB502:
 1700              	.LBB503:
 172:.\diskio.c    **** 	do {
 1701              		.loc 1 172 0
 1702 00be 804C     		ldr	r4, .L247+4
 1703              	.LBE503:
 1704              	.LBE502:
 203:.\diskio.c    **** 	xchg_spi(0xFF);	/* Dummy clock (force DO enabled) */
 1705              		.loc 1 203 0
 1706 00c0 3368     		ldr	r3, [r6]
 1707 00c2 9847     		blx	r3
 1708              	.LVL188:
 1709              	.LBB509:
 1710              	.LBB510:
 132:.\diskio.c    **** }
 1711              		.loc 1 132 0
 1712 00c4 3369     		ldr	r3, [r6, #16]
 1713 00c6 FF20     		movs	r0, #255
 1714 00c8 9847     		blx	r3
 1715              	.LVL189:
 1716              	.LBE510:
 1717              	.LBE509:
ARM GAS  C:\Users\honet\AppData\Local\Temp\ccfKFSWb.s 			page 44


 1718              	.LBB511:
 1719              	.LBB508:
 172:.\diskio.c    **** 	do {
 1720              		.loc 1 172 0
 1721 00ca 4FF4FA73 		mov	r3, #500
 1722 00ce 2360     		str	r3, [r4]
 1723 00d0 03E0     		b	.L185
 1724              	.LVL190:
 1725              	.L242:
 176:.\diskio.c    **** 
 1726              		.loc 1 176 0
 1727 00d2 2368     		ldr	r3, [r4]
 1728 00d4 002B     		cmp	r3, #0
 1729 00d6 00F08F80 		beq	.L241
 1730              	.LVL191:
 1731              	.L185:
 1732              	.LBB504:
 1733              	.LBB505:
 132:.\diskio.c    **** }
 1734              		.loc 1 132 0
 1735 00da 3369     		ldr	r3, [r6, #16]
 1736 00dc FF20     		movs	r0, #255
 1737 00de 9847     		blx	r3
 1738              	.LVL192:
 1739              	.LBE505:
 1740              	.LBE504:
 176:.\diskio.c    **** 
 1741              		.loc 1 176 0
 1742 00e0 FF28     		cmp	r0, #255
 1743              	.LBB507:
 1744              	.LBB506:
 132:.\diskio.c    **** }
 1745              		.loc 1 132 0
 1746 00e2 784D     		ldr	r5, .L247+8
 1747              	.LBE506:
 1748              	.LBE507:
 176:.\diskio.c    **** 
 1749              		.loc 1 176 0
 1750 00e4 F5D1     		bne	.L242
 1751              	.LVL193:
 1752              	.L206:
 1753              	.LBE508:
 1754              	.LBE511:
 1755              	.LBE501:
 1756              	.LBE500:
 538:.\diskio.c    **** 		break;
 1757              		.loc 1 538 0
 1758 00e6 0024     		movs	r4, #0
 1759 00e8 A6E7     		b	.L179
 1760              	.LVL194:
 1761              	.L182:
 494:.\diskio.c    **** 			if ((csd[0] >> 6) == 1) {	/* SDC ver 2.00 */
 1762              		.loc 1 494 0
 1763 00ea 0920     		movs	r0, #9
 1764 00ec 0021     		movs	r1, #0
 1765              	.LVL195:
 1766 00ee FFF7FEFF 		bl	send_cmd
ARM GAS  C:\Users\honet\AppData\Local\Temp\ccfKFSWb.s 			page 45


 1767              	.LVL196:
 1768 00f2 0028     		cmp	r0, #0
 1769 00f4 9ED1     		bne	.L234
 1770              	.LVL197:
 1771              	.LBB517:
 1772              	.LBB518:
 224:.\diskio.c    **** 	do {							/* Wait for DataStart token in timeout of 200ms */
 1773              		.loc 1 224 0
 1774 00f6 724C     		ldr	r4, .L247+4
 1775 00f8 C823     		movs	r3, #200
 1776 00fa 724E     		ldr	r6, .L247+8
 1777 00fc A360     		str	r3, [r4, #8]
 1778 00fe 02E0     		b	.L189
 1779              	.LVL198:
 1780              	.L243:
 228:.\diskio.c    **** 	if(token != 0xFE) return 0;		/* Function fails if invalid DataStart token or timeout */
 1781              		.loc 1 228 0
 1782 0100 A368     		ldr	r3, [r4, #8]
 1783 0102 002B     		cmp	r3, #0
 1784 0104 97D0     		beq	.L235
 1785              	.LVL199:
 1786              	.L189:
 1787              	.LBB519:
 1788              	.LBB520:
 132:.\diskio.c    **** }
 1789              		.loc 1 132 0
 1790 0106 3369     		ldr	r3, [r6, #16]
 1791 0108 FF20     		movs	r0, #255
 1792 010a 9847     		blx	r3
 1793              	.LVL200:
 1794              	.LBE520:
 1795              	.LBE519:
 228:.\diskio.c    **** 	if(token != 0xFE) return 0;		/* Function fails if invalid DataStart token or timeout */
 1796              		.loc 1 228 0
 1797 010c FF28     		cmp	r0, #255
 1798              	.LBB522:
 1799              	.LBB521:
 132:.\diskio.c    **** }
 1800              		.loc 1 132 0
 1801 010e 6D4F     		ldr	r7, .L247+8
 1802              	.LBE521:
 1803              	.LBE522:
 228:.\diskio.c    **** 	if(token != 0xFE) return 0;		/* Function fails if invalid DataStart token or timeout */
 1804              		.loc 1 228 0
 1805 0110 F6D0     		beq	.L243
 229:.\diskio.c    **** 
 1806              		.loc 1 229 0
 1807 0112 FE28     		cmp	r0, #254
 1808 0114 8FD1     		bne	.L235
 1809              	.LVL201:
 1810              	.LBB523:
 1811              	.LBB524:
 1812              	.LBB525:
 1813              	.LBB526:
 143:.\diskio.c    ****     return;
 1814              		.loc 1 143 0
 1815 0116 1021     		movs	r1, #16
ARM GAS  C:\Users\honet\AppData\Local\Temp\ccfKFSWb.s 			page 46


 1816 0118 7B69     		ldr	r3, [r7, #20]
 1817 011a 6846     		mov	r0, sp
 1818 011c 9847     		blx	r3
 1819              	.LVL202:
 1820              	.LBE526:
 1821              	.LBE525:
 1822              	.LBB527:
 1823              	.LBB528:
 132:.\diskio.c    **** }
 1824              		.loc 1 132 0
 1825 011e 3B69     		ldr	r3, [r7, #16]
 1826 0120 FF20     		movs	r0, #255
 1827 0122 9847     		blx	r3
 1828              	.LVL203:
 1829              	.LBE528:
 1830              	.LBE527:
 1831              	.LBB529:
 1832              	.LBB530:
 1833 0124 3B69     		ldr	r3, [r7, #16]
 1834 0126 FF20     		movs	r0, #255
 1835 0128 9847     		blx	r3
 1836              	.LVL204:
 1837              	.LBE530:
 1838              	.LBE529:
 1839              	.LBE524:
 1840              	.LBE523:
 1841              	.LBE518:
 1842              	.LBE517:
 495:.\diskio.c    **** 				csize = csd[9] + ((WORD)csd[8] << 8) + ((DWORD)(csd[7] & 63) << 16) + 1;
 1843              		.loc 1 495 0
 1844 012a 9DF80030 		ldrb	r3, [sp]	@ zero_extendqisi2
 1845 012e 9B09     		lsrs	r3, r3, #6
 1846 0130 012B     		cmp	r3, #1
 1847 0132 00F0A180 		beq	.L244
 1848              	.LVL205:
 499:.\diskio.c    **** 				csize = (csd[8] >> 6) + ((WORD)csd[7] << 2) + ((WORD)(csd[6] & 3) << 10) + 1;
 1849              		.loc 1 499 0
 1850 0136 9DF80530 		ldrb	r3, [sp, #5]	@ zero_extendqisi2
 1851 013a 9DF80A10 		ldrb	r1, [sp, #10]	@ zero_extendqisi2
 1852 013e 03F00F03 		and	r3, r3, #15
 1853 0142 9DF80900 		ldrb	r0, [sp, #9]	@ zero_extendqisi2
 500:.\diskio.c    **** 				*(DWORD*)buff = csize << (n - 9);
 1854              		.loc 1 500 0
 1855 0146 9DF80720 		ldrb	r2, [sp, #7]	@ zero_extendqisi2
 1856              	.LVL206:
 499:.\diskio.c    **** 				csize = (csd[8] >> 6) + ((WORD)csd[7] << 2) + ((WORD)(csd[6] & 3) << 10) + 1;
 1857              		.loc 1 499 0
 1858 014a 03EBD113 		add	r3, r3, r1, lsr #7
 500:.\diskio.c    **** 				*(DWORD*)buff = csize << (n - 9);
 1859              		.loc 1 500 0
 1860 014e 9DF80840 		ldrb	r4, [sp, #8]	@ zero_extendqisi2
 1861 0152 9DF80610 		ldrb	r1, [sp, #6]	@ zero_extendqisi2
 1862 0156 0233     		adds	r3, r3, #2
 499:.\diskio.c    **** 				csize = (csd[8] >> 6) + ((WORD)csd[7] << 2) + ((WORD)(csd[6] & 3) << 10) + 1;
 1863              		.loc 1 499 0
 1864 0158 00F00300 		and	r0, r0, #3
 500:.\diskio.c    **** 				*(DWORD*)buff = csize << (n - 9);
ARM GAS  C:\Users\honet\AppData\Local\Temp\ccfKFSWb.s 			page 47


 1865              		.loc 1 500 0
 1866 015c 9200     		lsls	r2, r2, #2
 1867              	.LVL207:
 1868 015e 02EB9412 		add	r2, r2, r4, lsr #6
 499:.\diskio.c    **** 				csize = (csd[8] >> 6) + ((WORD)csd[7] << 2) + ((WORD)(csd[6] & 3) << 10) + 1;
 1869              		.loc 1 499 0
 1870 0162 03EB4003 		add	r3, r3, r0, lsl #1
 500:.\diskio.c    **** 				*(DWORD*)buff = csize << (n - 9);
 1871              		.loc 1 500 0
 1872 0166 01F00301 		and	r1, r1, #3
 501:.\diskio.c    **** 			}
 1873              		.loc 1 501 0
 1874 016a DBB2     		uxtb	r3, r3
 500:.\diskio.c    **** 				*(DWORD*)buff = csize << (n - 9);
 1875              		.loc 1 500 0
 1876 016c 02EB8122 		add	r2, r2, r1, lsl #10
 501:.\diskio.c    **** 			}
 1877              		.loc 1 501 0
 1878 0170 093B     		subs	r3, r3, #9
 500:.\diskio.c    **** 				*(DWORD*)buff = csize << (n - 9);
 1879              		.loc 1 500 0
 1880 0172 0132     		adds	r2, r2, #1
 501:.\diskio.c    **** 			}
 1881              		.loc 1 501 0
 1882 0174 02FA03F3 		lsl	r3, r2, r3
 1883 0178 2B60     		str	r3, [r5]
 503:.\diskio.c    **** 		}
 1884              		.loc 1 503 0
 1885 017a 0024     		movs	r4, #0
 1886 017c 5CE7     		b	.L179
 1887              	.LVL208:
 1888              	.L204:
 542:.\diskio.c    **** 	}
 1889              		.loc 1 542 0
 1890 017e 0424     		movs	r4, #4
 1891 0180 504E     		ldr	r6, .L247+8
 1892 0182 59E7     		b	.L179
 1893              	.LVL209:
 1894              	.L192:
 518:.\diskio.c    **** 				if (CardType & CT_SD1) {	/* SDC ver 1.XX */
 1895              		.loc 1 518 0
 1896 0184 0920     		movs	r0, #9
 1897 0186 FFF7FEFF 		bl	send_cmd
 1898              	.LVL210:
 1899 018a 0028     		cmp	r0, #0
 1900 018c 7FF452AF 		bne	.L234
 1901              	.LVL211:
 1902              	.LBB531:
 1903              	.LBB532:
 224:.\diskio.c    **** 	do {							/* Wait for DataStart token in timeout of 200ms */
 1904              		.loc 1 224 0
 1905 0190 C823     		movs	r3, #200
 1906 0192 4C4E     		ldr	r6, .L247+8
 1907 0194 A360     		str	r3, [r4, #8]
 1908 0196 03E0     		b	.L197
 1909              	.LVL212:
 1910              	.L245:
ARM GAS  C:\Users\honet\AppData\Local\Temp\ccfKFSWb.s 			page 48


 228:.\diskio.c    **** 	if(token != 0xFE) return 0;		/* Function fails if invalid DataStart token or timeout */
 1911              		.loc 1 228 0
 1912 0198 A368     		ldr	r3, [r4, #8]
 1913 019a 002B     		cmp	r3, #0
 1914 019c 3FF44BAF 		beq	.L235
 1915              	.LVL213:
 1916              	.L197:
 1917              	.LBB533:
 1918              	.LBB534:
 132:.\diskio.c    **** }
 1919              		.loc 1 132 0
 1920 01a0 3369     		ldr	r3, [r6, #16]
 1921 01a2 FF20     		movs	r0, #255
 1922 01a4 9847     		blx	r3
 1923              	.LVL214:
 1924              	.LBE534:
 1925              	.LBE533:
 228:.\diskio.c    **** 	if(token != 0xFE) return 0;		/* Function fails if invalid DataStart token or timeout */
 1926              		.loc 1 228 0
 1927 01a6 FF28     		cmp	r0, #255
 1928              	.LBB536:
 1929              	.LBB535:
 132:.\diskio.c    **** }
 1930              		.loc 1 132 0
 1931 01a8 464F     		ldr	r7, .L247+8
 1932              	.LBE535:
 1933              	.LBE536:
 228:.\diskio.c    **** 	if(token != 0xFE) return 0;		/* Function fails if invalid DataStart token or timeout */
 1934              		.loc 1 228 0
 1935 01aa F5D0     		beq	.L245
 229:.\diskio.c    **** 
 1936              		.loc 1 229 0
 1937 01ac FE28     		cmp	r0, #254
 1938 01ae 7FF442AF 		bne	.L235
 1939              	.LVL215:
 1940              	.LBB537:
 1941              	.LBB538:
 1942              	.LBB539:
 1943              	.LBB540:
 143:.\diskio.c    ****     return;
 1944              		.loc 1 143 0
 1945 01b2 1021     		movs	r1, #16
 1946 01b4 7B69     		ldr	r3, [r7, #20]
 1947 01b6 6846     		mov	r0, sp
 1948 01b8 9847     		blx	r3
 1949              	.LVL216:
 1950              	.LBE540:
 1951              	.LBE539:
 1952              	.LBB541:
 1953              	.LBB542:
 132:.\diskio.c    **** }
 1954              		.loc 1 132 0
 1955 01ba 3B69     		ldr	r3, [r7, #16]
 1956 01bc FF20     		movs	r0, #255
 1957 01be 9847     		blx	r3
 1958              	.LVL217:
 1959              	.LBE542:
ARM GAS  C:\Users\honet\AppData\Local\Temp\ccfKFSWb.s 			page 49


 1960              	.LBE541:
 1961              	.LBB543:
 1962              	.LBB544:
 1963 01c0 3B69     		ldr	r3, [r7, #16]
 1964 01c2 FF20     		movs	r0, #255
 1965 01c4 9847     		blx	r3
 1966              	.LVL218:
 1967              	.LBE544:
 1968              	.LBE543:
 1969              	.LBE538:
 1970              	.LBE537:
 1971              	.LBE532:
 1972              	.LBE531:
 519:.\diskio.c    **** 					*(DWORD*)buff = (((csd[10] & 63) << 1) + ((WORD)(csd[11] & 128) >> 7) + 1) << ((csd[13] >> 6) 
 1973              		.loc 1 519 0
 1974 01c6 2379     		ldrb	r3, [r4, #4]	@ zero_extendqisi2
 1975 01c8 03F00203 		and	r3, r3, #2
 1976 01cc 03F0FF00 		and	r0, r3, #255
 1977 01d0 002B     		cmp	r3, #0
 1978 01d2 62D0     		beq	.L198
 520:.\diskio.c    **** 				} else {					/* MMC */
 1979              		.loc 1 520 0
 1980 01d4 9DF80A10 		ldrb	r1, [sp, #10]	@ zero_extendqisi2
 1981 01d8 9DF80B30 		ldrb	r3, [sp, #11]	@ zero_extendqisi2
 1982 01dc 9DF80D20 		ldrb	r2, [sp, #13]	@ zero_extendqisi2
 1983 01e0 01F03F01 		and	r1, r1, #63
 1984 01e4 DB09     		lsrs	r3, r3, #7
 1985 01e6 03EB4103 		add	r3, r3, r1, lsl #1
 1986 01ea 9209     		lsrs	r2, r2, #6
 1987 01ec 0133     		adds	r3, r3, #1
 1988 01ee 013A     		subs	r2, r2, #1
 1989 01f0 9340     		lsls	r3, r3, r2
 1990 01f2 2B60     		str	r3, [r5]
 524:.\diskio.c    **** 			}
 1991              		.loc 1 524 0
 1992 01f4 0024     		movs	r4, #0
 1993 01f6 1FE7     		b	.L179
 1994              	.LVL219:
 1995              	.L241:
 1996              	.LBB545:
 1997              	.LBB516:
 1998              	.LBB512:
 1999              	.LBB513:
 190:.\diskio.c    **** 	xchg_spi(0xFF);	/* Dummy clock (force DO hi-z for multiple slave SPI) */
 2000              		.loc 1 190 0
 2001 01f8 6B68     		ldr	r3, [r5, #4]
 2002 01fa 9847     		blx	r3
 2003              	.LVL220:
 2004              	.LBB514:
 2005              	.LBB515:
 132:.\diskio.c    **** }
 2006              		.loc 1 132 0
 2007 01fc 2B69     		ldr	r3, [r5, #16]
 2008 01fe FF20     		movs	r0, #255
 2009 0200 9847     		blx	r3
 2010              	.LVL221:
 2011 0202 18E7     		b	.L235
ARM GAS  C:\Users\honet\AppData\Local\Temp\ccfKFSWb.s 			page 50


 2012              	.LVL222:
 2013              	.L239:
 2014              	.LBE515:
 2015              	.LBE514:
 2016              	.LBE513:
 2017              	.LBE512:
 2018              	.LBE516:
 2019              	.LBE545:
 531:.\diskio.c    **** 		if (!(csd[0] >> 6) && !(csd[10] & 0x40)) break;	/* Check if sector erase can be applied to the ca
 2020              		.loc 1 531 0
 2021 0204 0020     		movs	r0, #0
 2022 0206 0B21     		movs	r1, #11
 2023              	.LVL223:
 2024 0208 6A46     		mov	r2, sp
 2025              	.LVL224:
 2026 020a FFF7FEFF 		bl	disk_ioctl
 2027              	.LVL225:
 2028 020e 0028     		cmp	r0, #0
 2029 0210 7FF410AF 		bne	.L234
 532:.\diskio.c    **** 		dp = buff; st = dp[0]; ed = dp[1];				/* Load sector block */
 2030              		.loc 1 532 0
 2031 0214 9DF80030 		ldrb	r3, [sp]	@ zero_extendqisi2
 2032 0218 9B09     		lsrs	r3, r3, #6
 2033 021a 04D1     		bne	.L199
 532:.\diskio.c    **** 		dp = buff; st = dp[0]; ed = dp[1];				/* Load sector block */
 2034              		.loc 1 532 0 is_stmt 0 discriminator 1
 2035 021c 9DF80A30 		ldrb	r3, [sp, #10]	@ zero_extendqisi2
 2036 0220 5A06     		lsls	r2, r3, #25
 2037 0222 7FF507AF 		bpl	.L234
 2038              	.L199:
 2039              	.LVL226:
 533:.\diskio.c    **** 		if (!(CardType & CT_BLOCK)) {
 2040              		.loc 1 533 0 is_stmt 1
 2041 0226 22CD     		ldmia	r5, {r1, r5}
 2042              	.LVL227:
 534:.\diskio.c    **** 			st *= 512; ed *= 512;
 2043              		.loc 1 534 0
 2044 0228 2379     		ldrb	r3, [r4, #4]	@ zero_extendqisi2
 537:.\diskio.c    **** 			res = RES_OK;	/* FatFs does not check result of this command */
 2045              		.loc 1 537 0
 2046 022a 2020     		movs	r0, #32
 534:.\diskio.c    **** 			st *= 512; ed *= 512;
 2047              		.loc 1 534 0
 2048 022c 1B07     		lsls	r3, r3, #28
 535:.\diskio.c    **** 		}
 2049              		.loc 1 535 0
 2050 022e 5CBF     		itt	pl
 2051 0230 4902     		lslpl	r1, r1, #9
 2052              	.LVL228:
 2053 0232 6D02     		lslpl	r5, r5, #9
 2054              	.LVL229:
 537:.\diskio.c    **** 			res = RES_OK;	/* FatFs does not check result of this command */
 2055              		.loc 1 537 0
 2056 0234 FFF7FEFF 		bl	send_cmd
 2057              	.LVL230:
 2058 0238 0028     		cmp	r0, #0
 2059 023a 7FF4FBAE 		bne	.L234
ARM GAS  C:\Users\honet\AppData\Local\Temp\ccfKFSWb.s 			page 51


 537:.\diskio.c    **** 			res = RES_OK;	/* FatFs does not check result of this command */
 2060              		.loc 1 537 0 is_stmt 0 discriminator 1
 2061 023e 2946     		mov	r1, r5
 2062 0240 2120     		movs	r0, #33
 2063 0242 FFF7FEFF 		bl	send_cmd
 2064              	.LVL231:
 2065 0246 0146     		mov	r1, r0
 2066 0248 0028     		cmp	r0, #0
 2067 024a 7FF4F3AE 		bne	.L234
 537:.\diskio.c    **** 			res = RES_OK;	/* FatFs does not check result of this command */
 2068              		.loc 1 537 0 discriminator 2
 2069 024e 2620     		movs	r0, #38
 2070 0250 FFF7FEFF 		bl	send_cmd
 2071              	.LVL232:
 2072 0254 0028     		cmp	r0, #0
 2073 0256 7FF4EDAE 		bne	.L234
 2074              	.LVL233:
 2075              	.LBB546:
 2076              	.LBB547:
 172:.\diskio.c    **** 	do {
 2077              		.loc 1 172 0 is_stmt 1
 2078 025a 47F23053 		movw	r3, #30000
 2079 025e 194E     		ldr	r6, .L247+8
 2080 0260 2360     		str	r3, [r4]
 2081 0262 03E0     		b	.L201
 2082              	.LVL234:
 2083              	.L246:
 176:.\diskio.c    **** 
 2084              		.loc 1 176 0
 2085 0264 2368     		ldr	r3, [r4]
 2086 0266 002B     		cmp	r3, #0
 2087 0268 3FF4E5AE 		beq	.L235
 2088              	.LVL235:
 2089              	.L201:
 2090              	.LBB548:
 2091              	.LBB549:
 132:.\diskio.c    **** }
 2092              		.loc 1 132 0
 2093 026c 3369     		ldr	r3, [r6, #16]
 2094 026e FF20     		movs	r0, #255
 2095 0270 9847     		blx	r3
 2096              	.LVL236:
 2097              	.LBE549:
 2098              	.LBE548:
 176:.\diskio.c    **** 
 2099              		.loc 1 176 0
 2100 0272 FF28     		cmp	r0, #255
 2101 0274 F6D1     		bne	.L246
 2102 0276 36E7     		b	.L206
 2103              	.LVL237:
 2104              	.L244:
 2105              	.LBE547:
 2106              	.LBE546:
 496:.\diskio.c    **** 				*(DWORD*)buff = csize << 10;
 2107              		.loc 1 496 0
 2108 0278 9DF80710 		ldrb	r1, [sp, #7]	@ zero_extendqisi2
 2109 027c 9DF80920 		ldrb	r2, [sp, #9]	@ zero_extendqisi2
ARM GAS  C:\Users\honet\AppData\Local\Temp\ccfKFSWb.s 			page 52


 2110 0280 01F03F01 		and	r1, r1, #63
 2111 0284 9DF80830 		ldrb	r3, [sp, #8]	@ zero_extendqisi2
 2112              	.LVL238:
 2113 0288 0904     		lsls	r1, r1, #16
 2114 028a 0131     		adds	r1, r1, #1
 2115 028c 02EB0323 		add	r3, r2, r3, lsl #8
 2116              	.LVL239:
 2117 0290 0B44     		add	r3, r3, r1
 497:.\diskio.c    **** 			} else {					/* SDC ver 1.XX or MMC ver 3 */
 2118              		.loc 1 497 0
 2119 0292 9B02     		lsls	r3, r3, #10
 2120 0294 2B60     		str	r3, [r5]
 503:.\diskio.c    **** 		}
 2121              		.loc 1 503 0
 2122 0296 0024     		movs	r4, #0
 2123 0298 CEE6     		b	.L179
 2124              	.LVL240:
 2125              	.L198:
 522:.\diskio.c    **** 				}
 2126              		.loc 1 522 0
 2127 029a 9DF80B30 		ldrb	r3, [sp, #11]	@ zero_extendqisi2
 2128 029e 9DF80A20 		ldrb	r2, [sp, #10]	@ zero_extendqisi2
 2129 02a2 03F00301 		and	r1, r3, #3
 2130 02a6 5B09     		lsrs	r3, r3, #5
 2131 02a8 03EBC103 		add	r3, r3, r1, lsl #3
 2132 02ac 0133     		adds	r3, r3, #1
 2133 02ae C2F38402 		ubfx	r2, r2, #2, #5
 2134 02b2 02FB0333 		mla	r3, r2, r3, r3
 524:.\diskio.c    **** 			}
 2135              		.loc 1 524 0
 2136 02b6 0446     		mov	r4, r0
 522:.\diskio.c    **** 				}
 2137              		.loc 1 522 0
 2138 02b8 2B60     		str	r3, [r5]
 2139 02ba BDE6     		b	.L179
 2140              	.L248:
 2141              		.align	2
 2142              	.L247:
 2143 02bc 00000000 		.word	.LANCHOR1
 2144 02c0 00000000 		.word	.LANCHOR0
 2145 02c4 00000000 		.word	SpiFuncs
 2146              		.cfi_endproc
 2147              	.LFE18:
 2148              		.size	disk_ioctl, .-disk_ioctl
 2149              		.section	.text.disk_timerproc,"ax",%progbits
 2150              		.align	2
 2151              		.global	disk_timerproc
 2152              		.thumb
 2153              		.thumb_func
 2154              		.type	disk_timerproc, %function
 2155              	disk_timerproc:
 2156              	.LFB19:
 549:.\diskio.c    **** 
 550:.\diskio.c    **** 
 551:.\diskio.c    **** /*-----------------------------------------------------------------------*/
 552:.\diskio.c    **** /* Device timer function                                                 */
 553:.\diskio.c    **** /*-----------------------------------------------------------------------*/
ARM GAS  C:\Users\honet\AppData\Local\Temp\ccfKFSWb.s 			page 53


 554:.\diskio.c    **** /* This function must be called from timer interrupt routine in period
 555:.\diskio.c    **** /  of 1 ms to generate card control timing.
 556:.\diskio.c    **** */
 557:.\diskio.c    **** 
 558:.\diskio.c    **** void disk_timerproc (void)
 559:.\diskio.c    **** {
 2157              		.loc 1 559 0
 2158              		.cfi_startproc
 2159              		@ args = 0, pretend = 0, frame = 0
 2160              		@ frame_needed = 0, uses_anonymous_args = 0
 560:.\diskio.c    **** 	WORD n;
 561:.\diskio.c    **** 	BYTE s, c;
 562:.\diskio.c    **** 
 563:.\diskio.c    **** 	n = Timer1;						/* 1kHz decrement timer stopped at 0 */
 2161              		.loc 1 563 0
 2162 0000 114A     		ldr	r2, .L263
 559:.\diskio.c    **** 	WORD n;
 2163              		.loc 1 559 0
 2164 0002 38B5     		push	{r3, r4, r5, lr}
 2165              		.cfi_def_cfa_offset 16
 2166              		.cfi_offset 3, -16
 2167              		.cfi_offset 4, -12
 2168              		.cfi_offset 5, -8
 2169              		.cfi_offset 14, -4
 2170              		.loc 1 563 0
 2171 0004 9368     		ldr	r3, [r2, #8]
 2172 0006 9BB2     		uxth	r3, r3
 2173              	.LVL241:
 564:.\diskio.c    **** 	if (n) Timer1 = --n;
 2174              		.loc 1 564 0
 2175 0008 13B1     		cbz	r3, .L250
 2176              	.LVL242:
 2177              		.loc 1 564 0 is_stmt 0 discriminator 1
 2178 000a 013B     		subs	r3, r3, #1
 2179              	.LVL243:
 2180 000c 9BB2     		uxth	r3, r3
 2181              	.LVL244:
 2182 000e 9360     		str	r3, [r2, #8]
 2183              	.L250:
 565:.\diskio.c    **** 	n = Timer2;
 2184              		.loc 1 565 0 is_stmt 1
 2185 0010 1368     		ldr	r3, [r2]
 2186 0012 0D4A     		ldr	r2, .L263
 2187 0014 9BB2     		uxth	r3, r3
 2188              	.LVL245:
 566:.\diskio.c    **** 	if (n) Timer2 = --n;
 2189              		.loc 1 566 0
 2190 0016 13B1     		cbz	r3, .L251
 2191              	.LVL246:
 2192              		.loc 1 566 0 is_stmt 0 discriminator 1
 2193 0018 013B     		subs	r3, r3, #1
 2194              	.LVL247:
 2195 001a 9BB2     		uxth	r3, r3
 2196              	.LVL248:
 2197 001c 1360     		str	r3, [r2]
 2198              	.L251:
 567:.\diskio.c    **** 
ARM GAS  C:\Users\honet\AppData\Local\Temp\ccfKFSWb.s 			page 54


 568:.\diskio.c    **** 	s = Stat;
 569:.\diskio.c    ****     c = SpiFuncs.CARDSTATUS();
 2199              		.loc 1 569 0 is_stmt 1
 2200 001e 0B4B     		ldr	r3, .L263+4
 568:.\diskio.c    ****     c = SpiFuncs.CARDSTATUS();
 2201              		.loc 1 568 0
 2202 0020 0B4D     		ldr	r5, .L263+8
 2203              		.loc 1 569 0
 2204 0022 DB69     		ldr	r3, [r3, #28]
 568:.\diskio.c    ****     c = SpiFuncs.CARDSTATUS();
 2205              		.loc 1 568 0
 2206 0024 2C78     		ldrb	r4, [r5]	@ zero_extendqisi2
 2207              		.loc 1 569 0
 2208 0026 9847     		blx	r3
 2209              	.LVL249:
 568:.\diskio.c    ****     c = SpiFuncs.CARDSTATUS();
 2210              		.loc 1 568 0
 2211 0028 E4B2     		uxtb	r4, r4
 2212              	.LVL250:
 570:.\diskio.c    ****     
 571:.\diskio.c    **** 	if (c&STA_PROTECT)		// Write protected
 2213              		.loc 1 571 0
 2214 002a 4207     		lsls	r2, r0, #29
 572:.\diskio.c    **** 		s |= STA_PROTECT;
 2215              		.loc 1 572 0
 2216 002c 4CBF     		ite	mi
 2217 002e 44F00404 		orrmi	r4, r4, #4
 2218              	.LVL251:
 573:.\diskio.c    **** 	else		// Write enabled
 574:.\diskio.c    ****     	s &= ~STA_PROTECT;
 2219              		.loc 1 574 0
 2220 0032 04F0FB04 		andpl	r4, r4, #251
 2221              	.LVL252:
 575:.\diskio.c    ****     
 576:.\diskio.c    ****     if (c&STA_NODISK)	// Card is in socket
 2222              		.loc 1 576 0
 2223 0036 8307     		lsls	r3, r0, #30
 577:.\diskio.c    **** 		s &= ~STA_NODISK;
 2224              		.loc 1 577 0
 2225 0038 4CBF     		ite	mi
 2226 003a 04F0FD04 		andmi	r4, r4, #253
 2227              	.LVL253:
 578:.\diskio.c    **** 	else		// Socket empty
 579:.\diskio.c    **** 		s |= (STA_NODISK | STA_NOINIT);
 2228              		.loc 1 579 0
 2229 003e 44F00304 		orrpl	r4, r4, #3
 2230              	.LVL254:
 580:.\diskio.c    **** 	Stat = s;
 2231              		.loc 1 580 0
 2232 0042 2C70     		strb	r4, [r5]
 2233 0044 38BD     		pop	{r3, r4, r5, pc}
 2234              	.LVL255:
 2235              	.L264:
 2236 0046 00BF     		.align	2
 2237              	.L263:
 2238 0048 00000000 		.word	.LANCHOR0
 2239 004c 00000000 		.word	SpiFuncs
ARM GAS  C:\Users\honet\AppData\Local\Temp\ccfKFSWb.s 			page 55


 2240 0050 00000000 		.word	.LANCHOR1
 2241              		.cfi_endproc
 2242              	.LFE19:
 2243              		.size	disk_timerproc, .-disk_timerproc
 2244              		.comm	SpiFuncs,36,4
 2245              		.data
 2246              		.set	.LANCHOR1,. + 0
 2247              		.type	Stat, %object
 2248              		.size	Stat, 1
 2249              	Stat:
 2250 0000 01       		.byte	1
 2251              		.bss
 2252              		.align	2
 2253              		.set	.LANCHOR0,. + 0
 2254              		.type	Timer2, %object
 2255              		.size	Timer2, 4
 2256              	Timer2:
 2257 0000 00000000 		.space	4
 2258              		.type	CardType, %object
 2259              		.size	CardType, 1
 2260              	CardType:
 2261 0004 00       		.space	1
 2262 0005 000000   		.space	3
 2263              		.type	Timer1, %object
 2264              		.size	Timer1, 4
 2265              	Timer1:
 2266 0008 00000000 		.space	4
 2267              		.text
 2268              	.Letext0:
 2269              		.file 2 "c:\\program files (x86)\\cypress\\psoc creator\\3.3\\psoc creator\\import\\gnu\\arm\\4.9.
 2270              		.file 3 "c:\\program files (x86)\\cypress\\psoc creator\\3.3\\psoc creator\\import\\gnu\\arm\\4.9.
 2271              		.file 4 ".\\integer.h"
 2272              		.file 5 ".\\diskio.h"