ARM GAS  C:\Users\honet\AppData\Local\Temp\cc5ZMQU6.s 			page 1


   1              		.syntax unified
   2              		.cpu cortex-m3
   3              		.fpu softvfp
   4              		.eabi_attribute 20, 1
   5              		.eabi_attribute 21, 1
   6              		.eabi_attribute 23, 3
   7              		.eabi_attribute 24, 1
   8              		.eabi_attribute 25, 1
   9              		.eabi_attribute 26, 1
  10              		.eabi_attribute 30, 2
  11              		.eabi_attribute 34, 1
  12              		.eabi_attribute 18, 4
  13              		.thumb
  14              		.file	"ff.c"
  15              		.text
  16              	.Ltext0:
  17              		.cfi_sections	.debug_frame
  18              		.section	.text.sync_window.part.5,"ax",%progbits
  19              		.align	2
  20              		.thumb
  21              		.thumb_func
  22              		.type	sync_window.part.5, %function
  23              	sync_window.part.5:
  24              	.LFB60:
  25              		.file 1 ".\\ff.c"
   1:.\ff.c        **** /*----------------------------------------------------------------------------/
   2:.\ff.c        **** /  FatFs - Generic FAT file system module  R0.12b                             /
   3:.\ff.c        **** /-----------------------------------------------------------------------------/
   4:.\ff.c        **** /
   5:.\ff.c        **** / Copyright (C) 2016, ChaN, all right reserved.
   6:.\ff.c        **** /
   7:.\ff.c        **** / FatFs module is an open source software. Redistribution and use of FatFs in
   8:.\ff.c        **** / source and binary forms, with or without modification, are permitted provided
   9:.\ff.c        **** / that the following condition is met:
  10:.\ff.c        **** 
  11:.\ff.c        **** / 1. Redistributions of source code must retain the above copyright notice,
  12:.\ff.c        **** /    this condition and the following disclaimer.
  13:.\ff.c        **** /
  14:.\ff.c        **** / This software is provided by the copyright holder and contributors "AS IS"
  15:.\ff.c        **** / and any warranties related to this software are DISCLAIMED.
  16:.\ff.c        **** / The copyright owner or contributors be NOT LIABLE for any damages caused
  17:.\ff.c        **** / by use of this software.
  18:.\ff.c        **** /----------------------------------------------------------------------------*/
  19:.\ff.c        **** 
  20:.\ff.c        **** 
  21:.\ff.c        **** #include "ff.h"			/* Declarations of FatFs API */
  22:.\ff.c        **** #include "diskio.h"		/* Declarations of device I/O functions */
  23:.\ff.c        **** 
  24:.\ff.c        **** 
  25:.\ff.c        **** /*--------------------------------------------------------------------------
  26:.\ff.c        **** 
  27:.\ff.c        ****    Module Private Definitions
  28:.\ff.c        **** 
  29:.\ff.c        **** ---------------------------------------------------------------------------*/
  30:.\ff.c        **** 
  31:.\ff.c        **** #if _FATFS != 68020	/* Revision ID */
  32:.\ff.c        **** #error Wrong include file (ff.h).
ARM GAS  C:\Users\honet\AppData\Local\Temp\cc5ZMQU6.s 			page 2


  33:.\ff.c        **** #endif
  34:.\ff.c        **** 
  35:.\ff.c        **** 
  36:.\ff.c        **** #define	ABORT(fs, res)		{ fp->err = (BYTE)(res); LEAVE_FF(fs, res); }
  37:.\ff.c        **** 
  38:.\ff.c        **** 
  39:.\ff.c        **** /* Reentrancy related */
  40:.\ff.c        **** #if _FS_REENTRANT
  41:.\ff.c        **** #if _USE_LFN == 1
  42:.\ff.c        **** #error Static LFN work area cannot be used at thread-safe configuration
  43:.\ff.c        **** #endif
  44:.\ff.c        **** #define	ENTER_FF(fs)		{ if (!lock_fs(fs)) return FR_TIMEOUT; }
  45:.\ff.c        **** #define	LEAVE_FF(fs, res)	{ unlock_fs(fs, res); return res; }
  46:.\ff.c        **** #else
  47:.\ff.c        **** #define	ENTER_FF(fs)
  48:.\ff.c        **** #define LEAVE_FF(fs, res)	return res
  49:.\ff.c        **** #endif
  50:.\ff.c        **** 
  51:.\ff.c        **** 
  52:.\ff.c        **** 
  53:.\ff.c        **** /* Definitions of sector size */
  54:.\ff.c        **** #if (_MAX_SS < _MIN_SS) || (_MAX_SS != 512 && _MAX_SS != 1024 && _MAX_SS != 2048 && _MAX_SS != 4096
  55:.\ff.c        **** #error Wrong sector size configuration
  56:.\ff.c        **** #endif
  57:.\ff.c        **** #if _MAX_SS == _MIN_SS
  58:.\ff.c        **** #define	SS(fs)	((UINT)_MAX_SS)	/* Fixed sector size */
  59:.\ff.c        **** #else
  60:.\ff.c        **** #define	SS(fs)	((fs)->ssize)	/* Variable sector size */
  61:.\ff.c        **** #endif
  62:.\ff.c        **** 
  63:.\ff.c        **** 
  64:.\ff.c        **** /* Timestamp */
  65:.\ff.c        **** #if _FS_NORTC == 1
  66:.\ff.c        **** #if _NORTC_YEAR < 1980 || _NORTC_YEAR > 2107 || _NORTC_MON < 1 || _NORTC_MON > 12 || _NORTC_MDAY < 
  67:.\ff.c        **** #error Invalid _FS_NORTC settings
  68:.\ff.c        **** #endif
  69:.\ff.c        **** #define GET_FATTIME()	((DWORD)(_NORTC_YEAR - 1980) << 25 | (DWORD)_NORTC_MON << 21 | (DWORD)_NORTC_
  70:.\ff.c        **** #else
  71:.\ff.c        **** #define GET_FATTIME()	get_fattime()
  72:.\ff.c        **** #endif
  73:.\ff.c        **** 
  74:.\ff.c        **** 
  75:.\ff.c        **** /* File lock controls */
  76:.\ff.c        **** #if _FS_LOCK != 0
  77:.\ff.c        **** #if _FS_READONLY
  78:.\ff.c        **** #error _FS_LOCK must be 0 at read-only configuration
  79:.\ff.c        **** #endif
  80:.\ff.c        **** typedef struct {
  81:.\ff.c        **** 	FATFS *fs;		/* Object ID 1, volume (NULL:blank entry) */
  82:.\ff.c        **** 	DWORD clu;		/* Object ID 2, directory (0:root) */
  83:.\ff.c        **** 	DWORD ofs;		/* Object ID 3, directory offset */
  84:.\ff.c        **** 	WORD ctr;		/* Object open counter, 0:none, 0x01..0xFF:read mode open count, 0x100:write mode */
  85:.\ff.c        **** } FILESEM;
  86:.\ff.c        **** #endif
  87:.\ff.c        **** 
  88:.\ff.c        **** 
  89:.\ff.c        **** 
ARM GAS  C:\Users\honet\AppData\Local\Temp\cc5ZMQU6.s 			page 3


  90:.\ff.c        **** /* DBCS code ranges and SBCS upper conversion tables */
  91:.\ff.c        **** 
  92:.\ff.c        **** #if _CODE_PAGE == 932	/* Japanese Shift-JIS */
  93:.\ff.c        **** #define _DF1S	0x81	/* DBC 1st byte range 1 start */
  94:.\ff.c        **** #define _DF1E	0x9F	/* DBC 1st byte range 1 end */
  95:.\ff.c        **** #define _DF2S	0xE0	/* DBC 1st byte range 2 start */
  96:.\ff.c        **** #define _DF2E	0xFC	/* DBC 1st byte range 2 end */
  97:.\ff.c        **** #define _DS1S	0x40	/* DBC 2nd byte range 1 start */
  98:.\ff.c        **** #define _DS1E	0x7E	/* DBC 2nd byte range 1 end */
  99:.\ff.c        **** #define _DS2S	0x80	/* DBC 2nd byte range 2 start */
 100:.\ff.c        **** #define _DS2E	0xFC	/* DBC 2nd byte range 2 end */
 101:.\ff.c        **** 
 102:.\ff.c        **** #elif _CODE_PAGE == 936	/* Simplified Chinese GBK */
 103:.\ff.c        **** #define _DF1S	0x81
 104:.\ff.c        **** #define _DF1E	0xFE
 105:.\ff.c        **** #define _DS1S	0x40
 106:.\ff.c        **** #define _DS1E	0x7E
 107:.\ff.c        **** #define _DS2S	0x80
 108:.\ff.c        **** #define _DS2E	0xFE
 109:.\ff.c        **** 
 110:.\ff.c        **** #elif _CODE_PAGE == 949	/* Korean */
 111:.\ff.c        **** #define _DF1S	0x81
 112:.\ff.c        **** #define _DF1E	0xFE
 113:.\ff.c        **** #define _DS1S	0x41
 114:.\ff.c        **** #define _DS1E	0x5A
 115:.\ff.c        **** #define _DS2S	0x61
 116:.\ff.c        **** #define _DS2E	0x7A
 117:.\ff.c        **** #define _DS3S	0x81
 118:.\ff.c        **** #define _DS3E	0xFE
 119:.\ff.c        **** 
 120:.\ff.c        **** #elif _CODE_PAGE == 950	/* Traditional Chinese Big5 */
 121:.\ff.c        **** #define _DF1S	0x81
 122:.\ff.c        **** #define _DF1E	0xFE
 123:.\ff.c        **** #define _DS1S	0x40
 124:.\ff.c        **** #define _DS1E	0x7E
 125:.\ff.c        **** #define _DS2S	0xA1
 126:.\ff.c        **** #define _DS2E	0xFE
 127:.\ff.c        **** 
 128:.\ff.c        **** #elif _CODE_PAGE == 437	/* U.S. */
 129:.\ff.c        **** #define _DF1S	0
 130:.\ff.c        **** #define _EXCVT {0x80,0x9A,0x45,0x41,0x8E,0x41,0x8F,0x80,0x45,0x45,0x45,0x49,0x49,0x49,0x8E,0x8F, \
 131:.\ff.c        **** 				0x90,0x92,0x92,0x4F,0x99,0x4F,0x55,0x55,0x59,0x99,0x9A,0x9B,0x9C,0x9D,0x9E,0x9F, \
 132:.\ff.c        **** 				0x41,0x49,0x4F,0x55,0xA5,0xA5,0xA6,0xA7,0xA8,0xA9,0xAA,0xAB,0xAC,0xAD,0xAE,0xAF, \
 133:.\ff.c        **** 				0xB0,0xB1,0xB2,0xB3,0xB4,0xB5,0xB6,0xB7,0xB8,0xB9,0xBA,0xBB,0xBC,0xBD,0xBE,0xBF, \
 134:.\ff.c        **** 				0xC0,0xC1,0xC2,0xC3,0xC4,0xC5,0xC6,0xC7,0xC8,0xC9,0xCA,0xCB,0xCC,0xCD,0xCE,0xCF, \
 135:.\ff.c        **** 				0xD0,0xD1,0xD2,0xD3,0xD4,0xD5,0xD6,0xD7,0xD8,0xD9,0xDA,0xDB,0xDC,0xDD,0xDE,0xDF, \
 136:.\ff.c        **** 				0xE0,0xE1,0xE2,0xE3,0xE4,0xE5,0xE6,0xE7,0xE8,0xE9,0xEA,0xEB,0xEC,0xED,0xEE,0xEF, \
 137:.\ff.c        **** 				0xF0,0xF1,0xF2,0xF3,0xF4,0xF5,0xF6,0xF7,0xF8,0xF9,0xFA,0xFB,0xFC,0xFD,0xFE,0xFF}
 138:.\ff.c        **** 
 139:.\ff.c        **** #elif _CODE_PAGE == 720	/* Arabic */
 140:.\ff.c        **** #define _DF1S	0
 141:.\ff.c        **** #define _EXCVT {0x80,0x81,0x82,0x83,0x84,0x85,0x86,0x87,0x88,0x89,0x8A,0x8B,0x8C,0x8D,0x8E,0x8F, \
 142:.\ff.c        **** 				0x90,0x91,0x92,0x93,0x94,0x95,0x96,0x97,0x98,0x99,0x9A,0x9B,0x9C,0x9D,0x9E,0x9F, \
 143:.\ff.c        **** 				0xA0,0xA1,0xA2,0xA3,0xA4,0xA5,0xA6,0xA7,0xA8,0xA9,0xAA,0xAB,0xAC,0xAD,0xAE,0xAF, \
 144:.\ff.c        **** 				0xB0,0xB1,0xB2,0xB3,0xB4,0xB5,0xB6,0xB7,0xB8,0xB9,0xBA,0xBB,0xBC,0xBD,0xBE,0xBF, \
 145:.\ff.c        **** 				0xC0,0xC1,0xC2,0xC3,0xC4,0xC5,0xC6,0xC7,0xC8,0xC9,0xCA,0xCB,0xCC,0xCD,0xCE,0xCF, \
 146:.\ff.c        **** 				0xD0,0xD1,0xD2,0xD3,0xD4,0xD5,0xD6,0xD7,0xD8,0xD9,0xDA,0xDB,0xDC,0xDD,0xDE,0xDF, \
ARM GAS  C:\Users\honet\AppData\Local\Temp\cc5ZMQU6.s 			page 4


 147:.\ff.c        **** 				0xE0,0xE1,0xE2,0xE3,0xE4,0xE5,0xE6,0xE7,0xE8,0xE9,0xEA,0xEB,0xEC,0xED,0xEE,0xEF, \
 148:.\ff.c        **** 				0xF0,0xF1,0xF2,0xF3,0xF4,0xF5,0xF6,0xF7,0xF8,0xF9,0xFA,0xFB,0xFC,0xFD,0xFE,0xFF}
 149:.\ff.c        **** 
 150:.\ff.c        **** #elif _CODE_PAGE == 737	/* Greek */
 151:.\ff.c        **** #define _DF1S	0
 152:.\ff.c        **** #define _EXCVT {0x80,0x81,0x82,0x83,0x84,0x85,0x86,0x87,0x88,0x89,0x8A,0x8B,0x8C,0x8D,0x8E,0x8F, \
 153:.\ff.c        **** 				0x90,0x92,0x92,0x93,0x94,0x95,0x96,0x97,0x80,0x81,0x82,0x83,0x84,0x85,0x86,0x87, \
 154:.\ff.c        **** 				0x88,0x89,0x8A,0x8B,0x8C,0x8D,0x8E,0x8F,0x90,0x91,0xAA,0x92,0x93,0x94,0x95,0x96, \
 155:.\ff.c        **** 				0xB0,0xB1,0xB2,0xB3,0xB4,0xB5,0xB6,0xB7,0xB8,0xB9,0xBA,0xBB,0xBC,0xBD,0xBE,0xBF, \
 156:.\ff.c        **** 				0xC0,0xC1,0xC2,0xC3,0xC4,0xC5,0xC6,0xC7,0xC8,0xC9,0xCA,0xCB,0xCC,0xCD,0xCE,0xCF, \
 157:.\ff.c        **** 				0xD0,0xD1,0xD2,0xD3,0xD4,0xD5,0xD6,0xD7,0xD8,0xD9,0xDA,0xDB,0xDC,0xDD,0xDE,0xDF, \
 158:.\ff.c        **** 				0x97,0xEA,0xEB,0xEC,0xE4,0xED,0xEE,0xEF,0xF5,0xF0,0xEA,0xEB,0xEC,0xED,0xEE,0xEF, \
 159:.\ff.c        **** 				0xF0,0xF1,0xF2,0xF3,0xF4,0xF5,0xF6,0xF7,0xF8,0xF9,0xFA,0xFB,0xFC,0xFD,0xFE,0xFF}
 160:.\ff.c        **** 
 161:.\ff.c        **** #elif _CODE_PAGE == 771	/* KBL */
 162:.\ff.c        **** #define _DF1S	0
 163:.\ff.c        **** #define _EXCVT {0x80,0x81,0x82,0x83,0x84,0x85,0x86,0x87,0x88,0x89,0x8A,0x8B,0x8C,0x8D,0x8E,0x8F, \
 164:.\ff.c        **** 				0x90,0x91,0x92,0x93,0x94,0x95,0x96,0x97,0x98,0x99,0x9A,0x9B,0x9C,0x9D,0x9E,0x9F, \
 165:.\ff.c        **** 				0x80,0x81,0x82,0x83,0x84,0x85,0x86,0x87,0x88,0x89,0x8A,0x8B,0x8C,0x8D,0x8E,0x8F, \
 166:.\ff.c        **** 				0xB0,0xB1,0xB2,0xB3,0xB4,0xB5,0xB6,0xB7,0xB8,0xB9,0xBA,0xBB,0xBC,0xBD,0xBE,0xBF, \
 167:.\ff.c        **** 				0xC0,0xC1,0xC2,0xC3,0xC4,0xC5,0xC6,0xC7,0xC8,0xC9,0xCA,0xCB,0xCC,0xCD,0xCE,0xCF, \
 168:.\ff.c        **** 				0xD0,0xD1,0xD2,0xD3,0xD4,0xD5,0xD6,0xD7,0xD8,0xD9,0xDA,0xDB,0xDC,0xDC,0xDE,0xDE, \
 169:.\ff.c        **** 				0x90,0x91,0x92,0x93,0x94,0x95,0x96,0x97,0x98,0x99,0x9A,0x9B,0x9C,0x9D,0x9E,0x9F, \
 170:.\ff.c        **** 				0xF0,0xF0,0xF2,0xF2,0xF4,0xF4,0xF6,0xF6,0xF8,0xF8,0xFA,0xFA,0xFC,0xFC,0xFE,0xFF}
 171:.\ff.c        **** 
 172:.\ff.c        **** #elif _CODE_PAGE == 775	/* Baltic */
 173:.\ff.c        **** #define _DF1S	0
 174:.\ff.c        **** #define _EXCVT {0x80,0x9A,0x91,0xA0,0x8E,0x95,0x8F,0x80,0xAD,0xED,0x8A,0x8A,0xA1,0x8D,0x8E,0x8F, \
 175:.\ff.c        **** 				0x90,0x92,0x92,0xE2,0x99,0x95,0x96,0x97,0x97,0x99,0x9A,0x9D,0x9C,0x9D,0x9E,0x9F, \
 176:.\ff.c        **** 				0xA0,0xA1,0xE0,0xA3,0xA3,0xA5,0xA6,0xA7,0xA8,0xA9,0xAA,0xAB,0xAC,0xAD,0xAE,0xAF, \
 177:.\ff.c        **** 				0xB0,0xB1,0xB2,0xB3,0xB4,0xB5,0xB6,0xB7,0xB8,0xB9,0xBA,0xBB,0xBC,0xBD,0xBE,0xBF, \
 178:.\ff.c        **** 				0xC0,0xC1,0xC2,0xC3,0xC4,0xC5,0xC6,0xC7,0xC8,0xC9,0xCA,0xCB,0xCC,0xCD,0xCE,0xCF, \
 179:.\ff.c        **** 				0xB5,0xB6,0xB7,0xB8,0xBD,0xBE,0xC6,0xC7,0xA5,0xD9,0xDA,0xDB,0xDC,0xDD,0xDE,0xDF, \
 180:.\ff.c        **** 				0xE0,0xE1,0xE2,0xE3,0xE5,0xE5,0xE6,0xE3,0xE8,0xE8,0xEA,0xEA,0xEE,0xED,0xEE,0xEF, \
 181:.\ff.c        **** 				0xF0,0xF1,0xF2,0xF3,0xF4,0xF5,0xF6,0xF7,0xF8,0xF9,0xFA,0xFB,0xFC,0xFD,0xFE,0xFF}
 182:.\ff.c        **** 
 183:.\ff.c        **** #elif _CODE_PAGE == 850	/* Latin 1 */
 184:.\ff.c        **** #define _DF1S	0
 185:.\ff.c        **** #define _EXCVT {0x43,0x55,0x45,0x41,0x41,0x41,0x41,0x43,0x45,0x45,0x45,0x49,0x49,0x49,0x41,0x41, \
 186:.\ff.c        **** 				0x45,0x92,0x92,0x4F,0x4F,0x4F,0x55,0x55,0x59,0x4F,0x55,0x4F,0x9C,0x4F,0x9E,0x9F, \
 187:.\ff.c        **** 				0x41,0x49,0x4F,0x55,0xA5,0xA5,0xA6,0xA7,0xA8,0xA9,0xAA,0xAB,0xAC,0xAD,0xAE,0xAF, \
 188:.\ff.c        **** 				0xB0,0xB1,0xB2,0xB3,0xB4,0x41,0x41,0x41,0xB8,0xB9,0xBA,0xBB,0xBC,0xBD,0xBE,0xBF, \
 189:.\ff.c        **** 				0xC0,0xC1,0xC2,0xC3,0xC4,0xC5,0x41,0x41,0xC8,0xC9,0xCA,0xCB,0xCC,0xCD,0xCE,0xCF, \
 190:.\ff.c        **** 				0xD1,0xD1,0x45,0x45,0x45,0x49,0x49,0x49,0x49,0xD9,0xDA,0xDB,0xDC,0xDD,0x49,0xDF, \
 191:.\ff.c        **** 				0x4F,0xE1,0x4F,0x4F,0x4F,0x4F,0xE6,0xE8,0xE8,0x55,0x55,0x55,0x59,0x59,0xEE,0xEF, \
 192:.\ff.c        **** 				0xF0,0xF1,0xF2,0xF3,0xF4,0xF5,0xF6,0xF7,0xF8,0xF9,0xFA,0xFB,0xFC,0xFD,0xFE,0xFF}
 193:.\ff.c        **** 
 194:.\ff.c        **** #elif _CODE_PAGE == 852	/* Latin 2 */
 195:.\ff.c        **** #define _DF1S	0
 196:.\ff.c        **** #define _EXCVT {0x80,0x9A,0x90,0xB6,0x8E,0xDE,0x8F,0x80,0x9D,0xD3,0x8A,0x8A,0xD7,0x8D,0x8E,0x8F, \
 197:.\ff.c        **** 				0x90,0x91,0x91,0xE2,0x99,0x95,0x95,0x97,0x97,0x99,0x9A,0x9B,0x9B,0x9D,0x9E,0xAC, \
 198:.\ff.c        **** 				0xB5,0xD6,0xE0,0xE9,0xA4,0xA4,0xA6,0xA6,0xA8,0xA8,0xAA,0x8D,0xAC,0xB8,0xAE,0xAF, \
 199:.\ff.c        **** 				0xB0,0xB1,0xB2,0xB3,0xB4,0xB5,0xB6,0xB7,0xB8,0xB9,0xBA,0xBB,0xBC,0xBD,0xBD,0xBF, \
 200:.\ff.c        **** 				0xC0,0xC1,0xC2,0xC3,0xC4,0xC5,0xC6,0xC6,0xC8,0xC9,0xCA,0xCB,0xCC,0xCD,0xCE,0xCF, \
 201:.\ff.c        **** 				0xD1,0xD1,0xD2,0xD3,0xD2,0xD5,0xD6,0xD7,0xB7,0xD9,0xDA,0xDB,0xDC,0xDD,0xDE,0xDF, \
 202:.\ff.c        **** 				0xE0,0xE1,0xE2,0xE3,0xE3,0xD5,0xE6,0xE6,0xE8,0xE9,0xE8,0xEB,0xED,0xED,0xDD,0xEF, \
 203:.\ff.c        **** 				0xF0,0xF1,0xF2,0xF3,0xF4,0xF5,0xF6,0xF7,0xF8,0xF9,0xFA,0xEB,0xFC,0xFC,0xFE,0xFF}
ARM GAS  C:\Users\honet\AppData\Local\Temp\cc5ZMQU6.s 			page 5


 204:.\ff.c        **** 
 205:.\ff.c        **** #elif _CODE_PAGE == 855	/* Cyrillic */
 206:.\ff.c        **** #define _DF1S	0
 207:.\ff.c        **** #define _EXCVT {0x81,0x81,0x83,0x83,0x85,0x85,0x87,0x87,0x89,0x89,0x8B,0x8B,0x8D,0x8D,0x8F,0x8F, \
 208:.\ff.c        **** 				0x91,0x91,0x93,0x93,0x95,0x95,0x97,0x97,0x99,0x99,0x9B,0x9B,0x9D,0x9D,0x9F,0x9F, \
 209:.\ff.c        **** 				0xA1,0xA1,0xA3,0xA3,0xA5,0xA5,0xA7,0xA7,0xA9,0xA9,0xAB,0xAB,0xAD,0xAD,0xAE,0xAF, \
 210:.\ff.c        **** 				0xB0,0xB1,0xB2,0xB3,0xB4,0xB6,0xB6,0xB8,0xB8,0xB9,0xBA,0xBB,0xBC,0xBE,0xBE,0xBF, \
 211:.\ff.c        **** 				0xC0,0xC1,0xC2,0xC3,0xC4,0xC5,0xC7,0xC7,0xC8,0xC9,0xCA,0xCB,0xCC,0xCD,0xCE,0xCF, \
 212:.\ff.c        **** 				0xD1,0xD1,0xD3,0xD3,0xD5,0xD5,0xD7,0xD7,0xDD,0xD9,0xDA,0xDB,0xDC,0xDD,0xE0,0xDF, \
 213:.\ff.c        **** 				0xE0,0xE2,0xE2,0xE4,0xE4,0xE6,0xE6,0xE8,0xE8,0xEA,0xEA,0xEC,0xEC,0xEE,0xEE,0xEF, \
 214:.\ff.c        **** 				0xF0,0xF2,0xF2,0xF4,0xF4,0xF6,0xF6,0xF8,0xF8,0xFA,0xFA,0xFC,0xFC,0xFD,0xFE,0xFF}
 215:.\ff.c        **** 
 216:.\ff.c        **** #elif _CODE_PAGE == 857	/* Turkish */
 217:.\ff.c        **** #define _DF1S	0
 218:.\ff.c        **** #define _EXCVT {0x80,0x9A,0x90,0xB6,0x8E,0xB7,0x8F,0x80,0xD2,0xD3,0xD4,0xD8,0xD7,0x49,0x8E,0x8F, \
 219:.\ff.c        **** 				0x90,0x92,0x92,0xE2,0x99,0xE3,0xEA,0xEB,0x98,0x99,0x9A,0x9D,0x9C,0x9D,0x9E,0x9E, \
 220:.\ff.c        **** 				0xB5,0xD6,0xE0,0xE9,0xA5,0xA5,0xA6,0xA6,0xA8,0xA9,0xAA,0xAB,0xAC,0xAD,0xAE,0xAF, \
 221:.\ff.c        **** 				0xB0,0xB1,0xB2,0xB3,0xB4,0xB5,0xB6,0xB7,0xB8,0xB9,0xBA,0xBB,0xBC,0xBD,0xBE,0xBF, \
 222:.\ff.c        **** 				0xC0,0xC1,0xC2,0xC3,0xC4,0xC5,0xC7,0xC7,0xC8,0xC9,0xCA,0xCB,0xCC,0xCD,0xCE,0xCF, \
 223:.\ff.c        **** 				0xD0,0xD1,0xD2,0xD3,0xD4,0x49,0xD6,0xD7,0xD8,0xD9,0xDA,0xDB,0xDC,0xDD,0xDE,0xDF, \
 224:.\ff.c        **** 				0xE0,0xE1,0xE2,0xE3,0xE5,0xE5,0xE6,0xE7,0xE8,0xE9,0xEA,0xEB,0xDE,0xED,0xEE,0xEF, \
 225:.\ff.c        **** 				0xF0,0xF1,0xF2,0xF3,0xF4,0xF5,0xF6,0xF7,0xF8,0xF9,0xFA,0xFB,0xFC,0xFD,0xFE,0xFF}
 226:.\ff.c        **** 
 227:.\ff.c        **** #elif _CODE_PAGE == 860	/* Portuguese */
 228:.\ff.c        **** #define _DF1S	0
 229:.\ff.c        **** #define _EXCVT {0x80,0x9A,0x90,0x8F,0x8E,0x91,0x86,0x80,0x89,0x89,0x92,0x8B,0x8C,0x98,0x8E,0x8F, \
 230:.\ff.c        **** 				0x90,0x91,0x92,0x8C,0x99,0xA9,0x96,0x9D,0x98,0x99,0x9A,0x9B,0x9C,0x9D,0x9E,0x9F, \
 231:.\ff.c        **** 				0x86,0x8B,0x9F,0x96,0xA5,0xA5,0xA6,0xA7,0xA8,0xA9,0xAA,0xAB,0xAC,0xAD,0xAE,0xAF, \
 232:.\ff.c        **** 				0xB0,0xB1,0xB2,0xB3,0xB4,0xB5,0xB6,0xB7,0xB8,0xB9,0xBA,0xBB,0xBC,0xBD,0xBE,0xBF, \
 233:.\ff.c        **** 				0xC0,0xC1,0xC2,0xC3,0xC4,0xC5,0xC6,0xC7,0xC8,0xC9,0xCA,0xCB,0xCC,0xCD,0xCE,0xCF, \
 234:.\ff.c        **** 				0xD0,0xD1,0xD2,0xD3,0xD4,0xD5,0xD6,0xD7,0xD8,0xD9,0xDA,0xDB,0xDC,0xDD,0xDE,0xDF, \
 235:.\ff.c        **** 				0xE0,0xE1,0xE2,0xE3,0xE4,0xE5,0xE6,0xE7,0xE8,0xE9,0xEA,0xEB,0xEC,0xED,0xEE,0xEF, \
 236:.\ff.c        **** 				0xF0,0xF1,0xF2,0xF3,0xF4,0xF5,0xF6,0xF7,0xF8,0xF9,0xFA,0xFB,0xFC,0xFD,0xFE,0xFF}
 237:.\ff.c        **** 
 238:.\ff.c        **** #elif _CODE_PAGE == 861	/* Icelandic */
 239:.\ff.c        **** #define _DF1S	0
 240:.\ff.c        **** #define _EXCVT {0x80,0x9A,0x90,0x41,0x8E,0x41,0x8F,0x80,0x45,0x45,0x45,0x8B,0x8B,0x8D,0x8E,0x8F, \
 241:.\ff.c        **** 				0x90,0x92,0x92,0x4F,0x99,0x8D,0x55,0x97,0x97,0x99,0x9A,0x9D,0x9C,0x9D,0x9E,0x9F, \
 242:.\ff.c        **** 				0xA4,0xA5,0xA6,0xA7,0xA4,0xA5,0xA6,0xA7,0xA8,0xA9,0xAA,0xAB,0xAC,0xAD,0xAE,0xAF, \
 243:.\ff.c        **** 				0xB0,0xB1,0xB2,0xB3,0xB4,0xB5,0xB6,0xB7,0xB8,0xB9,0xBA,0xBB,0xBC,0xBD,0xBE,0xBF, \
 244:.\ff.c        **** 				0xC0,0xC1,0xC2,0xC3,0xC4,0xC5,0xC6,0xC7,0xC8,0xC9,0xCA,0xCB,0xCC,0xCD,0xCE,0xCF, \
 245:.\ff.c        **** 				0xD0,0xD1,0xD2,0xD3,0xD4,0xD5,0xD6,0xD7,0xD8,0xD9,0xDA,0xDB,0xDC,0xDD,0xDE,0xDF, \
 246:.\ff.c        **** 				0xE0,0xE1,0xE2,0xE3,0xE4,0xE5,0xE6,0xE7,0xE8,0xE9,0xEA,0xEB,0xEC,0xED,0xEE,0xEF, \
 247:.\ff.c        **** 				0xF0,0xF1,0xF2,0xF3,0xF4,0xF5,0xF6,0xF7,0xF8,0xF9,0xFA,0xFB,0xFC,0xFD,0xFE,0xFF}
 248:.\ff.c        **** 
 249:.\ff.c        **** #elif _CODE_PAGE == 862	/* Hebrew */
 250:.\ff.c        **** #define _DF1S	0
 251:.\ff.c        **** #define _EXCVT {0x80,0x81,0x82,0x83,0x84,0x85,0x86,0x87,0x88,0x89,0x8A,0x8B,0x8C,0x8D,0x8E,0x8F, \
 252:.\ff.c        **** 				0x90,0x91,0x92,0x93,0x94,0x95,0x96,0x97,0x98,0x99,0x9A,0x9B,0x9C,0x9D,0x9E,0x9F, \
 253:.\ff.c        **** 				0x41,0x49,0x4F,0x55,0xA5,0xA5,0xA6,0xA7,0xA8,0xA9,0xAA,0xAB,0xAC,0xAD,0xAE,0xAF, \
 254:.\ff.c        **** 				0xB0,0xB1,0xB2,0xB3,0xB4,0xB5,0xB6,0xB7,0xB8,0xB9,0xBA,0xBB,0xBC,0xBD,0xBE,0xBF, \
 255:.\ff.c        **** 				0xC0,0xC1,0xC2,0xC3,0xC4,0xC5,0xC6,0xC7,0xC8,0xC9,0xCA,0xCB,0xCC,0xCD,0xCE,0xCF, \
 256:.\ff.c        **** 				0xD0,0xD1,0xD2,0xD3,0xD4,0xD5,0xD6,0xD7,0xD8,0xD9,0xDA,0xDB,0xDC,0xDD,0xDE,0xDF, \
 257:.\ff.c        **** 				0xE0,0xE1,0xE2,0xE3,0xE4,0xE5,0xE6,0xE7,0xE8,0xE9,0xEA,0xEB,0xEC,0xED,0xEE,0xEF, \
 258:.\ff.c        **** 				0xF0,0xF1,0xF2,0xF3,0xF4,0xF5,0xF6,0xF7,0xF8,0xF9,0xFA,0xFB,0xFC,0xFD,0xFE,0xFF}
 259:.\ff.c        **** 
 260:.\ff.c        **** #elif _CODE_PAGE == 863	/* Canadian-French */
ARM GAS  C:\Users\honet\AppData\Local\Temp\cc5ZMQU6.s 			page 6


 261:.\ff.c        **** #define _DF1S	0
 262:.\ff.c        **** #define _EXCVT {0x43,0x55,0x45,0x41,0x41,0x41,0x86,0x43,0x45,0x45,0x45,0x49,0x49,0x8D,0x41,0x8F, \
 263:.\ff.c        **** 				0x45,0x45,0x45,0x4F,0x45,0x49,0x55,0x55,0x98,0x4F,0x55,0x9B,0x9C,0x55,0x55,0x9F, \
 264:.\ff.c        **** 				0xA0,0xA1,0x4F,0x55,0xA4,0xA5,0xA6,0xA7,0x49,0xA9,0xAA,0xAB,0xAC,0xAD,0xAE,0xAF, \
 265:.\ff.c        **** 				0xB0,0xB1,0xB2,0xB3,0xB4,0xB5,0xB6,0xB7,0xB8,0xB9,0xBA,0xBB,0xBC,0xBD,0xBE,0xBF, \
 266:.\ff.c        **** 				0xC0,0xC1,0xC2,0xC3,0xC4,0xC5,0xC6,0xC7,0xC8,0xC9,0xCA,0xCB,0xCC,0xCD,0xCE,0xCF, \
 267:.\ff.c        **** 				0xD0,0xD1,0xD2,0xD3,0xD4,0xD5,0xD6,0xD7,0xD8,0xD9,0xDA,0xDB,0xDC,0xDD,0xDE,0xDF, \
 268:.\ff.c        **** 				0xE0,0xE1,0xE2,0xE3,0xE4,0xE5,0xE6,0xE7,0xE8,0xE9,0xEA,0xEB,0xEC,0xED,0xEE,0xEF, \
 269:.\ff.c        **** 				0xF0,0xF1,0xF2,0xF3,0xF4,0xF5,0xF6,0xF7,0xF8,0xF9,0xFA,0xFB,0xFC,0xFD,0xFE,0xFF}
 270:.\ff.c        **** 
 271:.\ff.c        **** #elif _CODE_PAGE == 864	/* Arabic */
 272:.\ff.c        **** #define _DF1S	0
 273:.\ff.c        **** #define _EXCVT {0x80,0x9A,0x45,0x41,0x8E,0x41,0x8F,0x80,0x45,0x45,0x45,0x49,0x49,0x49,0x8E,0x8F, \
 274:.\ff.c        **** 				0x90,0x92,0x92,0x4F,0x99,0x4F,0x55,0x55,0x59,0x99,0x9A,0x9B,0x9C,0x9D,0x9E,0x9F, \
 275:.\ff.c        **** 				0x41,0x49,0x4F,0x55,0xA5,0xA5,0xA6,0xA7,0xA8,0xA9,0xAA,0xAB,0xAC,0xAD,0xAE,0xAF, \
 276:.\ff.c        **** 				0xB0,0xB1,0xB2,0xB3,0xB4,0xB5,0xB6,0xB7,0xB8,0xB9,0xBA,0xBB,0xBC,0xBD,0xBE,0xBF, \
 277:.\ff.c        **** 				0xC0,0xC1,0xC2,0xC3,0xC4,0xC5,0xC6,0xC7,0xC8,0xC9,0xCA,0xCB,0xCC,0xCD,0xCE,0xCF, \
 278:.\ff.c        **** 				0xD0,0xD1,0xD2,0xD3,0xD4,0xD5,0xD6,0xD7,0xD8,0xD9,0xDA,0xDB,0xDC,0xDD,0xDE,0xDF, \
 279:.\ff.c        **** 				0xE0,0xE1,0xE2,0xE3,0xE4,0xE5,0xE6,0xE7,0xE8,0xE9,0xEA,0xEB,0xEC,0xED,0xEE,0xEF, \
 280:.\ff.c        **** 				0xF0,0xF1,0xF2,0xF3,0xF4,0xF5,0xF6,0xF7,0xF8,0xF9,0xFA,0xFB,0xFC,0xFD,0xFE,0xFF}
 281:.\ff.c        **** 
 282:.\ff.c        **** #elif _CODE_PAGE == 865	/* Nordic */
 283:.\ff.c        **** #define _DF1S	0
 284:.\ff.c        **** #define _EXCVT {0x80,0x9A,0x90,0x41,0x8E,0x41,0x8F,0x80,0x45,0x45,0x45,0x49,0x49,0x49,0x8E,0x8F, \
 285:.\ff.c        **** 				0x90,0x92,0x92,0x4F,0x99,0x4F,0x55,0x55,0x59,0x99,0x9A,0x9B,0x9C,0x9D,0x9E,0x9F, \
 286:.\ff.c        **** 				0x41,0x49,0x4F,0x55,0xA5,0xA5,0xA6,0xA7,0xA8,0xA9,0xAA,0xAB,0xAC,0xAD,0xAE,0xAF, \
 287:.\ff.c        **** 				0xB0,0xB1,0xB2,0xB3,0xB4,0xB5,0xB6,0xB7,0xB8,0xB9,0xBA,0xBB,0xBC,0xBD,0xBE,0xBF, \
 288:.\ff.c        **** 				0xC0,0xC1,0xC2,0xC3,0xC4,0xC5,0xC6,0xC7,0xC8,0xC9,0xCA,0xCB,0xCC,0xCD,0xCE,0xCF, \
 289:.\ff.c        **** 				0xD0,0xD1,0xD2,0xD3,0xD4,0xD5,0xD6,0xD7,0xD8,0xD9,0xDA,0xDB,0xDC,0xDD,0xDE,0xDF, \
 290:.\ff.c        **** 				0xE0,0xE1,0xE2,0xE3,0xE4,0xE5,0xE6,0xE7,0xE8,0xE9,0xEA,0xEB,0xEC,0xED,0xEE,0xEF, \
 291:.\ff.c        **** 				0xF0,0xF1,0xF2,0xF3,0xF4,0xF5,0xF6,0xF7,0xF8,0xF9,0xFA,0xFB,0xFC,0xFD,0xFE,0xFF}
 292:.\ff.c        **** 
 293:.\ff.c        **** #elif _CODE_PAGE == 866	/* Russian */
 294:.\ff.c        **** #define _DF1S	0
 295:.\ff.c        **** #define _EXCVT {0x80,0x81,0x82,0x83,0x84,0x85,0x86,0x87,0x88,0x89,0x8A,0x8B,0x8C,0x8D,0x8E,0x8F, \
 296:.\ff.c        **** 				0x90,0x91,0x92,0x93,0x94,0x95,0x96,0x97,0x98,0x99,0x9A,0x9B,0x9C,0x9D,0x9E,0x9F, \
 297:.\ff.c        **** 				0x80,0x81,0x82,0x83,0x84,0x85,0x86,0x87,0x88,0x89,0x8A,0x8B,0x8C,0x8D,0x8E,0x8F, \
 298:.\ff.c        **** 				0xB0,0xB1,0xB2,0xB3,0xB4,0xB5,0xB6,0xB7,0xB8,0xB9,0xBA,0xBB,0xBC,0xBD,0xBE,0xBF, \
 299:.\ff.c        **** 				0xC0,0xC1,0xC2,0xC3,0xC4,0xC5,0xC6,0xC7,0xC8,0xC9,0xCA,0xCB,0xCC,0xCD,0xCE,0xCF, \
 300:.\ff.c        **** 				0xD0,0xD1,0xD2,0xD3,0xD4,0xD5,0xD6,0xD7,0xD8,0xD9,0xDA,0xDB,0xDC,0xDD,0xDE,0xDF, \
 301:.\ff.c        **** 				0x90,0x91,0x92,0x93,0x94,0x95,0x96,0x97,0x98,0x99,0x9A,0x9B,0x9C,0x9D,0x9E,0x9F, \
 302:.\ff.c        **** 				0xF0,0xF0,0xF2,0xF2,0xF4,0xF4,0xF6,0xF6,0xF8,0xF9,0xFA,0xFB,0xFC,0xFD,0xFE,0xFF}
 303:.\ff.c        **** 
 304:.\ff.c        **** #elif _CODE_PAGE == 869	/* Greek 2 */
 305:.\ff.c        **** #define _DF1S	0
 306:.\ff.c        **** #define _EXCVT {0x80,0x81,0x82,0x83,0x84,0x85,0x86,0x87,0x88,0x89,0x8A,0x8B,0x8C,0x8D,0x8E,0x8F, \
 307:.\ff.c        **** 				0x90,0x91,0x92,0x93,0x94,0x95,0x96,0x97,0x98,0x99,0x9A,0x86,0x9C,0x8D,0x8F,0x90, \
 308:.\ff.c        **** 				0x91,0x90,0x92,0x95,0xA4,0xA5,0xA6,0xA7,0xA8,0xA9,0xAA,0xAB,0xAC,0xAD,0xAE,0xAF, \
 309:.\ff.c        **** 				0xB0,0xB1,0xB2,0xB3,0xB4,0xB5,0xB6,0xB7,0xB8,0xB9,0xBA,0xBB,0xBC,0xBD,0xBE,0xBF, \
 310:.\ff.c        **** 				0xC0,0xC1,0xC2,0xC3,0xC4,0xC5,0xC6,0xC7,0xC8,0xC9,0xCA,0xCB,0xCC,0xCD,0xCE,0xCF, \
 311:.\ff.c        **** 				0xD0,0xD1,0xD2,0xD3,0xD4,0xD5,0xA4,0xA5,0xA6,0xD9,0xDA,0xDB,0xDC,0xA7,0xA8,0xDF, \
 312:.\ff.c        **** 				0xA9,0xAA,0xAC,0xAD,0xB5,0xB6,0xB7,0xB8,0xBD,0xBE,0xC6,0xC7,0xCF,0xCF,0xD0,0xEF, \
 313:.\ff.c        **** 				0xF0,0xF1,0xD1,0xD2,0xD3,0xF5,0xD4,0xF7,0xF8,0xF9,0xD5,0x96,0x95,0x98,0xFE,0xFF}
 314:.\ff.c        **** 
 315:.\ff.c        **** #elif _CODE_PAGE == 1	/* ASCII (for only non-LFN cfg) */
 316:.\ff.c        **** #if _USE_LFN != 0
 317:.\ff.c        **** #error Cannot enable LFN without valid code page.
ARM GAS  C:\Users\honet\AppData\Local\Temp\cc5ZMQU6.s 			page 7


 318:.\ff.c        **** #endif
 319:.\ff.c        **** #define _DF1S	0
 320:.\ff.c        **** 
 321:.\ff.c        **** #else
 322:.\ff.c        **** #error Unknown code page
 323:.\ff.c        **** 
 324:.\ff.c        **** #endif
 325:.\ff.c        **** 
 326:.\ff.c        **** 
 327:.\ff.c        **** /* Character code support macros */
 328:.\ff.c        **** #define IsUpper(c)	(((c)>='A')&&((c)<='Z'))
 329:.\ff.c        **** #define IsLower(c)	(((c)>='a')&&((c)<='z'))
 330:.\ff.c        **** #define IsDigit(c)	(((c)>='0')&&((c)<='9'))
 331:.\ff.c        **** 
 332:.\ff.c        **** #if _DF1S != 0	/* Code page is DBCS */
 333:.\ff.c        **** 
 334:.\ff.c        **** #ifdef _DF2S	/* Two 1st byte areas */
 335:.\ff.c        **** #define IsDBCS1(c)	(((BYTE)(c) >= _DF1S && (BYTE)(c) <= _DF1E) || ((BYTE)(c) >= _DF2S && (BYTE)(c) 
 336:.\ff.c        **** #else			/* One 1st byte area */
 337:.\ff.c        **** #define IsDBCS1(c)	((BYTE)(c) >= _DF1S && (BYTE)(c) <= _DF1E)
 338:.\ff.c        **** #endif
 339:.\ff.c        **** 
 340:.\ff.c        **** #ifdef _DS3S	/* Three 2nd byte areas */
 341:.\ff.c        **** #define IsDBCS2(c)	(((BYTE)(c) >= _DS1S && (BYTE)(c) <= _DS1E) || ((BYTE)(c) >= _DS2S && (BYTE)(c) 
 342:.\ff.c        **** #else			/* Two 2nd byte areas */
 343:.\ff.c        **** #define IsDBCS2(c)	(((BYTE)(c) >= _DS1S && (BYTE)(c) <= _DS1E) || ((BYTE)(c) >= _DS2S && (BYTE)(c) 
 344:.\ff.c        **** #endif
 345:.\ff.c        **** 
 346:.\ff.c        **** #else			/* Code page is SBCS */
 347:.\ff.c        **** 
 348:.\ff.c        **** #define IsDBCS1(c)	0
 349:.\ff.c        **** #define IsDBCS2(c)	0
 350:.\ff.c        **** 
 351:.\ff.c        **** #endif /* _DF1S */
 352:.\ff.c        **** 
 353:.\ff.c        **** 
 354:.\ff.c        **** /* File attribute bits (internal use) */
 355:.\ff.c        **** #define	AM_VOL		0x08	/* Volume label */
 356:.\ff.c        **** #define AM_LFN		0x0F	/* LFN entry */
 357:.\ff.c        **** #define AM_MASK		0x3F	/* Mask of defined bits */
 358:.\ff.c        **** 
 359:.\ff.c        **** 
 360:.\ff.c        **** /* File access control and file status flags (internal use) */
 361:.\ff.c        **** #define FA_SEEKEND	0x20	/* Seek to end of the file on file open */
 362:.\ff.c        **** #define FA_MODIFIED	0x40	/* File has been modified */
 363:.\ff.c        **** #define FA_DIRTY	0x80	/* FIL.buf[] needs to be written-back */
 364:.\ff.c        **** 
 365:.\ff.c        **** 
 366:.\ff.c        **** /* Name status flags */
 367:.\ff.c        **** #define NSFLAG		11		/* Index of name status byte in fn[] */
 368:.\ff.c        **** #define NS_LOSS		0x01	/* Out of 8.3 format */
 369:.\ff.c        **** #define NS_LFN		0x02	/* Force to create LFN entry */
 370:.\ff.c        **** #define NS_LAST		0x04	/* Last segment */
 371:.\ff.c        **** #define NS_BODY		0x08	/* Lower case flag (body) */
 372:.\ff.c        **** #define NS_EXT		0x10	/* Lower case flag (ext) */
 373:.\ff.c        **** #define NS_DOT		0x20	/* Dot entry */
 374:.\ff.c        **** #define NS_NOLFN	0x40	/* Do not find LFN */
ARM GAS  C:\Users\honet\AppData\Local\Temp\cc5ZMQU6.s 			page 8


 375:.\ff.c        **** #define NS_NONAME	0x80	/* Not followed */
 376:.\ff.c        **** 
 377:.\ff.c        **** 
 378:.\ff.c        **** /* Limits and boundaries (differ from specs but correct for real DOS/Windows) */
 379:.\ff.c        **** #define MAX_FAT12	0xFF5			/* Maximum number of FAT12 clusters */
 380:.\ff.c        **** #define	MAX_FAT16	0xFFF5			/* Maximum number of FAT16 clusters */
 381:.\ff.c        **** #define	MAX_FAT32	0xFFFFFF5		/* Maximum number of FAT32 clusters */
 382:.\ff.c        **** #define	MAX_EXFAT	0x7FFFFFFD		/* Maximum number of exFAT clusters (limited by implementation) */
 383:.\ff.c        **** #define MAX_DIR		0x200000		/* Maximum size of FAT directory */
 384:.\ff.c        **** #define MAX_DIR_EX	0x10000000		/* Maximum size of exFAT directory */
 385:.\ff.c        **** 
 386:.\ff.c        **** 
 387:.\ff.c        **** /* FatFs refers the members in the FAT structures as byte array instead of
 388:.\ff.c        **** / structure members because the structure is not binary compatible between
 389:.\ff.c        **** / different platforms */
 390:.\ff.c        **** 
 391:.\ff.c        **** #define BS_JmpBoot			0		/* x86 jump instruction (3-byte) */
 392:.\ff.c        **** #define BS_OEMName			3		/* OEM name (8-byte) */
 393:.\ff.c        **** #define BPB_BytsPerSec		11		/* Sector size [byte] (WORD) */
 394:.\ff.c        **** #define BPB_SecPerClus		13		/* Cluster size [sector] (BYTE) */
 395:.\ff.c        **** #define BPB_RsvdSecCnt		14		/* Size of reserved area [sector] (WORD) */
 396:.\ff.c        **** #define BPB_NumFATs			16		/* Number of FATs (BYTE) */
 397:.\ff.c        **** #define BPB_RootEntCnt		17		/* Size of root directory area for FAT12/16 [entry] (WORD) */
 398:.\ff.c        **** #define BPB_TotSec16		19		/* Volume size (16-bit) [sector] (WORD) */
 399:.\ff.c        **** #define BPB_Media			21		/* Media descriptor byte (BYTE) */
 400:.\ff.c        **** #define BPB_FATSz16			22		/* FAT size (16-bit) [sector] (WORD) */
 401:.\ff.c        **** #define BPB_SecPerTrk		24		/* Track size for int13h [sector] (WORD) */
 402:.\ff.c        **** #define BPB_NumHeads		26		/* Number of heads for int13h (WORD) */
 403:.\ff.c        **** #define BPB_HiddSec			28		/* Volume offset from top of the drive (DWORD) */
 404:.\ff.c        **** #define BPB_TotSec32		32		/* Volume size (32-bit) [sector] (DWORD) */
 405:.\ff.c        **** #define BS_DrvNum			36		/* Physical drive number for int13h (BYTE) */
 406:.\ff.c        **** #define BS_NTres			37		/* Error flag (BYTE) */
 407:.\ff.c        **** #define BS_BootSig			38		/* Extended boot signature (BYTE) */
 408:.\ff.c        **** #define BS_VolID			39		/* Volume serial number (DWORD) */
 409:.\ff.c        **** #define BS_VolLab			43		/* Volume label string (8-byte) */
 410:.\ff.c        **** #define BS_FilSysType		54		/* File system type string (8-byte) */
 411:.\ff.c        **** #define BS_BootCode			62		/* Boot code (448-byte) */
 412:.\ff.c        **** #define BS_55AA				510		/* Signature word (WORD) */
 413:.\ff.c        **** 
 414:.\ff.c        **** #define BPB_FATSz32			36		/* FAT32: FAT size [sector] (DWORD) */
 415:.\ff.c        **** #define BPB_ExtFlags32		40		/* FAT32: Extended flags (WORD) */
 416:.\ff.c        **** #define BPB_FSVer32			42		/* FAT32: File system version (WORD) */
 417:.\ff.c        **** #define BPB_RootClus32		44		/* FAT32: Root directory cluster (DWORD) */
 418:.\ff.c        **** #define BPB_FSInfo32		48		/* FAT32: Offset of FSINFO sector (WORD) */
 419:.\ff.c        **** #define BPB_BkBootSec32		50		/* FAT32: Offset of backup boot sector (WORD) */
 420:.\ff.c        **** #define BS_DrvNum32			64		/* FAT32: Physical drive number for int13h (BYTE) */
 421:.\ff.c        **** #define BS_NTres32			65		/* FAT32: Error flag (BYTE) */
 422:.\ff.c        **** #define BS_BootSig32		66		/* FAT32: Extended boot signature (BYTE) */
 423:.\ff.c        **** #define BS_VolID32			67		/* FAT32: Volume serial number (DWORD) */
 424:.\ff.c        **** #define BS_VolLab32			71		/* FAT32: Volume label string (8-byte) */
 425:.\ff.c        **** #define BS_FilSysType32		82		/* FAT32: File system type string (8-byte) */
 426:.\ff.c        **** #define BS_BootCode32		90		/* FAT32: Boot code (420-byte) */
 427:.\ff.c        **** 
 428:.\ff.c        **** #define BPB_ZeroedEx		11		/* exFAT: MBZ field (53-byte) */
 429:.\ff.c        **** #define BPB_VolOfsEx		64		/* exFAT: Volume offset from top of the drive [sector] (QWORD) */
 430:.\ff.c        **** #define BPB_TotSecEx		72		/* exFAT: Volume size [sector] (QWORD) */
 431:.\ff.c        **** #define BPB_FatOfsEx		80		/* exFAT: FAT offset from top of the volume [sector] (DWORD) */
ARM GAS  C:\Users\honet\AppData\Local\Temp\cc5ZMQU6.s 			page 9


 432:.\ff.c        **** #define BPB_FatSzEx			84		/* exFAT: FAT size [sector] (DWORD) */
 433:.\ff.c        **** #define BPB_DataOfsEx		88		/* exFAT: Data offset from top of the volume [sector] (DWORD) */
 434:.\ff.c        **** #define BPB_NumClusEx		92		/* exFAT: Number of clusters (DWORD) */
 435:.\ff.c        **** #define BPB_RootClusEx		96		/* exFAT: Root directory cluster (DWORD) */
 436:.\ff.c        **** #define BPB_VolIDEx			100		/* exFAT: Volume serial number (DWORD) */
 437:.\ff.c        **** #define BPB_FSVerEx			104		/* exFAT: File system version (WORD) */
 438:.\ff.c        **** #define BPB_VolFlagEx		106		/* exFAT: Volume flags (BYTE) */
 439:.\ff.c        **** #define BPB_ActFatEx		107		/* exFAT: Active FAT flags (BYTE) */
 440:.\ff.c        **** #define BPB_BytsPerSecEx	108		/* exFAT: Log2 of sector size in byte (BYTE) */
 441:.\ff.c        **** #define BPB_SecPerClusEx	109		/* exFAT: Log2 of cluster size in sector (BYTE) */
 442:.\ff.c        **** #define BPB_NumFATsEx		110		/* exFAT: Number of FATs (BYTE) */
 443:.\ff.c        **** #define BPB_DrvNumEx		111		/* exFAT: Physical drive number for int13h (BYTE) */
 444:.\ff.c        **** #define BPB_PercInUseEx		112		/* exFAT: Percent in use (BYTE) */
 445:.\ff.c        **** #define	BPB_RsvdEx			113		/* exFAT: Reserved (7-byte) */
 446:.\ff.c        **** #define BS_BootCodeEx		120		/* exFAT: Boot code (390-byte) */
 447:.\ff.c        **** 
 448:.\ff.c        **** #define	FSI_LeadSig			0		/* FAT32 FSI: Leading signature (DWORD) */
 449:.\ff.c        **** #define	FSI_StrucSig		484		/* FAT32 FSI: Structure signature (DWORD) */
 450:.\ff.c        **** #define	FSI_Free_Count		488		/* FAT32 FSI: Number of free clusters (DWORD) */
 451:.\ff.c        **** #define	FSI_Nxt_Free		492		/* FAT32 FSI: Last allocated cluster (DWORD) */
 452:.\ff.c        **** 
 453:.\ff.c        **** #define MBR_Table			446		/* MBR: Offset of partition table in the MBR */
 454:.\ff.c        **** #define	SZ_PTE				16		/* MBR: Size of a partition table entry */
 455:.\ff.c        **** #define PTE_Boot			0		/* MBR PTE: Boot indicator */
 456:.\ff.c        **** #define PTE_StHead			1		/* MBR PTE: Start head */
 457:.\ff.c        **** #define PTE_StSec			2		/* MBR PTE: Start sector */
 458:.\ff.c        **** #define PTE_StCyl			3		/* MBR PTE: Start cylinder */
 459:.\ff.c        **** #define PTE_System			4		/* MBR PTE: System ID */
 460:.\ff.c        **** #define PTE_EdHead			5		/* MBR PTE: End head */
 461:.\ff.c        **** #define PTE_EdSec			6		/* MBR PTE: End sector */
 462:.\ff.c        **** #define PTE_EdCyl			7		/* MBR PTE: End cylinder */
 463:.\ff.c        **** #define PTE_StLba			8		/* MBR PTE: Start in LBA */
 464:.\ff.c        **** #define PTE_SizLba			12		/* MBR PTE: Size in LBA */
 465:.\ff.c        **** 
 466:.\ff.c        **** #define	DIR_Name			0		/* Short file name (11-byte) */
 467:.\ff.c        **** #define	DIR_Attr			11		/* Attribute (BYTE) */
 468:.\ff.c        **** #define	DIR_NTres			12		/* Lower case flag (BYTE) */
 469:.\ff.c        **** #define DIR_CrtTime10		13		/* Created time sub-second (BYTE) */
 470:.\ff.c        **** #define	DIR_CrtTime			14		/* Created time (DWORD) */
 471:.\ff.c        **** #define DIR_LstAccDate		18		/* Last accessed date (WORD) */
 472:.\ff.c        **** #define	DIR_FstClusHI		20		/* Higher 16-bit of first cluster (WORD) */
 473:.\ff.c        **** #define	DIR_ModTime			22		/* Modified time (DWORD) */
 474:.\ff.c        **** #define	DIR_FstClusLO		26		/* Lower 16-bit of first cluster (WORD) */
 475:.\ff.c        **** #define	DIR_FileSize		28		/* File size (DWORD) */
 476:.\ff.c        **** #define	LDIR_Ord			0		/* LFN entry order and LLE flag (BYTE) */
 477:.\ff.c        **** #define	LDIR_Attr			11		/* LFN attribute (BYTE) */
 478:.\ff.c        **** #define	LDIR_Type			12		/* LFN type (BYTE) */
 479:.\ff.c        **** #define	LDIR_Chksum			13		/* Checksum of the SFN entry (BYTE) */
 480:.\ff.c        **** #define	LDIR_FstClusLO		26		/* Must be zero (WORD) */
 481:.\ff.c        **** #define	XDIR_Type			0		/* Type of exFAT directory entry (BYTE) */
 482:.\ff.c        **** #define	XDIR_NumLabel		1		/* Number of volume label characters (BYTE) */
 483:.\ff.c        **** #define	XDIR_Label			2		/* Volume label (11-WORD) */
 484:.\ff.c        **** #define	XDIR_CaseSum		4		/* Sum of case conversion table (DWORD) */
 485:.\ff.c        **** #define	XDIR_NumSec			1		/* Number of secondary entries (BYTE) */
 486:.\ff.c        **** #define	XDIR_SetSum			2		/* Sum of the set of directory entries (WORD) */
 487:.\ff.c        **** #define	XDIR_Attr			4		/* File attribute (WORD) */
 488:.\ff.c        **** #define	XDIR_CrtTime		8		/* Created time (DWORD) */
ARM GAS  C:\Users\honet\AppData\Local\Temp\cc5ZMQU6.s 			page 10


 489:.\ff.c        **** #define	XDIR_ModTime		12		/* Modified time (DWORD) */
 490:.\ff.c        **** #define	XDIR_AccTime		16		/* Last accessed time (DWORD) */
 491:.\ff.c        **** #define	XDIR_CrtTime10		20		/* Created time subsecond (BYTE) */
 492:.\ff.c        **** #define	XDIR_ModTime10		21		/* Modified time subsecond (BYTE) */
 493:.\ff.c        **** #define	XDIR_CrtTZ			22		/* Created timezone (BYTE) */
 494:.\ff.c        **** #define	XDIR_ModTZ			23		/* Modified timezone (BYTE) */
 495:.\ff.c        **** #define	XDIR_AccTZ			24		/* Last accessed timezone (BYTE) */
 496:.\ff.c        **** #define	XDIR_GenFlags		33		/* Gneral secondary flags (WORD) */
 497:.\ff.c        **** #define	XDIR_NumName		35		/* Number of file name characters (BYTE) */
 498:.\ff.c        **** #define	XDIR_NameHash		36		/* Hash of file name (WORD) */
 499:.\ff.c        **** #define XDIR_ValidFileSize	40		/* Valid file size (QWORD) */
 500:.\ff.c        **** #define	XDIR_FstClus		52		/* First cluster of the file data (DWORD) */
 501:.\ff.c        **** #define	XDIR_FileSize		56		/* File/Directory size (QWORD) */
 502:.\ff.c        **** 
 503:.\ff.c        **** #define	SZDIRE				32		/* Size of a directory entry */
 504:.\ff.c        **** #define	LLEF				0x40	/* Last long entry flag in LDIR_Ord */
 505:.\ff.c        **** #define	DDEM				0xE5	/* Deleted directory entry mark set to DIR_Name[0] */
 506:.\ff.c        **** #define	RDDEM				0x05	/* Replacement of the character collides with DDEM */
 507:.\ff.c        **** 
 508:.\ff.c        **** 
 509:.\ff.c        **** 
 510:.\ff.c        **** 
 511:.\ff.c        **** 
 512:.\ff.c        **** /*--------------------------------------------------------------------------
 513:.\ff.c        **** 
 514:.\ff.c        ****    Module Private Work Area
 515:.\ff.c        **** 
 516:.\ff.c        **** ---------------------------------------------------------------------------*/
 517:.\ff.c        **** 
 518:.\ff.c        **** /* Remark: Variables here without initial value shall be guaranteed zero/null
 519:.\ff.c        **** /  at start-up. If not, either the linker or start-up routine being used is
 520:.\ff.c        **** /  not compliance with C standard. */
 521:.\ff.c        **** 
 522:.\ff.c        **** #if _VOLUMES < 1 || _VOLUMES > 9
 523:.\ff.c        **** #error Wrong _VOLUMES setting
 524:.\ff.c        **** #endif
 525:.\ff.c        **** static FATFS *FatFs[_VOLUMES];	/* Pointer to the file system objects (logical drives) */
 526:.\ff.c        **** static WORD Fsid;				/* File system mount ID */
 527:.\ff.c        **** 
 528:.\ff.c        **** #if _FS_RPATH != 0 && _VOLUMES >= 2
 529:.\ff.c        **** static BYTE CurrVol;			/* Current drive */
 530:.\ff.c        **** #endif
 531:.\ff.c        **** 
 532:.\ff.c        **** #if _FS_LOCK != 0
 533:.\ff.c        **** static FILESEM Files[_FS_LOCK];	/* Open object lock semaphores */
 534:.\ff.c        **** #endif
 535:.\ff.c        **** 
 536:.\ff.c        **** #if _USE_LFN == 0			/* Non-LFN configuration */
 537:.\ff.c        **** #define	DEF_NAMBUF
 538:.\ff.c        **** #define INIT_NAMBUF(fs)
 539:.\ff.c        **** #define	FREE_NAMBUF()
 540:.\ff.c        **** #else
 541:.\ff.c        **** #if _MAX_LFN < 12 || _MAX_LFN > 255
 542:.\ff.c        **** #error Wrong _MAX_LFN setting
 543:.\ff.c        **** #endif
 544:.\ff.c        **** 
 545:.\ff.c        **** #if _USE_LFN == 1		/* LFN enabled with static working buffer */
ARM GAS  C:\Users\honet\AppData\Local\Temp\cc5ZMQU6.s 			page 11


 546:.\ff.c        **** #if _FS_EXFAT
 547:.\ff.c        **** static BYTE	DirBuf[SZDIRE*19];	/* Directory entry block scratchpad buffer (19 entries in size) */
 548:.\ff.c        **** #endif
 549:.\ff.c        **** static WCHAR LfnBuf[_MAX_LFN+1];	/* LFN enabled with static working buffer */
 550:.\ff.c        **** #define	DEF_NAMBUF
 551:.\ff.c        **** #define INIT_NAMBUF(fs)
 552:.\ff.c        **** #define	FREE_NAMBUF()
 553:.\ff.c        **** 
 554:.\ff.c        **** #elif _USE_LFN == 2 	/* LFN enabled with dynamic working buffer on the stack */
 555:.\ff.c        **** #if _FS_EXFAT
 556:.\ff.c        **** #define	DEF_NAMBUF		WCHAR lbuf[_MAX_LFN+1]; BYTE dbuf[SZDIRE*19];
 557:.\ff.c        **** #define INIT_NAMBUF(fs)	{ (fs)->lfnbuf = lbuf; (fs)->dirbuf = dbuf; }
 558:.\ff.c        **** #define	FREE_NAMBUF()
 559:.\ff.c        **** #else
 560:.\ff.c        **** #define	DEF_NAMBUF		WCHAR lbuf[_MAX_LFN+1];
 561:.\ff.c        **** #define INIT_NAMBUF(fs)	{ (fs)->lfnbuf = lbuf; }
 562:.\ff.c        **** #define	FREE_NAMBUF()
 563:.\ff.c        **** #endif
 564:.\ff.c        **** 
 565:.\ff.c        **** #elif _USE_LFN == 3 	/* LFN enabled with dynamic working buffer on the heap */
 566:.\ff.c        **** #if _FS_EXFAT
 567:.\ff.c        **** #define	DEF_NAMBUF		WCHAR *lfn;
 568:.\ff.c        **** #define INIT_NAMBUF(fs)	{ lfn = ff_memalloc((_MAX_LFN+1)*2 + SZDIRE*19); if (!lfn) LEAVE_FF(fs, FR_
 569:.\ff.c        **** #define	FREE_NAMBUF()	ff_memfree(lfn)
 570:.\ff.c        **** #else
 571:.\ff.c        **** #define	DEF_NAMBUF		WCHAR *lfn;
 572:.\ff.c        **** #define INIT_NAMBUF(fs)	{ lfn = ff_memalloc((_MAX_LFN+1)*2); if (!lfn) LEAVE_FF(fs, FR_NOT_ENOUGH_C
 573:.\ff.c        **** #define	FREE_NAMBUF()	ff_memfree(lfn)
 574:.\ff.c        **** #endif
 575:.\ff.c        **** 
 576:.\ff.c        **** #else
 577:.\ff.c        **** #error Wrong _USE_LFN setting
 578:.\ff.c        **** #endif
 579:.\ff.c        **** #endif
 580:.\ff.c        **** 
 581:.\ff.c        **** #ifdef _EXCVT
 582:.\ff.c        **** static const BYTE ExCvt[] = _EXCVT;	/* Upper conversion table for SBCS extended characters */
 583:.\ff.c        **** #endif
 584:.\ff.c        **** 
 585:.\ff.c        **** 
 586:.\ff.c        **** 
 587:.\ff.c        **** 
 588:.\ff.c        **** 
 589:.\ff.c        **** 
 590:.\ff.c        **** /*--------------------------------------------------------------------------
 591:.\ff.c        **** 
 592:.\ff.c        ****    Module Private Functions
 593:.\ff.c        **** 
 594:.\ff.c        **** ---------------------------------------------------------------------------*/
 595:.\ff.c        **** 
 596:.\ff.c        **** 
 597:.\ff.c        **** /*-----------------------------------------------------------------------*/
 598:.\ff.c        **** /* Load/Store multi-byte word in the FAT structure                       */
 599:.\ff.c        **** /*-----------------------------------------------------------------------*/
 600:.\ff.c        **** 
 601:.\ff.c        **** static
 602:.\ff.c        **** WORD ld_word (const BYTE* ptr)	/*	 Load a 2-byte little-endian word */
ARM GAS  C:\Users\honet\AppData\Local\Temp\cc5ZMQU6.s 			page 12


 603:.\ff.c        **** {
 604:.\ff.c        **** 	WORD rv;
 605:.\ff.c        **** 
 606:.\ff.c        **** 	rv = ptr[1];
 607:.\ff.c        **** 	rv = rv << 8 | ptr[0];
 608:.\ff.c        **** 	return rv;
 609:.\ff.c        **** }
 610:.\ff.c        **** 
 611:.\ff.c        **** static
 612:.\ff.c        **** DWORD ld_dword (const BYTE* ptr)	/* Load a 4-byte little-endian word */
 613:.\ff.c        **** {
 614:.\ff.c        **** 	DWORD rv;
 615:.\ff.c        **** 
 616:.\ff.c        **** 	rv = ptr[3];
 617:.\ff.c        **** 	rv = rv << 8 | ptr[2];
 618:.\ff.c        **** 	rv = rv << 8 | ptr[1];
 619:.\ff.c        **** 	rv = rv << 8 | ptr[0];
 620:.\ff.c        **** 	return rv;
 621:.\ff.c        **** }
 622:.\ff.c        **** 
 623:.\ff.c        **** #if _FS_EXFAT
 624:.\ff.c        **** static
 625:.\ff.c        **** QWORD ld_qword (const BYTE* ptr)	/* Load an 8-byte little-endian word */
 626:.\ff.c        **** {
 627:.\ff.c        **** 	QWORD rv;
 628:.\ff.c        **** 
 629:.\ff.c        **** 	rv = ptr[7];
 630:.\ff.c        **** 	rv = rv << 8 | ptr[6];
 631:.\ff.c        **** 	rv = rv << 8 | ptr[5];
 632:.\ff.c        **** 	rv = rv << 8 | ptr[4];
 633:.\ff.c        **** 	rv = rv << 8 | ptr[3];
 634:.\ff.c        **** 	rv = rv << 8 | ptr[2];
 635:.\ff.c        **** 	rv = rv << 8 | ptr[1];
 636:.\ff.c        **** 	rv = rv << 8 | ptr[0];
 637:.\ff.c        **** 	return rv;
 638:.\ff.c        **** }
 639:.\ff.c        **** #endif
 640:.\ff.c        **** 
 641:.\ff.c        **** #if !_FS_READONLY
 642:.\ff.c        **** static
 643:.\ff.c        **** void st_word (BYTE* ptr, WORD val)	/* Store a 2-byte word in little-endian */
 644:.\ff.c        **** {
 645:.\ff.c        **** 	*ptr++ = (BYTE)val; val >>= 8;
 646:.\ff.c        **** 	*ptr++ = (BYTE)val;
 647:.\ff.c        **** }
 648:.\ff.c        **** 
 649:.\ff.c        **** static
 650:.\ff.c        **** void st_dword (BYTE* ptr, DWORD val)	/* Store a 4-byte word in little-endian */
 651:.\ff.c        **** {
 652:.\ff.c        **** 	*ptr++ = (BYTE)val; val >>= 8;
 653:.\ff.c        **** 	*ptr++ = (BYTE)val; val >>= 8;
 654:.\ff.c        **** 	*ptr++ = (BYTE)val; val >>= 8;
 655:.\ff.c        **** 	*ptr++ = (BYTE)val;
 656:.\ff.c        **** }
 657:.\ff.c        **** 
 658:.\ff.c        **** #if _FS_EXFAT
 659:.\ff.c        **** static
ARM GAS  C:\Users\honet\AppData\Local\Temp\cc5ZMQU6.s 			page 13


 660:.\ff.c        **** void st_qword (BYTE* ptr, QWORD val)	/* Store an 8-byte word in little-endian */
 661:.\ff.c        **** {
 662:.\ff.c        **** 	*ptr++ = (BYTE)val; val >>= 8;
 663:.\ff.c        **** 	*ptr++ = (BYTE)val; val >>= 8;
 664:.\ff.c        **** 	*ptr++ = (BYTE)val; val >>= 8;
 665:.\ff.c        **** 	*ptr++ = (BYTE)val; val >>= 8;
 666:.\ff.c        **** 	*ptr++ = (BYTE)val; val >>= 8;
 667:.\ff.c        **** 	*ptr++ = (BYTE)val; val >>= 8;
 668:.\ff.c        **** 	*ptr++ = (BYTE)val; val >>= 8;
 669:.\ff.c        **** 	*ptr++ = (BYTE)val;
 670:.\ff.c        **** }
 671:.\ff.c        **** #endif
 672:.\ff.c        **** #endif	/* !_FS_READONLY */
 673:.\ff.c        **** 
 674:.\ff.c        **** 
 675:.\ff.c        **** 
 676:.\ff.c        **** /*-----------------------------------------------------------------------*/
 677:.\ff.c        **** /* String functions                                                      */
 678:.\ff.c        **** /*-----------------------------------------------------------------------*/
 679:.\ff.c        **** 
 680:.\ff.c        **** /* Copy memory to memory */
 681:.\ff.c        **** static
 682:.\ff.c        **** void mem_cpy (void* dst, const void* src, UINT cnt) {
 683:.\ff.c        **** 	BYTE *d = (BYTE*)dst;
 684:.\ff.c        **** 	const BYTE *s = (const BYTE*)src;
 685:.\ff.c        **** 
 686:.\ff.c        **** 	if (cnt) {
 687:.\ff.c        **** 		do *d++ = *s++; while (--cnt);
 688:.\ff.c        **** 	}
 689:.\ff.c        **** }
 690:.\ff.c        **** 
 691:.\ff.c        **** /* Fill memory block */
 692:.\ff.c        **** static
 693:.\ff.c        **** void mem_set (void* dst, int val, UINT cnt) {
 694:.\ff.c        **** 	BYTE *d = (BYTE*)dst;
 695:.\ff.c        **** 
 696:.\ff.c        **** 	do *d++ = (BYTE)val; while (--cnt);
 697:.\ff.c        **** }
 698:.\ff.c        **** 
 699:.\ff.c        **** /* Compare memory block */
 700:.\ff.c        **** static
 701:.\ff.c        **** int mem_cmp (const void* dst, const void* src, UINT cnt) {	/* ZR:same, NZ:different */
 702:.\ff.c        **** 	const BYTE *d = (const BYTE *)dst, *s = (const BYTE *)src;
 703:.\ff.c        **** 	int r = 0;
 704:.\ff.c        **** 
 705:.\ff.c        **** 	do {
 706:.\ff.c        **** 		r = *d++ - *s++;
 707:.\ff.c        **** 	} while (--cnt && r == 0);
 708:.\ff.c        **** 
 709:.\ff.c        **** 	return r;
 710:.\ff.c        **** }
 711:.\ff.c        **** 
 712:.\ff.c        **** /* Check if chr is contained in the string */
 713:.\ff.c        **** static
 714:.\ff.c        **** int chk_chr (const char* str, int chr) {	/* NZ:contained, ZR:not contained */
 715:.\ff.c        **** 	while (*str && *str != chr) str++;
 716:.\ff.c        **** 	return *str;
ARM GAS  C:\Users\honet\AppData\Local\Temp\cc5ZMQU6.s 			page 14


 717:.\ff.c        **** }
 718:.\ff.c        **** 
 719:.\ff.c        **** 
 720:.\ff.c        **** 
 721:.\ff.c        **** 
 722:.\ff.c        **** #if _FS_REENTRANT
 723:.\ff.c        **** /*-----------------------------------------------------------------------*/
 724:.\ff.c        **** /* Request/Release grant to access the volume                            */
 725:.\ff.c        **** /*-----------------------------------------------------------------------*/
 726:.\ff.c        **** static
 727:.\ff.c        **** int lock_fs (
 728:.\ff.c        **** 	FATFS* fs		/* File system object */
 729:.\ff.c        **** )
 730:.\ff.c        **** {
 731:.\ff.c        **** 	return ff_req_grant(fs->sobj);
 732:.\ff.c        **** }
 733:.\ff.c        **** 
 734:.\ff.c        **** 
 735:.\ff.c        **** static
 736:.\ff.c        **** void unlock_fs (
 737:.\ff.c        **** 	FATFS* fs,		/* File system object */
 738:.\ff.c        **** 	FRESULT res		/* Result code to be returned */
 739:.\ff.c        **** )
 740:.\ff.c        **** {
 741:.\ff.c        **** 	if (fs && res != FR_NOT_ENABLED && res != FR_INVALID_DRIVE && res != FR_TIMEOUT) {
 742:.\ff.c        **** 		ff_rel_grant(fs->sobj);
 743:.\ff.c        **** 	}
 744:.\ff.c        **** }
 745:.\ff.c        **** 
 746:.\ff.c        **** #endif
 747:.\ff.c        **** 
 748:.\ff.c        **** 
 749:.\ff.c        **** 
 750:.\ff.c        **** #if _FS_LOCK != 0
 751:.\ff.c        **** /*-----------------------------------------------------------------------*/
 752:.\ff.c        **** /* File lock control functions                                           */
 753:.\ff.c        **** /*-----------------------------------------------------------------------*/
 754:.\ff.c        **** 
 755:.\ff.c        **** static
 756:.\ff.c        **** FRESULT chk_lock (	/* Check if the file can be accessed */
 757:.\ff.c        **** 	DIR* dp,		/* Directory object pointing the file to be checked */
 758:.\ff.c        **** 	int acc			/* Desired access type (0:Read, 1:Write, 2:Delete/Rename) */
 759:.\ff.c        **** )
 760:.\ff.c        **** {
 761:.\ff.c        **** 	UINT i, be;
 762:.\ff.c        **** 
 763:.\ff.c        **** 	/* Search file semaphore table */
 764:.\ff.c        **** 	for (i = be = 0; i < _FS_LOCK; i++) {
 765:.\ff.c        **** 		if (Files[i].fs) {	/* Existing entry */
 766:.\ff.c        **** 			if (Files[i].fs == dp->obj.fs &&	 	/* Check if the object matched with an open object */
 767:.\ff.c        **** 				Files[i].clu == dp->obj.sclust &&
 768:.\ff.c        **** 				Files[i].ofs == dp->dptr) break;
 769:.\ff.c        **** 		} else {			/* Blank entry */
 770:.\ff.c        **** 			be = 1;
 771:.\ff.c        **** 		}
 772:.\ff.c        **** 	}
 773:.\ff.c        **** 	if (i == _FS_LOCK) {	/* The object is not opened */
ARM GAS  C:\Users\honet\AppData\Local\Temp\cc5ZMQU6.s 			page 15


 774:.\ff.c        **** 		return (be || acc == 2) ? FR_OK : FR_TOO_MANY_OPEN_FILES;	/* Is there a blank entry for new objec
 775:.\ff.c        **** 	}
 776:.\ff.c        **** 
 777:.\ff.c        **** 	/* The object has been opened. Reject any open against writing file and all write mode open */
 778:.\ff.c        **** 	return (acc || Files[i].ctr == 0x100) ? FR_LOCKED : FR_OK;
 779:.\ff.c        **** }
 780:.\ff.c        **** 
 781:.\ff.c        **** 
 782:.\ff.c        **** static
 783:.\ff.c        **** int enq_lock (void)	/* Check if an entry is available for a new object */
 784:.\ff.c        **** {
 785:.\ff.c        **** 	UINT i;
 786:.\ff.c        **** 
 787:.\ff.c        **** 	for (i = 0; i < _FS_LOCK && Files[i].fs; i++) ;
 788:.\ff.c        **** 	return (i == _FS_LOCK) ? 0 : 1;
 789:.\ff.c        **** }
 790:.\ff.c        **** 
 791:.\ff.c        **** 
 792:.\ff.c        **** static
 793:.\ff.c        **** UINT inc_lock (	/* Increment object open counter and returns its index (0:Internal error) */
 794:.\ff.c        **** 	DIR* dp,	/* Directory object pointing the file to register or increment */
 795:.\ff.c        **** 	int acc		/* Desired access (0:Read, 1:Write, 2:Delete/Rename) */
 796:.\ff.c        **** )
 797:.\ff.c        **** {
 798:.\ff.c        **** 	UINT i;
 799:.\ff.c        **** 
 800:.\ff.c        **** 
 801:.\ff.c        **** 	for (i = 0; i < _FS_LOCK; i++) {	/* Find the object */
 802:.\ff.c        **** 		if (Files[i].fs == dp->obj.fs &&
 803:.\ff.c        **** 			Files[i].clu == dp->obj.sclust &&
 804:.\ff.c        **** 			Files[i].ofs == dp->dptr) break;
 805:.\ff.c        **** 	}
 806:.\ff.c        **** 
 807:.\ff.c        **** 	if (i == _FS_LOCK) {				/* Not opened. Register it as new. */
 808:.\ff.c        **** 		for (i = 0; i < _FS_LOCK && Files[i].fs; i++) ;
 809:.\ff.c        **** 		if (i == _FS_LOCK) return 0;	/* No free entry to register (int err) */
 810:.\ff.c        **** 		Files[i].fs = dp->obj.fs;
 811:.\ff.c        **** 		Files[i].clu = dp->obj.sclust;
 812:.\ff.c        **** 		Files[i].ofs = dp->dptr;
 813:.\ff.c        **** 		Files[i].ctr = 0;
 814:.\ff.c        **** 	}
 815:.\ff.c        **** 
 816:.\ff.c        **** 	if (acc && Files[i].ctr) return 0;	/* Access violation (int err) */
 817:.\ff.c        **** 
 818:.\ff.c        **** 	Files[i].ctr = acc ? 0x100 : Files[i].ctr + 1;	/* Set semaphore value */
 819:.\ff.c        **** 
 820:.\ff.c        **** 	return i + 1;
 821:.\ff.c        **** }
 822:.\ff.c        **** 
 823:.\ff.c        **** 
 824:.\ff.c        **** static
 825:.\ff.c        **** FRESULT dec_lock (	/* Decrement object open counter */
 826:.\ff.c        **** 	UINT i			/* Semaphore index (1..) */
 827:.\ff.c        **** )
 828:.\ff.c        **** {
 829:.\ff.c        **** 	WORD n;
 830:.\ff.c        **** 	FRESULT res;
ARM GAS  C:\Users\honet\AppData\Local\Temp\cc5ZMQU6.s 			page 16


 831:.\ff.c        **** 
 832:.\ff.c        **** 
 833:.\ff.c        **** 	if (--i < _FS_LOCK) {	/* Shift index number origin from 0 */
 834:.\ff.c        **** 		n = Files[i].ctr;
 835:.\ff.c        **** 		if (n == 0x100) n = 0;		/* If write mode open, delete the entry */
 836:.\ff.c        **** 		if (n > 0) n--;				/* Decrement read mode open count */
 837:.\ff.c        **** 		Files[i].ctr = n;
 838:.\ff.c        **** 		if (n == 0) Files[i].fs = 0;	/* Delete the entry if open count gets zero */
 839:.\ff.c        **** 		res = FR_OK;
 840:.\ff.c        **** 	} else {
 841:.\ff.c        **** 		res = FR_INT_ERR;			/* Invalid index nunber */
 842:.\ff.c        **** 	}
 843:.\ff.c        **** 	return res;
 844:.\ff.c        **** }
 845:.\ff.c        **** 
 846:.\ff.c        **** 
 847:.\ff.c        **** static
 848:.\ff.c        **** void clear_lock (	/* Clear lock entries of the volume */
 849:.\ff.c        **** 	FATFS *fs
 850:.\ff.c        **** )
 851:.\ff.c        **** {
 852:.\ff.c        **** 	UINT i;
 853:.\ff.c        **** 
 854:.\ff.c        **** 	for (i = 0; i < _FS_LOCK; i++) {
 855:.\ff.c        **** 		if (Files[i].fs == fs) Files[i].fs = 0;
 856:.\ff.c        **** 	}
 857:.\ff.c        **** }
 858:.\ff.c        **** 
 859:.\ff.c        **** #endif	/* _FS_LOCK != 0 */
 860:.\ff.c        **** 
 861:.\ff.c        **** 
 862:.\ff.c        **** 
 863:.\ff.c        **** /*-----------------------------------------------------------------------*/
 864:.\ff.c        **** /* Move/Flush disk access window in the file system object               */
 865:.\ff.c        **** /*-----------------------------------------------------------------------*/
 866:.\ff.c        **** #if !_FS_READONLY
 867:.\ff.c        **** static
 868:.\ff.c        **** FRESULT sync_window (	/* Returns FR_OK or FR_DISK_ERROR */
  26              		.loc 1 868 0
  27              		.cfi_startproc
  28              		@ args = 0, pretend = 0, frame = 0
  29              		@ frame_needed = 0, uses_anonymous_args = 0
  30              	.LVL0:
  31 0000 F8B5     		push	{r3, r4, r5, r6, r7, lr}
  32              		.cfi_def_cfa_offset 24
  33              		.cfi_offset 3, -24
  34              		.cfi_offset 4, -20
  35              		.cfi_offset 5, -16
  36              		.cfi_offset 6, -12
  37              		.cfi_offset 7, -8
  38              		.cfi_offset 14, -4
 869:.\ff.c        **** 	FATFS* fs			/* File system object */
 870:.\ff.c        **** )
 871:.\ff.c        **** {
 872:.\ff.c        **** 	DWORD wsect;
 873:.\ff.c        **** 	UINT nf;
 874:.\ff.c        **** 	FRESULT res = FR_OK;
ARM GAS  C:\Users\honet\AppData\Local\Temp\cc5ZMQU6.s 			page 17


 875:.\ff.c        **** 
 876:.\ff.c        **** 
 877:.\ff.c        **** 	if (fs->wflag) {	/* Write back the sector if it is dirty */
 878:.\ff.c        **** 		wsect = fs->winsect;	/* Current sector number */
  39              		.loc 1 878 0
  40 0002 C46A     		ldr	r4, [r0, #44]
  41              	.LVL1:
 879:.\ff.c        **** 		if (disk_write(fs->drv, fs->win, wsect, 1) != RES_OK) {
  42              		.loc 1 879 0
  43 0004 00F13007 		add	r7, r0, #48
 868:.\ff.c        **** 	FATFS* fs			/* File system object */
  44              		.loc 1 868 0
  45 0008 0546     		mov	r5, r0
  46              		.loc 1 879 0
  47 000a 2246     		mov	r2, r4
  48 000c 3946     		mov	r1, r7
  49 000e 4078     		ldrb	r0, [r0, #1]	@ zero_extendqisi2
  50              	.LVL2:
  51 0010 0123     		movs	r3, #1
  52 0012 FFF7FEFF 		bl	disk_write
  53              	.LVL3:
  54 0016 B0B9     		cbnz	r0, .L6
 880:.\ff.c        **** 			res = FR_DISK_ERR;
 881:.\ff.c        **** 		} else {
 882:.\ff.c        **** 			fs->wflag = 0;
 883:.\ff.c        **** 			if (wsect - fs->fatbase < fs->fsize) {		/* Is it in the FAT area? */
  55              		.loc 1 883 0
  56 0018 2A6A     		ldr	r2, [r5, #32]
  57 001a AB69     		ldr	r3, [r5, #24]
  58 001c A21A     		subs	r2, r4, r2
  59 001e 9A42     		cmp	r2, r3
 882:.\ff.c        **** 			if (wsect - fs->fatbase < fs->fsize) {		/* Is it in the FAT area? */
  60              		.loc 1 882 0
  61 0020 E870     		strb	r0, [r5, #3]
  62              		.loc 1 883 0
  63 0022 0ED2     		bcs	.L4
 884:.\ff.c        **** 				for (nf = fs->n_fats; nf >= 2; nf--) {	/* Reflect the change to all FAT copies */
  64              		.loc 1 884 0
  65 0024 AE78     		ldrb	r6, [r5, #2]	@ zero_extendqisi2
  66              	.LVL4:
  67 0026 012E     		cmp	r6, #1
  68 0028 01D8     		bhi	.L5
  69 002a 0AE0     		b	.L4
  70              	.L12:
  71 002c AB69     		ldr	r3, [r5, #24]
  72              	.L5:
 885:.\ff.c        **** 					wsect += fs->fsize;
  73              		.loc 1 885 0
  74 002e 1C44     		add	r4, r4, r3
  75              	.LVL5:
 884:.\ff.c        **** 				for (nf = fs->n_fats; nf >= 2; nf--) {	/* Reflect the change to all FAT copies */
  76              		.loc 1 884 0
  77 0030 013E     		subs	r6, r6, #1
  78              	.LVL6:
 886:.\ff.c        **** 					disk_write(fs->drv, fs->win, wsect, 1);
  79              		.loc 1 886 0
  80 0032 2246     		mov	r2, r4
ARM GAS  C:\Users\honet\AppData\Local\Temp\cc5ZMQU6.s 			page 18


  81 0034 6878     		ldrb	r0, [r5, #1]	@ zero_extendqisi2
  82 0036 3946     		mov	r1, r7
  83 0038 0123     		movs	r3, #1
  84 003a FFF7FEFF 		bl	disk_write
  85              	.LVL7:
 884:.\ff.c        **** 				for (nf = fs->n_fats; nf >= 2; nf--) {	/* Reflect the change to all FAT copies */
  86              		.loc 1 884 0
  87 003e 012E     		cmp	r6, #1
  88 0040 F4D1     		bne	.L12
  89              	.LVL8:
  90              	.L4:
 874:.\ff.c        **** 
  91              		.loc 1 874 0
  92 0042 0020     		movs	r0, #0
  93 0044 F8BD     		pop	{r3, r4, r5, r6, r7, pc}
  94              	.LVL9:
  95              	.L6:
 880:.\ff.c        **** 		} else {
  96              		.loc 1 880 0
  97 0046 0120     		movs	r0, #1
  98              	.LVL10:
 887:.\ff.c        **** 				}
 888:.\ff.c        **** 			}
 889:.\ff.c        **** 		}
 890:.\ff.c        **** 	}
 891:.\ff.c        **** 	return res;
 892:.\ff.c        **** }
  99              		.loc 1 892 0
 100 0048 F8BD     		pop	{r3, r4, r5, r6, r7, pc}
 101              		.cfi_endproc
 102              	.LFE60:
 103              		.size	sync_window.part.5, .-sync_window.part.5
 104 004a 00BF     		.section	.text.check_fs,"ax",%progbits
 105              		.align	2
 106              		.thumb
 107              		.thumb_func
 108              		.type	check_fs, %function
 109              	check_fs:
 110              	.LFB29:
 893:.\ff.c        **** #endif
 894:.\ff.c        **** 
 895:.\ff.c        **** 
 896:.\ff.c        **** static
 897:.\ff.c        **** FRESULT move_window (	/* Returns FR_OK or FR_DISK_ERROR */
 898:.\ff.c        **** 	FATFS* fs,			/* File system object */
 899:.\ff.c        **** 	DWORD sector		/* Sector number to make appearance in the fs->win[] */
 900:.\ff.c        **** )
 901:.\ff.c        **** {
 902:.\ff.c        **** 	FRESULT res = FR_OK;
 903:.\ff.c        **** 
 904:.\ff.c        **** 
 905:.\ff.c        **** 	if (sector != fs->winsect) {	/* Window offset changed? */
 906:.\ff.c        **** #if !_FS_READONLY
 907:.\ff.c        **** 		res = sync_window(fs);		/* Write-back changes */
 908:.\ff.c        **** #endif
 909:.\ff.c        **** 		if (res == FR_OK) {			/* Fill sector window with new data */
 910:.\ff.c        **** 			if (disk_read(fs->drv, fs->win, sector, 1) != RES_OK) {
ARM GAS  C:\Users\honet\AppData\Local\Temp\cc5ZMQU6.s 			page 19


 911:.\ff.c        **** 				sector = 0xFFFFFFFF;	/* Invalidate window if data is not reliable */
 912:.\ff.c        **** 				res = FR_DISK_ERR;
 913:.\ff.c        **** 			}
 914:.\ff.c        **** 			fs->winsect = sector;
 915:.\ff.c        **** 		}
 916:.\ff.c        **** 	}
 917:.\ff.c        **** 	return res;
 918:.\ff.c        **** }
 919:.\ff.c        **** 
 920:.\ff.c        **** 
 921:.\ff.c        **** 
 922:.\ff.c        **** 
 923:.\ff.c        **** #if !_FS_READONLY
 924:.\ff.c        **** /*-----------------------------------------------------------------------*/
 925:.\ff.c        **** /* Synchronize file system and strage device                             */
 926:.\ff.c        **** /*-----------------------------------------------------------------------*/
 927:.\ff.c        **** 
 928:.\ff.c        **** static
 929:.\ff.c        **** FRESULT sync_fs (	/* FR_OK:succeeded, !=0:error */
 930:.\ff.c        **** 	FATFS* fs		/* File system object */
 931:.\ff.c        **** )
 932:.\ff.c        **** {
 933:.\ff.c        **** 	FRESULT res;
 934:.\ff.c        **** 
 935:.\ff.c        **** 
 936:.\ff.c        **** 	res = sync_window(fs);
 937:.\ff.c        **** 	if (res == FR_OK) {
 938:.\ff.c        **** 		/* Update FSInfo sector if needed */
 939:.\ff.c        **** 		if (fs->fs_type == FS_FAT32 && fs->fsi_flag == 1) {
 940:.\ff.c        **** 			/* Create FSInfo structure */
 941:.\ff.c        **** 			mem_set(fs->win, 0, SS(fs));
 942:.\ff.c        **** 			st_word(fs->win + BS_55AA, 0xAA55);
 943:.\ff.c        **** 			st_dword(fs->win + FSI_LeadSig, 0x41615252);
 944:.\ff.c        **** 			st_dword(fs->win + FSI_StrucSig, 0x61417272);
 945:.\ff.c        **** 			st_dword(fs->win + FSI_Free_Count, fs->free_clst);
 946:.\ff.c        **** 			st_dword(fs->win + FSI_Nxt_Free, fs->last_clst);
 947:.\ff.c        **** 			/* Write it into the FSInfo sector */
 948:.\ff.c        **** 			fs->winsect = fs->volbase + 1;
 949:.\ff.c        **** 			disk_write(fs->drv, fs->win, fs->winsect, 1);
 950:.\ff.c        **** 			fs->fsi_flag = 0;
 951:.\ff.c        **** 		}
 952:.\ff.c        **** 		/* Make sure that no pending write process in the physical drive */
 953:.\ff.c        **** 		if (disk_ioctl(fs->drv, CTRL_SYNC, 0) != RES_OK) res = FR_DISK_ERR;
 954:.\ff.c        **** 	}
 955:.\ff.c        **** 
 956:.\ff.c        **** 	return res;
 957:.\ff.c        **** }
 958:.\ff.c        **** 
 959:.\ff.c        **** #endif
 960:.\ff.c        **** 
 961:.\ff.c        **** 
 962:.\ff.c        **** 
 963:.\ff.c        **** /*-----------------------------------------------------------------------*/
 964:.\ff.c        **** /* Get sector# from cluster#                                             */
 965:.\ff.c        **** /*-----------------------------------------------------------------------*/
 966:.\ff.c        **** 
 967:.\ff.c        **** static
ARM GAS  C:\Users\honet\AppData\Local\Temp\cc5ZMQU6.s 			page 20


 968:.\ff.c        **** DWORD clust2sect (	/* !=0:Sector number, 0:Failed (invalid cluster#) */
 969:.\ff.c        **** 	FATFS* fs,		/* File system object */
 970:.\ff.c        **** 	DWORD clst		/* Cluster# to be converted */
 971:.\ff.c        **** )
 972:.\ff.c        **** {
 973:.\ff.c        **** 	clst -= 2;
 974:.\ff.c        **** 	if (clst >= fs->n_fatent - 2) return 0;		/* Invalid cluster# */
 975:.\ff.c        **** 	return clst * fs->csize + fs->database;
 976:.\ff.c        **** }
 977:.\ff.c        **** 
 978:.\ff.c        **** 
 979:.\ff.c        **** 
 980:.\ff.c        **** 
 981:.\ff.c        **** /*-----------------------------------------------------------------------*/
 982:.\ff.c        **** /* FAT access - Read value of a FAT entry                                */
 983:.\ff.c        **** /*-----------------------------------------------------------------------*/
 984:.\ff.c        **** 
 985:.\ff.c        **** static
 986:.\ff.c        **** DWORD get_fat (	/* 0xFFFFFFFF:Disk error, 1:Internal error, 2..0x7FFFFFFF:Cluster status */
 987:.\ff.c        **** 	_FDID* obj,	/* Corresponding object */
 988:.\ff.c        **** 	DWORD clst	/* Cluster number to get the value */
 989:.\ff.c        **** )
 990:.\ff.c        **** {
 991:.\ff.c        **** 	UINT wc, bc;
 992:.\ff.c        **** 	DWORD val;
 993:.\ff.c        **** 	FATFS *fs = obj->fs;
 994:.\ff.c        **** 
 995:.\ff.c        **** 
 996:.\ff.c        **** 	if (clst < 2 || clst >= fs->n_fatent) {	/* Check if in valid range */
 997:.\ff.c        **** 		val = 1;	/* Internal error */
 998:.\ff.c        **** 
 999:.\ff.c        **** 	} else {
1000:.\ff.c        **** 		val = 0xFFFFFFFF;	/* Default value falls on disk error */
1001:.\ff.c        **** 
1002:.\ff.c        **** 		switch (fs->fs_type) {
1003:.\ff.c        **** 		case FS_FAT12 :
1004:.\ff.c        **** 			bc = (UINT)clst; bc += bc / 2;
1005:.\ff.c        **** 			if (move_window(fs, fs->fatbase + (bc / SS(fs))) != FR_OK) break;
1006:.\ff.c        **** 			wc = fs->win[bc++ % SS(fs)];
1007:.\ff.c        **** 			if (move_window(fs, fs->fatbase + (bc / SS(fs))) != FR_OK) break;
1008:.\ff.c        **** 			wc |= fs->win[bc % SS(fs)] << 8;
1009:.\ff.c        **** 			val = (clst & 1) ? (wc >> 4) : (wc & 0xFFF);
1010:.\ff.c        **** 			break;
1011:.\ff.c        **** 
1012:.\ff.c        **** 		case FS_FAT16 :
1013:.\ff.c        **** 			if (move_window(fs, fs->fatbase + (clst / (SS(fs) / 2))) != FR_OK) break;
1014:.\ff.c        **** 			val = ld_word(fs->win + clst * 2 % SS(fs));
1015:.\ff.c        **** 			break;
1016:.\ff.c        **** 
1017:.\ff.c        **** 		case FS_FAT32 :
1018:.\ff.c        **** 			if (move_window(fs, fs->fatbase + (clst / (SS(fs) / 4))) != FR_OK) break;
1019:.\ff.c        **** 			val = ld_dword(fs->win + clst * 4 % SS(fs)) & 0x0FFFFFFF;
1020:.\ff.c        **** 			break;
1021:.\ff.c        **** #if _FS_EXFAT
1022:.\ff.c        **** 		case FS_EXFAT :
1023:.\ff.c        **** 			if (obj->objsize) {
1024:.\ff.c        **** 				DWORD cofs = clst - obj->sclust;	/* Offset from start cluster */
ARM GAS  C:\Users\honet\AppData\Local\Temp\cc5ZMQU6.s 			page 21


1025:.\ff.c        **** 				DWORD clen = (DWORD)((obj->objsize - 1) / SS(fs)) / fs->csize;	/* Number of clusters - 1 */
1026:.\ff.c        **** 
1027:.\ff.c        **** 				if (obj->stat == 2) {	/* Is there no valid chain on the FAT? */
1028:.\ff.c        **** 					if (cofs <= clen) {
1029:.\ff.c        **** 						val = (cofs == clen) ? 0x7FFFFFFF : clst + 1;	/* Generate the value */
1030:.\ff.c        **** 						break;
1031:.\ff.c        **** 					}
1032:.\ff.c        **** 				}
1033:.\ff.c        **** 				if (obj->stat == 3 && cofs < obj->n_cont) {	/* Is it in the contiguous part? */
1034:.\ff.c        **** 					val = clst + 1; 	/* Generate the value */
1035:.\ff.c        **** 					break;
1036:.\ff.c        **** 				}
1037:.\ff.c        **** 				if (obj->stat != 2) {	/* Get value from FAT if FAT chain is valid */
1038:.\ff.c        **** 					if (move_window(fs, fs->fatbase + (clst / (SS(fs) / 4))) != FR_OK) break;
1039:.\ff.c        **** 					val = ld_dword(fs->win + clst * 4 % SS(fs)) & 0x7FFFFFFF;
1040:.\ff.c        **** 					break;
1041:.\ff.c        **** 				}
1042:.\ff.c        **** 			}
1043:.\ff.c        **** 			/* go next */
1044:.\ff.c        **** #endif
1045:.\ff.c        **** 		default:
1046:.\ff.c        **** 			val = 1;	/* Internal error */
1047:.\ff.c        **** 		}
1048:.\ff.c        **** 	}
1049:.\ff.c        **** 
1050:.\ff.c        **** 	return val;
1051:.\ff.c        **** }
1052:.\ff.c        **** 
1053:.\ff.c        **** 
1054:.\ff.c        **** 
1055:.\ff.c        **** 
1056:.\ff.c        **** #if !_FS_READONLY
1057:.\ff.c        **** /*-----------------------------------------------------------------------*/
1058:.\ff.c        **** /* FAT access - Change value of a FAT entry                              */
1059:.\ff.c        **** /*-----------------------------------------------------------------------*/
1060:.\ff.c        **** 
1061:.\ff.c        **** static
1062:.\ff.c        **** FRESULT put_fat (	/* FR_OK(0):succeeded, !=0:error */
1063:.\ff.c        **** 	FATFS* fs,		/* Corresponding file system object */
1064:.\ff.c        **** 	DWORD clst,		/* FAT index number (cluster number) to be changed */
1065:.\ff.c        **** 	DWORD val		/* New value to be set to the entry */
1066:.\ff.c        **** )
1067:.\ff.c        **** {
1068:.\ff.c        **** 	UINT bc;
1069:.\ff.c        **** 	BYTE *p;
1070:.\ff.c        **** 	FRESULT res = FR_INT_ERR;
1071:.\ff.c        **** 
1072:.\ff.c        **** 
1073:.\ff.c        **** 	if (clst >= 2 && clst < fs->n_fatent) {	/* Check if in valid range */
1074:.\ff.c        **** 		switch (fs->fs_type) {
1075:.\ff.c        **** 		case FS_FAT12 :	/* Bitfield items */
1076:.\ff.c        **** 			bc = (UINT)clst; bc += bc / 2;
1077:.\ff.c        **** 			res = move_window(fs, fs->fatbase + (bc / SS(fs)));
1078:.\ff.c        **** 			if (res != FR_OK) break;
1079:.\ff.c        **** 			p = fs->win + bc++ % SS(fs);
1080:.\ff.c        **** 			*p = (clst & 1) ? ((*p & 0x0F) | ((BYTE)val << 4)) : (BYTE)val;
1081:.\ff.c        **** 			fs->wflag = 1;
ARM GAS  C:\Users\honet\AppData\Local\Temp\cc5ZMQU6.s 			page 22


1082:.\ff.c        **** 			res = move_window(fs, fs->fatbase + (bc / SS(fs)));
1083:.\ff.c        **** 			if (res != FR_OK) break;
1084:.\ff.c        **** 			p = fs->win + bc % SS(fs);
1085:.\ff.c        **** 			*p = (clst & 1) ? (BYTE)(val >> 4) : ((*p & 0xF0) | ((BYTE)(val >> 8) & 0x0F));
1086:.\ff.c        **** 			fs->wflag = 1;
1087:.\ff.c        **** 			break;
1088:.\ff.c        **** 
1089:.\ff.c        **** 		case FS_FAT16 :	/* WORD aligned items */
1090:.\ff.c        **** 			res = move_window(fs, fs->fatbase + (clst / (SS(fs) / 2)));
1091:.\ff.c        **** 			if (res != FR_OK) break;
1092:.\ff.c        **** 			st_word(fs->win + clst * 2 % SS(fs), (WORD)val);
1093:.\ff.c        **** 			fs->wflag = 1;
1094:.\ff.c        **** 			break;
1095:.\ff.c        **** 
1096:.\ff.c        **** 		case FS_FAT32 :	/* DWORD aligned items */
1097:.\ff.c        **** #if _FS_EXFAT
1098:.\ff.c        **** 		case FS_EXFAT :
1099:.\ff.c        **** #endif
1100:.\ff.c        **** 			res = move_window(fs, fs->fatbase + (clst / (SS(fs) / 4)));
1101:.\ff.c        **** 			if (res != FR_OK) break;
1102:.\ff.c        **** 			if (!_FS_EXFAT || fs->fs_type != FS_EXFAT) {
1103:.\ff.c        **** 				val = (val & 0x0FFFFFFF) | (ld_dword(fs->win + clst * 4 % SS(fs)) & 0xF0000000);
1104:.\ff.c        **** 			}
1105:.\ff.c        **** 			st_dword(fs->win + clst * 4 % SS(fs), val);
1106:.\ff.c        **** 			fs->wflag = 1;
1107:.\ff.c        **** 			break;
1108:.\ff.c        **** 		}
1109:.\ff.c        **** 	}
1110:.\ff.c        **** 	return res;
1111:.\ff.c        **** }
1112:.\ff.c        **** 
1113:.\ff.c        **** #endif /* !_FS_READONLY */
1114:.\ff.c        **** 
1115:.\ff.c        **** 
1116:.\ff.c        **** 
1117:.\ff.c        **** 
1118:.\ff.c        **** #if _FS_EXFAT && !_FS_READONLY
1119:.\ff.c        **** /*-----------------------------------------------------------------------*/
1120:.\ff.c        **** /* exFAT: Accessing FAT and Allocation Bitmap                            */
1121:.\ff.c        **** /*-----------------------------------------------------------------------*/
1122:.\ff.c        **** 
1123:.\ff.c        **** /*---------------------------------------------*/
1124:.\ff.c        **** /* exFAT: Find a contiguous free cluster block */
1125:.\ff.c        **** /*---------------------------------------------*/
1126:.\ff.c        **** 
1127:.\ff.c        **** static
1128:.\ff.c        **** DWORD find_bitmap (	/* 0:No free cluster, 2..:Free cluster found, 0xFFFFFFFF:Disk error */
1129:.\ff.c        **** 	FATFS* fs,	/* File system object */
1130:.\ff.c        **** 	DWORD clst,	/* Cluster number to scan from */
1131:.\ff.c        **** 	DWORD ncl	/* Number of contiguous clusters to find (1..) */
1132:.\ff.c        **** )
1133:.\ff.c        **** {
1134:.\ff.c        **** 	BYTE bm, bv;
1135:.\ff.c        **** 	UINT i;
1136:.\ff.c        **** 	DWORD val, scl, ctr;
1137:.\ff.c        **** 
1138:.\ff.c        **** 
ARM GAS  C:\Users\honet\AppData\Local\Temp\cc5ZMQU6.s 			page 23


1139:.\ff.c        **** 	clst -= 2;	/* The first bit in the bitmap corresponds to cluster #2 */
1140:.\ff.c        **** 	if (clst >= fs->n_fatent - 2) clst = 0;
1141:.\ff.c        **** 	scl = val = clst; ctr = 0;
1142:.\ff.c        **** 	for (;;) {
1143:.\ff.c        **** 		if (move_window(fs, fs->database + val / 8 / SS(fs)) != FR_OK) return 0xFFFFFFFF;	/* (assuming bi
1144:.\ff.c        **** 		i = val / 8 % SS(fs); bm = 1 << (val % 8);
1145:.\ff.c        **** 		do {
1146:.\ff.c        **** 			do {
1147:.\ff.c        **** 				bv = fs->win[i] & bm; bm <<= 1;		/* Get bit value */
1148:.\ff.c        **** 				if (++val >= fs->n_fatent - 2) {	/* Next cluster (with wrap-around) */
1149:.\ff.c        **** 					val = 0; bm = 0; i = 4096;
1150:.\ff.c        **** 				}
1151:.\ff.c        **** 				if (!bv) {	/* Is it a free cluster? */
1152:.\ff.c        **** 					if (++ctr == ncl) return scl + 2;	/* Check run length */
1153:.\ff.c        **** 				} else {
1154:.\ff.c        **** 					scl = val; ctr = 0;		/* Encountered a live cluster, restart to scan */
1155:.\ff.c        **** 				}
1156:.\ff.c        **** 				if (val == clst) return 0;	/* All cluster scanned? */
1157:.\ff.c        **** 			} while (bm);
1158:.\ff.c        **** 			bm = 1;
1159:.\ff.c        **** 		} while (++i < SS(fs));
1160:.\ff.c        **** 	}
1161:.\ff.c        **** }
1162:.\ff.c        **** 
1163:.\ff.c        **** 
1164:.\ff.c        **** /*------------------------------------*/
1165:.\ff.c        **** /* exFAT: Set/Clear a block of bitmap */
1166:.\ff.c        **** /*------------------------------------*/
1167:.\ff.c        **** 
1168:.\ff.c        **** static
1169:.\ff.c        **** FRESULT change_bitmap (
1170:.\ff.c        **** 	FATFS* fs,	/* File system object */
1171:.\ff.c        **** 	DWORD clst,	/* Cluster number to change from */
1172:.\ff.c        **** 	DWORD ncl,	/* Number of clusters to be changed */
1173:.\ff.c        **** 	int bv		/* bit value to be set (0 or 1) */
1174:.\ff.c        **** )
1175:.\ff.c        **** {
1176:.\ff.c        **** 	BYTE bm;
1177:.\ff.c        **** 	UINT i;
1178:.\ff.c        **** 	DWORD sect;
1179:.\ff.c        **** 
1180:.\ff.c        **** 
1181:.\ff.c        **** 	clst -= 2;	/* The first bit corresponds to cluster #2 */
1182:.\ff.c        **** 	sect = fs->database + clst / 8 / SS(fs);	/* Sector address (assuming bitmap is located top of the 
1183:.\ff.c        **** 	i = clst / 8 % SS(fs);						/* Byte offset in the sector */
1184:.\ff.c        **** 	bm = 1 << (clst % 8);						/* Bit mask in the byte */
1185:.\ff.c        **** 	for (;;) {
1186:.\ff.c        **** 		if (move_window(fs, sect++) != FR_OK) return FR_DISK_ERR;
1187:.\ff.c        **** 		do {
1188:.\ff.c        **** 			do {
1189:.\ff.c        **** 				if (bv == (int)((fs->win[i] & bm) != 0)) return FR_INT_ERR;	/* Is the bit expected value? */
1190:.\ff.c        **** 				fs->win[i] ^= bm;	/* Flip the bit */
1191:.\ff.c        **** 				fs->wflag = 1;
1192:.\ff.c        **** 				if (--ncl == 0) return FR_OK;	/* All bits processed? */
1193:.\ff.c        **** 			} while (bm <<= 1);		/* Next bit */
1194:.\ff.c        **** 			bm = 1;
1195:.\ff.c        **** 		} while (++i < SS(fs));		/* Next byte */
ARM GAS  C:\Users\honet\AppData\Local\Temp\cc5ZMQU6.s 			page 24


1196:.\ff.c        **** 		i = 0;
1197:.\ff.c        **** 	}
1198:.\ff.c        **** }
1199:.\ff.c        **** 
1200:.\ff.c        **** 
1201:.\ff.c        **** /*---------------------------------------------*/
1202:.\ff.c        **** /* Complement contiguous part of the FAT chain */
1203:.\ff.c        **** /*---------------------------------------------*/
1204:.\ff.c        **** 
1205:.\ff.c        **** static
1206:.\ff.c        **** FRESULT fill_fat_chain (
1207:.\ff.c        **** 	_FDID* obj	/* Pointer to the corresponding object */
1208:.\ff.c        **** )
1209:.\ff.c        **** {
1210:.\ff.c        **** 	FRESULT res;
1211:.\ff.c        **** 	DWORD cl, n;
1212:.\ff.c        **** 
1213:.\ff.c        **** 	if (obj->stat == 3) {	/* Has the object been changed 'fragmented'? */
1214:.\ff.c        **** 		for (cl = obj->sclust, n = obj->n_cont; n; cl++, n--) {	/* Create cluster chain on the FAT */
1215:.\ff.c        **** 			res = put_fat(obj->fs, cl, cl + 1);
1216:.\ff.c        **** 			if (res != FR_OK) return res;
1217:.\ff.c        **** 		}
1218:.\ff.c        **** 		obj->stat = 0;	/* Change status 'FAT chain is valid' */
1219:.\ff.c        **** 	}
1220:.\ff.c        **** 	return FR_OK;
1221:.\ff.c        **** }
1222:.\ff.c        **** 
1223:.\ff.c        **** #endif	/* _FS_EXFAT && !_FS_READONLY */
1224:.\ff.c        **** 
1225:.\ff.c        **** 
1226:.\ff.c        **** 
1227:.\ff.c        **** #if !_FS_READONLY
1228:.\ff.c        **** /*-----------------------------------------------------------------------*/
1229:.\ff.c        **** /* FAT handling - Remove a cluster chain                                 */
1230:.\ff.c        **** /*-----------------------------------------------------------------------*/
1231:.\ff.c        **** static
1232:.\ff.c        **** FRESULT remove_chain (	/* FR_OK(0):succeeded, !=0:error */
1233:.\ff.c        **** 	_FDID* obj,			/* Corresponding object */
1234:.\ff.c        **** 	DWORD clst,			/* Cluster to remove a chain from */
1235:.\ff.c        **** 	DWORD pclst			/* Previous cluster of clst (0:an entire chain) */
1236:.\ff.c        **** )
1237:.\ff.c        **** {
1238:.\ff.c        **** 	FRESULT res = FR_OK;
1239:.\ff.c        **** 	DWORD nxt;
1240:.\ff.c        **** 	FATFS *fs = obj->fs;
1241:.\ff.c        **** #if _FS_EXFAT || _USE_TRIM
1242:.\ff.c        **** 	DWORD scl = clst, ecl = clst;
1243:.\ff.c        **** #endif
1244:.\ff.c        **** #if _USE_TRIM
1245:.\ff.c        **** 	DWORD rt[2];
1246:.\ff.c        **** #endif
1247:.\ff.c        **** 
1248:.\ff.c        **** 	if (clst < 2 || clst >= fs->n_fatent) return FR_INT_ERR;	/* Check if in valid range */
1249:.\ff.c        **** 
1250:.\ff.c        **** 	/* Mark the previous cluster 'EOC' on the FAT if it exists */
1251:.\ff.c        **** 	if (pclst && (!_FS_EXFAT || fs->fs_type != FS_EXFAT || obj->stat != 2)) {
1252:.\ff.c        **** 		res = put_fat(fs, pclst, 0xFFFFFFFF);
ARM GAS  C:\Users\honet\AppData\Local\Temp\cc5ZMQU6.s 			page 25


1253:.\ff.c        **** 		if (res != FR_OK) return res;
1254:.\ff.c        **** 	}
1255:.\ff.c        **** 
1256:.\ff.c        **** 	/* Remove the chain */
1257:.\ff.c        **** 	do {
1258:.\ff.c        **** 		nxt = get_fat(obj, clst);			/* Get cluster status */
1259:.\ff.c        **** 		if (nxt == 0) break;				/* Empty cluster? */
1260:.\ff.c        **** 		if (nxt == 1) return FR_INT_ERR;	/* Internal error? */
1261:.\ff.c        **** 		if (nxt == 0xFFFFFFFF) return FR_DISK_ERR;	/* Disk error? */
1262:.\ff.c        **** 		if (!_FS_EXFAT || fs->fs_type != FS_EXFAT) {
1263:.\ff.c        **** 			res = put_fat(fs, clst, 0);		/* Mark the cluster 'free' on the FAT */
1264:.\ff.c        **** 			if (res != FR_OK) return res;
1265:.\ff.c        **** 		}
1266:.\ff.c        **** 		if (fs->free_clst < fs->n_fatent - 2) {	/* Update FSINFO */
1267:.\ff.c        **** 			fs->free_clst++;
1268:.\ff.c        **** 			fs->fsi_flag |= 1;
1269:.\ff.c        **** 		}
1270:.\ff.c        **** #if _FS_EXFAT || _USE_TRIM
1271:.\ff.c        **** 		if (ecl + 1 == nxt) {	/* Is next cluster contiguous? */
1272:.\ff.c        **** 			ecl = nxt;
1273:.\ff.c        **** 		} else {				/* End of contiguous cluster block */ 
1274:.\ff.c        **** #if _FS_EXFAT
1275:.\ff.c        **** 			if (fs->fs_type == FS_EXFAT) {
1276:.\ff.c        **** 				res = change_bitmap(fs, scl, ecl - scl + 1, 0);	/* Mark the cluster block 'free' on the bitmap 
1277:.\ff.c        **** 				if (res != FR_OK) return res;
1278:.\ff.c        **** 			}
1279:.\ff.c        **** #endif
1280:.\ff.c        **** #if _USE_TRIM
1281:.\ff.c        **** 			rt[0] = clust2sect(fs, scl);					/* Start sector */
1282:.\ff.c        **** 			rt[1] = clust2sect(fs, ecl) + fs->csize - 1;	/* End sector */
1283:.\ff.c        **** 			disk_ioctl(fs->drv, CTRL_TRIM, rt);				/* Inform device the block can be erased */
1284:.\ff.c        **** #endif
1285:.\ff.c        **** 			scl = ecl = nxt;
1286:.\ff.c        **** 		}
1287:.\ff.c        **** #endif
1288:.\ff.c        **** 		clst = nxt;					/* Next cluster */
1289:.\ff.c        **** 	} while (clst < fs->n_fatent);	/* Repeat while not the last link */
1290:.\ff.c        **** 
1291:.\ff.c        **** #if _FS_EXFAT
1292:.\ff.c        **** 	if (fs->fs_type == FS_EXFAT) {
1293:.\ff.c        **** 		if (pclst == 0) {	/* Does object have no chain? */
1294:.\ff.c        **** 			obj->stat = 0;		/* Change the object status 'initial' */
1295:.\ff.c        **** 		} else {
1296:.\ff.c        **** 			if (obj->stat == 3 && pclst >= obj->sclust && pclst <= obj->sclust + obj->n_cont) {	/* Did the c
1297:.\ff.c        **** 				obj->stat = 2;	/* Change the object status 'contiguous' */
1298:.\ff.c        **** 			}
1299:.\ff.c        **** 		}
1300:.\ff.c        **** 	}
1301:.\ff.c        **** #endif
1302:.\ff.c        **** 	return FR_OK;
1303:.\ff.c        **** }
1304:.\ff.c        **** 
1305:.\ff.c        **** 
1306:.\ff.c        **** 
1307:.\ff.c        **** 
1308:.\ff.c        **** /*-----------------------------------------------------------------------*/
1309:.\ff.c        **** /* FAT handling - Stretch a chain or Create a new chain                  */
ARM GAS  C:\Users\honet\AppData\Local\Temp\cc5ZMQU6.s 			page 26


1310:.\ff.c        **** /*-----------------------------------------------------------------------*/
1311:.\ff.c        **** static
1312:.\ff.c        **** DWORD create_chain (	/* 0:No free cluster, 1:Internal error, 0xFFFFFFFF:Disk error, >=2:New cluster
1313:.\ff.c        **** 	_FDID* obj,			/* Corresponding object */
1314:.\ff.c        **** 	DWORD clst			/* Cluster# to stretch, 0:Create a new chain */
1315:.\ff.c        **** )
1316:.\ff.c        **** {
1317:.\ff.c        **** 	DWORD cs, ncl, scl;
1318:.\ff.c        **** 	FRESULT res;
1319:.\ff.c        **** 	FATFS *fs = obj->fs;
1320:.\ff.c        **** 
1321:.\ff.c        **** 
1322:.\ff.c        **** 	if (clst == 0) {	/* Create a new chain */
1323:.\ff.c        **** 		scl = fs->last_clst;				/* Get suggested cluster to start from */
1324:.\ff.c        **** 		if (scl == 0 || scl >= fs->n_fatent) scl = 1;
1325:.\ff.c        **** 	}
1326:.\ff.c        **** 	else {				/* Stretch current chain */
1327:.\ff.c        **** 		cs = get_fat(obj, clst);			/* Check the cluster status */
1328:.\ff.c        **** 		if (cs < 2) return 1;				/* Invalid value */
1329:.\ff.c        **** 		if (cs == 0xFFFFFFFF) return cs;	/* A disk error occurred */
1330:.\ff.c        **** 		if (cs < fs->n_fatent) return cs;	/* It is already followed by next cluster */
1331:.\ff.c        **** 		scl = clst;
1332:.\ff.c        **** 	}
1333:.\ff.c        **** 
1334:.\ff.c        **** #if _FS_EXFAT
1335:.\ff.c        **** 	if (fs->fs_type == FS_EXFAT) {	/* On the exFAT volume */
1336:.\ff.c        **** 		ncl = find_bitmap(fs, scl, 1);				/* Find a free cluster */
1337:.\ff.c        **** 		if (ncl == 0 || ncl == 0xFFFFFFFF) return ncl;	/* No free cluster or hard error? */
1338:.\ff.c        **** 		res = change_bitmap(fs, ncl, 1, 1);			/* Mark the cluster 'in use' */
1339:.\ff.c        **** 		if (res == FR_INT_ERR) return 1;
1340:.\ff.c        **** 		if (res == FR_DISK_ERR) return 0xFFFFFFFF;
1341:.\ff.c        **** 		if (clst == 0) {							/* Is it a new chain? */
1342:.\ff.c        **** 			obj->stat = 2;							/* Set status 'contiguous chain' */
1343:.\ff.c        **** 		} else {									/* This is a stretched chain */
1344:.\ff.c        **** 			if (obj->stat == 2 && ncl != scl + 1) {	/* Is the chain got fragmented? */
1345:.\ff.c        **** 				obj->n_cont = scl - obj->sclust;	/* Set size of the contiguous part */
1346:.\ff.c        **** 				obj->stat = 3;						/* Change status 'just fragmented' */
1347:.\ff.c        **** 			}
1348:.\ff.c        **** 		}
1349:.\ff.c        **** 	} else
1350:.\ff.c        **** #endif
1351:.\ff.c        **** 	{	/* On the FAT12/16/32 volume */
1352:.\ff.c        **** 		ncl = scl;	/* Start cluster */
1353:.\ff.c        **** 		for (;;) {
1354:.\ff.c        **** 			ncl++;							/* Next cluster */
1355:.\ff.c        **** 			if (ncl >= fs->n_fatent) {		/* Check wrap-around */
1356:.\ff.c        **** 				ncl = 2;
1357:.\ff.c        **** 				if (ncl > scl) return 0;	/* No free cluster */
1358:.\ff.c        **** 			}
1359:.\ff.c        **** 			cs = get_fat(obj, ncl);			/* Get the cluster status */
1360:.\ff.c        **** 			if (cs == 0) break;				/* Found a free cluster */
1361:.\ff.c        **** 			if (cs == 1 || cs == 0xFFFFFFFF) return cs;	/* An error occurred */
1362:.\ff.c        **** 			if (ncl == scl) return 0;		/* No free cluster */
1363:.\ff.c        **** 		}
1364:.\ff.c        **** 	}
1365:.\ff.c        **** 
1366:.\ff.c        **** 	if (_FS_EXFAT && fs->fs_type == FS_EXFAT && obj->stat == 2) {	/* Is it a contiguous chain? */
ARM GAS  C:\Users\honet\AppData\Local\Temp\cc5ZMQU6.s 			page 27


1367:.\ff.c        **** 		res = FR_OK;						/* FAT does not need to be written */
1368:.\ff.c        **** 	} else {
1369:.\ff.c        **** 		res = put_fat(fs, ncl, 0xFFFFFFFF);	/* Mark the new cluster 'EOC' */
1370:.\ff.c        **** 		if (res == FR_OK && clst) {
1371:.\ff.c        **** 			res = put_fat(fs, clst, ncl);	/* Link it from the previous one if needed */
1372:.\ff.c        **** 		}
1373:.\ff.c        **** 	}
1374:.\ff.c        **** 
1375:.\ff.c        **** 	if (res == FR_OK) {			/* Update FSINFO if function succeeded. */
1376:.\ff.c        **** 		fs->last_clst = ncl;
1377:.\ff.c        **** 		if (fs->free_clst < fs->n_fatent - 2) fs->free_clst--;
1378:.\ff.c        **** 		fs->fsi_flag |= 1;
1379:.\ff.c        **** 	} else {
1380:.\ff.c        **** 		ncl = (res == FR_DISK_ERR) ? 0xFFFFFFFF : 1;	/* Failed. Create error status */
1381:.\ff.c        **** 	}
1382:.\ff.c        **** 
1383:.\ff.c        **** 	return ncl;		/* Return new cluster number or error status */
1384:.\ff.c        **** }
1385:.\ff.c        **** 
1386:.\ff.c        **** #endif /* !_FS_READONLY */
1387:.\ff.c        **** 
1388:.\ff.c        **** 
1389:.\ff.c        **** 
1390:.\ff.c        **** 
1391:.\ff.c        **** #if _USE_FASTSEEK
1392:.\ff.c        **** /*-----------------------------------------------------------------------*/
1393:.\ff.c        **** /* FAT handling - Convert offset into cluster with link map table        */
1394:.\ff.c        **** /*-----------------------------------------------------------------------*/
1395:.\ff.c        **** 
1396:.\ff.c        **** static
1397:.\ff.c        **** DWORD clmt_clust (	/* <2:Error, >=2:Cluster number */
1398:.\ff.c        **** 	FIL* fp,		/* Pointer to the file object */
1399:.\ff.c        **** 	FSIZE_t ofs		/* File offset to be converted to cluster# */
1400:.\ff.c        **** )
1401:.\ff.c        **** {
1402:.\ff.c        **** 	DWORD cl, ncl, *tbl;
1403:.\ff.c        **** 	FATFS *fs = fp->obj.fs;
1404:.\ff.c        **** 
1405:.\ff.c        **** 
1406:.\ff.c        **** 	tbl = fp->cltbl + 1;	/* Top of CLMT */
1407:.\ff.c        **** 	cl = (DWORD)(ofs / SS(fs) / fs->csize);	/* Cluster order from top of the file */
1408:.\ff.c        **** 	for (;;) {
1409:.\ff.c        **** 		ncl = *tbl++;			/* Number of cluters in the fragment */
1410:.\ff.c        **** 		if (ncl == 0) return 0;	/* End of table? (error) */
1411:.\ff.c        **** 		if (cl < ncl) break;	/* In this fragment? */
1412:.\ff.c        **** 		cl -= ncl; tbl++;		/* Next fragment */
1413:.\ff.c        **** 	}
1414:.\ff.c        **** 	return cl + *tbl;	/* Return the cluster number */
1415:.\ff.c        **** }
1416:.\ff.c        **** 
1417:.\ff.c        **** #endif	/* _USE_FASTSEEK */
1418:.\ff.c        **** 
1419:.\ff.c        **** 
1420:.\ff.c        **** 
1421:.\ff.c        **** 
1422:.\ff.c        **** /*-----------------------------------------------------------------------*/
1423:.\ff.c        **** /* Directory handling - Set directory index                              */
ARM GAS  C:\Users\honet\AppData\Local\Temp\cc5ZMQU6.s 			page 28


1424:.\ff.c        **** /*-----------------------------------------------------------------------*/
1425:.\ff.c        **** 
1426:.\ff.c        **** static
1427:.\ff.c        **** FRESULT dir_sdi (	/* FR_OK(0):succeeded, !=0:error */
1428:.\ff.c        **** 	DIR* dp,		/* Pointer to directory object */
1429:.\ff.c        **** 	DWORD ofs		/* Offset of directory table */
1430:.\ff.c        **** )
1431:.\ff.c        **** {
1432:.\ff.c        **** 	DWORD csz, clst;
1433:.\ff.c        **** 	FATFS *fs = dp->obj.fs;
1434:.\ff.c        **** 
1435:.\ff.c        **** 
1436:.\ff.c        **** 	if (ofs >= (DWORD)((_FS_EXFAT && fs->fs_type == FS_EXFAT) ? MAX_DIR_EX : MAX_DIR) || ofs % SZDIRE)
1437:.\ff.c        **** 		return FR_INT_ERR;
1438:.\ff.c        **** 	}
1439:.\ff.c        **** 	dp->dptr = ofs;				/* Set current offset */
1440:.\ff.c        **** 	clst = dp->obj.sclust;		/* Table start cluster (0:root) */
1441:.\ff.c        **** 	if (clst == 0 && fs->fs_type >= FS_FAT32) {	/* Replace cluster# 0 with root cluster# */
1442:.\ff.c        **** 		clst = fs->dirbase;
1443:.\ff.c        **** 		if (_FS_EXFAT) dp->obj.stat = 0;	/* exFAT: Root dir has an FAT chain */
1444:.\ff.c        **** 	}
1445:.\ff.c        **** 
1446:.\ff.c        **** 	if (clst == 0) {	/* Static table (root-directory in FAT12/16) */
1447:.\ff.c        **** 		if (ofs / SZDIRE >= fs->n_rootdir)	return FR_INT_ERR;	/* Is index out of range? */
1448:.\ff.c        **** 		dp->sect = fs->dirbase;
1449:.\ff.c        **** 
1450:.\ff.c        **** 	} else {			/* Dynamic table (sub-directory or root-directory in FAT32+) */
1451:.\ff.c        **** 		csz = (DWORD)fs->csize * SS(fs);	/* Bytes per cluster */
1452:.\ff.c        **** 		while (ofs >= csz) {				/* Follow cluster chain */
1453:.\ff.c        **** 			clst = get_fat(&dp->obj, clst);				/* Get next cluster */
1454:.\ff.c        **** 			if (clst == 0xFFFFFFFF) return FR_DISK_ERR;	/* Disk error */
1455:.\ff.c        **** 			if (clst < 2 || clst >= fs->n_fatent) return FR_INT_ERR;	/* Reached to end of table or internal 
1456:.\ff.c        **** 			ofs -= csz;
1457:.\ff.c        **** 		}
1458:.\ff.c        **** 		dp->sect = clust2sect(fs, clst);
1459:.\ff.c        **** 	}
1460:.\ff.c        **** 	dp->clust = clst;					/* Current cluster# */
1461:.\ff.c        **** 	if (!dp->sect) return FR_INT_ERR;
1462:.\ff.c        **** 	dp->sect += ofs / SS(fs);			/* Sector# of the directory entry */
1463:.\ff.c        **** 	dp->dir = fs->win + (ofs % SS(fs));	/* Pointer to the entry in the win[] */
1464:.\ff.c        **** 
1465:.\ff.c        **** 	return FR_OK;
1466:.\ff.c        **** }
1467:.\ff.c        **** 
1468:.\ff.c        **** 
1469:.\ff.c        **** 
1470:.\ff.c        **** 
1471:.\ff.c        **** /*-----------------------------------------------------------------------*/
1472:.\ff.c        **** /* Directory handling - Move directory table index next                  */
1473:.\ff.c        **** /*-----------------------------------------------------------------------*/
1474:.\ff.c        **** 
1475:.\ff.c        **** static
1476:.\ff.c        **** FRESULT dir_next (	/* FR_OK(0):succeeded, FR_NO_FILE:End of table, FR_DENIED:Could not stretch */
1477:.\ff.c        **** 	DIR* dp,		/* Pointer to the directory object */
1478:.\ff.c        **** 	int stretch		/* 0: Do not stretch table, 1: Stretch table if needed */
1479:.\ff.c        **** )
1480:.\ff.c        **** {
ARM GAS  C:\Users\honet\AppData\Local\Temp\cc5ZMQU6.s 			page 29


1481:.\ff.c        **** 	DWORD ofs, clst;
1482:.\ff.c        **** 	FATFS *fs = dp->obj.fs;
1483:.\ff.c        **** #if !_FS_READONLY
1484:.\ff.c        **** 	UINT n;
1485:.\ff.c        **** #endif
1486:.\ff.c        **** 
1487:.\ff.c        **** 	ofs = dp->dptr + SZDIRE;	/* Next entry */
1488:.\ff.c        **** 	if (!dp->sect || ofs >= (DWORD)((_FS_EXFAT && fs->fs_type == FS_EXFAT) ? MAX_DIR_EX : MAX_DIR)) re
1489:.\ff.c        **** 
1490:.\ff.c        **** 	if (ofs % SS(fs) == 0) {	/* Sector changed? */
1491:.\ff.c        **** 		dp->sect++;				/* Next sector */
1492:.\ff.c        **** 
1493:.\ff.c        **** 		if (!dp->clust) {		/* Static table */
1494:.\ff.c        **** 			if (ofs / SZDIRE >= fs->n_rootdir) {	/* Report EOT if it reached end of static table */
1495:.\ff.c        **** 				dp->sect = 0; return FR_NO_FILE;
1496:.\ff.c        **** 			}
1497:.\ff.c        **** 		}
1498:.\ff.c        **** 		else {					/* Dynamic table */
1499:.\ff.c        **** 			if ((ofs / SS(fs) & (fs->csize - 1)) == 0) {		/* Cluster changed? */
1500:.\ff.c        **** 				clst = get_fat(&dp->obj, dp->clust);			/* Get next cluster */
1501:.\ff.c        **** 				if (clst <= 1) return FR_INT_ERR;				/* Internal error */
1502:.\ff.c        **** 				if (clst == 0xFFFFFFFF) return FR_DISK_ERR;		/* Disk error */
1503:.\ff.c        **** 				if (clst >= fs->n_fatent) {						/* Reached end of dynamic table */
1504:.\ff.c        **** #if !_FS_READONLY
1505:.\ff.c        **** 					if (!stretch) {								/* If no stretch, report EOT */
1506:.\ff.c        **** 						dp->sect = 0; return FR_NO_FILE;
1507:.\ff.c        **** 					}
1508:.\ff.c        **** 					clst = create_chain(&dp->obj, dp->clust);	/* Allocate a cluster */
1509:.\ff.c        **** 					if (clst == 0) return FR_DENIED;			/* No free cluster */
1510:.\ff.c        **** 					if (clst == 1) return FR_INT_ERR;			/* Internal error */
1511:.\ff.c        **** 					if (clst == 0xFFFFFFFF) return FR_DISK_ERR;	/* Disk error */
1512:.\ff.c        **** 					/* Clean-up the stretched table */
1513:.\ff.c        **** 					if (_FS_EXFAT) dp->obj.stat |= 4;			/* The directory needs to be updated */
1514:.\ff.c        **** 					if (sync_window(fs) != FR_OK) return FR_DISK_ERR;	/* Flush disk access window */
1515:.\ff.c        **** 					mem_set(fs->win, 0, SS(fs));				/* Clear window buffer */
1516:.\ff.c        **** 					for (n = 0, fs->winsect = clust2sect(fs, clst); n < fs->csize; n++, fs->winsect++) {	/* Fill t
1517:.\ff.c        **** 						fs->wflag = 1;
1518:.\ff.c        **** 						if (sync_window(fs) != FR_OK) return FR_DISK_ERR;
1519:.\ff.c        **** 					}
1520:.\ff.c        **** 					fs->winsect -= n;							/* Restore window offset */
1521:.\ff.c        **** #else
1522:.\ff.c        **** 					if (!stretch) dp->sect = 0;					/* If no stretch, report EOT (this is to suppress warning) */
1523:.\ff.c        **** 					dp->sect = 0; return FR_NO_FILE;			/* Report EOT */
1524:.\ff.c        **** #endif
1525:.\ff.c        **** 				}
1526:.\ff.c        **** 				dp->clust = clst;		/* Initialize data for new cluster */
1527:.\ff.c        **** 				dp->sect = clust2sect(fs, clst);
1528:.\ff.c        **** 			}
1529:.\ff.c        **** 		}
1530:.\ff.c        **** 	}
1531:.\ff.c        **** 	dp->dptr = ofs;						/* Current entry */
1532:.\ff.c        **** 	dp->dir = fs->win + ofs % SS(fs);	/* Pointer to the entry in the win[] */
1533:.\ff.c        **** 
1534:.\ff.c        **** 	return FR_OK;
1535:.\ff.c        **** }
1536:.\ff.c        **** 
1537:.\ff.c        **** 
ARM GAS  C:\Users\honet\AppData\Local\Temp\cc5ZMQU6.s 			page 30


1538:.\ff.c        **** 
1539:.\ff.c        **** 
1540:.\ff.c        **** #if !_FS_READONLY
1541:.\ff.c        **** /*-----------------------------------------------------------------------*/
1542:.\ff.c        **** /* Directory handling - Reserve a block of directory entries             */
1543:.\ff.c        **** /*-----------------------------------------------------------------------*/
1544:.\ff.c        **** 
1545:.\ff.c        **** static
1546:.\ff.c        **** FRESULT dir_alloc (	/* FR_OK(0):succeeded, !=0:error */
1547:.\ff.c        **** 	DIR* dp,		/* Pointer to the directory object */
1548:.\ff.c        **** 	UINT nent		/* Number of contiguous entries to allocate */
1549:.\ff.c        **** )
1550:.\ff.c        **** {
1551:.\ff.c        **** 	FRESULT res;
1552:.\ff.c        **** 	UINT n;
1553:.\ff.c        **** 	FATFS *fs = dp->obj.fs;
1554:.\ff.c        **** 
1555:.\ff.c        **** 
1556:.\ff.c        **** 	res = dir_sdi(dp, 0);
1557:.\ff.c        **** 	if (res == FR_OK) {
1558:.\ff.c        **** 		n = 0;
1559:.\ff.c        **** 		do {
1560:.\ff.c        **** 			res = move_window(fs, dp->sect);
1561:.\ff.c        **** 			if (res != FR_OK) break;
1562:.\ff.c        **** #if _FS_EXFAT
1563:.\ff.c        **** 			if ((fs->fs_type == FS_EXFAT) ? (int)((dp->dir[XDIR_Type] & 0x80) == 0) : (int)(dp->dir[DIR_Name
1564:.\ff.c        **** #else
1565:.\ff.c        **** 			if (dp->dir[DIR_Name] == DDEM || dp->dir[DIR_Name] == 0) {
1566:.\ff.c        **** #endif
1567:.\ff.c        **** 				if (++n == nent) break;	/* A block of contiguous free entries is found */
1568:.\ff.c        **** 			} else {
1569:.\ff.c        **** 				n = 0;					/* Not a blank entry. Restart to search */
1570:.\ff.c        **** 			}
1571:.\ff.c        **** 			res = dir_next(dp, 1);
1572:.\ff.c        **** 		} while (res == FR_OK);	/* Next entry with table stretch enabled */
1573:.\ff.c        **** 	}
1574:.\ff.c        **** 
1575:.\ff.c        **** 	if (res == FR_NO_FILE) res = FR_DENIED;	/* No directory entry to allocate */
1576:.\ff.c        **** 	return res;
1577:.\ff.c        **** }
1578:.\ff.c        **** 
1579:.\ff.c        **** #endif	/* !_FS_READONLY */
1580:.\ff.c        **** 
1581:.\ff.c        **** 
1582:.\ff.c        **** 
1583:.\ff.c        **** 
1584:.\ff.c        **** /*-----------------------------------------------------------------------*/
1585:.\ff.c        **** /* FAT: Directory handling - Load/Store start cluster number             */
1586:.\ff.c        **** /*-----------------------------------------------------------------------*/
1587:.\ff.c        **** 
1588:.\ff.c        **** static
1589:.\ff.c        **** DWORD ld_clust (	/* Returns the top cluster value of the SFN entry */
1590:.\ff.c        **** 	FATFS* fs,		/* Pointer to the fs object */
1591:.\ff.c        **** 	const BYTE* dir	/* Pointer to the key entry */
1592:.\ff.c        **** )
1593:.\ff.c        **** {
1594:.\ff.c        **** 	DWORD cl;
ARM GAS  C:\Users\honet\AppData\Local\Temp\cc5ZMQU6.s 			page 31


1595:.\ff.c        **** 
1596:.\ff.c        **** 	cl = ld_word(dir + DIR_FstClusLO);
1597:.\ff.c        **** 	if (fs->fs_type == FS_FAT32) {
1598:.\ff.c        **** 		cl |= (DWORD)ld_word(dir + DIR_FstClusHI) << 16;
1599:.\ff.c        **** 	}
1600:.\ff.c        **** 
1601:.\ff.c        **** 	return cl;
1602:.\ff.c        **** }
1603:.\ff.c        **** 
1604:.\ff.c        **** 
1605:.\ff.c        **** #if !_FS_READONLY
1606:.\ff.c        **** static
1607:.\ff.c        **** void st_clust (
1608:.\ff.c        **** 	FATFS* fs,	/* Pointer to the fs object */
1609:.\ff.c        **** 	BYTE* dir,	/* Pointer to the key entry */
1610:.\ff.c        **** 	DWORD cl	/* Value to be set */
1611:.\ff.c        **** )
1612:.\ff.c        **** {
1613:.\ff.c        **** 	st_word(dir + DIR_FstClusLO, (WORD)cl);
1614:.\ff.c        **** 	if (fs->fs_type == FS_FAT32) {
1615:.\ff.c        **** 		st_word(dir + DIR_FstClusHI, (WORD)(cl >> 16));
1616:.\ff.c        **** 	}
1617:.\ff.c        **** }
1618:.\ff.c        **** #endif
1619:.\ff.c        **** 
1620:.\ff.c        **** 
1621:.\ff.c        **** 
1622:.\ff.c        **** #if _USE_LFN != 0
1623:.\ff.c        **** /*------------------------------------------------------------------------*/
1624:.\ff.c        **** /* FAT-LFN: LFN handling                                                  */
1625:.\ff.c        **** /*------------------------------------------------------------------------*/
1626:.\ff.c        **** static
1627:.\ff.c        **** const BYTE LfnOfs[] = {1,3,5,7,9,14,16,18,20,22,24,28,30};	/* Offset of LFN characters in the direc
1628:.\ff.c        **** 
1629:.\ff.c        **** 
1630:.\ff.c        **** /*--------------------------------------------------------*/
1631:.\ff.c        **** /* FAT-LFN: Compare a part of file name with an LFN entry */
1632:.\ff.c        **** /*--------------------------------------------------------*/
1633:.\ff.c        **** static
1634:.\ff.c        **** int cmp_lfn (				/* 1:matched, 0:not matched */
1635:.\ff.c        **** 	const WCHAR* lfnbuf,	/* Pointer to the LFN working buffer to be compared */
1636:.\ff.c        **** 	BYTE* dir				/* Pointer to the directory entry containing the part of LFN */
1637:.\ff.c        **** )
1638:.\ff.c        **** {
1639:.\ff.c        **** 	UINT i, s;
1640:.\ff.c        **** 	WCHAR wc, uc;
1641:.\ff.c        **** 
1642:.\ff.c        **** 
1643:.\ff.c        **** 	if (ld_word(dir + LDIR_FstClusLO) != 0) return 0;	/* Check LDIR_FstClusLO */
1644:.\ff.c        **** 
1645:.\ff.c        **** 	i = ((dir[LDIR_Ord] & 0x3F) - 1) * 13;	/* Offset in the LFN buffer */
1646:.\ff.c        **** 
1647:.\ff.c        **** 	for (wc = 1, s = 0; s < 13; s++) {		/* Process all characters in the entry */
1648:.\ff.c        **** 		uc = ld_word(dir + LfnOfs[s]);		/* Pick an LFN character */
1649:.\ff.c        **** 		if (wc) {
1650:.\ff.c        **** 			if (i >= _MAX_LFN || ff_wtoupper(uc) != ff_wtoupper(lfnbuf[i++])) {	/* Compare it */
1651:.\ff.c        **** 				return 0;					/* Not matched */
ARM GAS  C:\Users\honet\AppData\Local\Temp\cc5ZMQU6.s 			page 32


1652:.\ff.c        **** 			}
1653:.\ff.c        **** 			wc = uc;
1654:.\ff.c        **** 		} else {
1655:.\ff.c        **** 			if (uc != 0xFFFF) return 0;		/* Check filler */
1656:.\ff.c        **** 		}
1657:.\ff.c        **** 	}
1658:.\ff.c        **** 
1659:.\ff.c        **** 	if ((dir[LDIR_Ord] & LLEF) && wc && lfnbuf[i]) return 0;	/* Last segment matched but different len
1660:.\ff.c        **** 
1661:.\ff.c        **** 	return 1;		/* The part of LFN matched */
1662:.\ff.c        **** }
1663:.\ff.c        **** 
1664:.\ff.c        **** 
1665:.\ff.c        **** #if _FS_MINIMIZE <= 1 || _FS_RPATH >= 2 || _USE_LABEL || _FS_EXFAT
1666:.\ff.c        **** /*-----------------------------------------------------*/
1667:.\ff.c        **** /* FAT-LFN: Pick a part of file name from an LFN entry */
1668:.\ff.c        **** /*-----------------------------------------------------*/
1669:.\ff.c        **** static
1670:.\ff.c        **** int pick_lfn (			/* 1:succeeded, 0:buffer overflow or invalid LFN entry */
1671:.\ff.c        **** 	WCHAR* lfnbuf,		/* Pointer to the LFN working buffer */
1672:.\ff.c        **** 	BYTE* dir			/* Pointer to the LFN entry */
1673:.\ff.c        **** )
1674:.\ff.c        **** {
1675:.\ff.c        **** 	UINT i, s;
1676:.\ff.c        **** 	WCHAR wc, uc;
1677:.\ff.c        **** 
1678:.\ff.c        **** 
1679:.\ff.c        **** 	if (ld_word(dir + LDIR_FstClusLO) != 0) return 0;	/* Check LDIR_FstClusLO */
1680:.\ff.c        **** 
1681:.\ff.c        **** 	i = ((dir[LDIR_Ord] & 0x3F) - 1) * 13;	/* Offset in the LFN buffer */
1682:.\ff.c        **** 
1683:.\ff.c        **** 	for (wc = 1, s = 0; s < 13; s++) {		/* Process all characters in the entry */
1684:.\ff.c        **** 		uc = ld_word(dir + LfnOfs[s]);		/* Pick an LFN character */
1685:.\ff.c        **** 		if (wc) {
1686:.\ff.c        **** 			if (i >= _MAX_LFN) return 0;	/* Buffer overflow? */
1687:.\ff.c        **** 			lfnbuf[i++] = wc = uc;			/* Store it */
1688:.\ff.c        **** 		} else {
1689:.\ff.c        **** 			if (uc != 0xFFFF) return 0;		/* Check filler */
1690:.\ff.c        **** 		}
1691:.\ff.c        **** 	}
1692:.\ff.c        **** 
1693:.\ff.c        **** 	if (dir[LDIR_Ord] & LLEF) {				/* Put terminator if it is the last LFN part */
1694:.\ff.c        **** 		if (i >= _MAX_LFN) return 0;		/* Buffer overflow? */
1695:.\ff.c        **** 		lfnbuf[i] = 0;
1696:.\ff.c        **** 	}
1697:.\ff.c        **** 
1698:.\ff.c        **** 	return 1;		/* The part of LFN is valid */
1699:.\ff.c        **** }
1700:.\ff.c        **** #endif
1701:.\ff.c        **** 
1702:.\ff.c        **** 
1703:.\ff.c        **** #if !_FS_READONLY
1704:.\ff.c        **** /*-----------------------------------------*/
1705:.\ff.c        **** /* FAT-LFN: Create an entry of LFN entries */
1706:.\ff.c        **** /*-----------------------------------------*/
1707:.\ff.c        **** static
1708:.\ff.c        **** void put_lfn (
ARM GAS  C:\Users\honet\AppData\Local\Temp\cc5ZMQU6.s 			page 33


1709:.\ff.c        **** 	const WCHAR* lfn,	/* Pointer to the LFN */
1710:.\ff.c        **** 	BYTE* dir,			/* Pointer to the LFN entry to be created */
1711:.\ff.c        **** 	BYTE ord,			/* LFN order (1-20) */
1712:.\ff.c        **** 	BYTE sum			/* Checksum of the corresponding SFN */
1713:.\ff.c        **** )
1714:.\ff.c        **** {
1715:.\ff.c        **** 	UINT i, s;
1716:.\ff.c        **** 	WCHAR wc;
1717:.\ff.c        **** 
1718:.\ff.c        **** 
1719:.\ff.c        **** 	dir[LDIR_Chksum] = sum;			/* Set checksum */
1720:.\ff.c        **** 	dir[LDIR_Attr] = AM_LFN;		/* Set attribute. LFN entry */
1721:.\ff.c        **** 	dir[LDIR_Type] = 0;
1722:.\ff.c        **** 	st_word(dir + LDIR_FstClusLO, 0);
1723:.\ff.c        **** 
1724:.\ff.c        **** 	i = (ord - 1) * 13;				/* Get offset in the LFN working buffer */
1725:.\ff.c        **** 	s = wc = 0;
1726:.\ff.c        **** 	do {
1727:.\ff.c        **** 		if (wc != 0xFFFF) wc = lfn[i++];	/* Get an effective character */
1728:.\ff.c        **** 		st_word(dir + LfnOfs[s], wc);		/* Put it */
1729:.\ff.c        **** 		if (wc == 0) wc = 0xFFFF;		/* Padding characters for left locations */
1730:.\ff.c        **** 	} while (++s < 13);
1731:.\ff.c        **** 	if (wc == 0xFFFF || !lfn[i]) ord |= LLEF;	/* Last LFN part is the start of LFN sequence */
1732:.\ff.c        **** 	dir[LDIR_Ord] = ord;			/* Set the LFN order */
1733:.\ff.c        **** }
1734:.\ff.c        **** 
1735:.\ff.c        **** #endif	/* !_FS_READONLY */
1736:.\ff.c        **** #endif	/* _USE_LFN != 0 */
1737:.\ff.c        **** 
1738:.\ff.c        **** 
1739:.\ff.c        **** 
1740:.\ff.c        **** #if _USE_LFN != 0 && !_FS_READONLY
1741:.\ff.c        **** /*-----------------------------------------------------------------------*/
1742:.\ff.c        **** /* FAT-LFN: Create a Numbered SFN                                        */
1743:.\ff.c        **** /*-----------------------------------------------------------------------*/
1744:.\ff.c        **** 
1745:.\ff.c        **** static
1746:.\ff.c        **** void gen_numname (
1747:.\ff.c        **** 	BYTE* dst,			/* Pointer to the buffer to store numbered SFN */
1748:.\ff.c        **** 	const BYTE* src,	/* Pointer to SFN */
1749:.\ff.c        **** 	const WCHAR* lfn,	/* Pointer to LFN */
1750:.\ff.c        **** 	UINT seq			/* Sequence number */
1751:.\ff.c        **** )
1752:.\ff.c        **** {
1753:.\ff.c        **** 	BYTE ns[8], c;
1754:.\ff.c        **** 	UINT i, j;
1755:.\ff.c        **** 	WCHAR wc;
1756:.\ff.c        **** 	DWORD sr;
1757:.\ff.c        **** 
1758:.\ff.c        **** 
1759:.\ff.c        **** 	mem_cpy(dst, src, 11);
1760:.\ff.c        **** 
1761:.\ff.c        **** 	if (seq > 5) {	/* In case of many collisions, generate a hash number instead of sequential number 
1762:.\ff.c        **** 		sr = seq;
1763:.\ff.c        **** 		while (*lfn) {	/* Create a CRC */
1764:.\ff.c        **** 			wc = *lfn++;
1765:.\ff.c        **** 			for (i = 0; i < 16; i++) {
ARM GAS  C:\Users\honet\AppData\Local\Temp\cc5ZMQU6.s 			page 34


1766:.\ff.c        **** 				sr = (sr << 1) + (wc & 1);
1767:.\ff.c        **** 				wc >>= 1;
1768:.\ff.c        **** 				if (sr & 0x10000) sr ^= 0x11021;
1769:.\ff.c        **** 			}
1770:.\ff.c        **** 		}
1771:.\ff.c        **** 		seq = (UINT)sr;
1772:.\ff.c        **** 	}
1773:.\ff.c        **** 
1774:.\ff.c        **** 	/* itoa (hexdecimal) */
1775:.\ff.c        **** 	i = 7;
1776:.\ff.c        **** 	do {
1777:.\ff.c        **** 		c = (BYTE)((seq % 16) + '0');
1778:.\ff.c        **** 		if (c > '9') c += 7;
1779:.\ff.c        **** 		ns[i--] = c;
1780:.\ff.c        **** 		seq /= 16;
1781:.\ff.c        **** 	} while (seq);
1782:.\ff.c        **** 	ns[i] = '~';
1783:.\ff.c        **** 
1784:.\ff.c        **** 	/* Append the number */
1785:.\ff.c        **** 	for (j = 0; j < i && dst[j] != ' '; j++) {
1786:.\ff.c        **** 		if (IsDBCS1(dst[j])) {
1787:.\ff.c        **** 			if (j == i - 1) break;
1788:.\ff.c        **** 			j++;
1789:.\ff.c        **** 		}
1790:.\ff.c        **** 	}
1791:.\ff.c        **** 	do {
1792:.\ff.c        **** 		dst[j++] = (i < 8) ? ns[i++] : ' ';
1793:.\ff.c        **** 	} while (j < 8);
1794:.\ff.c        **** }
1795:.\ff.c        **** #endif	/* _USE_LFN != 0 && !_FS_READONLY */
1796:.\ff.c        **** 
1797:.\ff.c        **** 
1798:.\ff.c        **** 
1799:.\ff.c        **** #if _USE_LFN != 0
1800:.\ff.c        **** /*-----------------------------------------------------------------------*/
1801:.\ff.c        **** /* FAT-LFN: Calculate checksum of an SFN entry                           */
1802:.\ff.c        **** /*-----------------------------------------------------------------------*/
1803:.\ff.c        **** 
1804:.\ff.c        **** static
1805:.\ff.c        **** BYTE sum_sfn (
1806:.\ff.c        **** 	const BYTE* dir		/* Pointer to the SFN entry */
1807:.\ff.c        **** )
1808:.\ff.c        **** {
1809:.\ff.c        **** 	BYTE sum = 0;
1810:.\ff.c        **** 	UINT n = 11;
1811:.\ff.c        **** 
1812:.\ff.c        **** 	do sum = (sum >> 1) + (sum << 7) + *dir++; while (--n);
1813:.\ff.c        **** 	return sum;
1814:.\ff.c        **** }
1815:.\ff.c        **** 
1816:.\ff.c        **** #endif	/* _USE_LFN != 0 */
1817:.\ff.c        **** 
1818:.\ff.c        **** 
1819:.\ff.c        **** 
1820:.\ff.c        **** #if _FS_EXFAT
1821:.\ff.c        **** /*-----------------------------------------------------------------------*/
1822:.\ff.c        **** /* exFAT: Checksum                                                       */
ARM GAS  C:\Users\honet\AppData\Local\Temp\cc5ZMQU6.s 			page 35


1823:.\ff.c        **** /*-----------------------------------------------------------------------*/
1824:.\ff.c        **** 
1825:.\ff.c        **** static
1826:.\ff.c        **** WORD xdir_sum (			/* Get checksum of the directoly block */
1827:.\ff.c        **** 	const BYTE* dir		/* Directory entry block to be calculated */
1828:.\ff.c        **** )
1829:.\ff.c        **** {
1830:.\ff.c        **** 	UINT i, szblk;
1831:.\ff.c        **** 	WORD sum;
1832:.\ff.c        **** 
1833:.\ff.c        **** 
1834:.\ff.c        **** 	szblk = (dir[XDIR_NumSec] + 1) * SZDIRE;
1835:.\ff.c        **** 	for (i = sum = 0; i < szblk; i++) {
1836:.\ff.c        **** 		if (i == XDIR_SetSum) {	/* Skip sum field */
1837:.\ff.c        **** 			i++;
1838:.\ff.c        **** 		} else {
1839:.\ff.c        **** 			sum = ((sum & 1) ? 0x8000 : 0) + (sum >> 1) + dir[i];
1840:.\ff.c        **** 		}
1841:.\ff.c        **** 	}
1842:.\ff.c        **** 	return sum;
1843:.\ff.c        **** }
1844:.\ff.c        **** 
1845:.\ff.c        **** 
1846:.\ff.c        **** 
1847:.\ff.c        **** static
1848:.\ff.c        **** WORD xname_sum (		/* Get check sum (to be used as hash) of the name */
1849:.\ff.c        **** 	const WCHAR* name	/* File name to be calculated */
1850:.\ff.c        **** )
1851:.\ff.c        **** {
1852:.\ff.c        **** 	WCHAR chr;
1853:.\ff.c        **** 	WORD sum = 0;
1854:.\ff.c        **** 
1855:.\ff.c        **** 
1856:.\ff.c        **** 	while ((chr = *name++) != 0) {
1857:.\ff.c        **** 		chr = ff_wtoupper(chr);		/* File name needs to be ignored case */
1858:.\ff.c        **** 		sum = ((sum & 1) ? 0x8000 : 0) + (sum >> 1) + (chr & 0xFF);
1859:.\ff.c        **** 		sum = ((sum & 1) ? 0x8000 : 0) + (sum >> 1) + (chr >> 8);
1860:.\ff.c        **** 	}
1861:.\ff.c        **** 	return sum;
1862:.\ff.c        **** }
1863:.\ff.c        **** 
1864:.\ff.c        **** 
1865:.\ff.c        **** #if !_FS_READONLY && _USE_MKFS
1866:.\ff.c        **** static
1867:.\ff.c        **** DWORD xsum32 (
1868:.\ff.c        **** 	BYTE  dat,	/* Data to be sumed */
1869:.\ff.c        **** 	DWORD sum	/* Previous value */
1870:.\ff.c        **** )
1871:.\ff.c        **** {
1872:.\ff.c        **** 	sum = ((sum & 1) ? 0x80000000 : 0) + (sum >> 1) + dat;
1873:.\ff.c        **** 	return sum;
1874:.\ff.c        **** }
1875:.\ff.c        **** #endif
1876:.\ff.c        **** 
1877:.\ff.c        **** 
1878:.\ff.c        **** #if _FS_MINIMIZE <= 1 || _FS_RPATH >= 2
1879:.\ff.c        **** /*------------------------------------------------------*/
ARM GAS  C:\Users\honet\AppData\Local\Temp\cc5ZMQU6.s 			page 36


1880:.\ff.c        **** /* exFAT: Get object information from a directory block */
1881:.\ff.c        **** /*------------------------------------------------------*/
1882:.\ff.c        **** 
1883:.\ff.c        **** static
1884:.\ff.c        **** void get_xdir_info (
1885:.\ff.c        **** 	BYTE* dirb,			/* Pointer to the direcotry entry block 85+C0+C1s */
1886:.\ff.c        **** 	FILINFO* fno		/* Buffer to store the extracted file information */
1887:.\ff.c        **** )
1888:.\ff.c        **** {
1889:.\ff.c        **** 	UINT di, si;
1890:.\ff.c        **** 	WCHAR w;
1891:.\ff.c        **** #if !_LFN_UNICODE
1892:.\ff.c        **** 	UINT nc;
1893:.\ff.c        **** #endif
1894:.\ff.c        **** 
1895:.\ff.c        **** 	/* Get file name */
1896:.\ff.c        **** #if _LFN_UNICODE
1897:.\ff.c        **** 	if (dirb[XDIR_NumName] <= _MAX_LFN) {
1898:.\ff.c        **** 		for (si = SZDIRE * 2, di = 0; di < dirb[XDIR_NumName]; si += 2, di++) {
1899:.\ff.c        **** 			if ((si % SZDIRE) == 0) si += 2;	/* Skip entry type field */
1900:.\ff.c        **** 			w = ld_word(dirb + si);				/* Get a character */
1901:.\ff.c        **** 			fno->fname[di] = w;					/* Store it */
1902:.\ff.c        **** 		}
1903:.\ff.c        **** 	} else {
1904:.\ff.c        **** 		di = 0;	/* Buffer overflow and inaccessible object */
1905:.\ff.c        **** 	}
1906:.\ff.c        **** #else
1907:.\ff.c        **** 	for (si = SZDIRE * 2, di = nc = 0; nc < dirb[XDIR_NumName]; si += 2, nc++) {
1908:.\ff.c        **** 		if ((si % SZDIRE) == 0) si += 2;	/* Skip entry type field */
1909:.\ff.c        **** 		w = ld_word(dirb + si);				/* Get a character */
1910:.\ff.c        **** 		w = ff_convert(w, 0);				/* Unicode -> OEM */
1911:.\ff.c        **** 		if (w == 0) { di = 0; break; }		/* Could not be converted and inaccessible object */
1912:.\ff.c        **** 		if (_DF1S && w >= 0x100) {			/* Put 1st byte if it is a DBC (always false at SBCS cfg) */
1913:.\ff.c        **** 			fno->fname[di++] = (char)(w >> 8);
1914:.\ff.c        **** 		}
1915:.\ff.c        **** 		if (di >= _MAX_LFN) { di = 0; break; }	/* Buffer overflow and inaccessible object */
1916:.\ff.c        **** 		fno->fname[di++] = (char)w;
1917:.\ff.c        **** 	}
1918:.\ff.c        **** #endif
1919:.\ff.c        **** 	if (di == 0) fno->fname[di++] = '?';	/* Inaccessible object? */
1920:.\ff.c        **** 	fno->fname[di] = 0;						/* Terminate file name */
1921:.\ff.c        **** 
1922:.\ff.c        **** 	fno->altname[0] = 0;							/* No SFN */
1923:.\ff.c        **** 	fno->fattrib = dirb[XDIR_Attr];					/* Attribute */
1924:.\ff.c        **** 	fno->fsize = (fno->fattrib & AM_DIR) ? 0 : ld_qword(dirb + XDIR_FileSize);	/* Size */
1925:.\ff.c        **** 	fno->ftime = ld_word(dirb + XDIR_ModTime + 0);	/* Time */
1926:.\ff.c        **** 	fno->fdate = ld_word(dirb + XDIR_ModTime + 2);	/* Date */
1927:.\ff.c        **** }
1928:.\ff.c        **** 
1929:.\ff.c        **** #endif	/* _FS_MINIMIZE <= 1 || _FS_RPATH >= 2 */
1930:.\ff.c        **** 
1931:.\ff.c        **** 
1932:.\ff.c        **** /*-----------------------------------*/
1933:.\ff.c        **** /* exFAT: Get a directry entry block */
1934:.\ff.c        **** /*-----------------------------------*/
1935:.\ff.c        **** 
1936:.\ff.c        **** static
ARM GAS  C:\Users\honet\AppData\Local\Temp\cc5ZMQU6.s 			page 37


1937:.\ff.c        **** FRESULT load_xdir (	/* FR_INT_ERR: invalid entry block */
1938:.\ff.c        **** 	DIR* dp			/* Pointer to the reading direcotry object pointing the 85 entry */
1939:.\ff.c        **** )
1940:.\ff.c        **** {
1941:.\ff.c        **** 	FRESULT res;
1942:.\ff.c        **** 	UINT i, nent;
1943:.\ff.c        **** 	BYTE* dirb = dp->obj.fs->dirbuf;	/* Pointer to the on-memory direcotry entry block 85+C0+C1s */
1944:.\ff.c        **** 
1945:.\ff.c        **** 
1946:.\ff.c        **** 	/* Load 85 entry */
1947:.\ff.c        **** 	res = move_window(dp->obj.fs, dp->sect);
1948:.\ff.c        **** 	if (res != FR_OK) return res;
1949:.\ff.c        **** 	if (dp->dir[XDIR_Type] != 0x85) return FR_INT_ERR;
1950:.\ff.c        **** 	mem_cpy(dirb, dp->dir, SZDIRE);
1951:.\ff.c        **** 	nent = dirb[XDIR_NumSec] + 1;
1952:.\ff.c        **** 
1953:.\ff.c        **** 	/* Load C0 entry */
1954:.\ff.c        **** 	res = dir_next(dp, 0);
1955:.\ff.c        **** 	if (res != FR_OK) return res;
1956:.\ff.c        **** 	res = move_window(dp->obj.fs, dp->sect);
1957:.\ff.c        **** 	if (res != FR_OK) return res;
1958:.\ff.c        **** 	if (dp->dir[XDIR_Type] != 0xC0) return FR_INT_ERR;
1959:.\ff.c        **** 	mem_cpy(dirb + SZDIRE, dp->dir, SZDIRE);
1960:.\ff.c        **** 
1961:.\ff.c        **** 	/* Load C1 entries */
1962:.\ff.c        **** 	if (nent < 3 || nent > 19) return FR_NO_FILE;
1963:.\ff.c        **** 	i = SZDIRE * 2; nent *= SZDIRE;
1964:.\ff.c        **** 	do {
1965:.\ff.c        **** 		res = dir_next(dp, 0);
1966:.\ff.c        **** 		if (res != FR_OK) return res;
1967:.\ff.c        **** 		res = move_window(dp->obj.fs, dp->sect);
1968:.\ff.c        **** 		if (res != FR_OK) return res;
1969:.\ff.c        **** 		if (dp->dir[XDIR_Type] != 0xC1) return FR_INT_ERR;
1970:.\ff.c        **** 		mem_cpy(dirb + i, dp->dir, SZDIRE);
1971:.\ff.c        **** 		i += SZDIRE;
1972:.\ff.c        **** 	} while (i < nent);
1973:.\ff.c        **** 
1974:.\ff.c        **** 	/* Sanity check */
1975:.\ff.c        **** 	if (xdir_sum(dirb) != ld_word(dirb + XDIR_SetSum)) return FR_INT_ERR;
1976:.\ff.c        **** 
1977:.\ff.c        **** 	return FR_OK;
1978:.\ff.c        **** }
1979:.\ff.c        **** 
1980:.\ff.c        **** 
1981:.\ff.c        **** #if !_FS_READONLY || _FS_RPATH != 0 
1982:.\ff.c        **** /*------------------------------------------------*/
1983:.\ff.c        **** /* exFAT: Load the object's directory entry block */
1984:.\ff.c        **** /*------------------------------------------------*/
1985:.\ff.c        **** static
1986:.\ff.c        **** FRESULT load_obj_dir (	
1987:.\ff.c        **** 	DIR* dp,			/* Blank directory object to be used to access containing direcotry */
1988:.\ff.c        **** 	const _FDID* obj	/* Object with containing directory information */
1989:.\ff.c        **** )
1990:.\ff.c        **** {
1991:.\ff.c        **** 	FRESULT res;
1992:.\ff.c        **** 
1993:.\ff.c        **** 
ARM GAS  C:\Users\honet\AppData\Local\Temp\cc5ZMQU6.s 			page 38


1994:.\ff.c        **** 	/* Open object containing directory */
1995:.\ff.c        **** 	dp->obj.fs = obj->fs;
1996:.\ff.c        **** 	dp->obj.sclust = obj->c_scl;
1997:.\ff.c        **** 	dp->obj.stat = (BYTE)obj->c_size;
1998:.\ff.c        **** 	dp->obj.objsize = obj->c_size & 0xFFFFFF00;
1999:.\ff.c        **** 	dp->blk_ofs = obj->c_ofs;
2000:.\ff.c        **** 
2001:.\ff.c        **** 	res = dir_sdi(dp, dp->blk_ofs);	/* Goto the block location */
2002:.\ff.c        **** 	if (res == FR_OK) {
2003:.\ff.c        **** 		res = load_xdir(dp);		/* Load the object's entry block */
2004:.\ff.c        **** 	}
2005:.\ff.c        **** 	return res;
2006:.\ff.c        **** }
2007:.\ff.c        **** #endif
2008:.\ff.c        **** 
2009:.\ff.c        **** 
2010:.\ff.c        **** #if !_FS_READONLY
2011:.\ff.c        **** /*-----------------------------------------------*/
2012:.\ff.c        **** /* exFAT: Store the directory block to the media */
2013:.\ff.c        **** /*-----------------------------------------------*/
2014:.\ff.c        **** static
2015:.\ff.c        **** FRESULT store_xdir (
2016:.\ff.c        **** 	DIR* dp				/* Pointer to the direcotry object */
2017:.\ff.c        **** )
2018:.\ff.c        **** {
2019:.\ff.c        **** 	FRESULT res;
2020:.\ff.c        **** 	UINT nent;
2021:.\ff.c        **** 	BYTE* dirb = dp->obj.fs->dirbuf;	/* Pointer to the direcotry entry block 85+C0+C1s */
2022:.\ff.c        **** 
2023:.\ff.c        **** 	/* Create set sum */
2024:.\ff.c        **** 	st_word(dirb + XDIR_SetSum, xdir_sum(dirb));
2025:.\ff.c        **** 	nent = dirb[XDIR_NumSec] + 1;
2026:.\ff.c        **** 
2027:.\ff.c        **** 	/* Store the set of directory to the volume */
2028:.\ff.c        **** 	res = dir_sdi(dp, dp->blk_ofs);
2029:.\ff.c        **** 	while (res == FR_OK) {
2030:.\ff.c        **** 		res = move_window(dp->obj.fs, dp->sect);
2031:.\ff.c        **** 		if (res != FR_OK) break;
2032:.\ff.c        **** 		mem_cpy(dp->dir, dirb, SZDIRE);
2033:.\ff.c        **** 		dp->obj.fs->wflag = 1;
2034:.\ff.c        **** 		if (--nent == 0) break;
2035:.\ff.c        **** 		dirb += SZDIRE;
2036:.\ff.c        **** 		res = dir_next(dp, 0);
2037:.\ff.c        **** 	}
2038:.\ff.c        **** 	return (res == FR_OK || res == FR_DISK_ERR) ? res : FR_INT_ERR;
2039:.\ff.c        **** }
2040:.\ff.c        **** 
2041:.\ff.c        **** 
2042:.\ff.c        **** 
2043:.\ff.c        **** /*-------------------------------------------*/
2044:.\ff.c        **** /* exFAT: Create a new directory enrty block */
2045:.\ff.c        **** /*-------------------------------------------*/
2046:.\ff.c        **** 
2047:.\ff.c        **** static
2048:.\ff.c        **** void create_xdir (
2049:.\ff.c        **** 	BYTE* dirb,			/* Pointer to the direcotry entry block buffer */
2050:.\ff.c        **** 	const WCHAR* lfn	/* Pointer to the nul terminated file name */
ARM GAS  C:\Users\honet\AppData\Local\Temp\cc5ZMQU6.s 			page 39


2051:.\ff.c        **** )
2052:.\ff.c        **** {
2053:.\ff.c        **** 	UINT i;
2054:.\ff.c        **** 	BYTE nb, nc;
2055:.\ff.c        **** 	WCHAR chr;
2056:.\ff.c        **** 
2057:.\ff.c        **** 
2058:.\ff.c        **** 	mem_set(dirb, 0, 2 * SZDIRE);			/* Initialize 85+C0 entry */
2059:.\ff.c        **** 	dirb[XDIR_Type] = 0x85;
2060:.\ff.c        **** 	dirb[XDIR_Type + SZDIRE] = 0xC0;
2061:.\ff.c        **** 	st_word(dirb + XDIR_NameHash, xname_sum(lfn));	/* Set name hash */
2062:.\ff.c        **** 
2063:.\ff.c        **** 	i = SZDIRE * 2;	/* C1 offset */
2064:.\ff.c        **** 	nc = 0; nb = 1; chr = 1;
2065:.\ff.c        **** 	do {
2066:.\ff.c        **** 		dirb[i++] = 0xC1; dirb[i++] = 0;	/* Entry type C1 */
2067:.\ff.c        **** 		do {	/* Fill name field */
2068:.\ff.c        **** 			if (chr && (chr = lfn[nc]) != 0) nc++;	/* Get a character if exist */
2069:.\ff.c        **** 			st_word(dirb + i, chr); i += 2;	/* Store it */
2070:.\ff.c        **** 		} while (i % SZDIRE);
2071:.\ff.c        **** 		nb++;
2072:.\ff.c        **** 	} while (lfn[nc]);	/* Fill next entry if any char follows */
2073:.\ff.c        **** 
2074:.\ff.c        **** 	dirb[XDIR_NumName] = nc;	/* Set name length */
2075:.\ff.c        **** 	dirb[XDIR_NumSec] = nb;		/* Set number of C0+C1s */
2076:.\ff.c        **** }
2077:.\ff.c        **** 
2078:.\ff.c        **** #endif	/* !_FS_READONLY */
2079:.\ff.c        **** #endif	/* _FS_EXFAT */
2080:.\ff.c        **** 
2081:.\ff.c        **** 
2082:.\ff.c        **** 
2083:.\ff.c        **** #if _FS_MINIMIZE <= 1 || _FS_RPATH >= 2 || _USE_LABEL || _FS_EXFAT
2084:.\ff.c        **** /*-----------------------------------------------------------------------*/
2085:.\ff.c        **** /* Read an object from the directory                                     */
2086:.\ff.c        **** /*-----------------------------------------------------------------------*/
2087:.\ff.c        **** 
2088:.\ff.c        **** static
2089:.\ff.c        **** FRESULT dir_read (
2090:.\ff.c        **** 	DIR* dp,		/* Pointer to the directory object */
2091:.\ff.c        **** 	int vol			/* Filtered by 0:file/directory or 1:volume label */
2092:.\ff.c        **** )
2093:.\ff.c        **** {
2094:.\ff.c        **** 	FRESULT res = FR_NO_FILE;
2095:.\ff.c        **** 	FATFS *fs = dp->obj.fs;
2096:.\ff.c        **** 	BYTE a, c;
2097:.\ff.c        **** #if _USE_LFN != 0
2098:.\ff.c        **** 	BYTE ord = 0xFF, sum = 0xFF;
2099:.\ff.c        **** #endif
2100:.\ff.c        **** 
2101:.\ff.c        **** 	while (dp->sect) {
2102:.\ff.c        **** 		res = move_window(fs, dp->sect);
2103:.\ff.c        **** 		if (res != FR_OK) break;
2104:.\ff.c        **** 		c = dp->dir[DIR_Name];	/* Test for the entry type */
2105:.\ff.c        **** 		if (c == 0) { res = FR_NO_FILE; break; }	/* Reached to end of the directory */
2106:.\ff.c        **** #if _FS_EXFAT
2107:.\ff.c        **** 		if (fs->fs_type == FS_EXFAT) {	/* On the exFAT volume */
ARM GAS  C:\Users\honet\AppData\Local\Temp\cc5ZMQU6.s 			page 40


2108:.\ff.c        **** 			if (_USE_LABEL && vol) {
2109:.\ff.c        **** 				if (c == 0x83) break;	/* Volume label entry? */
2110:.\ff.c        **** 			} else {
2111:.\ff.c        **** 				if (c == 0x85) {		/* Start of the file entry block? */
2112:.\ff.c        **** 					dp->blk_ofs = dp->dptr;	/* Get location of the block */
2113:.\ff.c        **** 					res = load_xdir(dp);	/* Load the entry block */
2114:.\ff.c        **** 					if (res == FR_OK) {
2115:.\ff.c        **** 						dp->obj.attr = fs->dirbuf[XDIR_Attr] & AM_MASK;	/* Get attribute */
2116:.\ff.c        **** 					}
2117:.\ff.c        **** 					break;
2118:.\ff.c        **** 				}
2119:.\ff.c        **** 			}
2120:.\ff.c        **** 		} else
2121:.\ff.c        **** #endif
2122:.\ff.c        **** 		{	/* On the FAT12/16/32 volume */
2123:.\ff.c        **** 			dp->obj.attr = a = dp->dir[DIR_Attr] & AM_MASK;	/* Get attribute */
2124:.\ff.c        **** #if _USE_LFN != 0	/* LFN configuration */
2125:.\ff.c        **** 			if (c == DDEM || c == '.' || (int)((a & ~AM_ARC) == AM_VOL) != vol) {	/* An entry without valid 
2126:.\ff.c        **** 				ord = 0xFF;
2127:.\ff.c        **** 			} else {
2128:.\ff.c        **** 				if (a == AM_LFN) {			/* An LFN entry is found */
2129:.\ff.c        **** 					if (c & LLEF) {			/* Is it start of an LFN sequence? */
2130:.\ff.c        **** 						sum = dp->dir[LDIR_Chksum];
2131:.\ff.c        **** 						c &= (BYTE)~LLEF; ord = c;
2132:.\ff.c        **** 						dp->blk_ofs = dp->dptr;
2133:.\ff.c        **** 					}
2134:.\ff.c        **** 					/* Check LFN validity and capture it */
2135:.\ff.c        **** 					ord = (c == ord && sum == dp->dir[LDIR_Chksum] && pick_lfn(fs->lfnbuf, dp->dir)) ? ord - 1 : 0
2136:.\ff.c        **** 				} else {					/* An SFN entry is found */
2137:.\ff.c        **** 					if (ord || sum != sum_sfn(dp->dir)) {	/* Is there a valid LFN? */
2138:.\ff.c        **** 						dp->blk_ofs = 0xFFFFFFFF;			/* It has no LFN. */
2139:.\ff.c        **** 					}
2140:.\ff.c        **** 					break;
2141:.\ff.c        **** 				}
2142:.\ff.c        **** 			}
2143:.\ff.c        **** #else		/* Non LFN configuration */
2144:.\ff.c        **** 			if (c != DDEM && c != '.' && a != AM_LFN && (int)((a & ~AM_ARC) == AM_VOL) == vol) {	/* Is it a 
2145:.\ff.c        **** 				break;
2146:.\ff.c        **** 			}
2147:.\ff.c        **** #endif
2148:.\ff.c        **** 		}
2149:.\ff.c        **** 		res = dir_next(dp, 0);		/* Next entry */
2150:.\ff.c        **** 		if (res != FR_OK) break;
2151:.\ff.c        **** 	}
2152:.\ff.c        **** 
2153:.\ff.c        **** 	if (res != FR_OK) dp->sect = 0;		/* Terminate the read operation on error or EOT */
2154:.\ff.c        **** 	return res;
2155:.\ff.c        **** }
2156:.\ff.c        **** 
2157:.\ff.c        **** #endif	/* _FS_MINIMIZE <= 1 || _USE_LABEL || _FS_RPATH >= 2 */
2158:.\ff.c        **** 
2159:.\ff.c        **** 
2160:.\ff.c        **** 
2161:.\ff.c        **** /*-----------------------------------------------------------------------*/
2162:.\ff.c        **** /* Directory handling - Find an object in the directory                  */
2163:.\ff.c        **** /*-----------------------------------------------------------------------*/
2164:.\ff.c        **** 
ARM GAS  C:\Users\honet\AppData\Local\Temp\cc5ZMQU6.s 			page 41


2165:.\ff.c        **** static
2166:.\ff.c        **** FRESULT dir_find (	/* FR_OK(0):succeeded, !=0:error */
2167:.\ff.c        **** 	DIR* dp			/* Pointer to the directory object with the file name */
2168:.\ff.c        **** )
2169:.\ff.c        **** {
2170:.\ff.c        **** 	FRESULT res;
2171:.\ff.c        **** 	FATFS *fs = dp->obj.fs;
2172:.\ff.c        **** 	BYTE c;
2173:.\ff.c        **** #if _USE_LFN != 0
2174:.\ff.c        **** 	BYTE a, ord, sum;
2175:.\ff.c        **** #endif
2176:.\ff.c        **** 
2177:.\ff.c        **** 	res = dir_sdi(dp, 0);			/* Rewind directory object */
2178:.\ff.c        **** 	if (res != FR_OK) return res;
2179:.\ff.c        **** #if _FS_EXFAT
2180:.\ff.c        **** 	if (fs->fs_type == FS_EXFAT) {	/* On the exFAT volume */
2181:.\ff.c        **** 		BYTE nc;
2182:.\ff.c        **** 		UINT di, ni;
2183:.\ff.c        **** 		WORD hash = xname_sum(fs->lfnbuf);		/* Hash value of the name to find */
2184:.\ff.c        **** 
2185:.\ff.c        **** 		while ((res = dir_read(dp, 0)) == FR_OK) {	/* Read an item */
2186:.\ff.c        **** 			if (ld_word(fs->dirbuf + XDIR_NameHash) != hash) continue;	/* Skip the comparison if hash value 
2187:.\ff.c        **** 			for (nc = fs->dirbuf[XDIR_NumName], di = SZDIRE * 2, ni = 0; nc; nc--, di += 2, ni++) {	/* Compa
2188:.\ff.c        **** 				if ((di % SZDIRE) == 0) di += 2;
2189:.\ff.c        **** 				if (ff_wtoupper(ld_word(fs->dirbuf + di)) != ff_wtoupper(fs->lfnbuf[ni])) break;
2190:.\ff.c        **** 			}
2191:.\ff.c        **** 			if (nc == 0 && !fs->lfnbuf[ni]) break;	/* Name matched? */
2192:.\ff.c        **** 		}
2193:.\ff.c        **** 		return res;
2194:.\ff.c        **** 	}
2195:.\ff.c        **** #endif
2196:.\ff.c        **** 	/* On the FAT12/16/32 volume */
2197:.\ff.c        **** #if _USE_LFN != 0
2198:.\ff.c        **** 	ord = sum = 0xFF; dp->blk_ofs = 0xFFFFFFFF;	/* Reset LFN sequence */
2199:.\ff.c        **** #endif
2200:.\ff.c        **** 	do {
2201:.\ff.c        **** 		res = move_window(fs, dp->sect);
2202:.\ff.c        **** 		if (res != FR_OK) break;
2203:.\ff.c        **** 		c = dp->dir[DIR_Name];
2204:.\ff.c        **** 		if (c == 0) { res = FR_NO_FILE; break; }	/* Reached to end of table */
2205:.\ff.c        **** #if _USE_LFN != 0	/* LFN configuration */
2206:.\ff.c        **** 		dp->obj.attr = a = dp->dir[DIR_Attr] & AM_MASK;
2207:.\ff.c        **** 		if (c == DDEM || ((a & AM_VOL) && a != AM_LFN)) {	/* An entry without valid data */
2208:.\ff.c        **** 			ord = 0xFF; dp->blk_ofs = 0xFFFFFFFF;	/* Reset LFN sequence */
2209:.\ff.c        **** 		} else {
2210:.\ff.c        **** 			if (a == AM_LFN) {			/* An LFN entry is found */
2211:.\ff.c        **** 				if (!(dp->fn[NSFLAG] & NS_NOLFN)) {
2212:.\ff.c        **** 					if (c & LLEF) {		/* Is it start of LFN sequence? */
2213:.\ff.c        **** 						sum = dp->dir[LDIR_Chksum];
2214:.\ff.c        **** 						c &= (BYTE)~LLEF; ord = c;	/* LFN start order */
2215:.\ff.c        **** 						dp->blk_ofs = dp->dptr;	/* Start offset of LFN */
2216:.\ff.c        **** 					}
2217:.\ff.c        **** 					/* Check validity of the LFN entry and compare it with given name */
2218:.\ff.c        **** 					ord = (c == ord && sum == dp->dir[LDIR_Chksum] && cmp_lfn(fs->lfnbuf, dp->dir)) ? ord - 1 : 0x
2219:.\ff.c        **** 				}
2220:.\ff.c        **** 			} else {					/* An SFN entry is found */
2221:.\ff.c        **** 				if (!ord && sum == sum_sfn(dp->dir)) break;	/* LFN matched? */
ARM GAS  C:\Users\honet\AppData\Local\Temp\cc5ZMQU6.s 			page 42


2222:.\ff.c        **** 				if (!(dp->fn[NSFLAG] & NS_LOSS) && !mem_cmp(dp->dir, dp->fn, 11)) break;	/* SFN matched? */
2223:.\ff.c        **** 				ord = 0xFF; dp->blk_ofs = 0xFFFFFFFF;	/* Reset LFN sequence */
2224:.\ff.c        **** 			}
2225:.\ff.c        **** 		}
2226:.\ff.c        **** #else		/* Non LFN configuration */
2227:.\ff.c        **** 		dp->obj.attr = dp->dir[DIR_Attr] & AM_MASK;
2228:.\ff.c        **** 		if (!(dp->dir[DIR_Attr] & AM_VOL) && !mem_cmp(dp->dir, dp->fn, 11)) break;	/* Is it a valid entry
2229:.\ff.c        **** #endif
2230:.\ff.c        **** 		res = dir_next(dp, 0);	/* Next entry */
2231:.\ff.c        **** 	} while (res == FR_OK);
2232:.\ff.c        **** 
2233:.\ff.c        **** 	return res;
2234:.\ff.c        **** }
2235:.\ff.c        **** 
2236:.\ff.c        **** 
2237:.\ff.c        **** 
2238:.\ff.c        **** 
2239:.\ff.c        **** #if !_FS_READONLY
2240:.\ff.c        **** /*-----------------------------------------------------------------------*/
2241:.\ff.c        **** /* Register an object to the directory                                   */
2242:.\ff.c        **** /*-----------------------------------------------------------------------*/
2243:.\ff.c        **** 
2244:.\ff.c        **** static
2245:.\ff.c        **** FRESULT dir_register (	/* FR_OK:succeeded, FR_DENIED:no free entry or too many SFN collision, FR_DI
2246:.\ff.c        **** 	DIR* dp				/* Target directory with object name to be created */
2247:.\ff.c        **** )
2248:.\ff.c        **** {
2249:.\ff.c        **** 	FRESULT res;
2250:.\ff.c        **** 	FATFS *fs = dp->obj.fs;
2251:.\ff.c        **** #if _USE_LFN != 0	/* LFN configuration */
2252:.\ff.c        **** 	UINT n, nlen, nent;
2253:.\ff.c        **** 	BYTE sn[12], sum;
2254:.\ff.c        **** 
2255:.\ff.c        **** 
2256:.\ff.c        **** 	if (dp->fn[NSFLAG] & (NS_DOT | NS_NONAME)) return FR_INVALID_NAME;	/* Check name validity */
2257:.\ff.c        **** 	for (nlen = 0; fs->lfnbuf[nlen]; nlen++) ;	/* Get lfn length */
2258:.\ff.c        **** 
2259:.\ff.c        **** #if _FS_EXFAT
2260:.\ff.c        **** 	if (fs->fs_type == FS_EXFAT) {	/* On the exFAT volume */
2261:.\ff.c        **** 		DIR dj;
2262:.\ff.c        **** 
2263:.\ff.c        **** 		nent = (nlen + 14) / 15 + 2;	/* Number of entries to allocate (85+C0+C1s) */
2264:.\ff.c        **** 		res = dir_alloc(dp, nent);		/* Allocate entries */
2265:.\ff.c        **** 		if (res != FR_OK) return res;
2266:.\ff.c        **** 		dp->blk_ofs = dp->dptr - SZDIRE * (nent - 1);			/* Set block position */
2267:.\ff.c        **** 
2268:.\ff.c        **** 		if (dp->obj.sclust != 0 && (dp->obj.stat & 4)) {	/* Has the sub-directory been stretched? */
2269:.\ff.c        **** 			dp->obj.stat &= 3;
2270:.\ff.c        **** 			dp->obj.objsize += (DWORD)fs->csize * SS(fs);	/* Increase object size by cluster size */
2271:.\ff.c        **** 			res = fill_fat_chain(&dp->obj);	/* Complement FAT chain if needed */
2272:.\ff.c        **** 			if (res != FR_OK) return res;
2273:.\ff.c        **** 			res = load_obj_dir(&dj, &dp->obj);
2274:.\ff.c        **** 			if (res != FR_OK) return res;	/* Load the object status */
2275:.\ff.c        **** 			st_qword(fs->dirbuf + XDIR_FileSize, dp->obj.objsize);		/* Update the allocation status */
2276:.\ff.c        **** 			st_qword(fs->dirbuf + XDIR_ValidFileSize, dp->obj.objsize);
2277:.\ff.c        **** 			fs->dirbuf[XDIR_GenFlags] = dp->obj.stat | 1;
2278:.\ff.c        **** 			res = store_xdir(&dj);			/* Store the object status */
ARM GAS  C:\Users\honet\AppData\Local\Temp\cc5ZMQU6.s 			page 43


2279:.\ff.c        **** 			if (res != FR_OK) return res;
2280:.\ff.c        **** 		}
2281:.\ff.c        **** 
2282:.\ff.c        **** 		create_xdir(fs->dirbuf, fs->lfnbuf);	/* Create on-memory directory block to be written later */
2283:.\ff.c        **** 		return FR_OK;
2284:.\ff.c        **** 	}
2285:.\ff.c        **** #endif
2286:.\ff.c        **** 	/* On the FAT12/16/32 volume */
2287:.\ff.c        **** 	mem_cpy(sn, dp->fn, 12);
2288:.\ff.c        **** 	if (sn[NSFLAG] & NS_LOSS) {			/* When LFN is out of 8.3 format, generate a numbered name */
2289:.\ff.c        **** 		dp->fn[NSFLAG] = NS_NOLFN;		/* Find only SFN */
2290:.\ff.c        **** 		for (n = 1; n < 100; n++) {
2291:.\ff.c        **** 			gen_numname(dp->fn, sn, fs->lfnbuf, n);	/* Generate a numbered name */
2292:.\ff.c        **** 			res = dir_find(dp);				/* Check if the name collides with existing SFN */
2293:.\ff.c        **** 			if (res != FR_OK) break;
2294:.\ff.c        **** 		}
2295:.\ff.c        **** 		if (n == 100) return FR_DENIED;		/* Abort if too many collisions */
2296:.\ff.c        **** 		if (res != FR_NO_FILE) return res;	/* Abort if the result is other than 'not collided' */
2297:.\ff.c        **** 		dp->fn[NSFLAG] = sn[NSFLAG];
2298:.\ff.c        **** 	}
2299:.\ff.c        **** 
2300:.\ff.c        **** 	/* Create an SFN with/without LFNs. */
2301:.\ff.c        **** 	nent = (sn[NSFLAG] & NS_LFN) ? (nlen + 12) / 13 + 1 : 1;	/* Number of entries to allocate */
2302:.\ff.c        **** 	res = dir_alloc(dp, nent);		/* Allocate entries */
2303:.\ff.c        **** 	if (res == FR_OK && --nent) {	/* Set LFN entry if needed */
2304:.\ff.c        **** 		res = dir_sdi(dp, dp->dptr - nent * SZDIRE);
2305:.\ff.c        **** 		if (res == FR_OK) {
2306:.\ff.c        **** 			sum = sum_sfn(dp->fn);	/* Checksum value of the SFN tied to the LFN */
2307:.\ff.c        **** 			do {					/* Store LFN entries in bottom first */
2308:.\ff.c        **** 				res = move_window(fs, dp->sect);
2309:.\ff.c        **** 				if (res != FR_OK) break;
2310:.\ff.c        **** 				put_lfn(fs->lfnbuf, dp->dir, (BYTE)nent, sum);
2311:.\ff.c        **** 				fs->wflag = 1;
2312:.\ff.c        **** 				res = dir_next(dp, 0);	/* Next entry */
2313:.\ff.c        **** 			} while (res == FR_OK && --nent);
2314:.\ff.c        **** 		}
2315:.\ff.c        **** 	}
2316:.\ff.c        **** 
2317:.\ff.c        **** #else	/* Non LFN configuration */
2318:.\ff.c        **** 	res = dir_alloc(dp, 1);		/* Allocate an entry for SFN */
2319:.\ff.c        **** 
2320:.\ff.c        **** #endif
2321:.\ff.c        **** 
2322:.\ff.c        **** 	/* Set SFN entry */
2323:.\ff.c        **** 	if (res == FR_OK) {
2324:.\ff.c        **** 		res = move_window(fs, dp->sect);
2325:.\ff.c        **** 		if (res == FR_OK) {
2326:.\ff.c        **** 			mem_set(dp->dir, 0, SZDIRE);	/* Clean the entry */
2327:.\ff.c        **** 			mem_cpy(dp->dir + DIR_Name, dp->fn, 11);	/* Put SFN */
2328:.\ff.c        **** #if _USE_LFN != 0
2329:.\ff.c        **** 			dp->dir[DIR_NTres] = dp->fn[NSFLAG] & (NS_BODY | NS_EXT);	/* Put NT flag */
2330:.\ff.c        **** #endif
2331:.\ff.c        **** 			fs->wflag = 1;
2332:.\ff.c        **** 		}
2333:.\ff.c        **** 	}
2334:.\ff.c        **** 
2335:.\ff.c        **** 	return res;
ARM GAS  C:\Users\honet\AppData\Local\Temp\cc5ZMQU6.s 			page 44


2336:.\ff.c        **** }
2337:.\ff.c        **** 
2338:.\ff.c        **** #endif /* !_FS_READONLY */
2339:.\ff.c        **** 
2340:.\ff.c        **** 
2341:.\ff.c        **** 
2342:.\ff.c        **** #if !_FS_READONLY && _FS_MINIMIZE == 0
2343:.\ff.c        **** /*-----------------------------------------------------------------------*/
2344:.\ff.c        **** /* Remove an object from the directory                                   */
2345:.\ff.c        **** /*-----------------------------------------------------------------------*/
2346:.\ff.c        **** 
2347:.\ff.c        **** static
2348:.\ff.c        **** FRESULT dir_remove (	/* FR_OK:Succeeded, FR_DISK_ERR:A disk error */
2349:.\ff.c        **** 	DIR* dp				/* Directory object pointing the entry to be removed */
2350:.\ff.c        **** )
2351:.\ff.c        **** {
2352:.\ff.c        **** 	FRESULT res;
2353:.\ff.c        **** 	FATFS *fs = dp->obj.fs;
2354:.\ff.c        **** #if _USE_LFN != 0	/* LFN configuration */
2355:.\ff.c        **** 	DWORD last = dp->dptr;
2356:.\ff.c        **** 
2357:.\ff.c        **** 	res = (dp->blk_ofs == 0xFFFFFFFF) ? FR_OK : dir_sdi(dp, dp->blk_ofs);	/* Goto top of the entry blo
2358:.\ff.c        **** 	if (res == FR_OK) {
2359:.\ff.c        **** 		do {
2360:.\ff.c        **** 			res = move_window(fs, dp->sect);
2361:.\ff.c        **** 			if (res != FR_OK) break;
2362:.\ff.c        **** 			/* Mark an entry 'deleted' */
2363:.\ff.c        **** 			if (_FS_EXFAT && fs->fs_type == FS_EXFAT) {	/* On the exFAT volume */
2364:.\ff.c        **** 				dp->dir[XDIR_Type] &= 0x7F;
2365:.\ff.c        **** 			} else {									/* On the FAT12/16/32 volume */
2366:.\ff.c        **** 				dp->dir[DIR_Name] = DDEM;
2367:.\ff.c        **** 			}
2368:.\ff.c        **** 			fs->wflag = 1;
2369:.\ff.c        **** 			if (dp->dptr >= last) break;	/* If reached last entry then all entries of the object has been de
2370:.\ff.c        **** 			res = dir_next(dp, 0);	/* Next entry */
2371:.\ff.c        **** 		} while (res == FR_OK);
2372:.\ff.c        **** 		if (res == FR_NO_FILE) res = FR_INT_ERR;
2373:.\ff.c        **** 	}
2374:.\ff.c        **** #else			/* Non LFN configuration */
2375:.\ff.c        **** 
2376:.\ff.c        **** 	res = move_window(fs, dp->sect);
2377:.\ff.c        **** 	if (res == FR_OK) {
2378:.\ff.c        **** 		dp->dir[DIR_Name] = DDEM;
2379:.\ff.c        **** 		fs->wflag = 1;
2380:.\ff.c        **** 	}
2381:.\ff.c        **** #endif
2382:.\ff.c        **** 
2383:.\ff.c        **** 	return res;
2384:.\ff.c        **** }
2385:.\ff.c        **** 
2386:.\ff.c        **** #endif /* !_FS_READONLY && _FS_MINIMIZE == 0 */
2387:.\ff.c        **** 
2388:.\ff.c        **** 
2389:.\ff.c        **** 
2390:.\ff.c        **** #if _FS_MINIMIZE <= 1 || _FS_RPATH >= 2
2391:.\ff.c        **** /*-----------------------------------------------------------------------*/
2392:.\ff.c        **** /* Get file information from directory entry                             */
ARM GAS  C:\Users\honet\AppData\Local\Temp\cc5ZMQU6.s 			page 45


2393:.\ff.c        **** /*-----------------------------------------------------------------------*/
2394:.\ff.c        **** 
2395:.\ff.c        **** static
2396:.\ff.c        **** void get_fileinfo (		/* No return code */
2397:.\ff.c        **** 	DIR* dp,			/* Pointer to the directory object */
2398:.\ff.c        **** 	FILINFO* fno	 	/* Pointer to the file information to be filled */
2399:.\ff.c        **** )
2400:.\ff.c        **** {
2401:.\ff.c        **** 	UINT i, j;
2402:.\ff.c        **** 	TCHAR c;
2403:.\ff.c        **** 	DWORD tm;
2404:.\ff.c        **** #if _USE_LFN != 0
2405:.\ff.c        **** 	WCHAR w, lfv;
2406:.\ff.c        **** 	FATFS *fs = dp->obj.fs;
2407:.\ff.c        **** #endif
2408:.\ff.c        **** 
2409:.\ff.c        **** 
2410:.\ff.c        **** 	fno->fname[0] = 0;		/* Invaidate file info */
2411:.\ff.c        **** 	if (!dp->sect) return;	/* Exit if read pointer has reached end of directory */
2412:.\ff.c        **** 
2413:.\ff.c        **** #if _USE_LFN != 0	/* LFN configuration */
2414:.\ff.c        **** #if _FS_EXFAT
2415:.\ff.c        **** 	if (fs->fs_type == FS_EXFAT) {	/* On the exFAT volume */
2416:.\ff.c        **** 		get_xdir_info(fs->dirbuf, fno);
2417:.\ff.c        **** 		return;
2418:.\ff.c        **** 	} else
2419:.\ff.c        **** #endif
2420:.\ff.c        **** 	{	/* On the FAT12/16/32 volume */
2421:.\ff.c        **** 		if (dp->blk_ofs != 0xFFFFFFFF) {	/* Get LFN if available */
2422:.\ff.c        **** 			i = j = 0;
2423:.\ff.c        **** 			while ((w = fs->lfnbuf[j++]) != 0) {	/* Get an LFN character */
2424:.\ff.c        **** #if !_LFN_UNICODE
2425:.\ff.c        **** 				w = ff_convert(w, 0);		/* Unicode -> OEM */
2426:.\ff.c        **** 				if (w == 0) { i = 0; break; }	/* No LFN if it could not be converted */
2427:.\ff.c        **** 				if (_DF1S && w >= 0x100) {	/* Put 1st byte if it is a DBC (always false at SBCS cfg) */
2428:.\ff.c        **** 					fno->fname[i++] = (char)(w >> 8);
2429:.\ff.c        **** 				}
2430:.\ff.c        **** #endif
2431:.\ff.c        **** 				if (i >= _MAX_LFN) { i = 0; break; }	/* No LFN if buffer overflow */
2432:.\ff.c        **** 				fno->fname[i++] = (TCHAR)w;
2433:.\ff.c        **** 			}
2434:.\ff.c        **** 			fno->fname[i] = 0;	/* Terminate the LFN */
2435:.\ff.c        **** 		}
2436:.\ff.c        **** 	}
2437:.\ff.c        **** 
2438:.\ff.c        **** 	i = j = 0;
2439:.\ff.c        **** 	lfv = fno->fname[i];	/* LFN is exist if non-zero */
2440:.\ff.c        **** 	while (i < 11) {		/* Copy name body and extension */
2441:.\ff.c        **** 		c = (TCHAR)dp->dir[i++];
2442:.\ff.c        **** 		if (c == ' ') continue;				/* Skip padding spaces */
2443:.\ff.c        **** 		if (c == RDDEM) c = (TCHAR)DDEM;	/* Restore replaced DDEM character */
2444:.\ff.c        **** 		if (i == 9) {						/* Insert a . if extension is exist */
2445:.\ff.c        **** 			if (!lfv) fno->fname[j] = '.';
2446:.\ff.c        **** 			fno->altname[j++] = '.';
2447:.\ff.c        **** 		}
2448:.\ff.c        **** #if _LFN_UNICODE
2449:.\ff.c        **** 		if (IsDBCS1(c) && i != 8 && i != 11 && IsDBCS2(dp->dir[i])) {
ARM GAS  C:\Users\honet\AppData\Local\Temp\cc5ZMQU6.s 			page 46


2450:.\ff.c        **** 			c = c << 8 | dp->dir[i++];
2451:.\ff.c        **** 		}
2452:.\ff.c        **** 		c = ff_convert(c, 1);	/* OEM -> Unicode */
2453:.\ff.c        **** 		if (!c) c = '?';
2454:.\ff.c        **** #endif
2455:.\ff.c        **** 		fno->altname[j] = c;
2456:.\ff.c        **** 		if (!lfv) {
2457:.\ff.c        **** 			if (IsUpper(c) && (dp->dir[DIR_NTres] & (i >= 9 ? NS_EXT : NS_BODY))) {
2458:.\ff.c        **** 				c += 0x20;			/* To lower */
2459:.\ff.c        **** 			}
2460:.\ff.c        **** 			fno->fname[j] = c;
2461:.\ff.c        **** 		}
2462:.\ff.c        **** 		j++;
2463:.\ff.c        **** 	}
2464:.\ff.c        **** 	if (!lfv) {
2465:.\ff.c        **** 		fno->fname[j] = 0;
2466:.\ff.c        **** 		if (!dp->dir[DIR_NTres]) j = 0;	/* Altname is no longer needed if neither LFN nor case info is ex
2467:.\ff.c        **** 	}
2468:.\ff.c        **** 	fno->altname[j] = 0;	/* Terminate the SFN */
2469:.\ff.c        **** 
2470:.\ff.c        **** #else	/* Non-LFN configuration */
2471:.\ff.c        **** 	i = j = 0;
2472:.\ff.c        **** 	while (i < 11) {		/* Copy name body and extension */
2473:.\ff.c        **** 		c = (TCHAR)dp->dir[i++];
2474:.\ff.c        **** 		if (c == ' ') continue;				/* Skip padding spaces */
2475:.\ff.c        **** 		if (c == RDDEM) c = (TCHAR)DDEM;	/* Restore replaced DDEM character */
2476:.\ff.c        **** 		if (i == 9) fno->fname[j++] = '.';	/* Insert a . if extension is exist */
2477:.\ff.c        **** 		fno->fname[j++] = c;
2478:.\ff.c        **** 	}
2479:.\ff.c        **** 	fno->fname[j] = 0;
2480:.\ff.c        **** #endif
2481:.\ff.c        **** 
2482:.\ff.c        **** 	fno->fattrib = dp->dir[DIR_Attr];				/* Attribute */
2483:.\ff.c        **** 	fno->fsize = ld_dword(dp->dir + DIR_FileSize);	/* Size */
2484:.\ff.c        **** 	tm = ld_dword(dp->dir + DIR_ModTime);			/* Timestamp */
2485:.\ff.c        **** 	fno->ftime = (WORD)tm; fno->fdate = (WORD)(tm >> 16);
2486:.\ff.c        **** }
2487:.\ff.c        **** 
2488:.\ff.c        **** #endif /* _FS_MINIMIZE <= 1 || _FS_RPATH >= 2 */
2489:.\ff.c        **** 
2490:.\ff.c        **** 
2491:.\ff.c        **** 
2492:.\ff.c        **** #if _USE_FIND && _FS_MINIMIZE <= 1
2493:.\ff.c        **** /*-----------------------------------------------------------------------*/
2494:.\ff.c        **** /* Pattern matching                                                      */
2495:.\ff.c        **** /*-----------------------------------------------------------------------*/
2496:.\ff.c        **** 
2497:.\ff.c        **** static
2498:.\ff.c        **** WCHAR get_achar (		/* Get a character and advances ptr 1 or 2 */
2499:.\ff.c        **** 	const TCHAR** ptr	/* Pointer to pointer to the SBCS/DBCS/Unicode string */
2500:.\ff.c        **** )
2501:.\ff.c        **** {
2502:.\ff.c        **** #if !_LFN_UNICODE
2503:.\ff.c        **** 	WCHAR chr;
2504:.\ff.c        **** 
2505:.\ff.c        **** 	chr = (BYTE)*(*ptr)++;					/* Get a byte */
2506:.\ff.c        **** 	if (IsLower(chr)) chr -= 0x20;			/* To upper ASCII char */
ARM GAS  C:\Users\honet\AppData\Local\Temp\cc5ZMQU6.s 			page 47


2507:.\ff.c        **** #ifdef _EXCVT
2508:.\ff.c        **** 	if (chr >= 0x80) chr = ExCvt[chr - 0x80];	/* To upper SBCS extended char */
2509:.\ff.c        **** #else
2510:.\ff.c        **** 	if (IsDBCS1(chr) && IsDBCS2(**ptr)) {		/* Get DBC 2nd byte if needed */
2511:.\ff.c        **** 		chr = chr << 8 | (BYTE)*(*ptr)++;
2512:.\ff.c        **** 	}
2513:.\ff.c        **** #endif
2514:.\ff.c        **** 	return chr;
2515:.\ff.c        **** #else
2516:.\ff.c        **** 	return ff_wtoupper(*(*ptr)++);			/* Get a word and to upper */
2517:.\ff.c        **** #endif
2518:.\ff.c        **** }
2519:.\ff.c        **** 
2520:.\ff.c        **** 
2521:.\ff.c        **** static
2522:.\ff.c        **** int pattern_matching (	/* 0:not matched, 1:matched */
2523:.\ff.c        **** 	const TCHAR* pat,	/* Matching pattern */
2524:.\ff.c        **** 	const TCHAR* nam,	/* String to be tested */
2525:.\ff.c        **** 	int skip,			/* Number of pre-skip chars (number of ?s) */
2526:.\ff.c        **** 	int inf				/* Infinite search (* specified) */
2527:.\ff.c        **** )
2528:.\ff.c        **** {
2529:.\ff.c        **** 	const TCHAR *pp, *np;
2530:.\ff.c        **** 	WCHAR pc, nc;
2531:.\ff.c        **** 	int nm, nx;
2532:.\ff.c        **** 
2533:.\ff.c        **** 
2534:.\ff.c        **** 	while (skip--) {				/* Pre-skip name chars */
2535:.\ff.c        **** 		if (!get_achar(&nam)) return 0;	/* Branch mismatched if less name chars */
2536:.\ff.c        **** 	}
2537:.\ff.c        **** 	if (!*pat && inf) return 1;		/* (short circuit) */
2538:.\ff.c        **** 
2539:.\ff.c        **** 	do {
2540:.\ff.c        **** 		pp = pat; np = nam;			/* Top of pattern and name to match */
2541:.\ff.c        **** 		for (;;) {
2542:.\ff.c        **** 			if (*pp == '?' || *pp == '*') {	/* Wildcard? */
2543:.\ff.c        **** 				nm = nx = 0;
2544:.\ff.c        **** 				do {				/* Analyze the wildcard chars */
2545:.\ff.c        **** 					if (*pp++ == '?') nm++; else nx = 1;
2546:.\ff.c        **** 				} while (*pp == '?' || *pp == '*');
2547:.\ff.c        **** 				if (pattern_matching(pp, np, nm, nx)) return 1;	/* Test new branch (recurs upto number of wildc
2548:.\ff.c        **** 				nc = *np; break;	/* Branch mismatched */
2549:.\ff.c        **** 			}
2550:.\ff.c        **** 			pc = get_achar(&pp);	/* Get a pattern char */
2551:.\ff.c        **** 			nc = get_achar(&np);	/* Get a name char */
2552:.\ff.c        **** 			if (pc != nc) break;	/* Branch mismatched? */
2553:.\ff.c        **** 			if (pc == 0) return 1;	/* Branch matched? (matched at end of both strings) */
2554:.\ff.c        **** 		}
2555:.\ff.c        **** 		get_achar(&nam);			/* nam++ */
2556:.\ff.c        **** 	} while (inf && nc);			/* Retry until end of name if infinite search is specified */
2557:.\ff.c        **** 
2558:.\ff.c        **** 	return 0;
2559:.\ff.c        **** }
2560:.\ff.c        **** 
2561:.\ff.c        **** #endif /* _USE_FIND && _FS_MINIMIZE <= 1 */
2562:.\ff.c        **** 
2563:.\ff.c        **** 
ARM GAS  C:\Users\honet\AppData\Local\Temp\cc5ZMQU6.s 			page 48


2564:.\ff.c        **** 
2565:.\ff.c        **** /*-----------------------------------------------------------------------*/
2566:.\ff.c        **** /* Pick a top segment and create the object name in directory form       */
2567:.\ff.c        **** /*-----------------------------------------------------------------------*/
2568:.\ff.c        **** 
2569:.\ff.c        **** static
2570:.\ff.c        **** FRESULT create_name (	/* FR_OK: successful, FR_INVALID_NAME: could not create */
2571:.\ff.c        **** 	DIR* dp,			/* Pointer to the directory object */
2572:.\ff.c        **** 	const TCHAR** path	/* Pointer to pointer to the segment in the path string */
2573:.\ff.c        **** )
2574:.\ff.c        **** {
2575:.\ff.c        **** #if _USE_LFN != 0	/* LFN configuration */
2576:.\ff.c        **** 	BYTE b, cf;
2577:.\ff.c        **** 	WCHAR w, *lfn;
2578:.\ff.c        **** 	UINT i, ni, si, di;
2579:.\ff.c        **** 	const TCHAR *p;
2580:.\ff.c        **** 
2581:.\ff.c        **** 	/* Create LFN in Unicode */
2582:.\ff.c        **** 	p = *path; lfn = dp->obj.fs->lfnbuf; si = di = 0;
2583:.\ff.c        **** 	for (;;) {
2584:.\ff.c        **** 		w = p[si++];					/* Get a character */
2585:.\ff.c        **** 		if (w < ' ') break;				/* Break if end of the path name */
2586:.\ff.c        **** 		if (w == '/' || w == '\\') {	/* Break if a separator is found */
2587:.\ff.c        **** 			while (p[si] == '/' || p[si] == '\\') si++;	/* Skip duplicated separator if exist */
2588:.\ff.c        **** 			break;
2589:.\ff.c        **** 		}
2590:.\ff.c        **** 		if (di >= _MAX_LFN) return FR_INVALID_NAME;	/* Reject too long name */
2591:.\ff.c        **** #if !_LFN_UNICODE
2592:.\ff.c        **** 		w &= 0xFF;
2593:.\ff.c        **** 		if (IsDBCS1(w)) {				/* Check if it is a DBC 1st byte (always false on SBCS cfg) */
2594:.\ff.c        **** 			b = (BYTE)p[si++];			/* Get 2nd byte */
2595:.\ff.c        **** 			w = (w << 8) + b;			/* Create a DBC */
2596:.\ff.c        **** 			if (!IsDBCS2(b)) return FR_INVALID_NAME;	/* Reject invalid sequence */
2597:.\ff.c        **** 		}
2598:.\ff.c        **** 		w = ff_convert(w, 1);			/* Convert ANSI/OEM to Unicode */
2599:.\ff.c        **** 		if (!w) return FR_INVALID_NAME;	/* Reject invalid code */
2600:.\ff.c        **** #endif
2601:.\ff.c        **** 		if (w < 0x80 && chk_chr("\"*:<>\?|\x7F", w)) return FR_INVALID_NAME;	/* Reject illegal characters
2602:.\ff.c        **** 		lfn[di++] = w;					/* Store the Unicode character */
2603:.\ff.c        **** 	}
2604:.\ff.c        **** 	*path = &p[si];						/* Return pointer to the next segment */
2605:.\ff.c        **** 	cf = (w < ' ') ? NS_LAST : 0;		/* Set last segment flag if end of the path */
2606:.\ff.c        **** #if _FS_RPATH != 0
2607:.\ff.c        **** 	if ((di == 1 && lfn[di - 1] == '.') ||
2608:.\ff.c        **** 		(di == 2 && lfn[di - 1] == '.' && lfn[di - 2] == '.')) {	/* Is this segment a dot name? */
2609:.\ff.c        **** 		lfn[di] = 0;
2610:.\ff.c        **** 		for (i = 0; i < 11; i++)		/* Create dot name for SFN entry */
2611:.\ff.c        **** 			dp->fn[i] = (i < di) ? '.' : ' ';
2612:.\ff.c        **** 		dp->fn[i] = cf | NS_DOT;		/* This is a dot entry */
2613:.\ff.c        **** 		return FR_OK;
2614:.\ff.c        **** 	}
2615:.\ff.c        **** #endif
2616:.\ff.c        **** 	while (di) {						/* Snip off trailing spaces and dots if exist */
2617:.\ff.c        **** 		w = lfn[di - 1];
2618:.\ff.c        **** 		if (w != ' ' && w != '.') break;
2619:.\ff.c        **** 		di--;
2620:.\ff.c        **** 	}
ARM GAS  C:\Users\honet\AppData\Local\Temp\cc5ZMQU6.s 			page 49


2621:.\ff.c        **** 	lfn[di] = 0;						/* LFN is created */
2622:.\ff.c        **** 	if (di == 0) return FR_INVALID_NAME;	/* Reject nul name */
2623:.\ff.c        **** 
2624:.\ff.c        **** 	/* Create SFN in directory form */
2625:.\ff.c        **** 	mem_set(dp->fn, ' ', 11);
2626:.\ff.c        **** 	for (si = 0; lfn[si] == ' ' || lfn[si] == '.'; si++) ;	/* Strip leading spaces and dots */
2627:.\ff.c        **** 	if (si) cf |= NS_LOSS | NS_LFN;
2628:.\ff.c        **** 	while (di && lfn[di - 1] != '.') di--;	/* Find extension (di<=si: no extension) */
2629:.\ff.c        **** 
2630:.\ff.c        **** 	i = b = 0; ni = 8;
2631:.\ff.c        **** 	for (;;) {
2632:.\ff.c        **** 		w = lfn[si++];					/* Get an LFN character */
2633:.\ff.c        **** 		if (!w) break;					/* Break on end of the LFN */
2634:.\ff.c        **** 		if (w == ' ' || (w == '.' && si != di)) {	/* Remove spaces and dots */
2635:.\ff.c        **** 			cf |= NS_LOSS | NS_LFN; continue;
2636:.\ff.c        **** 		}
2637:.\ff.c        **** 
2638:.\ff.c        **** 		if (i >= ni || si == di) {		/* Extension or end of SFN */
2639:.\ff.c        **** 			if (ni == 11) {				/* Long extension */
2640:.\ff.c        **** 				cf |= NS_LOSS | NS_LFN; break;
2641:.\ff.c        **** 			}
2642:.\ff.c        **** 			if (si != di) cf |= NS_LOSS | NS_LFN;	/* Out of 8.3 format */
2643:.\ff.c        **** 			if (si > di) break;			/* No extension */
2644:.\ff.c        **** 			si = di; i = 8; ni = 11;	/* Enter extension section */
2645:.\ff.c        **** 			b <<= 2; continue;
2646:.\ff.c        **** 		}
2647:.\ff.c        **** 
2648:.\ff.c        **** 		if (w >= 0x80) {				/* Non ASCII character */
2649:.\ff.c        **** #ifdef _EXCVT
2650:.\ff.c        **** 			w = ff_convert(w, 0);		/* Unicode -> OEM code */
2651:.\ff.c        **** 			if (w) w = ExCvt[w - 0x80];	/* Convert extended character to upper (SBCS) */
2652:.\ff.c        **** #else
2653:.\ff.c        **** 			w = ff_convert(ff_wtoupper(w), 0);	/* Upper converted Unicode -> OEM code */
2654:.\ff.c        **** #endif
2655:.\ff.c        **** 			cf |= NS_LFN;				/* Force create LFN entry */
2656:.\ff.c        **** 		}
2657:.\ff.c        **** 
2658:.\ff.c        **** 		if (_DF1S && w >= 0x100) {		/* Is this DBC? (always false at SBCS cfg) */
2659:.\ff.c        **** 			if (i >= ni - 1) {
2660:.\ff.c        **** 				cf |= NS_LOSS | NS_LFN; i = ni; continue;
2661:.\ff.c        **** 			}
2662:.\ff.c        **** 			dp->fn[i++] = (BYTE)(w >> 8);
2663:.\ff.c        **** 		} else {						/* SBC */
2664:.\ff.c        **** 			if (!w || chk_chr("+,;=[]", w)) {	/* Replace illegal characters for SFN */
2665:.\ff.c        **** 				w = '_'; cf |= NS_LOSS | NS_LFN;/* Lossy conversion */
2666:.\ff.c        **** 			} else {
2667:.\ff.c        **** 				if (IsUpper(w)) {		/* ASCII large capital */
2668:.\ff.c        **** 					b |= 2;
2669:.\ff.c        **** 				} else {
2670:.\ff.c        **** 					if (IsLower(w)) {	/* ASCII small capital */
2671:.\ff.c        **** 						b |= 1; w -= 0x20;
2672:.\ff.c        **** 					}
2673:.\ff.c        **** 				}
2674:.\ff.c        **** 			}
2675:.\ff.c        **** 		}
2676:.\ff.c        **** 		dp->fn[i++] = (BYTE)w;
2677:.\ff.c        **** 	}
ARM GAS  C:\Users\honet\AppData\Local\Temp\cc5ZMQU6.s 			page 50


2678:.\ff.c        **** 
2679:.\ff.c        **** 	if (dp->fn[0] == DDEM) dp->fn[0] = RDDEM;	/* If the first character collides with DDEM, replace it
2680:.\ff.c        **** 
2681:.\ff.c        **** 	if (ni == 8) b <<= 2;
2682:.\ff.c        **** 	if ((b & 0x0C) == 0x0C || (b & 0x03) == 0x03) cf |= NS_LFN;	/* Create LFN entry when there are com
2683:.\ff.c        **** 	if (!(cf & NS_LFN)) {						/* When LFN is in 8.3 format without extended character, NT flags are c
2684:.\ff.c        **** 		if ((b & 0x03) == 0x01) cf |= NS_EXT;	/* NT flag (Extension has only small capital) */
2685:.\ff.c        **** 		if ((b & 0x0C) == 0x04) cf |= NS_BODY;	/* NT flag (Filename has only small capital) */
2686:.\ff.c        **** 	}
2687:.\ff.c        **** 
2688:.\ff.c        **** 	dp->fn[NSFLAG] = cf;	/* SFN is created */
2689:.\ff.c        **** 
2690:.\ff.c        **** 	return FR_OK;
2691:.\ff.c        **** 
2692:.\ff.c        **** 
2693:.\ff.c        **** #else	/* _USE_LFN != 0 : Non-LFN configuration */
2694:.\ff.c        **** 	BYTE c, d, *sfn;
2695:.\ff.c        **** 	UINT ni, si, i;
2696:.\ff.c        **** 	const char *p;
2697:.\ff.c        **** 
2698:.\ff.c        **** 	/* Create file name in directory form */
2699:.\ff.c        **** 	p = *path; sfn = dp->fn;
2700:.\ff.c        **** 	mem_set(sfn, ' ', 11);
2701:.\ff.c        **** 	si = i = 0; ni = 8;
2702:.\ff.c        **** #if _FS_RPATH != 0
2703:.\ff.c        **** 	if (p[si] == '.') { /* Is this a dot entry? */
2704:.\ff.c        **** 		for (;;) {
2705:.\ff.c        **** 			c = (BYTE)p[si++];
2706:.\ff.c        **** 			if (c != '.' || si >= 3) break;
2707:.\ff.c        **** 			sfn[i++] = c;
2708:.\ff.c        **** 		}
2709:.\ff.c        **** 		if (c != '/' && c != '\\' && c > ' ') return FR_INVALID_NAME;
2710:.\ff.c        **** 		*path = p + si;								/* Return pointer to the next segment */
2711:.\ff.c        **** 		sfn[NSFLAG] = (c <= ' ') ? NS_LAST | NS_DOT : NS_DOT;	/* Set last segment flag if end of the path
2712:.\ff.c        **** 		return FR_OK;
2713:.\ff.c        **** 	}
2714:.\ff.c        **** #endif
2715:.\ff.c        **** 	for (;;) {
2716:.\ff.c        **** 		c = (BYTE)p[si++];
2717:.\ff.c        **** 		if (c <= ' ') break; 			/* Break if end of the path name */
2718:.\ff.c        **** 		if (c == '/' || c == '\\') {	/* Break if a separator is found */
2719:.\ff.c        **** 			while (p[si] == '/' || p[si] == '\\') si++;	/* Skip duplicated separator if exist */
2720:.\ff.c        **** 			break;
2721:.\ff.c        **** 		}
2722:.\ff.c        **** 		if (c == '.' || i >= ni) {		/* End of body or over size? */
2723:.\ff.c        **** 			if (ni == 11 || c != '.') return FR_INVALID_NAME;	/* Over size or invalid dot */
2724:.\ff.c        **** 			i = 8; ni = 11;				/* Goto extension */
2725:.\ff.c        **** 			continue;
2726:.\ff.c        **** 		}
2727:.\ff.c        **** 		if (c >= 0x80) {				/* Extended character? */
2728:.\ff.c        **** #ifdef _EXCVT
2729:.\ff.c        **** 			c = ExCvt[c - 0x80];		/* To upper extended characters (SBCS cfg) */
2730:.\ff.c        **** #else
2731:.\ff.c        **** #if !_DF1S
2732:.\ff.c        **** 			return FR_INVALID_NAME;		/* Reject extended characters (ASCII only cfg) */
2733:.\ff.c        **** #endif
2734:.\ff.c        **** #endif
ARM GAS  C:\Users\honet\AppData\Local\Temp\cc5ZMQU6.s 			page 51


2735:.\ff.c        **** 		}
2736:.\ff.c        **** 		if (IsDBCS1(c)) {				/* Check if it is a DBC 1st byte (always false at SBCS cfg.) */
2737:.\ff.c        **** 			d = (BYTE)p[si++];			/* Get 2nd byte */
2738:.\ff.c        **** 			if (!IsDBCS2(d) || i >= ni - 1) return FR_INVALID_NAME;	/* Reject invalid DBC */
2739:.\ff.c        **** 			sfn[i++] = c;
2740:.\ff.c        **** 			sfn[i++] = d;
2741:.\ff.c        **** 		} else {						/* SBC */
2742:.\ff.c        **** 			if (chk_chr("\"*+,:;<=>\?[]|\x7F", c)) return FR_INVALID_NAME;	/* Reject illegal chrs for SFN */
2743:.\ff.c        **** 			if (IsLower(c)) c -= 0x20;	/* To upper */
2744:.\ff.c        **** 			sfn[i++] = c;
2745:.\ff.c        **** 		}
2746:.\ff.c        **** 	}
2747:.\ff.c        **** 	*path = p + si;						/* Return pointer to the next segment */
2748:.\ff.c        **** 	if (i == 0) return FR_INVALID_NAME;	/* Reject nul string */
2749:.\ff.c        **** 
2750:.\ff.c        **** 	if (sfn[0] == DDEM) sfn[0] = RDDEM;	/* If the first character collides with DDEM, replace it with 
2751:.\ff.c        **** 	sfn[NSFLAG] = (c <= ' ') ? NS_LAST : 0;		/* Set last segment flag if end of the path */
2752:.\ff.c        **** 
2753:.\ff.c        **** 	return FR_OK;
2754:.\ff.c        **** #endif /* _USE_LFN != 0 */
2755:.\ff.c        **** }
2756:.\ff.c        **** 
2757:.\ff.c        **** 
2758:.\ff.c        **** 
2759:.\ff.c        **** 
2760:.\ff.c        **** /*-----------------------------------------------------------------------*/
2761:.\ff.c        **** /* Follow a file path                                                    */
2762:.\ff.c        **** /*-----------------------------------------------------------------------*/
2763:.\ff.c        **** 
2764:.\ff.c        **** static
2765:.\ff.c        **** FRESULT follow_path (	/* FR_OK(0): successful, !=0: error code */
2766:.\ff.c        **** 	DIR* dp,			/* Directory object to return last directory and found object */
2767:.\ff.c        **** 	const TCHAR* path	/* Full-path string to find a file or directory */
2768:.\ff.c        **** )
2769:.\ff.c        **** {
2770:.\ff.c        **** 	FRESULT res;
2771:.\ff.c        **** 	BYTE ns;
2772:.\ff.c        **** 	_FDID *obj = &dp->obj;
2773:.\ff.c        **** 	FATFS *fs = obj->fs;
2774:.\ff.c        **** 
2775:.\ff.c        **** 
2776:.\ff.c        **** #if _FS_RPATH != 0
2777:.\ff.c        **** 	if (*path != '/' && *path != '\\') {	/* Without heading separator */
2778:.\ff.c        **** 		obj->sclust = fs->cdir;				/* Start from the current directory */
2779:.\ff.c        **** 	} else
2780:.\ff.c        **** #endif
2781:.\ff.c        **** 	{										/* With heading separator */
2782:.\ff.c        **** 		while (*path == '/' || *path == '\\') path++;	/* Strip heading separator */
2783:.\ff.c        **** 		obj->sclust = 0;					/* Start from the root directory */
2784:.\ff.c        **** 	}
2785:.\ff.c        **** #if _FS_EXFAT && _FS_RPATH != 0
2786:.\ff.c        **** 	if (fs->fs_type == FS_EXFAT && obj->sclust) {	/* Retrieve the sub-directory status if needed */
2787:.\ff.c        **** 		DIR dj;
2788:.\ff.c        **** 
2789:.\ff.c        **** 		obj->c_scl = fs->cdc_scl;
2790:.\ff.c        **** 		obj->c_size = fs->cdc_size;
2791:.\ff.c        **** 		obj->c_ofs = fs->cdc_ofs;
ARM GAS  C:\Users\honet\AppData\Local\Temp\cc5ZMQU6.s 			page 52


2792:.\ff.c        **** 		res = load_obj_dir(&dj, obj);
2793:.\ff.c        **** 		if (res != FR_OK) return res;
2794:.\ff.c        **** 		obj->objsize = ld_dword(fs->dirbuf + XDIR_FileSize);
2795:.\ff.c        **** 		obj->stat = fs->dirbuf[XDIR_GenFlags] & 2;
2796:.\ff.c        **** 	}
2797:.\ff.c        **** #endif
2798:.\ff.c        **** 
2799:.\ff.c        **** 	if ((UINT)*path < ' ') {				/* Null path name is the origin directory itself */
2800:.\ff.c        **** 		dp->fn[NSFLAG] = NS_NONAME;
2801:.\ff.c        **** 		res = dir_sdi(dp, 0);
2802:.\ff.c        **** 
2803:.\ff.c        **** 	} else {								/* Follow path */
2804:.\ff.c        **** 		for (;;) {
2805:.\ff.c        **** 			res = create_name(dp, &path);	/* Get a segment name of the path */
2806:.\ff.c        **** 			if (res != FR_OK) break;
2807:.\ff.c        **** 			res = dir_find(dp);				/* Find an object with the segment name */
2808:.\ff.c        **** 			ns = dp->fn[NSFLAG];
2809:.\ff.c        **** 			if (res != FR_OK) {				/* Failed to find the object */
2810:.\ff.c        **** 				if (res == FR_NO_FILE) {	/* Object is not found */
2811:.\ff.c        **** 					if (_FS_RPATH && (ns & NS_DOT)) {	/* If dot entry is not exist, stay there */
2812:.\ff.c        **** 						if (!(ns & NS_LAST)) continue;	/* Continue to follow if not last segment */
2813:.\ff.c        **** 						dp->fn[NSFLAG] = NS_NONAME;
2814:.\ff.c        **** 						res = FR_OK;
2815:.\ff.c        **** 					} else {							/* Could not find the object */
2816:.\ff.c        **** 						if (!(ns & NS_LAST)) res = FR_NO_PATH;	/* Adjust error code if not last segment */
2817:.\ff.c        **** 					}
2818:.\ff.c        **** 				}
2819:.\ff.c        **** 				break;
2820:.\ff.c        **** 			}
2821:.\ff.c        **** 			if (ns & NS_LAST) break;			/* Last segment matched. Function completed. */
2822:.\ff.c        **** 			/* Get into the sub-directory */
2823:.\ff.c        **** 			if (!(obj->attr & AM_DIR)) {		/* It is not a sub-directory and cannot follow */
2824:.\ff.c        **** 				res = FR_NO_PATH; break;
2825:.\ff.c        **** 			}
2826:.\ff.c        **** #if _FS_EXFAT
2827:.\ff.c        **** 			if (fs->fs_type == FS_EXFAT) {
2828:.\ff.c        **** 				obj->c_scl = obj->sclust;		/* Save containing directory information for next dir */
2829:.\ff.c        **** 				obj->c_size = ((DWORD)obj->objsize & 0xFFFFFF00) | obj->stat;
2830:.\ff.c        **** 				obj->c_ofs = dp->blk_ofs;
2831:.\ff.c        **** 				obj->sclust = ld_dword(fs->dirbuf + XDIR_FstClus);	/* Open next directory */
2832:.\ff.c        **** 				obj->stat = fs->dirbuf[XDIR_GenFlags] & 2;
2833:.\ff.c        **** 				obj->objsize = ld_qword(fs->dirbuf + XDIR_FileSize);
2834:.\ff.c        **** 			} else
2835:.\ff.c        **** #endif
2836:.\ff.c        **** 			{
2837:.\ff.c        **** 				obj->sclust = ld_clust(fs, fs->win + dp->dptr % SS(fs));	/* Open next directory */
2838:.\ff.c        **** 			}
2839:.\ff.c        **** 		}
2840:.\ff.c        **** 	}
2841:.\ff.c        **** 
2842:.\ff.c        **** 	return res;
2843:.\ff.c        **** }
2844:.\ff.c        **** 
2845:.\ff.c        **** 
2846:.\ff.c        **** 
2847:.\ff.c        **** 
2848:.\ff.c        **** /*-----------------------------------------------------------------------*/
ARM GAS  C:\Users\honet\AppData\Local\Temp\cc5ZMQU6.s 			page 53


2849:.\ff.c        **** /* Get logical drive number from path name                               */
2850:.\ff.c        **** /*-----------------------------------------------------------------------*/
2851:.\ff.c        **** 
2852:.\ff.c        **** static
2853:.\ff.c        **** int get_ldnumber (		/* Returns logical drive number (-1:invalid drive) */
2854:.\ff.c        **** 	const TCHAR** path	/* Pointer to pointer to the path name */
2855:.\ff.c        **** )
2856:.\ff.c        **** {
2857:.\ff.c        **** 	const TCHAR *tp, *tt;
2858:.\ff.c        **** 	UINT i;
2859:.\ff.c        **** 	int vol = -1;
2860:.\ff.c        **** #if _STR_VOLUME_ID		/* Find string drive id */
2861:.\ff.c        **** 	static const char* const str[] = {_VOLUME_STRS};
2862:.\ff.c        **** 	const char *sp;
2863:.\ff.c        **** 	char c;
2864:.\ff.c        **** 	TCHAR tc;
2865:.\ff.c        **** #endif
2866:.\ff.c        **** 
2867:.\ff.c        **** 
2868:.\ff.c        **** 	if (*path) {	/* If the pointer is not a null */
2869:.\ff.c        **** 		for (tt = *path; (UINT)*tt >= (_USE_LFN ? ' ' : '!') && *tt != ':'; tt++) ;	/* Find ':' in the pa
2870:.\ff.c        **** 		if (*tt == ':') {	/* If a ':' is exist in the path name */
2871:.\ff.c        **** 			tp = *path;
2872:.\ff.c        **** 			i = *tp++ - '0'; 
2873:.\ff.c        **** 			if (i < 10 && tp == tt) {	/* Is there a numeric drive id? */
2874:.\ff.c        **** 				if (i < _VOLUMES) {	/* If a drive id is found, get the value and strip it */
2875:.\ff.c        **** 					vol = (int)i;
2876:.\ff.c        **** 					*path = ++tt;
2877:.\ff.c        **** 				}
2878:.\ff.c        **** 			}
2879:.\ff.c        **** #if _STR_VOLUME_ID
2880:.\ff.c        **** 			 else {	/* No numeric drive number, find string drive id */
2881:.\ff.c        **** 				i = 0; tt++;
2882:.\ff.c        **** 				do {
2883:.\ff.c        **** 					sp = str[i]; tp = *path;
2884:.\ff.c        **** 					do {	/* Compare a string drive id with path name */
2885:.\ff.c        **** 						c = *sp++; tc = *tp++;
2886:.\ff.c        **** 						if (IsLower(tc)) tc -= 0x20;
2887:.\ff.c        **** 					} while (c && (TCHAR)c == tc);
2888:.\ff.c        **** 				} while ((c || tp != tt) && ++i < _VOLUMES);	/* Repeat for each id until pattern match */
2889:.\ff.c        **** 				if (i < _VOLUMES) {	/* If a drive id is found, get the value and strip it */
2890:.\ff.c        **** 					vol = (int)i;
2891:.\ff.c        **** 					*path = tt;
2892:.\ff.c        **** 				}
2893:.\ff.c        **** 			}
2894:.\ff.c        **** #endif
2895:.\ff.c        **** 			return vol;
2896:.\ff.c        **** 		}
2897:.\ff.c        **** #if _FS_RPATH != 0 && _VOLUMES >= 2
2898:.\ff.c        **** 		vol = CurrVol;	/* Current drive */
2899:.\ff.c        **** #else
2900:.\ff.c        **** 		vol = 0;		/* Drive 0 */
2901:.\ff.c        **** #endif
2902:.\ff.c        **** 	}
2903:.\ff.c        **** 	return vol;
2904:.\ff.c        **** }
2905:.\ff.c        **** 
ARM GAS  C:\Users\honet\AppData\Local\Temp\cc5ZMQU6.s 			page 54


2906:.\ff.c        **** 
2907:.\ff.c        **** 
2908:.\ff.c        **** 
2909:.\ff.c        **** /*-----------------------------------------------------------------------*/
2910:.\ff.c        **** /* Load a sector and check if it is an FAT boot sector                   */
2911:.\ff.c        **** /*-----------------------------------------------------------------------*/
2912:.\ff.c        **** 
2913:.\ff.c        **** static
2914:.\ff.c        **** BYTE check_fs (	/* 0:FAT, 1:exFAT, 2:Valid BS but not FAT, 3:Not a BS, 4:Disk error */
2915:.\ff.c        **** 	FATFS* fs,	/* File system object */
2916:.\ff.c        **** 	DWORD sect	/* Sector# (lba) to check if it is an FAT-VBR or not */
2917:.\ff.c        **** )
2918:.\ff.c        **** {
 111              		.loc 1 2918 0
 112              		.cfi_startproc
 113              		@ args = 0, pretend = 0, frame = 0
 114              		@ frame_needed = 0, uses_anonymous_args = 0
 115              	.LVL11:
 116 0000 70B5     		push	{r4, r5, r6, lr}
 117              		.cfi_def_cfa_offset 16
 118              		.cfi_offset 4, -16
 119              		.cfi_offset 5, -12
 120              		.cfi_offset 6, -8
 121              		.cfi_offset 14, -4
2919:.\ff.c        **** 	fs->wflag = 0; fs->winsect = 0xFFFFFFFF;		/* Invaidate window */
 122              		.loc 1 2919 0
 123 0002 4FF0FF36 		mov	r6, #-1
 124 0006 0023     		movs	r3, #0
 125              	.LBB302:
 126              	.LBB303:
 905:.\ff.c        **** #if !_FS_READONLY
 127              		.loc 1 905 0
 128 0008 B142     		cmp	r1, r6
 129              	.LBE303:
 130              	.LBE302:
2918:.\ff.c        **** 	fs->wflag = 0; fs->winsect = 0xFFFFFFFF;		/* Invaidate window */
 131              		.loc 1 2918 0
 132 000a 0446     		mov	r4, r0
 133 000c 0D46     		mov	r5, r1
 134              		.loc 1 2919 0
 135 000e C370     		strb	r3, [r0, #3]
 136 0010 C662     		str	r6, [r0, #44]
 137              	.LVL12:
 138              	.LBB306:
 139              	.LBB304:
 905:.\ff.c        **** #if !_FS_READONLY
 140              		.loc 1 905 0
 141 0012 08D0     		beq	.L14
 142              	.LVL13:
 910:.\ff.c        **** 				sector = 0xFFFFFFFF;	/* Invalidate window if data is not reliable */
 143              		.loc 1 910 0
 144 0014 4078     		ldrb	r0, [r0, #1]	@ zero_extendqisi2
 145              	.LVL14:
 146 0016 04F13001 		add	r1, r4, #48
 147              	.LVL15:
 148 001a 2A46     		mov	r2, r5
 149 001c 0123     		movs	r3, #1
ARM GAS  C:\Users\honet\AppData\Local\Temp\cc5ZMQU6.s 			page 55


 150 001e FFF7FEFF 		bl	disk_read
 151              	.LVL16:
 152 0022 60B9     		cbnz	r0, .L15
 153              	.LVL17:
 914:.\ff.c        **** 		}
 154              		.loc 1 914 0
 155 0024 E562     		str	r5, [r4, #44]
 156              	.LVL18:
 157              	.L14:
 158              	.LBE304:
 159              	.LBE306:
2920:.\ff.c        **** 	if (move_window(fs, sect) != FR_OK) return 4;	/* Load boot record */
2921:.\ff.c        **** 
2922:.\ff.c        **** 	if (ld_word(fs->win + BS_55AA) != 0xAA55) return 3;	/* Check boot record signature (always placed 
 160              		.loc 1 2922 0
 161 0026 4AF65522 		movw	r2, #43605
 162              	.LBB307:
 163              	.LBB308:
 607:.\ff.c        **** 	return rv;
 164              		.loc 1 607 0
 165 002a 94F82F12 		ldrb	r1, [r4, #559]	@ zero_extendqisi2
 166 002e 94F82E32 		ldrb	r3, [r4, #558]	@ zero_extendqisi2
 167 0032 43EA0123 		orr	r3, r3, r1, lsl #8
 168              	.LBE308:
 169              	.LBE307:
 170              		.loc 1 2922 0
 171 0036 9342     		cmp	r3, r2
 172 0038 04D0     		beq	.L33
 173 003a 0320     		movs	r0, #3
 174 003c 70BD     		pop	{r4, r5, r6, pc}
 175              	.LVL19:
 176              	.L15:
 177              	.LBB309:
 178              	.LBB305:
 914:.\ff.c        **** 		}
 179              		.loc 1 914 0
 180 003e E662     		str	r6, [r4, #44]
 181              	.LBE305:
 182              	.LBE309:
2920:.\ff.c        **** 	if (move_window(fs, sect) != FR_OK) return 4;	/* Load boot record */
 183              		.loc 1 2920 0
 184 0040 0420     		movs	r0, #4
 185 0042 70BD     		pop	{r4, r5, r6, pc}
 186              	.LVL20:
 187              	.L33:
 188              	.LBB310:
 189              	.LBB311:
2923:.\ff.c        **** 
2924:.\ff.c        **** 	if (fs->win[BS_JmpBoot] == 0xE9 || (fs->win[BS_JmpBoot] == 0xEB && fs->win[BS_JmpBoot + 2] == 0x90
 190              		.loc 1 2924 0
 191 0044 94F83030 		ldrb	r3, [r4, #48]	@ zero_extendqisi2
 192 0048 E92B     		cmp	r3, #233
 193 004a 07D0     		beq	.L18
 194 004c 236B     		ldr	r3, [r4, #48]
 195 004e 184A     		ldr	r2, .L34
 196 0050 03F0FF13 		and	r3, r3, #16711935
 197 0054 9342     		cmp	r3, r2
ARM GAS  C:\Users\honet\AppData\Local\Temp\cc5ZMQU6.s 			page 56


 198 0056 01D0     		beq	.L18
2925:.\ff.c        **** 		if ((ld_dword(fs->win + BS_FilSysType) & 0xFFFFFF) == 0x544146) return 0;	/* Check "FAT" string *
2926:.\ff.c        **** 		if (ld_dword(fs->win + BS_FilSysType32) == 0x33544146) return 0;			/* Check "FAT3" string */
2927:.\ff.c        **** 	}
2928:.\ff.c        **** #if _FS_EXFAT
2929:.\ff.c        **** 	if (!mem_cmp(fs->win + BS_JmpBoot, "\xEB\x76\x90" "EXFAT   ", 11)) return 1;
2930:.\ff.c        **** #endif
2931:.\ff.c        **** 	return 2;
 199              		.loc 1 2931 0
 200 0058 0220     		movs	r0, #2
 201 005a 70BD     		pop	{r4, r5, r6, pc}
 202              	.LVL21:
 203              	.L18:
 204              	.LBB312:
 205              	.LBB313:
 616:.\ff.c        **** 	rv = rv << 8 | ptr[2];
 206              		.loc 1 616 0
 207 005c 94F86920 		ldrb	r2, [r4, #105]	@ zero_extendqisi2
 208              	.LVL22:
 617:.\ff.c        **** 	rv = rv << 8 | ptr[1];
 209              		.loc 1 617 0
 210 0060 94F86830 		ldrb	r3, [r4, #104]	@ zero_extendqisi2
 618:.\ff.c        **** 	rv = rv << 8 | ptr[0];
 211              		.loc 1 618 0
 212 0064 94F86710 		ldrb	r1, [r4, #103]	@ zero_extendqisi2
 213              	.LVL23:
 617:.\ff.c        **** 	rv = rv << 8 | ptr[1];
 214              		.loc 1 617 0
 215 0068 43EA0223 		orr	r3, r3, r2, lsl #8
 216              	.LVL24:
 619:.\ff.c        **** 	return rv;
 217              		.loc 1 619 0
 218 006c 94F86620 		ldrb	r2, [r4, #102]	@ zero_extendqisi2
 618:.\ff.c        **** 	rv = rv << 8 | ptr[0];
 219              		.loc 1 618 0
 220 0070 41EA0323 		orr	r3, r1, r3, lsl #8
 221              	.LVL25:
 619:.\ff.c        **** 	return rv;
 222              		.loc 1 619 0
 223 0074 42EA0323 		orr	r3, r2, r3, lsl #8
 224              	.LVL26:
 225              	.LBE313:
 226              	.LBE312:
2925:.\ff.c        **** 		if (ld_dword(fs->win + BS_FilSysType32) == 0x33544146) return 0;			/* Check "FAT3" string */
 227              		.loc 1 2925 0
 228 0078 0E4A     		ldr	r2, .L34+4
 229 007a 23F07F43 		bic	r3, r3, #-16777216
 230              	.LVL27:
 231 007e 9342     		cmp	r3, r2
 232 0080 13D0     		beq	.L21
 233              	.LVL28:
 234              	.LBB314:
 235              	.LBB315:
 617:.\ff.c        **** 	rv = rv << 8 | ptr[1];
 236              		.loc 1 617 0
 237 0082 94F88430 		ldrb	r3, [r4, #132]	@ zero_extendqisi2
 616:.\ff.c        **** 	rv = rv << 8 | ptr[2];
ARM GAS  C:\Users\honet\AppData\Local\Temp\cc5ZMQU6.s 			page 57


 238              		.loc 1 616 0
 239 0086 94F88510 		ldrb	r1, [r4, #133]	@ zero_extendqisi2
 240              	.LVL29:
 618:.\ff.c        **** 	rv = rv << 8 | ptr[0];
 241              		.loc 1 618 0
 242 008a 94F88320 		ldrb	r2, [r4, #131]	@ zero_extendqisi2
 617:.\ff.c        **** 	rv = rv << 8 | ptr[1];
 243              		.loc 1 617 0
 244 008e 43EA0121 		orr	r1, r3, r1, lsl #8
 245              	.LVL30:
 619:.\ff.c        **** 	return rv;
 246              		.loc 1 619 0
 247 0092 94F88230 		ldrb	r3, [r4, #130]	@ zero_extendqisi2
 618:.\ff.c        **** 	rv = rv << 8 | ptr[0];
 248              		.loc 1 618 0
 249 0096 42EA0122 		orr	r2, r2, r1, lsl #8
 250              	.LVL31:
 251              	.LBE315:
 252              	.LBE314:
2926:.\ff.c        **** 	}
 253              		.loc 1 2926 0
 254 009a 0748     		ldr	r0, .L34+8
 255              	.LBB317:
 256              	.LBB316:
 619:.\ff.c        **** 	return rv;
 257              		.loc 1 619 0
 258 009c 43EA0223 		orr	r3, r3, r2, lsl #8
 259              	.LBE316:
 260              	.LBE317:
2925:.\ff.c        **** 		if (ld_dword(fs->win + BS_FilSysType32) == 0x33544146) return 0;			/* Check "FAT3" string */
 261              		.loc 1 2925 0
 262 00a0 8342     		cmp	r3, r0
 263 00a2 14BF     		ite	ne
 264 00a4 0220     		movne	r0, #2
 265 00a6 0020     		moveq	r0, #0
 266 00a8 70BD     		pop	{r4, r5, r6, pc}
 267              	.LVL32:
 268              	.L21:
 269 00aa 0020     		movs	r0, #0
 270 00ac 70BD     		pop	{r4, r5, r6, pc}
 271              	.LVL33:
 272              	.L35:
 273 00ae 00BF     		.align	2
 274              	.L34:
 275 00b0 EB009000 		.word	9437419
 276 00b4 46415400 		.word	5521734
 277 00b8 46415433 		.word	861159750
 278              	.LBE311:
 279              	.LBE310:
 280              		.cfi_endproc
 281              	.LFE29:
 282              		.size	check_fs, .-check_fs
 283              		.section	.text.move_window,"ax",%progbits
 284              		.align	2
 285              		.thumb
 286              		.thumb_func
 287              		.type	move_window, %function
ARM GAS  C:\Users\honet\AppData\Local\Temp\cc5ZMQU6.s 			page 58


 288              	move_window:
 289              	.LFB9:
 901:.\ff.c        **** 	FRESULT res = FR_OK;
 290              		.loc 1 901 0
 291              		.cfi_startproc
 292              		@ args = 0, pretend = 0, frame = 0
 293              		@ frame_needed = 0, uses_anonymous_args = 0
 294              	.LVL34:
 295 0000 2DE9F041 		push	{r4, r5, r6, r7, r8, lr}
 296              		.cfi_def_cfa_offset 24
 297              		.cfi_offset 4, -24
 298              		.cfi_offset 5, -20
 299              		.cfi_offset 6, -16
 300              		.cfi_offset 7, -12
 301              		.cfi_offset 8, -8
 302              		.cfi_offset 14, -4
 905:.\ff.c        **** #if !_FS_READONLY
 303              		.loc 1 905 0
 304 0004 C56A     		ldr	r5, [r0, #44]
 901:.\ff.c        **** 	FRESULT res = FR_OK;
 305              		.loc 1 901 0
 306 0006 0446     		mov	r4, r0
 905:.\ff.c        **** #if !_FS_READONLY
 307              		.loc 1 905 0
 308 0008 8D42     		cmp	r5, r1
 901:.\ff.c        **** 	FRESULT res = FR_OK;
 309              		.loc 1 901 0
 310 000a 0E46     		mov	r6, r1
 905:.\ff.c        **** #if !_FS_READONLY
 311              		.loc 1 905 0
 312 000c 32D0     		beq	.L42
 313              	.LVL35:
 314              	.LBB324:
 315              	.LBB325:
 877:.\ff.c        **** 		wsect = fs->winsect;	/* Current sector number */
 316              		.loc 1 877 0
 317 000e C378     		ldrb	r3, [r0, #3]	@ zero_extendqisi2
 318              	.LBB326:
 319              	.LBB327:
 879:.\ff.c        **** 			res = FR_DISK_ERR;
 320              		.loc 1 879 0
 321 0010 00F13008 		add	r8, r0, #48
 322              	.LBE327:
 323              	.LBE326:
 877:.\ff.c        **** 		wsect = fs->winsect;	/* Current sector number */
 324              		.loc 1 877 0
 325 0014 73B9     		cbnz	r3, .L52
 326              	.LVL36:
 327              	.L38:
 328              	.LBE325:
 329              	.LBE324:
 910:.\ff.c        **** 				sector = 0xFFFFFFFF;	/* Invalidate window if data is not reliable */
 330              		.loc 1 910 0
 331 0016 3246     		mov	r2, r6
 332 0018 4146     		mov	r1, r8
 333 001a 6078     		ldrb	r0, [r4, #1]	@ zero_extendqisi2
 334 001c 0123     		movs	r3, #1
ARM GAS  C:\Users\honet\AppData\Local\Temp\cc5ZMQU6.s 			page 59


 335 001e FFF7FEFF 		bl	disk_read
 336              	.LVL37:
 337 0022 0028     		cmp	r0, #0
 338 0024 1ABF     		itte	ne
 339 0026 4FF0FF36 		movne	r6, #-1
 340              	.LVL38:
 341 002a 0120     		movne	r0, #1
 342 002c 0020     		moveq	r0, #0
 343              	.LVL39:
 914:.\ff.c        **** 		}
 344              		.loc 1 914 0
 345 002e E662     		str	r6, [r4, #44]
 918:.\ff.c        **** 
 346              		.loc 1 918 0
 347 0030 BDE8F081 		pop	{r4, r5, r6, r7, r8, pc}
 348              	.LVL40:
 349              	.L52:
 350              	.LBB331:
 351              	.LBB330:
 352              	.LBB329:
 353              	.LBB328:
 879:.\ff.c        **** 			res = FR_DISK_ERR;
 354              		.loc 1 879 0
 355 0034 4146     		mov	r1, r8
 356              	.LVL41:
 357 0036 4078     		ldrb	r0, [r0, #1]	@ zero_extendqisi2
 358              	.LVL42:
 359 0038 2A46     		mov	r2, r5
 360 003a 0123     		movs	r3, #1
 361 003c FFF7FEFF 		bl	disk_write
 362              	.LVL43:
 363 0040 A8B9     		cbnz	r0, .L43
 883:.\ff.c        **** 				for (nf = fs->n_fats; nf >= 2; nf--) {	/* Reflect the change to all FAT copies */
 364              		.loc 1 883 0
 365 0042 226A     		ldr	r2, [r4, #32]
 366 0044 A369     		ldr	r3, [r4, #24]
 367 0046 AA1A     		subs	r2, r5, r2
 368 0048 9A42     		cmp	r2, r3
 882:.\ff.c        **** 			if (wsect - fs->fatbase < fs->fsize) {		/* Is it in the FAT area? */
 369              		.loc 1 882 0
 370 004a E070     		strb	r0, [r4, #3]
 883:.\ff.c        **** 				for (nf = fs->n_fats; nf >= 2; nf--) {	/* Reflect the change to all FAT copies */
 371              		.loc 1 883 0
 372 004c E3D2     		bcs	.L38
 884:.\ff.c        **** 					wsect += fs->fsize;
 373              		.loc 1 884 0
 374 004e A778     		ldrb	r7, [r4, #2]	@ zero_extendqisi2
 375              	.LVL44:
 376 0050 012F     		cmp	r7, #1
 377 0052 01D8     		bhi	.L39
 378 0054 DFE7     		b	.L38
 379              	.L53:
 380 0056 A369     		ldr	r3, [r4, #24]
 381              	.L39:
 885:.\ff.c        **** 					disk_write(fs->drv, fs->win, wsect, 1);
 382              		.loc 1 885 0
 383 0058 1D44     		add	r5, r5, r3
ARM GAS  C:\Users\honet\AppData\Local\Temp\cc5ZMQU6.s 			page 60


 384              	.LVL45:
 884:.\ff.c        **** 					wsect += fs->fsize;
 385              		.loc 1 884 0
 386 005a 013F     		subs	r7, r7, #1
 387              	.LVL46:
 886:.\ff.c        **** 				}
 388              		.loc 1 886 0
 389 005c 2A46     		mov	r2, r5
 390 005e 6078     		ldrb	r0, [r4, #1]	@ zero_extendqisi2
 391 0060 4146     		mov	r1, r8
 392 0062 0123     		movs	r3, #1
 393 0064 FFF7FEFF 		bl	disk_write
 394              	.LVL47:
 884:.\ff.c        **** 					wsect += fs->fsize;
 395              		.loc 1 884 0
 396 0068 012F     		cmp	r7, #1
 397 006a F4D1     		bne	.L53
 398 006c D3E7     		b	.L38
 399              	.LVL48:
 400              	.L43:
 879:.\ff.c        **** 			res = FR_DISK_ERR;
 401              		.loc 1 879 0
 402 006e 0120     		movs	r0, #1
 403              	.LVL49:
 404 0070 BDE8F081 		pop	{r4, r5, r6, r7, r8, pc}
 405              	.LVL50:
 406              	.L42:
 407              	.LBE328:
 408              	.LBE329:
 409              	.LBE330:
 410              	.LBE331:
 902:.\ff.c        **** 
 411              		.loc 1 902 0
 412 0074 0020     		movs	r0, #0
 413              	.LVL51:
 414 0076 BDE8F081 		pop	{r4, r5, r6, r7, r8, pc}
 415              		.cfi_endproc
 416              	.LFE9:
 417              		.size	move_window, .-move_window
 418 007a 00BF     		.section	.text.sync_fs,"ax",%progbits
 419              		.align	2
 420              		.thumb
 421              		.thumb_func
 422              		.type	sync_fs, %function
 423              	sync_fs:
 424              	.LFB10:
 932:.\ff.c        **** 	FRESULT res;
 425              		.loc 1 932 0
 426              		.cfi_startproc
 427              		@ args = 0, pretend = 0, frame = 0
 428              		@ frame_needed = 0, uses_anonymous_args = 0
 429              	.LVL52:
 430 0000 2DE9F84F 		push	{r3, r4, r5, r6, r7, r8, r9, r10, fp, lr}
 431              		.cfi_def_cfa_offset 40
 432              		.cfi_offset 3, -40
 433              		.cfi_offset 4, -36
 434              		.cfi_offset 5, -32
ARM GAS  C:\Users\honet\AppData\Local\Temp\cc5ZMQU6.s 			page 61


 435              		.cfi_offset 6, -28
 436              		.cfi_offset 7, -24
 437              		.cfi_offset 8, -20
 438              		.cfi_offset 9, -16
 439              		.cfi_offset 10, -12
 440              		.cfi_offset 11, -8
 441              		.cfi_offset 14, -4
 442              	.LBB348:
 443              	.LBB349:
 877:.\ff.c        **** 		wsect = fs->winsect;	/* Current sector number */
 444              		.loc 1 877 0
 445 0004 C378     		ldrb	r3, [r0, #3]	@ zero_extendqisi2
 446              	.LBE349:
 447              	.LBE348:
 932:.\ff.c        **** 	FRESULT res;
 448              		.loc 1 932 0
 449 0006 0446     		mov	r4, r0
 450              	.LVL53:
 451              	.LBB354:
 452              	.LBB352:
 877:.\ff.c        **** 		wsect = fs->winsect;	/* Current sector number */
 453              		.loc 1 877 0
 454 0008 63B9     		cbnz	r3, .L70
 455              	.LVL54:
 456              	.L55:
 457              	.LBE352:
 458              	.LBE354:
 939:.\ff.c        **** 			/* Create FSInfo structure */
 459              		.loc 1 939 0
 460 000a 2378     		ldrb	r3, [r4]	@ zero_extendqisi2
 461 000c 032B     		cmp	r3, #3
 462 000e 2CD0     		beq	.L71
 463              	.L58:
 953:.\ff.c        **** 	}
 464              		.loc 1 953 0
 465 0010 0021     		movs	r1, #0
 466 0012 6078     		ldrb	r0, [r4, #1]	@ zero_extendqisi2
 467 0014 0A46     		mov	r2, r1
 468 0016 FFF7FEFF 		bl	disk_ioctl
 469              	.LVL55:
 470 001a 0030     		adds	r0, r0, #0
 471 001c 18BF     		it	ne
 472 001e 0120     		movne	r0, #1
 473 0020 BDE8F88F 		pop	{r3, r4, r5, r6, r7, r8, r9, r10, fp, pc}
 474              	.LVL56:
 475              	.L70:
 476              	.LBB355:
 477              	.LBB353:
 478              	.LBB350:
 479              	.LBB351:
 878:.\ff.c        **** 		if (disk_write(fs->drv, fs->win, wsect, 1) != RES_OK) {
 480              		.loc 1 878 0
 481 0024 C56A     		ldr	r5, [r0, #44]
 482              	.LVL57:
 879:.\ff.c        **** 			res = FR_DISK_ERR;
 483              		.loc 1 879 0
 484 0026 00F13007 		add	r7, r0, #48
ARM GAS  C:\Users\honet\AppData\Local\Temp\cc5ZMQU6.s 			page 62


 485 002a 2A46     		mov	r2, r5
 486 002c 3946     		mov	r1, r7
 487 002e 4078     		ldrb	r0, [r0, #1]	@ zero_extendqisi2
 488              	.LVL58:
 489 0030 0123     		movs	r3, #1
 490 0032 FFF7FEFF 		bl	disk_write
 491              	.LVL59:
 492 0036 A8B9     		cbnz	r0, .L60
 883:.\ff.c        **** 				for (nf = fs->n_fats; nf >= 2; nf--) {	/* Reflect the change to all FAT copies */
 493              		.loc 1 883 0
 494 0038 226A     		ldr	r2, [r4, #32]
 495 003a A369     		ldr	r3, [r4, #24]
 496 003c AA1A     		subs	r2, r5, r2
 497 003e 9A42     		cmp	r2, r3
 882:.\ff.c        **** 			if (wsect - fs->fatbase < fs->fsize) {		/* Is it in the FAT area? */
 498              		.loc 1 882 0
 499 0040 E070     		strb	r0, [r4, #3]
 883:.\ff.c        **** 				for (nf = fs->n_fats; nf >= 2; nf--) {	/* Reflect the change to all FAT copies */
 500              		.loc 1 883 0
 501 0042 E2D2     		bcs	.L55
 884:.\ff.c        **** 					wsect += fs->fsize;
 502              		.loc 1 884 0
 503 0044 A678     		ldrb	r6, [r4, #2]	@ zero_extendqisi2
 504              	.LVL60:
 505 0046 012E     		cmp	r6, #1
 506 0048 01D8     		bhi	.L57
 507 004a DEE7     		b	.L55
 508              	.L72:
 509 004c A369     		ldr	r3, [r4, #24]
 510              	.L57:
 885:.\ff.c        **** 					disk_write(fs->drv, fs->win, wsect, 1);
 511              		.loc 1 885 0
 512 004e 1D44     		add	r5, r5, r3
 513              	.LVL61:
 884:.\ff.c        **** 					wsect += fs->fsize;
 514              		.loc 1 884 0
 515 0050 013E     		subs	r6, r6, #1
 516              	.LVL62:
 886:.\ff.c        **** 				}
 517              		.loc 1 886 0
 518 0052 2A46     		mov	r2, r5
 519 0054 6078     		ldrb	r0, [r4, #1]	@ zero_extendqisi2
 520 0056 3946     		mov	r1, r7
 521 0058 0123     		movs	r3, #1
 522 005a FFF7FEFF 		bl	disk_write
 523              	.LVL63:
 884:.\ff.c        **** 					wsect += fs->fsize;
 524              		.loc 1 884 0
 525 005e 012E     		cmp	r6, #1
 526 0060 F4D1     		bne	.L72
 527 0062 D2E7     		b	.L55
 528              	.LVL64:
 529              	.L60:
 879:.\ff.c        **** 			res = FR_DISK_ERR;
 530              		.loc 1 879 0
 531 0064 0120     		movs	r0, #1
 532              	.LVL65:
ARM GAS  C:\Users\honet\AppData\Local\Temp\cc5ZMQU6.s 			page 63


 533 0066 BDE8F88F 		pop	{r3, r4, r5, r6, r7, r8, r9, r10, fp, pc}
 534              	.LVL66:
 535              	.L71:
 536              	.LBE351:
 537              	.LBE350:
 538              	.LBE353:
 539              	.LBE355:
 939:.\ff.c        **** 			/* Create FSInfo structure */
 540              		.loc 1 939 0 discriminator 1
 541 006a 2579     		ldrb	r5, [r4, #4]	@ zero_extendqisi2
 542 006c 012D     		cmp	r5, #1
 543 006e CFD1     		bne	.L58
 941:.\ff.c        **** 			st_word(fs->win + BS_55AA, 0xAA55);
 544              		.loc 1 941 0
 545 0070 04F13007 		add	r7, r4, #48
 546              	.LVL67:
 547 0074 3846     		mov	r0, r7
 548 0076 0021     		movs	r1, #0
 549 0078 4FF40072 		mov	r2, #512
 550 007c FFF7FEFF 		bl	memset
 551              	.LVL68:
 945:.\ff.c        **** 			st_dword(fs->win + FSI_Nxt_Free, fs->last_clst);
 552              		.loc 1 945 0
 553 0080 2669     		ldr	r6, [r4, #16]
 946:.\ff.c        **** 			/* Write it into the FSInfo sector */
 554              		.loc 1 946 0
 555 0082 E068     		ldr	r0, [r4, #12]
 948:.\ff.c        **** 			disk_write(fs->drv, fs->win, fs->winsect, 1);
 556              		.loc 1 948 0
 557 0084 E369     		ldr	r3, [r4, #28]
 558              	.LBB356:
 559              	.LBB357:
 654:.\ff.c        **** 	*ptr++ = (BYTE)val;
 560              		.loc 1 654 0
 561 0086 4FEA1669 		lsr	r9, r6, #24
 562              	.LBE357:
 563              	.LBE356:
 564              	.LBB363:
 565              	.LBB364:
 653:.\ff.c        **** 	*ptr++ = (BYTE)val; val >>= 8;
 566              		.loc 1 653 0
 567 008a 4FEA104C 		lsr	ip, r0, #16
 654:.\ff.c        **** 	*ptr++ = (BYTE)val;
 568              		.loc 1 654 0
 569 008e 4FEA106E 		lsr	lr, r0, #24
 652:.\ff.c        **** 	*ptr++ = (BYTE)val; val >>= 8;
 570              		.loc 1 652 0
 571 0092 4FEA1028 		lsr	r8, r0, #8
 572 0096 84F81C02 		strb	r0, [r4, #540]
 573              	.LBE364:
 574              	.LBE363:
 575              	.LBB366:
 576              	.LBB367:
 645:.\ff.c        **** 	*ptr++ = (BYTE)val;
 577              		.loc 1 645 0
 578 009a 5520     		movs	r0, #85
 579              	.LBE367:
ARM GAS  C:\Users\honet\AppData\Local\Temp\cc5ZMQU6.s 			page 64


 580              	.LBE366:
 948:.\ff.c        **** 			disk_write(fs->drv, fs->win, fs->winsect, 1);
 581              		.loc 1 948 0
 582 009c 5A1C     		adds	r2, r3, #1
 583              	.LBB370:
 584              	.LBB358:
 652:.\ff.c        **** 	*ptr++ = (BYTE)val; val >>= 8;
 585              		.loc 1 652 0
 586 009e 4FEA162B 		lsr	fp, r6, #8
 587              	.LBE358:
 588              	.LBE370:
 949:.\ff.c        **** 			fs->fsi_flag = 0;
 589              		.loc 1 949 0
 590 00a2 2B46     		mov	r3, r5
 591              	.LBB371:
 592              	.LBB359:
 653:.\ff.c        **** 	*ptr++ = (BYTE)val; val >>= 8;
 593              		.loc 1 653 0
 594 00a4 4FEA164A 		lsr	r10, r6, #16
 595              	.LBE359:
 596              	.LBE371:
 949:.\ff.c        **** 			fs->fsi_flag = 0;
 597              		.loc 1 949 0
 598 00a8 3946     		mov	r1, r7
 599              	.LBB372:
 600              	.LBB360:
 652:.\ff.c        **** 	*ptr++ = (BYTE)val; val >>= 8;
 601              		.loc 1 652 0
 602 00aa 84F81862 		strb	r6, [r4, #536]
 603              	.LBE360:
 604              	.LBE372:
 605              	.LBB373:
 606              	.LBB374:
 607 00ae 5225     		movs	r5, #82
 654:.\ff.c        **** 	*ptr++ = (BYTE)val;
 608              		.loc 1 654 0
 609 00b0 6126     		movs	r6, #97
 655:.\ff.c        **** }
 610              		.loc 1 655 0
 611 00b2 4127     		movs	r7, #65
 612              	.LVL69:
 613              	.LBE374:
 614              	.LBE373:
 615              	.LBB377:
 616              	.LBB361:
 617 00b4 84F81B92 		strb	r9, [r4, #539]
 618              	.LBE361:
 619              	.LBE377:
 620              	.LBB378:
 621              	.LBB368:
 645:.\ff.c        **** 	*ptr++ = (BYTE)val;
 622              		.loc 1 645 0
 623 00b8 84F82E02 		strb	r0, [r4, #558]
 624              	.LBE368:
 625              	.LBE378:
 626              	.LBB379:
 627              	.LBB380:
ARM GAS  C:\Users\honet\AppData\Local\Temp\cc5ZMQU6.s 			page 65


 652:.\ff.c        **** 	*ptr++ = (BYTE)val; val >>= 8;
 628              		.loc 1 652 0
 629 00bc 4FF07209 		mov	r9, #114
 630              	.LBE380:
 631              	.LBE379:
 632              	.LBB383:
 633              	.LBB369:
 646:.\ff.c        **** }
 634              		.loc 1 646 0
 635 00c0 AA20     		movs	r0, #170
 636 00c2 84F82F02 		strb	r0, [r4, #559]
 637              	.LBE369:
 638              	.LBE383:
 639              	.LBB384:
 640              	.LBB362:
 653:.\ff.c        **** 	*ptr++ = (BYTE)val; val >>= 8;
 641              		.loc 1 653 0
 642 00c6 84F819B2 		strb	fp, [r4, #537]
 654:.\ff.c        **** 	*ptr++ = (BYTE)val;
 643              		.loc 1 654 0
 644 00ca 84F81AA2 		strb	r10, [r4, #538]
 645              	.LBE362:
 646              	.LBE384:
 647              	.LBB385:
 648              	.LBB365:
 653:.\ff.c        **** 	*ptr++ = (BYTE)val; val >>= 8;
 649              		.loc 1 653 0
 650 00ce 84F81D82 		strb	r8, [r4, #541]
 651              	.LVL70:
 654:.\ff.c        **** 	*ptr++ = (BYTE)val;
 652              		.loc 1 654 0
 653 00d2 84F81EC2 		strb	ip, [r4, #542]
 655:.\ff.c        **** }
 654              		.loc 1 655 0
 655 00d6 84F81FE2 		strb	lr, [r4, #543]
 656              	.LBE365:
 657              	.LBE385:
 948:.\ff.c        **** 			disk_write(fs->drv, fs->win, fs->winsect, 1);
 658              		.loc 1 948 0
 659 00da E262     		str	r2, [r4, #44]
 660              	.LBB386:
 661              	.LBB375:
 652:.\ff.c        **** 	*ptr++ = (BYTE)val; val >>= 8;
 662              		.loc 1 652 0
 663 00dc 84F83050 		strb	r5, [r4, #48]
 664              	.LVL71:
 653:.\ff.c        **** 	*ptr++ = (BYTE)val; val >>= 8;
 665              		.loc 1 653 0
 666 00e0 84F83150 		strb	r5, [r4, #49]
 667              	.LVL72:
 654:.\ff.c        **** 	*ptr++ = (BYTE)val;
 668              		.loc 1 654 0
 669 00e4 84F83260 		strb	r6, [r4, #50]
 670              	.LVL73:
 671              	.LBE375:
 672              	.LBE386:
 673              	.LBB387:
ARM GAS  C:\Users\honet\AppData\Local\Temp\cc5ZMQU6.s 			page 66


 674              	.LBB381:
 655:.\ff.c        **** }
 675              		.loc 1 655 0
 676 00e8 84F81762 		strb	r6, [r4, #535]
 677              	.LBE381:
 678              	.LBE387:
 679              	.LBB388:
 680              	.LBB376:
 681 00ec 84F83370 		strb	r7, [r4, #51]
 682              	.LVL74:
 683              	.LBE376:
 684              	.LBE388:
 685              	.LBB389:
 686              	.LBB382:
 654:.\ff.c        **** 	*ptr++ = (BYTE)val;
 687              		.loc 1 654 0
 688 00f0 84F81672 		strb	r7, [r4, #534]
 652:.\ff.c        **** 	*ptr++ = (BYTE)val; val >>= 8;
 689              		.loc 1 652 0
 690 00f4 84F81492 		strb	r9, [r4, #532]
 691              	.LVL75:
 653:.\ff.c        **** 	*ptr++ = (BYTE)val; val >>= 8;
 692              		.loc 1 653 0
 693 00f8 84F81592 		strb	r9, [r4, #533]
 694              	.LVL76:
 695              	.LBE382:
 696              	.LBE389:
 949:.\ff.c        **** 			fs->fsi_flag = 0;
 697              		.loc 1 949 0
 698 00fc 6078     		ldrb	r0, [r4, #1]	@ zero_extendqisi2
 699 00fe FFF7FEFF 		bl	disk_write
 700              	.LVL77:
 950:.\ff.c        **** 		}
 701              		.loc 1 950 0
 702 0102 0023     		movs	r3, #0
 703 0104 2371     		strb	r3, [r4, #4]
 704 0106 83E7     		b	.L58
 705              		.cfi_endproc
 706              	.LFE10:
 707              		.size	sync_fs, .-sync_fs
 708              		.section	.text.find_volume,"ax",%progbits
 709              		.align	2
 710              		.thumb
 711              		.thumb_func
 712              		.type	find_volume, %function
 713              	find_volume:
 714              	.LFB30:
2932:.\ff.c        **** }
2933:.\ff.c        **** 
2934:.\ff.c        **** 
2935:.\ff.c        **** 
2936:.\ff.c        **** 
2937:.\ff.c        **** /*-----------------------------------------------------------------------*/
2938:.\ff.c        **** /* Find logical drive and check if the volume is mounted                 */
2939:.\ff.c        **** /*-----------------------------------------------------------------------*/
2940:.\ff.c        **** 
2941:.\ff.c        **** static
ARM GAS  C:\Users\honet\AppData\Local\Temp\cc5ZMQU6.s 			page 67


2942:.\ff.c        **** FRESULT find_volume (	/* FR_OK(0): successful, !=0: any error occurred */
2943:.\ff.c        **** 	const TCHAR** path,	/* Pointer to pointer to the path name (drive number) */
2944:.\ff.c        **** 	FATFS** rfs,		/* Pointer to pointer to the found file system object */
2945:.\ff.c        **** 	BYTE mode			/* !=0: Check write protection for write access */
2946:.\ff.c        **** )
2947:.\ff.c        **** {
 715              		.loc 1 2947 0
 716              		.cfi_startproc
 717              		@ args = 0, pretend = 0, frame = 16
 718              		@ frame_needed = 0, uses_anonymous_args = 0
 719              	.LVL78:
 720 0000 2DE9F041 		push	{r4, r5, r6, r7, r8, lr}
 721              		.cfi_def_cfa_offset 24
 722              		.cfi_offset 4, -24
 723              		.cfi_offset 5, -20
 724              		.cfi_offset 6, -16
 725              		.cfi_offset 7, -12
 726              		.cfi_offset 8, -8
 727              		.cfi_offset 14, -4
2948:.\ff.c        **** 	BYTE fmt, *pt;
2949:.\ff.c        **** 	int vol;
2950:.\ff.c        **** 	DSTATUS stat;
2951:.\ff.c        **** 	DWORD bsect, fasize, tsect, sysect, nclst, szbfat, br[4];
2952:.\ff.c        **** 	WORD nrsv;
2953:.\ff.c        **** 	FATFS *fs;
2954:.\ff.c        **** 	UINT i;
2955:.\ff.c        **** 
2956:.\ff.c        **** 
2957:.\ff.c        **** 	/* Get logical drive number */
2958:.\ff.c        **** 	*rfs = 0;
 728              		.loc 1 2958 0
 729 0004 0023     		movs	r3, #0
 730 0006 0B60     		str	r3, [r1]
 731              	.LVL79:
 732              	.LBB474:
 733              	.LBB475:
2868:.\ff.c        **** 		for (tt = *path; (UINT)*tt >= (_USE_LFN ? ' ' : '!') && *tt != ':'; tt++) ;	/* Find ':' in the pa
 734              		.loc 1 2868 0
 735 0008 0568     		ldr	r5, [r0]
 736              	.LBE475:
 737              	.LBE474:
2947:.\ff.c        **** 	BYTE fmt, *pt;
 738              		.loc 1 2947 0
 739 000a 84B0     		sub	sp, sp, #16
 740              		.cfi_def_cfa_offset 40
 741              	.LBB479:
 742              	.LBB476:
2868:.\ff.c        **** 		for (tt = *path; (UINT)*tt >= (_USE_LFN ? ' ' : '!') && *tt != ':'; tt++) ;	/* Find ':' in the pa
 743              		.loc 1 2868 0
 744 000c 3DB3     		cbz	r5, .L179
 745              	.LVL80:
2869:.\ff.c        **** 		if (*tt == ':') {	/* If a ':' is exist in the path name */
 746              		.loc 1 2869 0
 747 000e 2E78     		ldrb	r6, [r5]	@ zero_extendqisi2
 748 0010 202E     		cmp	r6, #32
 749 0012 09D9     		bls	.L75
 750 0014 3A2E     		cmp	r6, #58
ARM GAS  C:\Users\honet\AppData\Local\Temp\cc5ZMQU6.s 			page 68


 751 0016 22D0     		beq	.L179
 752 0018 2C46     		mov	r4, r5
 753 001a 01E0     		b	.L76
 754              	.LVL81:
 755              	.L192:
 756 001c 3A2B     		cmp	r3, #58
 757 001e 1BD0     		beq	.L191
 758              	.LVL82:
 759              	.L76:
 760 0020 14F8013F 		ldrb	r3, [r4, #1]!	@ zero_extendqisi2
 761              	.LVL83:
 762 0024 202B     		cmp	r3, #32
 763 0026 F9D8     		bhi	.L192
 764              	.LVL84:
 765              	.L75:
 766              	.LBE476:
 767              	.LBE479:
2959:.\ff.c        **** 	vol = get_ldnumber(path);
2960:.\ff.c        **** 	if (vol < 0) return FR_INVALID_DRIVE;
2961:.\ff.c        **** 
2962:.\ff.c        **** 	/* Check if the file system object is valid or not */
2963:.\ff.c        **** 	fs = FatFs[vol];					/* Get pointer to the file system object */
 768              		.loc 1 2963 0
 769 0028 C54E     		ldr	r6, .L202
 770 002a 3568     		ldr	r5, [r6]
 771              	.LVL85:
2964:.\ff.c        **** 	if (!fs) return FR_NOT_ENABLED;		/* Is the file system object available? */
 772              		.loc 1 2964 0
 773 002c DDB1     		cbz	r5, .L118
2965:.\ff.c        **** 
2966:.\ff.c        **** 	ENTER_FF(fs);						/* Lock the volume */
2967:.\ff.c        **** 	*rfs = fs;							/* Return pointer to the file system object */
 774              		.loc 1 2967 0
 775 002e 0D60     		str	r5, [r1]
2968:.\ff.c        **** 
2969:.\ff.c        **** 	mode &= (BYTE)~FA_READ;				/* Desired access mode, write access or not */
2970:.\ff.c        **** 	if (fs->fs_type) {					/* If the volume has been mounted */
 776              		.loc 1 2970 0
 777 0030 2B78     		ldrb	r3, [r5]	@ zero_extendqisi2
2969:.\ff.c        **** 	if (fs->fs_type) {					/* If the volume has been mounted */
 778              		.loc 1 2969 0
 779 0032 02F0FE04 		and	r4, r2, #254
 780              	.LVL86:
 781              		.loc 1 2970 0
 782 0036 23B1     		cbz	r3, .L78
2971:.\ff.c        **** 		stat = disk_status(fs->drv);
 783              		.loc 1 2971 0
 784 0038 6878     		ldrb	r0, [r5, #1]	@ zero_extendqisi2
 785              	.LVL87:
 786 003a FFF7FEFF 		bl	disk_status
 787              	.LVL88:
2972:.\ff.c        **** 		if (!(stat & STA_NOINIT)) {		/* and the physical drive is kept initialized */
 788              		.loc 1 2972 0
 789 003e C307     		lsls	r3, r0, #31
 790 0040 15D5     		bpl	.L193
 791              	.LVL89:
 792              	.L78:
ARM GAS  C:\Users\honet\AppData\Local\Temp\cc5ZMQU6.s 			page 69


2973:.\ff.c        **** 			if (!_FS_READONLY && mode && (stat & STA_PROTECT)) {	/* Check write protection if needed */
2974:.\ff.c        **** 				return FR_WRITE_PROTECTED;
2975:.\ff.c        **** 			}
2976:.\ff.c        **** 			return FR_OK;				/* The file system object is valid */
2977:.\ff.c        **** 		}
2978:.\ff.c        **** 	}
2979:.\ff.c        **** 
2980:.\ff.c        **** 	/* The file system object is not valid. */
2981:.\ff.c        **** 	/* Following code attempts to mount the volume. (analyze BPB and initialize the fs object) */
2982:.\ff.c        **** 
2983:.\ff.c        **** 	fs->fs_type = 0;					/* Clear the file system object */
 793              		.loc 1 2983 0
 794 0042 0020     		movs	r0, #0
 795 0044 2870     		strb	r0, [r5]
2984:.\ff.c        **** 	fs->drv = LD2PD(vol);				/* Bind the logical drive and a physical drive */
 796              		.loc 1 2984 0
 797 0046 6870     		strb	r0, [r5, #1]
2985:.\ff.c        **** 	stat = disk_initialize(fs->drv);	/* Initialize the physical drive */
 798              		.loc 1 2985 0
 799 0048 FFF7FEFF 		bl	disk_initialize
 800              	.LVL90:
2986:.\ff.c        **** 	if (stat & STA_NOINIT) { 			/* Check if the initialization succeeded */
 801              		.loc 1 2986 0
 802 004c C707     		lsls	r7, r0, #31
 803 004e 19D5     		bpl	.L194
2987:.\ff.c        **** 		return FR_NOT_READY;			/* Failed to initialize due to no medium or hard error */
 804              		.loc 1 2987 0
 805 0050 0320     		movs	r0, #3
 806              	.LVL91:
 807              	.L166:
2988:.\ff.c        **** 	}
2989:.\ff.c        **** 	if (!_FS_READONLY && mode && (stat & STA_PROTECT)) { /* Check disk write protection if needed */
2990:.\ff.c        **** 		return FR_WRITE_PROTECTED;
2991:.\ff.c        **** 	}
2992:.\ff.c        **** #if _MAX_SS != _MIN_SS						/* Get sector size (multiple sector size cfg only) */
2993:.\ff.c        **** 	if (disk_ioctl(fs->drv, GET_SECTOR_SIZE, &SS(fs)) != RES_OK) return FR_DISK_ERR;
2994:.\ff.c        **** 	if (SS(fs) > _MAX_SS || SS(fs) < _MIN_SS || (SS(fs) & (SS(fs) - 1))) return FR_DISK_ERR;
2995:.\ff.c        **** #endif
2996:.\ff.c        **** 	/* Find an FAT partition on the drive. Supports only generic partitioning, FDISK and SFD. */
2997:.\ff.c        **** 	bsect = 0;
2998:.\ff.c        **** 	fmt = check_fs(fs, bsect);			/* Load sector 0 and check if it is an FAT-VBR as SFD */
2999:.\ff.c        **** 	if (fmt == 2 || (fmt < 2 && LD2PT(vol) != 0)) {	/* Not an FAT-VBR or forced partition number */
3000:.\ff.c        **** 		for (i = 0; i < 4; i++) {			/* Get partition offset */
3001:.\ff.c        **** 			pt = fs->win + (MBR_Table + i * SZ_PTE);
3002:.\ff.c        **** 			br[i] = pt[PTE_System] ? ld_dword(pt + PTE_StLba) : 0;
3003:.\ff.c        **** 		}
3004:.\ff.c        **** 		i = LD2PT(vol);						/* Partition number: 0:auto, 1-4:forced */
3005:.\ff.c        **** 		if (i) i--;
3006:.\ff.c        **** 		do {								/* Find an FAT volume */
3007:.\ff.c        **** 			bsect = br[i];
3008:.\ff.c        **** 			fmt = bsect ? check_fs(fs, bsect) : 3;	/* Check the partition */
3009:.\ff.c        **** 		} while (!LD2PT(vol) && fmt >= 2 && ++i < 4);
3010:.\ff.c        **** 	}
3011:.\ff.c        **** 	if (fmt == 4) return FR_DISK_ERR;		/* An error occured in the disk I/O layer */
3012:.\ff.c        **** 	if (fmt >= 2) return FR_NO_FILESYSTEM;	/* No FAT volume is found */
3013:.\ff.c        **** 
3014:.\ff.c        **** 	/* An FAT volume is found. Following code initializes the file system object */
ARM GAS  C:\Users\honet\AppData\Local\Temp\cc5ZMQU6.s 			page 70


3015:.\ff.c        **** 
3016:.\ff.c        **** #if _FS_EXFAT
3017:.\ff.c        **** 	if (fmt == 1) {
3018:.\ff.c        **** 		QWORD maxlba;
3019:.\ff.c        **** 
3020:.\ff.c        **** 		for (i = BPB_ZeroedEx; i < BPB_ZeroedEx + 53 && fs->win[i] == 0; i++) ;	/* Check zero filler */
3021:.\ff.c        **** 		if (i < BPB_ZeroedEx + 53) return FR_NO_FILESYSTEM;
3022:.\ff.c        **** 
3023:.\ff.c        **** 		if (ld_word(fs->win + BPB_FSVerEx) != 0x100) return FR_NO_FILESYSTEM;	/* Check exFAT revision (Mu
3024:.\ff.c        **** 
3025:.\ff.c        **** 		if (1 << fs->win[BPB_BytsPerSecEx] != SS(fs))	/* (BPB_BytsPerSecEx must be equal to the physical 
3026:.\ff.c        **** 			return FR_NO_FILESYSTEM;
3027:.\ff.c        **** 
3028:.\ff.c        **** 		maxlba = ld_qword(fs->win + BPB_TotSecEx) + bsect;	/* Last LBA + 1 of the volume */
3029:.\ff.c        **** 		if (maxlba >= 0x100000000) return FR_NO_FILESYSTEM;	/* (It cannot be handled in 32-bit LBA) */
3030:.\ff.c        **** 
3031:.\ff.c        **** 		fs->fsize = ld_dword(fs->win + BPB_FatSzEx);	/* Number of sectors per FAT */
3032:.\ff.c        **** 
3033:.\ff.c        **** 		fs->n_fats = fs->win[BPB_NumFATsEx];			/* Number of FATs */
3034:.\ff.c        **** 		if (fs->n_fats != 1) return FR_NO_FILESYSTEM;	/* (Supports only 1 FAT) */
3035:.\ff.c        **** 
3036:.\ff.c        **** 		fs->csize = 1 << fs->win[BPB_SecPerClusEx];		/* Cluster size */
3037:.\ff.c        **** 		if (fs->csize == 0)	return FR_NO_FILESYSTEM;	/* (Must be 1..32768) */
3038:.\ff.c        **** 
3039:.\ff.c        **** 		nclst = ld_dword(fs->win + BPB_NumClusEx);		/* Number of clusters */
3040:.\ff.c        **** 		if (nclst > MAX_EXFAT) return FR_NO_FILESYSTEM;	/* (Too many clusters) */
3041:.\ff.c        **** 		fs->n_fatent = nclst + 2;
3042:.\ff.c        **** 
3043:.\ff.c        **** 		/* Boundaries and Limits */
3044:.\ff.c        **** 		fs->volbase = bsect;
3045:.\ff.c        **** 		fs->database = bsect + ld_dword(fs->win + BPB_DataOfsEx);
3046:.\ff.c        **** 		fs->fatbase = bsect + ld_dword(fs->win + BPB_FatOfsEx);
3047:.\ff.c        **** 		if (maxlba < (QWORD)fs->database + nclst * fs->csize) return FR_NO_FILESYSTEM;	/* (Volume size mu
3048:.\ff.c        **** 		fs->dirbase = ld_dword(fs->win + BPB_RootClusEx);
3049:.\ff.c        **** 
3050:.\ff.c        **** 		/* Check if bitmap location is in assumption (at the first cluster) */
3051:.\ff.c        **** 		if (move_window(fs, clust2sect(fs, fs->dirbase)) != FR_OK) return FR_DISK_ERR;
3052:.\ff.c        **** 		for (i = 0; i < SS(fs); i += SZDIRE) {
3053:.\ff.c        **** 			if (fs->win[i] == 0x81 && ld_dword(fs->win + i + 20) == 2) break;	/* 81 entry with cluster #2? *
3054:.\ff.c        **** 		}
3055:.\ff.c        **** 		if (i == SS(fs)) return FR_NO_FILESYSTEM;
3056:.\ff.c        **** #if !_FS_READONLY
3057:.\ff.c        **** 		fs->last_clst = fs->free_clst = 0xFFFFFFFF;		/* Initialize cluster allocation information */
3058:.\ff.c        **** #endif
3059:.\ff.c        **** 		fmt = FS_EXFAT;			/* FAT sub-type */
3060:.\ff.c        **** 	} else
3061:.\ff.c        **** #endif	/* _FS_EXFAT */
3062:.\ff.c        **** 	{
3063:.\ff.c        **** 		if (ld_word(fs->win + BPB_BytsPerSec) != SS(fs)) return FR_NO_FILESYSTEM;	/* (BPB_BytsPerSec must
3064:.\ff.c        **** 
3065:.\ff.c        **** 		fasize = ld_word(fs->win + BPB_FATSz16);			/* Number of sectors per FAT */
3066:.\ff.c        **** 		if (fasize == 0) fasize = ld_dword(fs->win + BPB_FATSz32);
3067:.\ff.c        **** 		fs->fsize = fasize;
3068:.\ff.c        **** 
3069:.\ff.c        **** 		fs->n_fats = fs->win[BPB_NumFATs];					/* Number of FATs */
3070:.\ff.c        **** 		if (fs->n_fats != 1 && fs->n_fats != 2) return FR_NO_FILESYSTEM;	/* (Must be 1 or 2) */
3071:.\ff.c        **** 		fasize *= fs->n_fats;								/* Number of sectors for FAT area */
ARM GAS  C:\Users\honet\AppData\Local\Temp\cc5ZMQU6.s 			page 71


3072:.\ff.c        **** 
3073:.\ff.c        **** 		fs->csize = fs->win[BPB_SecPerClus];				/* Cluster size */
3074:.\ff.c        **** 		if (fs->csize == 0 || (fs->csize & (fs->csize - 1))) return FR_NO_FILESYSTEM;	/* (Must be power o
3075:.\ff.c        **** 
3076:.\ff.c        **** 		fs->n_rootdir = ld_word(fs->win + BPB_RootEntCnt);	/* Number of root directory entries */
3077:.\ff.c        **** 		if (fs->n_rootdir % (SS(fs) / SZDIRE)) return FR_NO_FILESYSTEM;	/* (Must be sector aligned) */
3078:.\ff.c        **** 
3079:.\ff.c        **** 		tsect = ld_word(fs->win + BPB_TotSec16);			/* Number of sectors on the volume */
3080:.\ff.c        **** 		if (tsect == 0) tsect = ld_dword(fs->win + BPB_TotSec32);
3081:.\ff.c        **** 
3082:.\ff.c        **** 		nrsv = ld_word(fs->win + BPB_RsvdSecCnt);			/* Number of reserved sectors */
3083:.\ff.c        **** 		if (nrsv == 0) return FR_NO_FILESYSTEM;				/* (Must not be 0) */
3084:.\ff.c        **** 
3085:.\ff.c        **** 		/* Determine the FAT sub type */
3086:.\ff.c        **** 		sysect = nrsv + fasize + fs->n_rootdir / (SS(fs) / SZDIRE);	/* RSV + FAT + DIR */
3087:.\ff.c        **** 		if (tsect < sysect) return FR_NO_FILESYSTEM;		/* (Invalid volume size) */
3088:.\ff.c        **** 		nclst = (tsect - sysect) / fs->csize;				/* Number of clusters */
3089:.\ff.c        **** 		if (nclst == 0) return FR_NO_FILESYSTEM;			/* (Invalid volume size) */
3090:.\ff.c        **** 		fmt = FS_FAT32;
3091:.\ff.c        **** 		if (nclst <= MAX_FAT16) fmt = FS_FAT16;
3092:.\ff.c        **** 		if (nclst <= MAX_FAT12) fmt = FS_FAT12;
3093:.\ff.c        **** 
3094:.\ff.c        **** 		/* Boundaries and Limits */
3095:.\ff.c        **** 		fs->n_fatent = nclst + 2;							/* Number of FAT entries */
3096:.\ff.c        **** 		fs->volbase = bsect;								/* Volume start sector */
3097:.\ff.c        **** 		fs->fatbase = bsect + nrsv; 						/* FAT start sector */
3098:.\ff.c        **** 		fs->database = bsect + sysect;						/* Data start sector */
3099:.\ff.c        **** 		if (fmt == FS_FAT32) {
3100:.\ff.c        **** 			if (ld_word(fs->win + BPB_FSVer32) != 0) return FR_NO_FILESYSTEM;	/* (Must be FAT32 revision 0.0
3101:.\ff.c        **** 			if (fs->n_rootdir) return FR_NO_FILESYSTEM;		/* (BPB_RootEntCnt must be 0) */
3102:.\ff.c        **** 			fs->dirbase = ld_dword(fs->win + BPB_RootClus32);	/* Root directory start cluster */
3103:.\ff.c        **** 			szbfat = fs->n_fatent * 4;						/* (Needed FAT size) */
3104:.\ff.c        **** 		} else {
3105:.\ff.c        **** 			if (fs->n_rootdir == 0)	return FR_NO_FILESYSTEM;/* (BPB_RootEntCnt must not be 0) */
3106:.\ff.c        **** 			fs->dirbase = fs->fatbase + fasize;				/* Root directory start sector */
3107:.\ff.c        **** 			szbfat = (fmt == FS_FAT16) ?					/* (Needed FAT size) */
3108:.\ff.c        **** 				fs->n_fatent * 2 : fs->n_fatent * 3 / 2 + (fs->n_fatent & 1);
3109:.\ff.c        **** 		}
3110:.\ff.c        **** 		if (fs->fsize < (szbfat + (SS(fs) - 1)) / SS(fs)) return FR_NO_FILESYSTEM;	/* (BPB_FATSz must not
3111:.\ff.c        **** 
3112:.\ff.c        **** #if !_FS_READONLY
3113:.\ff.c        **** 		/* Get FSINFO if available */
3114:.\ff.c        **** 		fs->last_clst = fs->free_clst = 0xFFFFFFFF;		/* Initialize cluster allocation information */
3115:.\ff.c        **** 		fs->fsi_flag = 0x80;
3116:.\ff.c        **** #if (_FS_NOFSINFO & 3) != 3
3117:.\ff.c        **** 		if (fmt == FS_FAT32				/* Enable FSINFO only if FAT32 and BPB_FSInfo32 == 1 */
3118:.\ff.c        **** 			&& ld_word(fs->win + BPB_FSInfo32) == 1
3119:.\ff.c        **** 			&& move_window(fs, bsect + 1) == FR_OK)
3120:.\ff.c        **** 		{
3121:.\ff.c        **** 			fs->fsi_flag = 0;
3122:.\ff.c        **** 			if (ld_word(fs->win + BS_55AA) == 0xAA55	/* Load FSINFO data if available */
3123:.\ff.c        **** 				&& ld_dword(fs->win + FSI_LeadSig) == 0x41615252
3124:.\ff.c        **** 				&& ld_dword(fs->win + FSI_StrucSig) == 0x61417272)
3125:.\ff.c        **** 			{
3126:.\ff.c        **** #if (_FS_NOFSINFO & 1) == 0
3127:.\ff.c        **** 				fs->free_clst = ld_dword(fs->win + FSI_Free_Count);
3128:.\ff.c        **** #endif
ARM GAS  C:\Users\honet\AppData\Local\Temp\cc5ZMQU6.s 			page 72


3129:.\ff.c        **** #if (_FS_NOFSINFO & 2) == 0
3130:.\ff.c        **** 				fs->last_clst = ld_dword(fs->win + FSI_Nxt_Free);
3131:.\ff.c        **** #endif
3132:.\ff.c        **** 			}
3133:.\ff.c        **** 		}
3134:.\ff.c        **** #endif	/* (_FS_NOFSINFO & 3) != 3 */
3135:.\ff.c        **** #endif	/* !_FS_READONLY */
3136:.\ff.c        **** 	}
3137:.\ff.c        **** 
3138:.\ff.c        **** 	fs->fs_type = fmt;	/* FAT sub-type */
3139:.\ff.c        **** 	fs->id = ++Fsid;	/* File system mount ID */
3140:.\ff.c        **** #if _USE_LFN == 1
3141:.\ff.c        **** 	fs->lfnbuf = LfnBuf;	/* Static LFN working buffer */
3142:.\ff.c        **** #if _FS_EXFAT
3143:.\ff.c        **** 	fs->dirbuf = DirBuf;	/* Static directory block working buuffer */
3144:.\ff.c        **** #endif
3145:.\ff.c        **** #endif
3146:.\ff.c        **** #if _FS_RPATH != 0
3147:.\ff.c        **** 	fs->cdir = 0;		/* Initialize current directory */
3148:.\ff.c        **** #endif
3149:.\ff.c        **** #if _FS_LOCK != 0		/* Clear file lock semaphores */
3150:.\ff.c        **** 	clear_lock(fs);
3151:.\ff.c        **** #endif
3152:.\ff.c        **** 	return FR_OK;
3153:.\ff.c        **** }
 808              		.loc 1 3153 0
 809 0052 04B0     		add	sp, sp, #16
 810              		.cfi_remember_state
 811              		.cfi_def_cfa_offset 24
 812              		@ sp needed
 813 0054 BDE8F081 		pop	{r4, r5, r6, r7, r8, pc}
 814              	.LVL92:
 815              	.L191:
 816              		.cfi_restore_state
 817              	.LBB480:
 818              	.LBB477:
2872:.\ff.c        **** 			if (i < 10 && tp == tt) {	/* Is there a numeric drive id? */
 819              		.loc 1 2872 0
 820 0058 6B1C     		adds	r3, r5, #1
 821              	.LVL93:
2873:.\ff.c        **** 				if (i < _VOLUMES) {	/* If a drive id is found, get the value and strip it */
 822              		.loc 1 2873 0
 823 005a 9C42     		cmp	r4, r3
 824 005c 24D0     		beq	.L107
 825              	.LVL94:
 826              	.L179:
 827              	.LBE477:
 828              	.LBE480:
2960:.\ff.c        **** 
 829              		.loc 1 2960 0
 830 005e 0B20     		movs	r0, #11
 831              	.LVL95:
 832              		.loc 1 3153 0
 833 0060 04B0     		add	sp, sp, #16
 834              		.cfi_remember_state
 835              		.cfi_def_cfa_offset 24
 836              		@ sp needed
ARM GAS  C:\Users\honet\AppData\Local\Temp\cc5ZMQU6.s 			page 73


 837 0062 BDE8F081 		pop	{r4, r5, r6, r7, r8, pc}
 838              	.LVL96:
 839              	.L118:
 840              		.cfi_restore_state
2964:.\ff.c        **** 
 841              		.loc 1 2964 0
 842 0066 0C20     		movs	r0, #12
 843              	.LVL97:
 844              		.loc 1 3153 0
 845 0068 04B0     		add	sp, sp, #16
 846              		.cfi_remember_state
 847              		.cfi_def_cfa_offset 24
 848              		@ sp needed
 849 006a BDE8F081 		pop	{r4, r5, r6, r7, r8, pc}
 850              	.LVL98:
 851              	.L193:
 852              		.cfi_restore_state
2973:.\ff.c        **** 				return FR_WRITE_PROTECTED;
 853              		.loc 1 2973 0
 854 006e 002C     		cmp	r4, #0
 855 0070 00F0E680 		beq	.L178
2973:.\ff.c        **** 				return FR_WRITE_PROTECTED;
 856              		.loc 1 2973 0 is_stmt 0 discriminator 1
 857 0074 00F00403 		and	r3, r0, #4
 858 0078 03F0FF00 		and	r0, r3, #255
 859              	.LVL99:
 860 007c 002B     		cmp	r3, #0
 861 007e E8D0     		beq	.L166
 862              	.L80:
2974:.\ff.c        **** 			}
 863              		.loc 1 2974 0 is_stmt 1
 864 0080 0A20     		movs	r0, #10
 865 0082 E6E7     		b	.L166
 866              	.LVL100:
 867              	.L194:
2989:.\ff.c        **** 		return FR_WRITE_PROTECTED;
 868              		.loc 1 2989 0
 869 0084 0CB1     		cbz	r4, .L79
2989:.\ff.c        **** 		return FR_WRITE_PROTECTED;
 870              		.loc 1 2989 0 is_stmt 0 discriminator 1
 871 0086 4107     		lsls	r1, r0, #29
 872 0088 FAD4     		bmi	.L80
 873              	.L79:
 874              	.LVL101:
 875              	.LBB481:
 876              	.LBB482:
2919:.\ff.c        **** 	if (move_window(fs, sect) != FR_OK) return 4;	/* Load boot record */
 877              		.loc 1 2919 0 is_stmt 1
 878 008a 0022     		movs	r2, #0
 879 008c 4FF0FF34 		mov	r4, #-1
 880              	.LVL102:
 881 0090 EA70     		strb	r2, [r5, #3]
 882 0092 EC62     		str	r4, [r5, #44]
 883              	.LVL103:
 884              	.LBB483:
 885              	.LBB484:
 910:.\ff.c        **** 				sector = 0xFFFFFFFF;	/* Invalidate window if data is not reliable */
ARM GAS  C:\Users\honet\AppData\Local\Temp\cc5ZMQU6.s 			page 74


 886              		.loc 1 910 0
 887 0094 6878     		ldrb	r0, [r5, #1]	@ zero_extendqisi2
 888              	.LVL104:
 889 0096 05F13001 		add	r1, r5, #48
 890 009a 0123     		movs	r3, #1
 891 009c FFF7FEFF 		bl	disk_read
 892              	.LVL105:
 893 00a0 38B1     		cbz	r0, .L195
 894              	.LVL106:
 914:.\ff.c        **** 		}
 895              		.loc 1 914 0
 896 00a2 EC62     		str	r4, [r5, #44]
 897              	.LVL107:
 898              	.L177:
 899              	.LBE484:
 900              	.LBE483:
 901              	.LBE482:
 902              	.LBE481:
3011:.\ff.c        **** 	if (fmt >= 2) return FR_NO_FILESYSTEM;	/* No FAT volume is found */
 903              		.loc 1 3011 0
 904 00a4 0120     		movs	r0, #1
 905 00a6 D4E7     		b	.L166
 906              	.LVL108:
 907              	.L107:
 908              	.LBB504:
 909              	.LBB478:
2874:.\ff.c        **** 					vol = (int)i;
 910              		.loc 1 2874 0
 911 00a8 302E     		cmp	r6, #48
 912 00aa D8D1     		bne	.L179
 913              	.LVL109:
2876:.\ff.c        **** 				}
 914              		.loc 1 2876 0
 915 00ac 0235     		adds	r5, r5, #2
 916              	.LVL110:
 917 00ae 0560     		str	r5, [r0]
 918 00b0 BAE7     		b	.L75
 919              	.LVL111:
 920              	.L195:
 921              	.LBE478:
 922              	.LBE504:
 923              	.LBB505:
 924              	.LBB501:
2922:.\ff.c        **** 
 925              		.loc 1 2922 0
 926 00b2 4AF65522 		movw	r2, #43605
 927              	.LBB486:
 928              	.LBB487:
 607:.\ff.c        **** 	return rv;
 929              		.loc 1 607 0
 930 00b6 95F82F12 		ldrb	r1, [r5, #559]	@ zero_extendqisi2
 931 00ba 95F82E32 		ldrb	r3, [r5, #558]	@ zero_extendqisi2
 932              	.LBE487:
 933              	.LBE486:
 934              	.LBB489:
 935              	.LBB485:
 914:.\ff.c        **** 		}
ARM GAS  C:\Users\honet\AppData\Local\Temp\cc5ZMQU6.s 			page 75


 936              		.loc 1 914 0
 937 00be E862     		str	r0, [r5, #44]
 938              	.LVL112:
 939              	.LBE485:
 940              	.LBE489:
 941              	.LBB490:
 942              	.LBB488:
 607:.\ff.c        **** 	return rv;
 943              		.loc 1 607 0
 944 00c0 43EA0123 		orr	r3, r3, r1, lsl #8
 945              	.LBE488:
 946              	.LBE490:
2922:.\ff.c        **** 
 947              		.loc 1 2922 0
 948 00c4 9342     		cmp	r3, r2
 949 00c6 00F0BD80 		beq	.L196
 950              	.LVL113:
 951              	.L96:
 952              	.LBE501:
 953              	.LBE505:
3012:.\ff.c        **** 
 954              		.loc 1 3012 0
 955 00ca 0D20     		movs	r0, #13
 956 00cc C1E7     		b	.L166
 957              	.LVL114:
 958              	.L83:
 959              	.LBB506:
 960              	.LBB502:
 961              	.LBB491:
 962              	.LBB492:
 963              	.LBB493:
 964              	.LBB494:
 617:.\ff.c        **** 	rv = rv << 8 | ptr[1];
 965              		.loc 1 617 0
 966 00ce 95F86830 		ldrb	r3, [r5, #104]	@ zero_extendqisi2
 616:.\ff.c        **** 	rv = rv << 8 | ptr[2];
 967              		.loc 1 616 0
 968 00d2 95F86910 		ldrb	r1, [r5, #105]	@ zero_extendqisi2
 969              	.LVL115:
 618:.\ff.c        **** 	rv = rv << 8 | ptr[0];
 970              		.loc 1 618 0
 971 00d6 95F86720 		ldrb	r2, [r5, #103]	@ zero_extendqisi2
 617:.\ff.c        **** 	rv = rv << 8 | ptr[1];
 972              		.loc 1 617 0
 973 00da 43EA0121 		orr	r1, r3, r1, lsl #8
 974              	.LVL116:
 619:.\ff.c        **** 	return rv;
 975              		.loc 1 619 0
 976 00de 95F86630 		ldrb	r3, [r5, #102]	@ zero_extendqisi2
 618:.\ff.c        **** 	rv = rv << 8 | ptr[0];
 977              		.loc 1 618 0
 978 00e2 42EA0122 		orr	r2, r2, r1, lsl #8
 979              	.LVL117:
 619:.\ff.c        **** 	return rv;
 980              		.loc 1 619 0
 981 00e6 43EA0223 		orr	r3, r3, r2, lsl #8
 982              	.LVL118:
ARM GAS  C:\Users\honet\AppData\Local\Temp\cc5ZMQU6.s 			page 76


 983              	.LBE494:
 984              	.LBE493:
2925:.\ff.c        **** 		if (ld_dword(fs->win + BS_FilSysType32) == 0x33544146) return 0;			/* Check "FAT3" string */
 985              		.loc 1 2925 0
 986 00ea 964A     		ldr	r2, .L202+4
 987 00ec 23F07F43 		bic	r3, r3, #-16777216
 988              	.LVL119:
 989 00f0 9342     		cmp	r3, r2
 990 00f2 11D0     		beq	.L151
 991              	.LVL120:
 992              	.LBB495:
 993              	.LBB496:
 617:.\ff.c        **** 	rv = rv << 8 | ptr[1];
 994              		.loc 1 617 0
 995 00f4 95F88430 		ldrb	r3, [r5, #132]	@ zero_extendqisi2
 616:.\ff.c        **** 	rv = rv << 8 | ptr[2];
 996              		.loc 1 616 0
 997 00f8 95F88510 		ldrb	r1, [r5, #133]	@ zero_extendqisi2
 998              	.LVL121:
 618:.\ff.c        **** 	rv = rv << 8 | ptr[0];
 999              		.loc 1 618 0
 1000 00fc 95F88320 		ldrb	r2, [r5, #131]	@ zero_extendqisi2
 617:.\ff.c        **** 	rv = rv << 8 | ptr[1];
 1001              		.loc 1 617 0
 1002 0100 43EA0121 		orr	r1, r3, r1, lsl #8
 1003              	.LVL122:
 619:.\ff.c        **** 	return rv;
 1004              		.loc 1 619 0
 1005 0104 95F88230 		ldrb	r3, [r5, #130]	@ zero_extendqisi2
 618:.\ff.c        **** 	rv = rv << 8 | ptr[0];
 1006              		.loc 1 618 0
 1007 0108 42EA0122 		orr	r2, r2, r1, lsl #8
 1008              	.LVL123:
 1009              	.LBE496:
 1010              	.LBE495:
2926:.\ff.c        **** 	}
 1011              		.loc 1 2926 0
 1012 010c 8E49     		ldr	r1, .L202+8
 1013              	.LBB498:
 1014              	.LBB497:
 619:.\ff.c        **** 	return rv;
 1015              		.loc 1 619 0
 1016 010e 43EA0223 		orr	r3, r3, r2, lsl #8
 1017              	.LVL124:
 1018              	.LBE497:
 1019              	.LBE498:
2926:.\ff.c        **** 	}
 1020              		.loc 1 2926 0
 1021 0112 8B42     		cmp	r3, r1
 1022 0114 40F0A280 		bne	.L90
 1023              	.LVL125:
 1024              	.L151:
 1025              	.LBE492:
 1026              	.LBE491:
 1027              	.LBE502:
 1028              	.LBE506:
2997:.\ff.c        **** 	fmt = check_fs(fs, bsect);			/* Load sector 0 and check if it is an FAT-VBR as SFD */
ARM GAS  C:\Users\honet\AppData\Local\Temp\cc5ZMQU6.s 			page 77


 1029              		.loc 1 2997 0
 1030 0118 0024     		movs	r4, #0
 1031              	.LVL126:
 1032              	.L109:
 1033              	.LBB507:
 1034              	.LBB508:
 607:.\ff.c        **** 	return rv;
 1035              		.loc 1 607 0
 1036 011a 95F83C20 		ldrb	r2, [r5, #60]	@ zero_extendqisi2
 1037 011e 95F83B30 		ldrb	r3, [r5, #59]	@ zero_extendqisi2
 1038 0122 43EA0223 		orr	r3, r3, r2, lsl #8
 1039              	.LBE508:
 1040              	.LBE507:
3063:.\ff.c        **** 
 1041              		.loc 1 3063 0
 1042 0126 B3F5007F 		cmp	r3, #512
 1043 012a CED1     		bne	.L96
 1044              	.LVL127:
 1045              	.LBB509:
 1046              	.LBB510:
 607:.\ff.c        **** 	return rv;
 1047              		.loc 1 607 0
 1048 012c 95F84710 		ldrb	r1, [r5, #71]	@ zero_extendqisi2
 1049 0130 95F84630 		ldrb	r3, [r5, #70]	@ zero_extendqisi2
 1050              	.LVL128:
 1051              	.LBE510:
 1052              	.LBE509:
3066:.\ff.c        **** 		fs->fsize = fasize;
 1053              		.loc 1 3066 0
 1054 0134 53EA0121 		orrs	r1, r3, r1, lsl #8
 1055              	.LVL129:
 1056 0138 0DD1     		bne	.L97
 1057              	.LVL130:
 1058              	.LBB511:
 1059              	.LBB512:
 616:.\ff.c        **** 	rv = rv << 8 | ptr[2];
 1060              		.loc 1 616 0 discriminator 1
 1061 013a 95F85710 		ldrb	r1, [r5, #87]	@ zero_extendqisi2
 1062              	.LVL131:
 617:.\ff.c        **** 	rv = rv << 8 | ptr[1];
 1063              		.loc 1 617 0 discriminator 1
 1064 013e 95F85620 		ldrb	r2, [r5, #86]	@ zero_extendqisi2
 618:.\ff.c        **** 	rv = rv << 8 | ptr[0];
 1065              		.loc 1 618 0 discriminator 1
 1066 0142 95F85530 		ldrb	r3, [r5, #85]	@ zero_extendqisi2
 1067              	.LVL132:
 617:.\ff.c        **** 	rv = rv << 8 | ptr[1];
 1068              		.loc 1 617 0 discriminator 1
 1069 0146 42EA0122 		orr	r2, r2, r1, lsl #8
 1070              	.LVL133:
 619:.\ff.c        **** 	return rv;
 1071              		.loc 1 619 0 discriminator 1
 1072 014a 95F85410 		ldrb	r1, [r5, #84]	@ zero_extendqisi2
 618:.\ff.c        **** 	rv = rv << 8 | ptr[0];
 1073              		.loc 1 618 0 discriminator 1
 1074 014e 43EA0223 		orr	r3, r3, r2, lsl #8
 1075              	.LVL134:
ARM GAS  C:\Users\honet\AppData\Local\Temp\cc5ZMQU6.s 			page 78


 619:.\ff.c        **** 	return rv;
 1076              		.loc 1 619 0 discriminator 1
 1077 0152 41EA0321 		orr	r1, r1, r3, lsl #8
 1078              	.LVL135:
 1079              	.L97:
 1080              	.LBE512:
 1081              	.LBE511:
3069:.\ff.c        **** 		if (fs->n_fats != 1 && fs->n_fats != 2) return FR_NO_FILESYSTEM;	/* (Must be 1 or 2) */
 1082              		.loc 1 3069 0
 1083 0156 95F84000 		ldrb	r0, [r5, #64]	@ zero_extendqisi2
3067:.\ff.c        **** 
 1084              		.loc 1 3067 0
 1085 015a A961     		str	r1, [r5, #24]
3070:.\ff.c        **** 		fasize *= fs->n_fats;								/* Number of sectors for FAT area */
 1086              		.loc 1 3070 0
 1087 015c 431E     		subs	r3, r0, #1
 1088 015e 012B     		cmp	r3, #1
3069:.\ff.c        **** 		if (fs->n_fats != 1 && fs->n_fats != 2) return FR_NO_FILESYSTEM;	/* (Must be 1 or 2) */
 1089              		.loc 1 3069 0
 1090 0160 A870     		strb	r0, [r5, #2]
3070:.\ff.c        **** 		fasize *= fs->n_fats;								/* Number of sectors for FAT area */
 1091              		.loc 1 3070 0
 1092 0162 B2D8     		bhi	.L96
3073:.\ff.c        **** 		if (fs->csize == 0 || (fs->csize & (fs->csize - 1))) return FR_NO_FILESYSTEM;	/* (Must be power o
 1093              		.loc 1 3073 0
 1094 0164 95F83D30 		ldrb	r3, [r5, #61]	@ zero_extendqisi2
3071:.\ff.c        **** 
 1095              		.loc 1 3071 0
 1096 0168 00FB01F0 		mul	r0, r0, r1
 1097              	.LVL136:
3073:.\ff.c        **** 		if (fs->csize == 0 || (fs->csize & (fs->csize - 1))) return FR_NO_FILESYSTEM;	/* (Must be power o
 1098              		.loc 1 3073 0
 1099 016c 9AB2     		uxth	r2, r3
 1100 016e 6A81     		strh	r2, [r5, #10]	@ movhi
3074:.\ff.c        **** 
 1101              		.loc 1 3074 0
 1102 0170 002A     		cmp	r2, #0
 1103 0172 AAD0     		beq	.L96
3074:.\ff.c        **** 
 1104              		.loc 1 3074 0 is_stmt 0 discriminator 2
 1105 0174 5A1E     		subs	r2, r3, #1
 1106 0176 1A42     		tst	r2, r3
 1107 0178 A7D1     		bne	.L96
 1108              	.LVL137:
 1109              	.LBB513:
 1110              	.LBB514:
 607:.\ff.c        **** 	return rv;
 1111              		.loc 1 607 0 is_stmt 1
 1112 017a 95F84120 		ldrb	r2, [r5, #65]	@ zero_extendqisi2
 1113 017e 95F84270 		ldrb	r7, [r5, #66]	@ zero_extendqisi2
 1114 0182 42EA0727 		orr	r7, r2, r7, lsl #8
 1115              	.LVL138:
 1116              	.LBE514:
 1117              	.LBE513:
3077:.\ff.c        **** 
 1118              		.loc 1 3077 0
 1119 0186 3A07     		lsls	r2, r7, #28
ARM GAS  C:\Users\honet\AppData\Local\Temp\cc5ZMQU6.s 			page 79


3076:.\ff.c        **** 		if (fs->n_rootdir % (SS(fs) / SZDIRE)) return FR_NO_FILESYSTEM;	/* (Must be sector aligned) */
 1120              		.loc 1 3076 0
 1121 0188 2F81     		strh	r7, [r5, #8]	@ movhi
3077:.\ff.c        **** 
 1122              		.loc 1 3077 0
 1123 018a 9ED1     		bne	.L96
 1124              	.LVL139:
 1125              	.LBB515:
 1126              	.LBB516:
 607:.\ff.c        **** 	return rv;
 1127              		.loc 1 607 0
 1128 018c 95F844E0 		ldrb	lr, [r5, #68]	@ zero_extendqisi2
 1129 0190 95F84320 		ldrb	r2, [r5, #67]	@ zero_extendqisi2
 1130              	.LVL140:
 1131              	.LBE516:
 1132              	.LBE515:
3080:.\ff.c        **** 
 1133              		.loc 1 3080 0
 1134 0194 52EA0E22 		orrs	r2, r2, lr, lsl #8
 1135              	.LVL141:
 1136 0198 0DD1     		bne	.L98
 1137              	.LVL142:
 1138              	.LBB517:
 1139              	.LBB518:
 617:.\ff.c        **** 	rv = rv << 8 | ptr[1];
 1140              		.loc 1 617 0 discriminator 1
 1141 019a 95F85220 		ldrb	r2, [r5, #82]	@ zero_extendqisi2
 1142              	.LVL143:
 616:.\ff.c        **** 	rv = rv << 8 | ptr[2];
 1143              		.loc 1 616 0 discriminator 1
 1144 019e 95F853C0 		ldrb	ip, [r5, #83]	@ zero_extendqisi2
 1145              	.LVL144:
 618:.\ff.c        **** 	rv = rv << 8 | ptr[0];
 1146              		.loc 1 618 0 discriminator 1
 1147 01a2 95F851E0 		ldrb	lr, [r5, #81]	@ zero_extendqisi2
 1148              	.LVL145:
 617:.\ff.c        **** 	rv = rv << 8 | ptr[1];
 1149              		.loc 1 617 0 discriminator 1
 1150 01a6 42EA0C2C 		orr	ip, r2, ip, lsl #8
 1151              	.LVL146:
 619:.\ff.c        **** 	return rv;
 1152              		.loc 1 619 0 discriminator 1
 1153 01aa 95F85020 		ldrb	r2, [r5, #80]	@ zero_extendqisi2
 618:.\ff.c        **** 	rv = rv << 8 | ptr[0];
 1154              		.loc 1 618 0 discriminator 1
 1155 01ae 4EEA0C2E 		orr	lr, lr, ip, lsl #8
 1156              	.LVL147:
 619:.\ff.c        **** 	return rv;
 1157              		.loc 1 619 0 discriminator 1
 1158 01b2 42EA0E22 		orr	r2, r2, lr, lsl #8
 1159              	.LVL148:
 1160              	.L98:
 1161              	.LBE518:
 1162              	.LBE517:
 1163              	.LBB519:
 1164              	.LBB520:
 607:.\ff.c        **** 	return rv;
ARM GAS  C:\Users\honet\AppData\Local\Temp\cc5ZMQU6.s 			page 80


 1165              		.loc 1 607 0
 1166 01b6 95F83FC0 		ldrb	ip, [r5, #63]	@ zero_extendqisi2
 1167 01ba 95F83EE0 		ldrb	lr, [r5, #62]	@ zero_extendqisi2
 1168              	.LVL149:
 1169              	.LBE520:
 1170              	.LBE519:
3083:.\ff.c        **** 
 1171              		.loc 1 3083 0
 1172 01be 5EEA0C2C 		orrs	ip, lr, ip, lsl #8
 1173              	.LVL150:
 1174 01c2 82D0     		beq	.L96
 1175 01c4 0CEB171E 		add	lr, ip, r7, lsr #4
 1176              	.LVL151:
3086:.\ff.c        **** 		if (tsect < sysect) return FR_NO_FILESYSTEM;		/* (Invalid volume size) */
 1177              		.loc 1 3086 0
 1178 01c8 8644     		add	lr, lr, r0
 1179              	.LVL152:
3087:.\ff.c        **** 		nclst = (tsect - sysect) / fs->csize;				/* Number of clusters */
 1180              		.loc 1 3087 0
 1181 01ca 7245     		cmp	r2, lr
 1182 01cc FFF47DAF 		bcc	.L96
3088:.\ff.c        **** 		if (nclst == 0) return FR_NO_FILESYSTEM;			/* (Invalid volume size) */
 1183              		.loc 1 3088 0
 1184 01d0 CEEB0202 		rsb	r2, lr, r2
 1185              	.LVL153:
 1186 01d4 B2FBF3F3 		udiv	r3, r2, r3
 1187              	.LVL154:
3089:.\ff.c        **** 		fmt = FS_FAT32;
 1188              		.loc 1 3089 0
 1189 01d8 002B     		cmp	r3, #0
 1190 01da 3FF476AF 		beq	.L96
 1191              	.LVL155:
3091:.\ff.c        **** 		if (nclst <= MAX_FAT12) fmt = FS_FAT12;
 1192              		.loc 1 3091 0
 1193 01de 4FF6F572 		movw	r2, #65525
 1194 01e2 9342     		cmp	r3, r2
 1195 01e4 00F2D180 		bhi	.L99
 1196              	.LVL156:
3092:.\ff.c        **** 
 1197              		.loc 1 3092 0
 1198 01e8 40F6F572 		movw	r2, #4085
 1199 01ec 9342     		cmp	r3, r2
 1200 01ee 00F2AF80 		bhi	.L197
 1201              	.LVL157:
3095:.\ff.c        **** 		fs->volbase = bsect;								/* Volume start sector */
 1202              		.loc 1 3095 0
 1203 01f2 0233     		adds	r3, r3, #2
 1204              	.LVL158:
3097:.\ff.c        **** 		fs->database = bsect + sysect;						/* Data start sector */
 1205              		.loc 1 3097 0
 1206 01f4 04EB0C02 		add	r2, r4, ip
3098:.\ff.c        **** 		if (fmt == FS_FAT32) {
 1207              		.loc 1 3098 0
 1208 01f8 A644     		add	lr, lr, r4
 1209              	.LVL159:
3095:.\ff.c        **** 		fs->volbase = bsect;								/* Volume start sector */
 1210              		.loc 1 3095 0
ARM GAS  C:\Users\honet\AppData\Local\Temp\cc5ZMQU6.s 			page 81


 1211 01fa 6B61     		str	r3, [r5, #20]
3097:.\ff.c        **** 		fs->database = bsect + sysect;						/* Data start sector */
 1212              		.loc 1 3097 0
 1213 01fc 2A62     		str	r2, [r5, #32]
3098:.\ff.c        **** 		if (fmt == FS_FAT32) {
 1214              		.loc 1 3098 0
 1215 01fe C5F828E0 		str	lr, [r5, #40]
3096:.\ff.c        **** 		fs->fatbase = bsect + nrsv; 						/* FAT start sector */
 1216              		.loc 1 3096 0
 1217 0202 EC61     		str	r4, [r5, #28]
3105:.\ff.c        **** 			fs->dirbase = fs->fatbase + fasize;				/* Root directory start sector */
 1218              		.loc 1 3105 0
 1219 0204 002F     		cmp	r7, #0
 1220 0206 3FF460AF 		beq	.L96
3108:.\ff.c        **** 		}
 1221              		.loc 1 3108 0
 1222 020a 03F00104 		and	r4, r3, #1
 1223 020e 04F2FF14 		addw	r4, r4, #511
 1224 0212 03EB4303 		add	r3, r3, r3, lsl #1
 1225              	.LVL160:
3110:.\ff.c        **** 
 1226              		.loc 1 3110 0
 1227 0216 04EB5303 		add	r3, r4, r3, lsr #1
3106:.\ff.c        **** 			szbfat = (fmt == FS_FAT16) ?					/* (Needed FAT size) */
 1228              		.loc 1 3106 0
 1229 021a 0244     		add	r2, r2, r0
3110:.\ff.c        **** 
 1230              		.loc 1 3110 0
 1231 021c B1EB532F 		cmp	r1, r3, lsr #9
3106:.\ff.c        **** 			szbfat = (fmt == FS_FAT16) ?					/* (Needed FAT size) */
 1232              		.loc 1 3106 0
 1233 0220 6A62     		str	r2, [r5, #36]
 1234              	.LVL161:
3110:.\ff.c        **** 
 1235              		.loc 1 3110 0
 1236 0222 FFF452AF 		bcc	.L96
3114:.\ff.c        **** 		fs->fsi_flag = 0x80;
 1237              		.loc 1 3114 0
 1238 0226 4FF0FF33 		mov	r3, #-1
3115:.\ff.c        **** #if (_FS_NOFSINFO & 3) != 3
 1239              		.loc 1 3115 0
 1240 022a 8022     		movs	r2, #128
 1241 022c 2A71     		strb	r2, [r5, #4]
3114:.\ff.c        **** 		fs->fsi_flag = 0x80;
 1242              		.loc 1 3114 0
 1243 022e 2B61     		str	r3, [r5, #16]
 1244 0230 EB60     		str	r3, [r5, #12]
 1245 0232 0122     		movs	r2, #1
 1246              	.LVL162:
 1247              	.L104:
3139:.\ff.c        **** #if _USE_LFN == 1
 1248              		.loc 1 3139 0
 1249 0234 B388     		ldrh	r3, [r6, #4]
3138:.\ff.c        **** 	fs->id = ++Fsid;	/* File system mount ID */
 1250              		.loc 1 3138 0
 1251 0236 2A70     		strb	r2, [r5]
3139:.\ff.c        **** #if _USE_LFN == 1
ARM GAS  C:\Users\honet\AppData\Local\Temp\cc5ZMQU6.s 			page 82


 1252              		.loc 1 3139 0
 1253 0238 0133     		adds	r3, r3, #1
 1254 023a 9BB2     		uxth	r3, r3
 1255 023c B380     		strh	r3, [r6, #4]	@ movhi
 1256 023e EB80     		strh	r3, [r5, #6]	@ movhi
 1257              	.LVL163:
 1258              	.L178:
3152:.\ff.c        **** }
 1259              		.loc 1 3152 0
 1260 0240 0020     		movs	r0, #0
 1261 0242 06E7     		b	.L166
 1262              	.LVL164:
 1263              	.L196:
 1264              	.LBB521:
 1265              	.LBB503:
 1266              	.LBB500:
 1267              	.LBB499:
2924:.\ff.c        **** 		if ((ld_dword(fs->win + BS_FilSysType) & 0xFFFFFF) == 0x544146) return 0;	/* Check "FAT" string *
 1268              		.loc 1 2924 0
 1269 0244 95F83030 		ldrb	r3, [r5, #48]	@ zero_extendqisi2
 1270 0248 E92B     		cmp	r3, #233
 1271 024a 3FF440AF 		beq	.L83
 1272 024e 2B6B     		ldr	r3, [r5, #48]
 1273 0250 3E4A     		ldr	r2, .L202+12
